	.file	"imgui.cpp"
	.text
	.p2align 4,,15
	.def	_ZL19ChildWindowComparerPKvS0_;	.scl	3;	.type	32;	.endef
	.seh_proc	_ZL19ChildWindowComparerPKvS0_
_ZL19ChildWindowComparerPKvS0_:
.LFB409:
	.seh_endprologue
	movq	(%rcx), %r10
	movq	(%rdx), %r9
	movl	12(%r10), %ecx
	movl	12(%r9), %edx
	movl	%ecx, %eax
	movl	%edx, %r8d
	andl	$33554432, %eax
	andl	$33554432, %r8d
	subl	%r8d, %eax
	jne	.L2
	movl	%ecx, %eax
	movl	%edx, %r8d
	andl	$16777216, %eax
	andl	$16777216, %r8d
	subl	%r8d, %eax
	jne	.L2
	movl	%ecx, %eax
	andl	$8388608, %edx
	andl	$8388608, %eax
	subl	%edx, %eax
	jne	.L2
	movl	16(%r10), %eax
	subl	16(%r9), %eax
.L2:
	rep ret
	.seh_endproc
	.p2align 4,,15
	.def	_ZL22FindBestPopupWindowPosRK6ImVec2S1_PiRK6ImRect;	.scl	3;	.type	32;	.endef
	.seh_proc	_ZL22FindBestPopupWindowPosRK6ImVec2S1_PiRK6ImRect
_ZL22FindBestPopupWindowPosRK6ImVec2S1_PiRK6ImRect:
.LFB492:
	subq	$184, %rsp
	.seh_stackalloc	184
	movaps	%xmm6, 16(%rsp)
	.seh_savexmm	%xmm6, 16
	movaps	%xmm7, 32(%rsp)
	.seh_savexmm	%xmm7, 32
	movaps	%xmm8, 48(%rsp)
	.seh_savexmm	%xmm8, 48
	movaps	%xmm9, 64(%rsp)
	.seh_savexmm	%xmm9, 64
	movaps	%xmm10, 80(%rsp)
	.seh_savexmm	%xmm10, 80
	movaps	%xmm11, 96(%rsp)
	.seh_savexmm	%xmm11, 96
	movaps	%xmm12, 112(%rsp)
	.seh_savexmm	%xmm12, 112
	movaps	%xmm13, 128(%rsp)
	.seh_savexmm	%xmm13, 128
	movaps	%xmm14, 144(%rsp)
	.seh_savexmm	%xmm14, 144
	movaps	%xmm15, 160(%rsp)
	.seh_savexmm	%xmm15, 160
	.seh_endprologue
	movq	GImGui(%rip), %rax
	movss	176(%rax), %xmm0
	movss	184(%rax), %xmm2
	ucomiss	%xmm0, %xmm2
	movss	5232(%rax), %xmm8
	movss	5236(%rax), %xmm4
	jp	.L64
	jne	.L64
.L8:
	xorps	%xmm1, %xmm1
	movss	12(%rax), %xmm5
	movss	8(%rax), %xmm2
	movaps	%xmm1, %xmm0
.L10:
	movaps	%xmm5, %xmm3
	movss	4(%rdx), %xmm6
	movaps	%xmm6, %xmm7
	subss	%xmm1, %xmm3
	subss	%xmm3, %xmm7
	movaps	%xmm4, %xmm3
	addss	%xmm4, %xmm3
	cmpltss	%xmm7, %xmm3
	movss	(%rdx), %xmm7
	movaps	%xmm7, %xmm9
	andps	%xmm4, %xmm3
	movaps	%xmm2, %xmm4
	subss	%xmm0, %xmm4
	addss	%xmm3, %xmm1
	subss	%xmm3, %xmm5
	subss	%xmm4, %xmm9
	movaps	%xmm8, %xmm4
	movaps	%xmm1, %xmm3
	addss	%xmm8, %xmm4
	movaps	%xmm5, %xmm11
	subss	%xmm6, %xmm11
	cmpltss	%xmm9, %xmm4
	andps	%xmm8, %xmm4
	movss	4(%rcx), %xmm8
	ucomiss	%xmm8, %xmm1
	subss	%xmm4, %xmm2
	addss	%xmm4, %xmm0
	movaps	%xmm5, %xmm4
	movaps	%xmm2, %xmm12
	subss	%xmm7, %xmm12
	ja	.L13
	movaps	%xmm11, %xmm3
	minss	%xmm8, %xmm3
.L13:
	movss	(%rcx), %xmm9
	movaps	%xmm0, %xmm5
	ucomiss	%xmm9, %xmm0
	ja	.L15
	movaps	%xmm12, %xmm5
	minss	%xmm9, %xmm5
.L15:
	movl	(%r8), %ecx
	xorl	%edx, %edx
	cmpl	$-1, %ecx
	setne	%dl
	jne	.L87
	xorl	%eax, %eax
.L81:
	movaps	%xmm1, %xmm14
	movaps	%xmm2, %xmm10
	movaps	%xmm4, %xmm13
	movss	8(%r9), %xmm15
.L19:
	subss	%xmm15, %xmm10
	ucomiss	%xmm10, %xmm7
	ja	.L22
	subss	%xmm14, %xmm13
	ucomiss	%xmm13, %xmm6
	jbe	.L23
.L22:
	movl	$1, %eax
	subl	%edx, %eax
	cmpl	$1, %eax
	jne	.L88
	movaps	%xmm0, %xmm10
	movss	12(%r9), %xmm13
.L26:
	movaps	%xmm2, %xmm15
	subss	%xmm10, %xmm15
	ucomiss	%xmm15, %xmm7
	ja	.L27
	movaps	%xmm4, %xmm10
	subss	%xmm13, %xmm10
	ucomiss	%xmm10, %xmm6
	jbe	.L82
.L27:
	movl	$2, %eax
	subl	%edx, %eax
	cmpl	$2, %eax
	jne	.L89
	movaps	%xmm1, %xmm14
	movss	4(%r9), %xmm10
.L31:
	movaps	%xmm2, %xmm13
	subss	%xmm0, %xmm13
	ucomiss	%xmm13, %xmm7
	ja	.L32
	subss	%xmm14, %xmm10
	ucomiss	%xmm10, %xmm6
	jbe	.L23
.L32:
	movl	$3, %eax
	subl	%edx, %eax
	cmpl	$2, %eax
	jne	.L90
	movaps	%xmm2, %xmm10
	movss	4(%r9), %xmm13
.L35:
	subss	%xmm0, %xmm10
	ucomiss	%xmm10, %xmm7
	ja	.L36
	subss	%xmm1, %xmm13
	ucomiss	%xmm13, %xmm6
	jbe	.L37
.L36:
	incl	%ecx
	je	.L39
	movss	(%r9), %xmm10
	subss	%xmm0, %xmm10
	ucomiss	%xmm10, %xmm7
	ja	.L39
	movaps	%xmm4, %xmm10
	movl	$3, %eax
	subss	%xmm1, %xmm10
	ucomiss	%xmm10, %xmm6
	jbe	.L37
.L39:
	addss	%xmm7, %xmm9
	movl	$-1, (%r8)
	ucomiss	%xmm9, %xmm2
	jbe	.L44
	movaps	%xmm9, %xmm12
	subss	%xmm7, %xmm12
.L44:
	addss	%xmm6, %xmm8
	movaps	%xmm0, %xmm2
	cmpnless	%xmm12, %xmm2
	ucomiss	%xmm8, %xmm4
	andps	%xmm2, %xmm0
	andnps	%xmm12, %xmm2
	orps	%xmm2, %xmm0
	ja	.L91
.L48:
	movaps	%xmm1, %xmm2
	movss	%xmm0, (%rsp)
	movl	(%rsp), %edx
	cmpnless	%xmm11, %xmm2
	andps	%xmm2, %xmm1
	movl	%edx, %eax
	andnps	%xmm11, %xmm2
	orps	%xmm1, %xmm2
	movss	%xmm2, (%rsp)
	movq	(%rsp), %rcx
	salq	$32, %rcx
	orq	%rcx, %rax
.L85:
	movaps	16(%rsp), %xmm6
	movaps	32(%rsp), %xmm7
	movaps	48(%rsp), %xmm8
	movaps	64(%rsp), %xmm9
	movaps	80(%rsp), %xmm10
	movaps	96(%rsp), %xmm11
	movaps	112(%rsp), %xmm12
	movaps	128(%rsp), %xmm13
	movaps	144(%rsp), %xmm14
	movaps	160(%rsp), %xmm15
	addq	$184, %rsp
	ret
	.p2align 4,,7
.L64:
	movss	180(%rax), %xmm1
	movss	188(%rax), %xmm5
	ucomiss	%xmm1, %xmm5
	jp	.L10
	jne	.L10
	jmp	.L8
	.p2align 4,,7
.L91:
	movaps	%xmm8, %xmm11
	subss	%xmm6, %xmm11
	.p2align 4,,2
	jmp	.L48
	.p2align 4,,7
.L23:
	cmpl	$1, %eax
	movl	%eax, (%r8)
	je	.L52
.L53:
	cmpl	$2, %eax
	je	.L92
.L41:
	testl	%eax, %eax
	jne	.L42
	movss	8(%r9), %xmm5
.L40:
	movss	%xmm5, (%rsp)
	movl	(%rsp), %ecx
	movss	%xmm3, (%rsp)
	movl	(%rsp), %eax
	movq	%rax, %rdx
	movl	%ecx, %eax
	salq	$32, %rdx
	orq	%rdx, %rax
	jmp	.L85
	.p2align 4,,7
.L88:
	movss	8(%r9), %xmm10
	movaps	%xmm1, %xmm13
	jmp	.L26
	.p2align 4,,7
.L90:
	movss	(%r9), %xmm10
	movaps	%xmm4, %xmm13
	jmp	.L35
	.p2align 4,,7
.L89:
	movss	12(%r9), %xmm14
	movaps	%xmm4, %xmm10
	jmp	.L31
	.p2align 4,,7
.L37:
	movl	%eax, (%r8)
	jmp	.L53
	.p2align 4,,7
.L82:
	cmpl	$1, %eax
	movl	%eax, (%r8)
	jne	.L41
	.p2align 4,,7
.L52:
	movss	12(%r9), %xmm3
	jmp	.L40
	.p2align 4,,7
.L92:
	movss	4(%r9), %xmm3
	subss	%xmm6, %xmm3
	jmp	.L40
.L42:
	cmpl	$3, %eax
	jne	.L40
	movss	(%r9), %xmm5
	subss	%xmm7, %xmm5
	jmp	.L40
.L87:
	cmpl	$2, %ecx
	jne	.L93
	movss	4(%r9), %xmm13
	movl	$2, %eax
	movaps	%xmm1, %xmm14
	movaps	%xmm2, %xmm10
	movaps	%xmm0, %xmm15
	jmp	.L19
.L93:
	cmpl	$3, %ecx
	movl	%ecx, %eax
	je	.L94
	cmpl	$1, %ecx
	jne	.L21
	movss	12(%r9), %xmm14
	movaps	%xmm2, %xmm10
	movaps	%xmm4, %xmm13
	movaps	%xmm0, %xmm15
	jmp	.L19
.L94:
	movss	(%r9), %xmm10
	movaps	%xmm1, %xmm14
	movaps	%xmm4, %xmm13
	movaps	%xmm0, %xmm15
	jmp	.L19
	.p2align 4,,7
.L21:
	testl	%ecx, %ecx
	je	.L81
	movaps	%xmm1, %xmm14
	movaps	%xmm2, %xmm10
	movaps	%xmm4, %xmm13
	movaps	%xmm0, %xmm15
	jmp	.L19
	.seh_endproc
	.p2align 4,,15
	.def	_ZL27ApplySizeFullWithConstraintP11ImGuiWindow6ImVec2;	.scl	3;	.type	32;	.endef
	.seh_proc	_ZL27ApplySizeFullWithConstraintP11ImGuiWindow6ImVec2
_ZL27ApplySizeFullWithConstraintP11ImGuiWindow6ImVec2:
.LFB495:
	pushq	%rsi
	.seh_pushreg	%rsi
	pushq	%rbx
	.seh_pushreg	%rbx
	subq	$104, %rsp
	.seh_stackalloc	104
	movaps	%xmm6, 80(%rsp)
	.seh_savexmm	%xmm6, 80
	.seh_endprologue
	movq	%rcx, %rsi
	movq	GImGui(%rip), %rbx
	movl	%edx, 44(%rsp)
	shrq	$32, %rdx
	movss	44(%rsp), %xmm1
	movl	%edx, 44(%rsp)
	movss	44(%rsp), %xmm0
	cmpb	$0, 6296(%rbx)
	je	.L96
	xorps	%xmm2, %xmm2
	movss	6268(%rbx), %xmm6
	movss	6260(%rbx), %xmm4
	movss	6264(%rbx), %xmm3
	ucomiss	%xmm2, %xmm6
	movss	6272(%rbx), %xmm5
	jb	.L97
	ucomiss	%xmm2, %xmm4
	jb	.L97
	ucomiss	%xmm1, %xmm4
	jbe	.L122
	movaps	%xmm4, %xmm1
	.p2align 4,,2
	jmp	.L98
	.p2align 4,,7
.L99:
	movss	48(%rsi), %xmm0
.L100:
	movq	6280(%rbx), %rax
	testq	%rax, %rax
	je	.L96
	movq	6288(%rbx), %rdx
	movss	%xmm1, 72(%rsp)
	leaq	48(%rsp), %rcx
	movss	%xmm0, 76(%rsp)
	movq	%rdx, 48(%rsp)
	movq	28(%rsi), %rdx
	movq	%rdx, 56(%rsp)
	movq	44(%rsi), %rdx
	movq	%rdx, 64(%rsp)
	call	*%rax
	movss	72(%rsp), %xmm1
	movss	76(%rsp), %xmm0
.L96:
	testl	$1048640, 12(%rsi)
	jne	.L101
	movss	5136(%rbx), %xmm3
	movaps	%xmm3, %xmm2
	cmpless	%xmm0, %xmm2
	andps	%xmm2, %xmm0
	andnps	%xmm3, %xmm2
	movss	5132(%rbx), %xmm3
	orps	%xmm2, %xmm0
	movaps	%xmm3, %xmm2
	cmpless	%xmm1, %xmm2
	andps	%xmm2, %xmm1
	andnps	%xmm3, %xmm2
	orps	%xmm2, %xmm1
.L101:
	movaps	80(%rsp), %xmm6
	movss	%xmm1, 44(%rsi)
	movss	%xmm0, 48(%rsi)
	addq	$104, %rsp
	popq	%rbx
	popq	%rsi
	ret
	.p2align 4,,7
.L97:
	movss	44(%rsi), %xmm1
.L98:
	ucomiss	%xmm2, %xmm5
	jb	.L99
	ucomiss	%xmm2, %xmm3
	jb	.L99
	ucomiss	%xmm0, %xmm3
	jbe	.L123
	movaps	%xmm3, %xmm0
	.p2align 4,,2
	jmp	.L100
	.p2align 4,,7
.L123:
	minss	%xmm0, %xmm5
	movaps	%xmm5, %xmm0
	jmp	.L100
	.p2align 4,,7
.L122:
	minss	%xmm1, %xmm6
	movaps	%xmm6, %xmm1
	jmp	.L98
	.seh_endproc
	.p2align 4,,15
	.def	_ZL16Plot_ArrayGetterPvi;	.scl	3;	.type	32;	.endef
	.seh_proc	_ZL16Plot_ArrayGetterPvi
_ZL16Plot_ArrayGetterPvi:
.LFB686:
	.seh_endprologue
	movslq	8(%rcx), %rax
	movslq	%edx, %rdx
	imulq	%rax, %rdx
	movq	(%rcx), %rax
	movss	(%rax,%rdx), %xmm0
	ret
	.seh_endproc
	.p2align 4,,15
	.def	_ZN8ImGuiStbL25stb_textedit_move_to_lastEP18ImGuiTextEditStatePNS_17STB_TexteditStateE;	.scl	3;	.type	32;	.endef
	.seh_proc	_ZN8ImGuiStbL25stb_textedit_move_to_lastEP18ImGuiTextEditStatePNS_17STB_TexteditStateE
_ZN8ImGuiStbL25stb_textedit_move_to_lastEP18ImGuiTextEditStatePNS_17STB_TexteditStateE:
.LFB718:
	.seh_endprologue
	movl	4(%rdx), %eax
	movl	8(%rdx), %r8d
	cmpl	%r8d, %eax
	je	.L125
	jg	.L134
	movl	60(%rcx), %ecx
	movl	%r8d, %r9d
	movl	%eax, %r8d
	movl	%r9d, %eax
.L130:
	cmpl	%r8d, %ecx
	jge	.L133
	movl	%ecx, 4(%rdx)
.L133:
	cmpl	%ecx, %eax
	jle	.L132
	movl	%ecx, 8(%rdx)
	movl	%ecx, %eax
.L132:
	movl	%eax, (%rdx)
	movl	%eax, 4(%rdx)
	movb	$0, 15(%rdx)
	ret
	.p2align 4,,7
.L125:
	rep ret
	.p2align 4,,7
.L134:
	movl	%eax, 8(%rdx)
	movl	%r8d, 4(%rdx)
	movl	60(%rcx), %ecx
	jmp	.L130
	.seh_endproc
	.p2align 4,,15
	.def	_ZL17Items_ArrayGetterPviPPKc;	.scl	3;	.type	32;	.endef
	.seh_proc	_ZL17Items_ArrayGetterPviPPKc
_ZL17Items_ArrayGetterPviPPKc:
.LFB753:
	.seh_endprologue
	testq	%r8, %r8
	je	.L136
	movslq	%edx, %rdx
	movq	(%rcx,%rdx,8), %rax
	movq	%rax, (%r8)
.L136:
	movl	$1, %eax
	ret
	.seh_endproc
	.p2align 4,,15
	.def	__tcf_0;	.scl	3;	.type	32;	.endef
	.seh_proc	__tcf_0
__tcf_0:
.LFB5782:
	.seh_endprologue
	movq	8+_ZZL30GetClipboardTextFn_DefaultImplPvE9buf_local(%rip), %rcx
	testq	%rcx, %rcx
	je	.L140
	movq	GImGui(%rip), %rax
	decl	844(%rax)
	rex.W jmp *240(%rax)
	.p2align 4,,7
.L140:
	rep ret
	.def	__gxx_personality_seh0;	.scl	2;	.type	32;	.endef
	.seh_handler	__gxx_personality_seh0, @unwind, @except
	.seh_handlerdata
.LLSDA5782:
	.byte	0xff
	.byte	0xff
	.byte	0x1
	.uleb128 .LLSDACSE5782-.LLSDACSB5782
.LLSDACSB5782:
.LLSDACSE5782:
	.text
	.seh_endproc
	.p2align 4,,15
	.def	_ZL34ImeSetInputScreenPosFn_DefaultImplii;	.scl	3;	.type	32;	.endef
	.seh_proc	_ZL34ImeSetInputScreenPosFn_DefaultImplii
_ZL34ImeSetInputScreenPosFn_DefaultImplii:
.LFB5784:
	.seh_endprologue
	ret
	.seh_endproc
	.p2align 4,,15
	.def	_ZL24Items_SingleStringGetterPviPPKc;	.scl	3;	.type	32;	.endef
	.seh_proc	_ZL24Items_SingleStringGetterPviPPKc
_ZL24Items_SingleStringGetterPviPPKc:
.LFB754:
	pushq	%rbp
	.seh_pushreg	%rbp
	pushq	%rdi
	.seh_pushreg	%rdi
	pushq	%rsi
	.seh_pushreg	%rsi
	pushq	%rbx
	.seh_pushreg	%rbx
	subq	$40, %rsp
	.seh_stackalloc	40
	.seh_endprologue
	cmpb	$0, (%rcx)
	movq	%rcx, %rbx
	movq	%r8, %rbp
	je	.L150
	testl	%edx, %edx
	je	.L145
	leal	-1(%rdx), %edi
	xorl	%esi, %esi
	incq	%rdi
	jmp	.L146
	.p2align 4,,7
.L154:
	incq	%rsi
	cmpq	%rsi, %rdi
	je	.L145
.L146:
	movq	%rbx, %rcx
	call	strlen
	leaq	1(%rbx,%rax), %rbx
	cmpb	$0, (%rbx)
	jne	.L154
.L150:
	xorl	%eax, %eax
.L155:
	addq	$40, %rsp
	popq	%rbx
	popq	%rsi
	popq	%rdi
	popq	%rbp
	ret
	.p2align 4,,7
.L145:
	testq	%rbp, %rbp
	je	.L156
	movl	$1, %eax
	movq	%rbx, 0(%rbp)
	addq	$40, %rsp
	popq	%rbx
	popq	%rsi
	popq	%rdi
	popq	%rbp
	ret
.L156:
	movl	$1, %eax
	jmp	.L155
	.seh_endproc
	.section .rdata,"dr"
	.align 8
.LC10:
	.ascii "C:/libraries/include/imgui/imgui.h\0"
.LC11:
	.ascii "i < Size\0"
	.text
	.p2align 4,,15
	.def	_ZL17FindHoveredWindow6ImVec2b;	.scl	3;	.type	32;	.endef
	.seh_proc	_ZL17FindHoveredWindow6ImVec2b
_ZL17FindHoveredWindow6ImVec2b:
.LFB429:
	pushq	%rbp
	.seh_pushreg	%rbp
	pushq	%rdi
	.seh_pushreg	%rdi
	pushq	%rsi
	.seh_pushreg	%rsi
	pushq	%rbx
	.seh_pushreg	%rbx
	subq	$72, %rsp
	.seh_stackalloc	72
	movaps	%xmm6, 48(%rsp)
	.seh_savexmm	%xmm6, 48
	.seh_endprologue
	movq	%rcx, %rbp
	movq	GImGui(%rip), %rsi
	movl	5976(%rsi), %eax
	movl	%eax, %ebx
	decl	%ebx
	js	.L158
	shrq	$32, %rcx
	movslq	%ebx, %rdi
	salq	$3, %rdi
	movl	%ecx, 44(%rsp)
	testb	%dl, %dl
	movss	44(%rsp), %xmm6
	je	.L165
	cmpl	%eax, %ebx
	jge	.L186
	.p2align 4,,7
.L167:
	movq	5984(%rsi), %rax
	movq	(%rax,%rdi), %rax
	cmpb	$0, 136(%rax)
	je	.L168
	movl	12(%rax), %edx
	testb	$2, %dh
	jne	.L168
	andl	$1048576, %edx
	jne	.L168
	movss	5184(%rsi), %xmm2
	movl	%ebp, 44(%rsp)
	movss	528(%rax), %xmm1
	subss	%xmm2, %xmm1
	movss	44(%rsp), %xmm0
	ucomiss	%xmm1, %xmm0
	jb	.L168
	addss	536(%rax), %xmm2
	movss	5188(%rsi), %xmm1
	ucomiss	%xmm0, %xmm2
	movss	532(%rax), %xmm0
	subss	%xmm1, %xmm0
	seta	%cl
	ucomiss	%xmm0, %xmm6
	setnb	%dl
	testb	%dl, %cl
	je	.L168
	addss	540(%rax), %xmm1
	ucomiss	%xmm6, %xmm1
	ja	.L166
	.p2align 4,,7
.L168:
	decl	%ebx
	subq	$8, %rdi
	cmpl	$-1, %ebx
	je	.L158
	movl	5976(%rsi), %eax
	cmpl	%eax, %ebx
	jl	.L167
.L186:
	leaq	.LC10(%rip), %rdx
	leaq	.LC11(%rip), %rcx
	movl	$856, %r8d
	call	_assert
	jmp	.L167
	.p2align 4,,7
.L188:
	addss	540(%rax), %xmm3
	ucomiss	%xmm6, %xmm3
	ja	.L166
	.p2align 4,,7
.L161:
	decl	%ebx
	subq	$8, %rdi
	cmpl	$-1, %ebx
	je	.L158
	movl	5976(%rsi), %eax
.L165:
	cmpl	%ebx, %eax
	jle	.L187
.L160:
	movq	5984(%rsi), %rax
	movq	(%rax,%rdi), %rax
	cmpb	$0, 136(%rax)
	je	.L161
	testb	$2, 13(%rax)
	jne	.L161
	movss	5184(%rsi), %xmm2
	movl	%ebp, 44(%rsp)
	movss	528(%rax), %xmm1
	subss	%xmm2, %xmm1
	movss	44(%rsp), %xmm0
	ucomiss	%xmm1, %xmm0
	jb	.L161
	movss	5188(%rsi), %xmm3
	addss	536(%rax), %xmm2
	movss	532(%rax), %xmm1
	subss	%xmm3, %xmm1
	ucomiss	%xmm1, %xmm6
	setnb	%cl
	ucomiss	%xmm0, %xmm2
	seta	%dl
	testb	%dl, %cl
	jne	.L188
	jmp	.L161
	.p2align 4,,7
.L187:
	leaq	.LC10(%rip), %rdx
	leaq	.LC11(%rip), %rcx
	movl	$856, %r8d
	call	_assert
	jmp	.L160
	.p2align 4,,7
.L158:
	xorl	%eax, %eax
.L166:
	movaps	48(%rsp), %xmm6
	addq	$72, %rsp
	popq	%rbx
	popq	%rsi
	popq	%rdi
	popq	%rbp
	ret
	.seh_endproc
	.p2align 4,,15
	.def	_ZL11IsPopupOpenj;	.scl	3;	.type	32;	.endef
	.seh_proc	_ZL11IsPopupOpenj
_ZL11IsPopupOpenj:
.LFB469:
	.seh_endprologue
	movq	GImGui(%rip), %r8
	xorl	%eax, %eax
	movslq	6200(%r8), %rdx
	cmpl	%edx, 6184(%r8)
	jle	.L190
	movq	%rdx, %rax
	salq	$5, %rax
	leaq	(%rax,%rdx,8), %rax
	addq	6192(%r8), %rax
	cmpl	%ecx, (%rax)
	sete	%al
.L190:
	rep ret
	.seh_endproc
	.section .rdata,"dr"
.LC12:
	.ascii "%d\0"
.LC13:
	.ascii "%f\0"
	.text
	.p2align 4,,15
	.def	_ZL23DataTypeApplyOpFromTextPKcS0_13ImGuiDataTypePvS0_;	.scl	3;	.type	32;	.endef
	.seh_proc	_ZL23DataTypeApplyOpFromTextPKcS0_13ImGuiDataTypePvS0_
_ZL23DataTypeApplyOpFromTextPKcS0_13ImGuiDataTypePvS0_:
.LFB650:
	pushq	%r12
	.seh_pushreg	%r12
	pushq	%rbp
	.seh_pushreg	%rbp
	pushq	%rdi
	.seh_pushreg	%rdi
	pushq	%rsi
	.seh_pushreg	%rsi
	pushq	%rbx
	.seh_pushreg	%rbx
	subq	$96, %rsp
	.seh_stackalloc	96
	movaps	%xmm6, 64(%rsp)
	.seh_savexmm	%xmm6, 64
	movaps	%xmm7, 80(%rsp)
	.seh_savexmm	%xmm7, 80
	.seh_endprologue
	movq	%rcx, %rbx
	movq	%rdx, %rcx
	movsbl	(%rbx), %eax
	cmpl	$9, %eax
	movl	%eax, %esi
	jne	.L240
	.p2align 4,,7
.L232:
	incq	%rbx
	movsbl	(%rbx), %eax
	cmpl	$9, %eax
	movl	%eax, %esi
	je	.L232
.L240:
	cmpl	$32, %eax
	je	.L232
	leal	-42(%rsi), %eax
	cmpb	$1, %al
	jbe	.L220
	cmpb	$47, %sil
	je	.L220
	movl	%esi, %eax
	xorl	%esi, %esi
.L221:
	xorl	%edi, %edi
	testb	%al, %al
	je	.L231
	testl	%r8d, %r8d
	jne	.L197
	cmpq	$0, 176(%rsp)
	leaq	.LC12(%rip), %rax
	movl	(%r9), %ebp
	cmovne	176(%rsp), %rax
	testb	%sil, %sil
	movl	%ebp, 56(%rsp)
	movq	%rax, 176(%rsp)
	jne	.L244
	leaq	56(%rsp), %r12
	movl	$0x00000000, 60(%rsp)
.L206:
	movq	176(%rsp), %rdx
	movq	%r12, %r8
	movq	%rbx, %rcx
	movq	%r9, 40(%rsp)
	call	sscanf
	decl	%eax
	movq	40(%rsp), %r9
	je	.L210
.L239:
	movl	(%r9), %eax
.L203:
	cmpl	%eax, %ebp
	setne	%dil
.L231:
	movaps	64(%rsp), %xmm6
	movl	%edi, %eax
	movaps	80(%rsp), %xmm7
	addq	$96, %rsp
	popq	%rbx
	popq	%rsi
	popq	%rdi
	popq	%rbp
	popq	%r12
	ret
	.p2align 4,,7
.L220:
	movsbl	1(%rbx), %edx
	leaq	1(%rbx), %r10
	movq	%r10, %rbx
	cmpl	$32, %edx
	movl	%edx, %eax
	jne	.L242
	.p2align 4,,7
.L233:
	incq	%rbx
	movsbl	(%rbx), %edx
	cmpl	$32, %edx
	movl	%edx, %eax
	je	.L233
.L242:
	cmpl	$9, %edx
	je	.L233
	jmp	.L221
	.p2align 4,,7
.L197:
	decl	%r8d
	.p2align 4,,5
	jne	.L231
	movss	(%r9), %xmm6
	testb	%sil, %sil
	movq	%r9, 40(%rsp)
	movss	%xmm6, 56(%rsp)
	jne	.L245
	leaq	60(%rsp), %r8
	leaq	.LC13(%rip), %rdx
	movq	%rbx, %rcx
	movl	$0x00000000, 60(%rsp)
	call	sscanf
	testl	%eax, %eax
	movq	40(%rsp), %r9
	jg	.L217
.L225:
	xorl	%edi, %edi
	jmp	.L231
.L244:
	leaq	56(%rsp), %r12
	movq	%rax, %rdx
	movq	%r9, 40(%rsp)
	movq	%r12, %r8
	call	sscanf
	testl	%eax, %eax
	movq	40(%rsp), %r9
	jle	.L231
	xorps	%xmm6, %xmm6
	cmpb	$43, %sil
	movss	%xmm6, 60(%rsp)
	je	.L246
	cmpb	$42, %sil
	je	.L247
	cmpb	$47, %sil
	jne	.L206
	leaq	60(%rsp), %r8
	leaq	.LC13(%rip), %rdx
	movq	%rbx, %rcx
	movq	%r9, 40(%rsp)
	call	sscanf
	decl	%eax
	movq	40(%rsp), %r9
	jne	.L239
	movss	60(%rsp), %xmm1
	ucomiss	%xmm6, %xmm1
	jp	.L208
	je	.L239
.L208:
	cvtsi2ss	56(%rsp), %xmm0
	divss	%xmm1, %xmm0
	cvttss2si	%xmm0, %eax
	movl	%eax, (%r9)
	jmp	.L203
.L210:
	movl	56(%rsp), %eax
	movl	%eax, (%r9)
	jmp	.L203
.L217:
	movss	60(%rsp), %xmm0
	movss	%xmm0, (%r9)
.L215:
	ucomiss	%xmm0, %xmm6
	movl	$1, %edi
	setp	%al
	cmove	%eax, %edi
	jmp	.L231
.L245:
	leaq	56(%rsp), %r8
	leaq	.LC13(%rip), %rdx
	call	sscanf
	testl	%eax, %eax
	movq	40(%rsp), %r9
	jle	.L225
	xorps	%xmm7, %xmm7
	leaq	60(%rsp), %r8
	leaq	.LC13(%rip), %rdx
	movq	%rbx, %rcx
	movq	%r9, 40(%rsp)
	movss	%xmm7, 60(%rsp)
	call	sscanf
	testl	%eax, %eax
	movq	40(%rsp), %r9
	jle	.L225
	cmpb	$43, %sil
	je	.L248
	cmpb	$42, %sil
	jne	.L216
	movss	56(%rsp), %xmm0
	mulss	60(%rsp), %xmm0
	movss	%xmm0, (%r9)
	jmp	.L215
.L246:
	leaq	60(%rsp), %r8
	leaq	.LC13(%rip), %rdx
	movq	%rbx, %rcx
	movq	%r9, 40(%rsp)
	call	sscanf
	decl	%eax
	movq	40(%rsp), %r9
	jne	.L239
	cvtsi2ss	56(%rsp), %xmm0
	addss	60(%rsp), %xmm0
	cvttss2si	%xmm0, %eax
	movl	%eax, (%r9)
	jmp	.L203
.L247:
	leaq	60(%rsp), %r8
	leaq	.LC13(%rip), %rdx
	movq	%rbx, %rcx
	movq	%r9, 40(%rsp)
	call	sscanf
	decl	%eax
	movq	40(%rsp), %r9
	jne	.L239
	cvtsi2ss	56(%rsp), %xmm0
	mulss	60(%rsp), %xmm0
	cvttss2si	%xmm0, %eax
	movl	%eax, (%r9)
	jmp	.L203
.L248:
	movss	56(%rsp), %xmm0
	addss	60(%rsp), %xmm0
	movss	%xmm0, (%r9)
	jmp	.L215
.L216:
	cmpb	$47, %sil
	jne	.L217
	movss	60(%rsp), %xmm1
	ucomiss	%xmm7, %xmm1
	jp	.L218
	jne	.L218
	movss	(%r9), %xmm0
	jmp	.L215
.L218:
	movss	56(%rsp), %xmm0
	divss	%xmm1, %xmm0
	movss	%xmm0, (%r9)
	jmp	.L215
	.seh_endproc
	.p2align 4,,15
	.def	_ZL24InputTextFilterCharacterPjiPFiP25ImGuiTextEditCallbackDataEPv;	.scl	3;	.type	32;	.endef
	.seh_proc	_ZL24InputTextFilterCharacterPjiPFiP25ImGuiTextEditCallbackDataEPv
_ZL24InputTextFilterCharacterPjiPFiP25ImGuiTextEditCallbackDataEPv:
.LFB738:
	pushq	%rbp
	.seh_pushreg	%rbp
	pushq	%rdi
	.seh_pushreg	%rdi
	pushq	%rsi
	.seh_pushreg	%rsi
	pushq	%rbx
	.seh_pushreg	%rbx
	subq	$136, %rsp
	.seh_stackalloc	136
	.seh_endprologue
	movl	(%rcx), %ebx
	movq	%rcx, %rbp
	cmpl	$127, %ebx
	ja	.L250
	cmpl	$32, %ebx
	je	.L250
	movq	%r9, 56(%rsp)
	movq	%r8, 48(%rsp)
	movl	%ebx, %ecx
	movl	%edx, 44(%rsp)
	call	*__imp_isprint(%rip)
	testl	%eax, %eax
	movl	44(%rsp), %edx
	movq	48(%rsp), %r8
	movq	56(%rsp), %r9
	jne	.L250
	cmpl	$10, %ebx
	je	.L286
	cmpl	$9, %ebx
	jne	.L259
	testb	$4, %dh
	.p2align 4,,2
	jne	.L252
	.p2align 4,,7
.L259:
	xorl	%esi, %esi
.L253:
	movl	%esi, %eax
	addq	$136, %rsp
	popq	%rbx
	popq	%rsi
	popq	%rdi
	popq	%rbp
	ret
	.p2align 4,,7
.L250:
	leal	-57344(%rbx), %eax
	cmpl	$6399, %eax
	jbe	.L259
.L252:
	testb	$15, %dl
	je	.L255
	testb	$1, %dl
	je	.L256
	leal	-45(%rbx), %eax
	cmpl	$12, %eax
	jbe	.L256
	leal	-42(%rbx), %eax
	cmpl	$1, %eax
	ja	.L259
	.p2align 4,,7
.L256:
	testb	$2, %dl
	je	.L257
	leal	-48(%rbx), %eax
	cmpl	$9, %eax
	jbe	.L257
	movl	%ebx, %eax
	andl	$-33, %eax
	subl	$65, %eax
	cmpl	$5, %eax
	ja	.L259
	.p2align 4,,7
.L257:
	testb	$4, %dl
	je	.L258
	leal	-97(%rbx), %eax
	cmpl	$25, %eax
	ja	.L258
	subl	$32, %ebx
	movl	%ebx, 0(%rbp)
.L258:
	testb	$8, %dl
	je	.L255
	cmpl	$32, %ebx
	sete	%cl
	cmpl	$9, %ebx
	sete	%al
	orb	%al, %cl
	jne	.L259
	cmpl	$12288, %ebx
	je	.L259
	.p2align 4,,7
.L255:
	testb	$2, %dh
	movl	$1, %esi
	je	.L253
	leaq	64(%rsp), %r10
	xorl	%eax, %eax
	movl	$7, %ecx
	movq	%r10, %rdi
	rep stosq
	movl	$512, 64(%rsp)
	movw	%bx, 82(%rsp)
	movq	%r10, %rcx
	movl	%edx, 68(%rsp)
	movq	%r9, 72(%rsp)
	call	*%r8
	testl	%eax, %eax
	jne	.L259
	movzwl	82(%rsp), %edx
	testw	%dx, %dx
	movl	%edx, 0(%rbp)
	je	.L259
	jmp	.L253
	.p2align 4,,7
.L286:
	testl	$1048576, %edx
	jne	.L252
	.p2align 4,,5
	jmp	.L259
	.seh_endproc
	.p2align 4,,15
	.def	__tcf_1;	.scl	3;	.type	32;	.endef
	.seh_proc	__tcf_1
__tcf_1:
.LFB6052:
	.seh_endprologue
	leaq	_ZL19GImDefaultFontAtlas(%rip), %rcx
	jmp	_ZN11ImFontAtlasD1Ev
	.seh_endproc
	.align 2
	.p2align 4,,15
	.def	_ZN8ImVectorIP11ImGuiWindowE7reserveEi.part.51;	.scl	3;	.type	32;	.endef
	.seh_proc	_ZN8ImVectorIP11ImGuiWindowE7reserveEi.part.51
_ZN8ImVectorIP11ImGuiWindowE7reserveEi.part.51:
.LFB6106:
	pushq	%rdi
	.seh_pushreg	%rdi
	pushq	%rsi
	.seh_pushreg	%rsi
	pushq	%rbx
	.seh_pushreg	%rbx
	subq	$32, %rsp
	.seh_stackalloc	32
	.seh_endprologue
	movq	GImGui(%rip), %rax
	movq	%rcx, %rbx
	movslq	%edx, %rcx
	movq	%rcx, %rsi
	salq	$3, %rcx
	incl	844(%rax)
	call	*232(%rax)
	movq	8(%rbx), %rcx
	movq	%rax, %rdi
	testq	%rcx, %rcx
	je	.L289
	movslq	(%rbx), %r8
	movq	%rcx, %rdx
	movq	%rax, %rcx
	salq	$3, %r8
	call	memcpy
	movq	8(%rbx), %rcx
	movq	GImGui(%rip), %rax
	testq	%rcx, %rcx
	je	.L291
	decl	844(%rax)
.L291:
	call	*240(%rax)
	movq	%rdi, 8(%rbx)
	movl	%esi, 4(%rbx)
	addq	$32, %rsp
	popq	%rbx
	popq	%rsi
	popq	%rdi
	ret
	.p2align 4,,7
.L289:
	movq	GImGui(%rip), %rax
	jmp	.L291
	.seh_endproc
	.section .rdata,"dr"
.LC14:
	.ascii "Size > 0\0"
	.align 8
.LC15:
	.ascii "C:/libraries/include/imgui/imgui.cpp\0"
	.align 8
.LC16:
	.ascii "draw_list->VtxBuffer.Size == 0 || draw_list->_VtxWritePtr == draw_list->VtxBuffer.Data + draw_list->VtxBuffer.Size\0"
	.align 8
.LC17:
	.ascii "draw_list->IdxBuffer.Size == 0 || draw_list->_IdxWritePtr == draw_list->IdxBuffer.Data + draw_list->IdxBuffer.Size\0"
	.align 8
.LC18:
	.ascii "(int)draw_list->_VtxCurrentIdx == draw_list->VtxBuffer.Size\0"
	.align 8
.LC19:
	.ascii "(int64_t)draw_list->_VtxCurrentIdx <= ((int64_t)1L << (sizeof(ImDrawIdx)*8))\0"
	.text
	.p2align 4,,15
	.def	_ZL23AddDrawListToRenderListR8ImVectorIP10ImDrawListES1_;	.scl	3;	.type	32;	.endef
	.seh_proc	_ZL23AddDrawListToRenderListR8ImVectorIP10ImDrawListES1_
_ZL23AddDrawListToRenderListR8ImVectorIP10ImDrawListES1_:
.LFB411:
	pushq	%rbp
	.seh_pushreg	%rbp
	pushq	%rdi
	.seh_pushreg	%rdi
	pushq	%rsi
	.seh_pushreg	%rsi
	pushq	%rbx
	.seh_pushreg	%rbx
	subq	$40, %rsp
	.seh_stackalloc	40
	.seh_endprologue
	movl	(%rdx), %eax
	movq	%rcx, %rsi
	movq	%rdx, %rbx
	testl	%eax, %eax
	jne	.L327
.L293:
	addq	$40, %rsp
	popq	%rbx
	popq	%rsi
	popq	%rdi
	popq	%rbp
	ret
	.p2align 4,,7
.L327:
	testl	%eax, %eax
	jle	.L328
.L296:
	movslq	%eax, %rdx
	movq	%rdx, %rcx
	salq	$6, %rdx
	salq	$4, %rcx
	subq	%rcx, %rdx
	movq	8(%rbx), %rcx
	leaq	-48(%rcx,%rdx), %rdx
	movl	(%rdx), %ecx
	testl	%ecx, %ecx
	jne	.L300
	cmpq	$0, 32(%rdx)
	je	.L329
.L300:
	movslq	32(%rbx), %rax
	testl	%eax, %eax
	je	.L298
	movq	%rax, %rdx
	salq	$4, %rdx
	leaq	(%rdx,%rax,4), %rax
	addq	40(%rbx), %rax
	cmpq	%rax, 64(%rbx)
	je	.L298
	leaq	.LC15(%rip), %rdx
	leaq	.LC16(%rip), %rcx
	movl	$2601, %r8d
	call	_assert
.L298:
	movslq	16(%rbx), %rax
	testl	%eax, %eax
	je	.L303
	movq	24(%rbx), %rdx
	leaq	(%rdx,%rax,2), %rax
	cmpq	%rax, 72(%rbx)
	je	.L303
	leaq	.LC15(%rip), %rdx
	leaq	.LC17(%rip), %rcx
	movl	$2602, %r8d
	call	_assert
.L303:
	movl	56(%rbx), %eax
	cmpl	32(%rbx), %eax
	je	.L304
	leaq	.LC15(%rip), %rdx
	leaq	.LC18(%rip), %rcx
	movl	$2603, %r8d
	call	_assert
	movl	56(%rbx), %eax
.L304:
	cmpq	$65536, %rax
	jg	.L330
.L305:
	movslq	(%rsi), %rdx
	cmpl	4(%rsi), %edx
	je	.L306
	movq	8(%rsi), %rax
	leal	1(%rdx), %r8d
.L307:
	movl	%r8d, (%rsi)
	movq	%rbx, (%rax,%rdx,8)
	movq	GImGui(%rip), %rax
	movl	32(%rbx), %edx
	addl	%edx, 848(%rax)
	movl	16(%rbx), %edx
	addl	%edx, 852(%rax)
	addq	$40, %rsp
	popq	%rbx
	popq	%rsi
	popq	%rdi
	popq	%rbp
	ret
	.p2align 4,,7
.L306:
	testl	%edx, %edx
	leal	1(%rdx), %r8d
	movl	$8, %eax
	je	.L308
	movl	%edx, %eax
	shrl	$31, %eax
	addl	%edx, %eax
	sarl	%eax
	addl	%edx, %eax
.L308:
	cmpl	%eax, %r8d
	cmovge	%r8d, %eax
	cmpl	%eax, %edx
	movl	%eax, %edi
	jl	.L309
	movq	8(%rsi), %rax
	jmp	.L307
	.p2align 4,,7
.L330:
	leaq	.LC15(%rip), %rdx
	leaq	.LC19(%rip), %rcx
	movl	$2607, %r8d
	call	_assert
	jmp	.L305
	.p2align 4,,7
.L309:
	movq	GImGui(%rip), %rax
	movslq	%edi, %rcx
	salq	$3, %rcx
	incl	844(%rax)
	call	*232(%rax)
	movq	8(%rsi), %rcx
	movq	%rax, %rbp
	testq	%rcx, %rcx
	je	.L310
	movslq	(%rsi), %r8
	movq	%rcx, %rdx
	movq	%rax, %rcx
	salq	$3, %r8
	call	memcpy
	movq	8(%rsi), %rcx
	movq	GImGui(%rip), %rax
	testq	%rcx, %rcx
	je	.L312
	decl	844(%rax)
.L312:
	call	*240(%rax)
	movslq	(%rsi), %rdx
	movq	%rbp, 8(%rsi)
	movq	%rbp, %rax
	movl	%edi, 4(%rsi)
	leal	1(%rdx), %r8d
	jmp	.L307
	.p2align 4,,7
.L329:
	testl	%eax, %eax
	jle	.L331
.L301:
	decl	%eax
	testl	%eax, %eax
	movl	%eax, (%rbx)
	jne	.L300
	.p2align 4,,3
	jmp	.L293
	.p2align 4,,7
.L310:
	movq	GImGui(%rip), %rax
	jmp	.L312
	.p2align 4,,7
.L328:
	leaq	.LC10(%rip), %rdx
	leaq	.LC14(%rip), %rcx
	movl	$866, %r8d
	call	_assert
	movl	(%rbx), %eax
	jmp	.L296
.L331:
	leaq	.LC10(%rip), %rdx
	leaq	.LC14(%rip), %rcx
	movl	$885, %r8d
	call	_assert
	movl	(%rbx), %eax
	jmp	.L301
	.seh_endproc
	.p2align 4,,15
	.def	_ZL21AddWindowToRenderListR8ImVectorIP10ImDrawListEP11ImGuiWindow;	.scl	3;	.type	32;	.endef
	.seh_proc	_ZL21AddWindowToRenderListR8ImVectorIP10ImDrawListEP11ImGuiWindow
_ZL21AddWindowToRenderListR8ImVectorIP10ImDrawListEP11ImGuiWindow:
.LFB412:
	pushq	%rbp
	.seh_pushreg	%rbp
	pushq	%rdi
	.seh_pushreg	%rdi
	pushq	%rsi
	.seh_pushreg	%rsi
	pushq	%rbx
	.seh_pushreg	%rbx
	subq	$40, %rsp
	.seh_stackalloc	40
	.seh_endprologue
	xorl	%esi, %esi
	xorl	%ebx, %ebx
	movq	%rdx, %rdi
	movq	656(%rdx), %rdx
	movq	%rcx, %rbp
	call	_ZL23AddDrawListToRenderListR8ImVectorIP10ImDrawListES1_
	movl	280(%rdi), %ecx
	testl	%ecx, %ecx
	jg	.L340
	jmp	.L332
	.p2align 4,,7
.L342:
	movl	168(%rdx), %eax
	testl	%eax, %eax
	jle	.L335
.L334:
	incl	%ebx
	addq	$8, %rsi
	cmpl	%ecx, %ebx
	jge	.L332
.L340:
	movq	288(%rdi), %rax
	movq	(%rax,%rsi), %rdx
	cmpb	$0, 136(%rdx)
	je	.L334
	testb	$2, 15(%rdx)
	jne	.L342
.L335:
	movq	%rbp, %rcx
	incl	%ebx
	addq	$8, %rsi
	call	_ZL21AddWindowToRenderListR8ImVectorIP10ImDrawListEP11ImGuiWindow
	movl	280(%rdi), %ecx
	cmpl	%ecx, %ebx
	jl	.L340
.L332:
	addq	$40, %rsp
	popq	%rbx
	popq	%rsi
	popq	%rdi
	popq	%rbp
	ret
	.seh_endproc
	.align 2
	.p2align 4,,15
	.def	_ZN8ImVectorIfE7reserveEi.part.98;	.scl	3;	.type	32;	.endef
	.seh_proc	_ZN8ImVectorIfE7reserveEi.part.98
_ZN8ImVectorIfE7reserveEi.part.98:
.LFB6153:
	pushq	%rdi
	.seh_pushreg	%rdi
	pushq	%rsi
	.seh_pushreg	%rsi
	pushq	%rbx
	.seh_pushreg	%rbx
	subq	$32, %rsp
	.seh_stackalloc	32
	.seh_endprologue
	movq	GImGui(%rip), %rax
	movq	%rcx, %rbx
	movslq	%edx, %rcx
	movq	%rcx, %rsi
	salq	$2, %rcx
	incl	844(%rax)
	call	*232(%rax)
	movq	8(%rbx), %rcx
	movq	%rax, %rdi
	testq	%rcx, %rcx
	je	.L344
	movslq	(%rbx), %r8
	movq	%rcx, %rdx
	movq	%rax, %rcx
	salq	$2, %r8
	call	memcpy
	movq	8(%rbx), %rcx
	movq	GImGui(%rip), %rax
	testq	%rcx, %rcx
	je	.L346
	decl	844(%rax)
.L346:
	call	*240(%rax)
	movq	%rdi, 8(%rbx)
	movl	%esi, 4(%rbx)
	addq	$32, %rsp
	popq	%rbx
	popq	%rsi
	popq	%rdi
	ret
	.p2align 4,,7
.L344:
	movq	GImGui(%rip), %rax
	jmp	.L346
	.seh_endproc
	.p2align 4,,15
	.def	_ZN5ImGui8SameLineEff.constprop.140;	.scl	3;	.type	32;	.endef
	.seh_proc	_ZN5ImGui8SameLineEff.constprop.140
_ZN5ImGui8SameLineEff.constprop.140:
.LFB6198:
	.seh_endprologue
	movq	GImGui(%rip), %rdx
	movq	6008(%rdx), %rax
	cmpb	$0, 140(%rax)
	movb	$1, 138(%rax)
	jne	.L348
	xorps	%xmm1, %xmm1
	ucomiss	%xmm0, %xmm1
	ja	.L353
.L350:
	addss	200(%rax), %xmm0
	movss	%xmm0, 192(%rax)
	movss	204(%rax), %xmm0
	movss	%xmm0, 196(%rax)
	movss	232(%rax), %xmm0
	movss	%xmm0, 224(%rax)
	movss	236(%rax), %xmm0
	movss	%xmm0, 228(%rax)
.L348:
	rep ret
	.p2align 4,,7
.L353:
	movss	5168(%rdx), %xmm0
	jmp	.L350
	.seh_endproc
	.p2align 4,,15
	.def	_ZN5ImGui12CalcTextSizeEPKcS1_bf.constprop.152;	.scl	3;	.type	32;	.endef
	.seh_proc	_ZN5ImGui12CalcTextSizeEPKcS1_bf.constprop.152
_ZN5ImGui12CalcTextSizeEPKcS1_bf.constprop.152:
.LFB6186:
	pushq	%rbx
	.seh_pushreg	%rbx
	subq	$96, %rsp
	.seh_stackalloc	96
	movaps	%xmm6, 80(%rsp)
	.seh_savexmm	%xmm6, 80
	.seh_endprologue
	cmpq	$-1, %rcx
	movq	GImGui(%rip), %r8
	je	.L355
	movzbl	(%rcx), %edx
	testb	%dl, %dl
	je	.L355
	movq	%rcx, %rax
	jmp	.L358
	.p2align 4,,7
.L359:
	incq	%rax
	cmpq	$-1, %rax
	je	.L380
	movzbl	(%rax), %edx
	testb	%dl, %dl
	je	.L357
.L358:
	cmpb	$35, %dl
	jne	.L359
	cmpb	$35, 1(%rax)
	jne	.L359
.L357:
	cmpq	%rcx, %rax
	movq	5936(%r8), %rbx
	movss	5944(%r8), %xmm6
	je	.L366
.L362:
	movaps	%xmm6, %xmm1
	movq	%rcx, 32(%rsp)
	movq	$0, 48(%rsp)
	movq	%rax, 40(%rsp)
	movss	.LC20(%rip), %xmm3
	movss	.LC21(%rip), %xmm2
	movq	%rbx, %rcx
	call	_ZNK6ImFont13CalcTextSizeAEfffPKcS1_PS1_
	movl	%eax, 76(%rsp)
	movss	(%rbx), %xmm1
	movss	76(%rsp), %xmm0
	ucomiss	.LC9(%rip), %xmm0
	jbe	.L364
	divss	%xmm1, %xmm6
	subss	%xmm6, %xmm0
.L364:
	addss	.LC22(%rip), %xmm0
	movabsq	$-4294967296, %rcx
	andq	%rcx, %rax
	movaps	80(%rsp), %xmm6
	cvttss2si	%xmm0, %edx
	cvtsi2ss	%edx, %xmm4
	movss	%xmm4, 76(%rsp)
	movl	76(%rsp), %edx
	orq	%rdx, %rax
	addq	$96, %rsp
	popq	%rbx
	ret
.L355:
	movss	5944(%r8), %xmm6
.L366:
	movss	%xmm6, 76(%rsp)
	movl	76(%rsp), %eax
	movaps	80(%rsp), %xmm6
	salq	$32, %rax
	addq	$96, %rsp
	popq	%rbx
	ret
	.p2align 4,,7
.L380:
	movq	5936(%r8), %rbx
	movss	5944(%r8), %xmm6
	jmp	.L362
	.seh_endproc
	.p2align 4,,15
	.def	_Z6ImHashPKvij.constprop.164;	.scl	3;	.type	32;	.endef
	.seh_proc	_Z6ImHashPKvij.constprop.164
_Z6ImHashPKvij.constprop.164:
.LFB6174:
	subq	$40, %rsp
	.seh_stackalloc	40
	movaps	%xmm6, (%rsp)
	.seh_savexmm	%xmm6, 0
	movaps	%xmm7, 16(%rsp)
	.seh_savexmm	%xmm7, 16
	.seh_endprologue
	leaq	_ZZ6ImHashPKvijE9crc32_lut(%rip), %r10
	movl	4+_ZZ6ImHashPKvijE9crc32_lut(%rip), %eax
	testl	%eax, %eax
	jne	.L385
	pxor	%xmm3, %xmm3
	leaq	1024+_ZZ6ImHashPKvijE9crc32_lut(%rip), %r8
	movq	%r10, %rax
	movdqa	.LC23(%rip), %xmm6
	movdqa	.LC24(%rip), %xmm7
	movdqa	.LC25(%rip), %xmm5
	movdqa	.LC26(%rip), %xmm4
	.p2align 4,,7
.L386:
	movdqa	%xmm6, %xmm0
	movdqa	%xmm3, %xmm2
	movdqa	%xmm6, %xmm1
	addq	$16, %rax
	paddd	%xmm7, %xmm6
	pand	%xmm5, %xmm0
	psrld	$1, %xmm1
	psubd	%xmm0, %xmm2
	movdqa	%xmm2, %xmm0
	movdqa	%xmm3, %xmm2
	pand	%xmm4, %xmm0
	pxor	%xmm1, %xmm0
	movdqa	%xmm0, %xmm1
	psrld	$1, %xmm0
	pand	%xmm5, %xmm1
	psubd	%xmm1, %xmm2
	pand	%xmm4, %xmm2
	movdqa	%xmm3, %xmm1
	pxor	%xmm0, %xmm2
	movdqa	%xmm2, %xmm0
	psrld	$1, %xmm2
	pand	%xmm5, %xmm0
	psubd	%xmm0, %xmm1
	pand	%xmm4, %xmm1
	pxor	%xmm2, %xmm1
	movdqa	%xmm3, %xmm2
	movdqa	%xmm1, %xmm0
	psrld	$1, %xmm1
	pand	%xmm5, %xmm0
	psubd	%xmm0, %xmm2
	movdqa	%xmm2, %xmm0
	movdqa	%xmm3, %xmm2
	pand	%xmm4, %xmm0
	pxor	%xmm1, %xmm0
	movdqa	%xmm0, %xmm1
	psrld	$1, %xmm0
	pand	%xmm5, %xmm1
	psubd	%xmm1, %xmm2
	pand	%xmm4, %xmm2
	movdqa	%xmm3, %xmm1
	pxor	%xmm0, %xmm2
	movdqa	%xmm2, %xmm0
	psrld	$1, %xmm2
	pand	%xmm5, %xmm0
	psubd	%xmm0, %xmm1
	pand	%xmm4, %xmm1
	pxor	%xmm2, %xmm1
	movdqa	%xmm3, %xmm2
	movdqa	%xmm1, %xmm0
	psrld	$1, %xmm1
	pand	%xmm5, %xmm0
	psubd	%xmm0, %xmm2
	movdqa	%xmm2, %xmm0
	movdqa	%xmm3, %xmm2
	pand	%xmm4, %xmm0
	pxor	%xmm1, %xmm0
	movdqa	%xmm0, %xmm1
	psrld	$1, %xmm0
	pand	%xmm5, %xmm1
	psubd	%xmm1, %xmm2
	movdqa	%xmm2, %xmm1
	pand	%xmm4, %xmm1
	pxor	%xmm1, %xmm0
	movaps	%xmm0, -16(%rax)
	cmpq	%rax, %r8
	jne	.L386
.L385:
	leaq	1(%rcx), %r8
	movzbl	(%rcx), %ecx
	notl	%edx
	movl	%edx, %eax
	testb	%cl, %cl
	jne	.L388
	jmp	.L383
	.p2align 4,,7
.L387:
	movl	%eax, %r9d
	incq	%r8
	xorl	%ecx, %eax
	movzbl	%al, %eax
	movzbl	-1(%r8), %ecx
	shrl	$8, %r9d
	xorl	(%r10,%rax,4), %r9d
	testb	%cl, %cl
	movl	%r9d, %eax
	je	.L383
.L388:
	cmpb	$35, %cl
	jne	.L387
	cmpb	$35, (%r8)
	jne	.L387
	cmpb	$35, 1(%r8)
	cmove	%edx, %eax
	jmp	.L387
	.p2align 4,,7
.L383:
	movaps	(%rsp), %xmm6
	notl	%eax
	movaps	16(%rsp), %xmm7
	addq	$40, %rsp
	ret
	.seh_endproc
	.p2align 4,,15
	.def	_ZL18FindWindowSettingsPKc;	.scl	3;	.type	32;	.endef
	.seh_proc	_ZL18FindWindowSettingsPKc
_ZL18FindWindowSettingsPKc:
.LFB404:
	pushq	%rbp
	.seh_pushreg	%rbp
	pushq	%rdi
	.seh_pushreg	%rdi
	pushq	%rsi
	.seh_pushreg	%rsi
	pushq	%rbx
	.seh_pushreg	%rbx
	subq	$40, %rsp
	.seh_stackalloc	40
	.seh_endprologue
	movq	GImGui(%rip), %rdi
	xorl	%edx, %edx
	xorl	%esi, %esi
	call	_Z6ImHashPKvij.constprop.164
	xorl	%ebx, %ebx
	movl	%eax, %ebp
	movl	6112(%rdi), %edx
	testl	%edx, %edx
	jne	.L398
	jmp	.L395
	.p2align 4,,7
.L394:
	movq	%rsi, %rdx
	addq	6120(%rdi), %rdx
	cmpl	8(%rdx), %ebp
	je	.L397
.L399:
	movl	6112(%rdi), %edx
	incl	%ebx
	addq	$32, %rsi
	cmpl	%ebx, %edx
	je	.L395
.L398:
	cmpl	%ebx, %edx
	jg	.L394
	leaq	.LC10(%rip), %rdx
	leaq	.LC11(%rip), %rcx
	movl	$856, %r8d
	call	_assert
	movq	%rsi, %rdx
	addq	6120(%rdi), %rdx
	cmpl	8(%rdx), %ebp
	jne	.L399
.L397:
	movq	%rdx, %rax
	addq	$40, %rsp
	popq	%rbx
	popq	%rsi
	popq	%rdi
	popq	%rbp
	ret
	.p2align 4,,7
.L395:
	xorl	%eax, %eax
	addq	$40, %rsp
	popq	%rbx
	popq	%rsi
	popq	%rdi
	popq	%rbp
	ret
	.seh_endproc
	.p2align 4,,15
	.def	_Z14ImFormatStringPciPKcz.constprop.166;	.scl	3;	.type	32;	.endef
	.seh_proc	_Z14ImFormatStringPciPKcz.constprop.166
_Z14ImFormatStringPciPKcz.constprop.166:
.LFB6172:
	pushq	%rbx
	.seh_pushreg	%rbx
	subq	$48, %rsp
	.seh_stackalloc	48
	.seh_endprologue
	movl	$64, %edx
	movq	%r9, 88(%rsp)
	leaq	88(%rsp), %r9
	movq	%rcx, %rbx
	movq	%r9, 40(%rsp)
	call	__ms_vsnprintf
	cmpl	$-1, %eax
	je	.L402
	cmpl	$63, %eax
	movslq	%eax, %rdx
	jg	.L402
	movb	$0, (%rbx,%rdx)
	addq	$48, %rsp
	popq	%rbx
	ret
	.p2align 4,,7
.L402:
	movl	$63, %edx
	movl	$63, %eax
	movb	$0, (%rbx,%rdx)
	addq	$48, %rsp
	popq	%rbx
	ret
	.seh_endproc
	.p2align 4,,15
	.def	_ZN5ImGui13PopStyleColorEi.constprop.161;	.scl	3;	.type	32;	.endef
	.seh_proc	_ZN5ImGui13PopStyleColorEi.constprop.161
_ZN5ImGui13PopStyleColorEi.constprop.161:
.LFB6177:
	pushq	%rbx
	.seh_pushreg	%rbx
	subq	$32, %rsp
	.seh_stackalloc	32
	.seh_endprologue
	movq	GImGui(%rip), %rbx
	movl	6136(%rbx), %eax
	testl	%eax, %eax
	jle	.L407
	movslq	%eax, %rdx
	movq	%rdx, %rcx
	salq	$4, %rcx
	leaq	-20(%rcx,%rdx,4), %rcx
	addq	6144(%rbx), %rcx
	movslq	(%rcx), %rdx
	movq	4(%rcx), %r9
	movq	12(%rcx), %r10
	addq	$328, %rdx
	salq	$4, %rdx
	movq	%r9, (%rbx,%rdx)
	movq	%r10, 8(%rbx,%rdx)
.L405:
	decl	%eax
	movl	%eax, 6136(%rbx)
	addq	$32, %rsp
	popq	%rbx
	ret
	.p2align 4,,7
.L407:
	leaq	.LC10(%rip), %rdx
	leaq	.LC14(%rip), %rcx
	movl	$866, %r8d
	call	_assert
	movslq	6136(%rbx), %rdx
	movq	%rdx, %rcx
	movq	%rdx, %rax
	salq	$4, %rcx
	leaq	-20(%rcx,%rdx,4), %rcx
	addq	6144(%rbx), %rcx
	movslq	(%rcx), %rdx
	movq	4(%rcx), %r9
	movq	12(%rcx), %r10
	addq	$328, %rdx
	salq	$4, %rdx
	testl	%eax, %eax
	movq	%r9, (%rbx,%rdx)
	movq	%r10, 8(%rbx,%rdx)
	jg	.L405
	leaq	.LC10(%rip), %rdx
	leaq	.LC14(%rip), %rcx
	movl	$885, %r8d
	call	_assert
	movl	6136(%rbx), %eax
	decl	%eax
	movl	%eax, 6136(%rbx)
	addq	$32, %rsp
	popq	%rbx
	ret
	.seh_endproc
	.section .rdata,"dr"
	.align 8
.LC27:
	.ascii "idx >= 0 && idx < ImGuiStyleVar_Count_\0"
	.text
	.p2align 4,,15
	.def	_ZN5ImGui11PopStyleVarEi.constprop.159;	.scl	3;	.type	32;	.endef
	.seh_proc	_ZN5ImGui11PopStyleVarEi.constprop.159
_ZN5ImGui11PopStyleVarEi.constprop.159:
.LFB6179:
	pushq	%rbp
	.seh_pushreg	%rbp
	pushq	%rdi
	.seh_pushreg	%rdi
	pushq	%rsi
	.seh_pushreg	%rsi
	pushq	%rbx
	.seh_pushreg	%rbx
	subq	$40, %rsp
	.seh_stackalloc	40
	.seh_endprologue
	movq	GImGui(%rip), %rbx
	movslq	6152(%rbx), %rax
	testl	%eax, %eax
	jle	.L421
.L409:
	leaq	0(,%rax,4), %rdx
	salq	$4, %rax
	subq	%rdx, %rax
	movq	6160(%rbx), %rdx
	leaq	-12(%rdx,%rax), %rbp
	movslq	0(%rbp), %rsi
	cmpl	$11, %esi
	ja	.L422
.L410:
	leaq	_ZL13GStyleVarInfo(%rip), %rdi
	movl	(%rdi,%rsi,8), %eax
	leaq	(%rdi,%rsi,8), %rdx
	cmpl	$1, %eax
	je	.L411
	cmpl	$2, %eax
	je	.L412
	testl	%eax, %eax
	je	.L423
.L413:
	movl	6152(%rbx), %eax
	testl	%eax, %eax
	jle	.L424
.L414:
	decl	%eax
	testl	%eax, %eax
	movl	%eax, 6152(%rbx)
	jle	.L425
.L415:
	cltq
	leaq	0(,%rax,4), %rdx
	salq	$4, %rax
	subq	%rdx, %rax
	movq	6160(%rbx), %rdx
	leaq	-12(%rdx,%rax), %rbp
	movslq	0(%rbp), %rsi
	cmpl	$11, %esi
	ja	.L426
	movl	(%rdi,%rsi,8), %eax
	leaq	(%rdi,%rsi,8), %rdx
	cmpl	$1, %eax
	je	.L427
.L417:
	cmpl	$2, %eax
	je	.L428
	testl	%eax, %eax
	je	.L429
.L418:
	movl	6152(%rbx), %eax
	testl	%eax, %eax
	jle	.L430
.L420:
	decl	%eax
	movl	%eax, 6152(%rbx)
	addq	$40, %rsp
	popq	%rbx
	popq	%rsi
	popq	%rdi
	popq	%rbp
	ret
	.p2align 4,,7
.L429:
	movl	4(%rdx), %eax
	movl	4(%rbp), %ecx
	movq	GImGui(%rip), %rdx
	movl	%ecx, 5120(%rdx,%rax)
	movl	6152(%rbx), %eax
	testl	%eax, %eax
	jg	.L420
.L430:
	leaq	.LC10(%rip), %rdx
	leaq	.LC14(%rip), %rcx
	movl	$885, %r8d
	call	_assert
	movl	6152(%rbx), %eax
	jmp	.L420
	.p2align 4,,7
.L423:
	movl	4(%rdx), %eax
	movl	4(%rbp), %ecx
	movq	GImGui(%rip), %rdx
	movl	%ecx, 5120(%rdx,%rax)
	movl	6152(%rbx), %eax
	testl	%eax, %eax
	jg	.L414
.L424:
	leaq	.LC10(%rip), %rdx
	leaq	.LC14(%rip), %rcx
	movl	$885, %r8d
	call	_assert
	movl	6152(%rbx), %eax
	jmp	.L414
	.p2align 4,,7
.L426:
	leaq	.LC15(%rip), %rdx
	leaq	.LC27(%rip), %rcx
	movl	$4761, %r8d
	call	_assert
	movl	(%rdi,%rsi,8), %eax
	leaq	(%rdi,%rsi,8), %rdx
	cmpl	$1, %eax
	jne	.L417
.L427:
	movl	4(%rdx), %eax
	movq	GImGui(%rip), %rdx
	movss	4(%rbp), %xmm0
	movss	%xmm0, 5120(%rdx,%rax)
	jmp	.L418
	.p2align 4,,7
.L422:
	leaq	.LC15(%rip), %rdx
	leaq	.LC27(%rip), %rcx
	movl	$4761, %r8d
	call	_assert
	jmp	.L410
	.p2align 4,,7
.L411:
	movl	4(%rdx), %eax
	movq	GImGui(%rip), %rdx
	movss	4(%rbp), %xmm0
	movss	%xmm0, 5120(%rdx,%rax)
	jmp	.L413
	.p2align 4,,7
.L428:
	movl	4(%rdx), %eax
	movq	GImGui(%rip), %rdx
	movss	8(%rbp), %xmm0
	movss	4(%rbp), %xmm1
	leaq	5120(%rdx,%rax), %rax
	movss	%xmm1, (%rax)
	movss	%xmm0, 4(%rax)
	jmp	.L418
	.p2align 4,,7
.L412:
	movl	4(%rdx), %eax
	movq	GImGui(%rip), %rdx
	movss	8(%rbp), %xmm0
	movss	4(%rbp), %xmm1
	leaq	5120(%rdx,%rax), %rax
	movss	%xmm1, (%rax)
	movss	%xmm0, 4(%rax)
	jmp	.L413
	.p2align 4,,7
.L425:
	leaq	.LC10(%rip), %rdx
	leaq	.LC14(%rip), %rcx
	movl	$866, %r8d
	call	_assert
	movl	6152(%rbx), %eax
	jmp	.L415
	.p2align 4,,7
.L421:
	leaq	.LC10(%rip), %rdx
	leaq	.LC14(%rip), %rcx
	movl	$866, %r8d
	call	_assert
	movslq	6152(%rbx), %rax
	jmp	.L409
	.seh_endproc
	.p2align 4,,15
	.def	_ZN5ImGui11PopStyleVarEi.constprop.160;	.scl	3;	.type	32;	.endef
	.seh_proc	_ZN5ImGui11PopStyleVarEi.constprop.160
_ZN5ImGui11PopStyleVarEi.constprop.160:
.LFB6178:
	pushq	%rdi
	.seh_pushreg	%rdi
	pushq	%rsi
	.seh_pushreg	%rsi
	pushq	%rbx
	.seh_pushreg	%rbx
	subq	$32, %rsp
	.seh_stackalloc	32
	.seh_endprologue
	movq	GImGui(%rip), %rsi
	movslq	6152(%rsi), %rax
	testl	%eax, %eax
	jle	.L438
.L432:
	leaq	0(,%rax,4), %rdx
	salq	$4, %rax
	subq	%rdx, %rax
	movq	6160(%rsi), %rdx
	leaq	-12(%rdx,%rax), %rdi
	movslq	(%rdi), %rbx
	cmpl	$11, %ebx
	ja	.L439
.L433:
	leaq	_ZL13GStyleVarInfo(%rip), %rax
	leaq	(%rax,%rbx,8), %rdx
	movl	(%rax,%rbx,8), %eax
	cmpl	$1, %eax
	je	.L434
	cmpl	$2, %eax
	je	.L435
	testl	%eax, %eax
	je	.L440
.L436:
	movl	6152(%rsi), %eax
	testl	%eax, %eax
	jle	.L441
.L437:
	decl	%eax
	movl	%eax, 6152(%rsi)
	addq	$32, %rsp
	popq	%rbx
	popq	%rsi
	popq	%rdi
	ret
	.p2align 4,,7
.L440:
	movl	4(%rdx), %eax
	movl	4(%rdi), %ecx
	movq	GImGui(%rip), %rdx
	movl	%ecx, 5120(%rdx,%rax)
	movl	6152(%rsi), %eax
	testl	%eax, %eax
	jg	.L437
.L441:
	leaq	.LC10(%rip), %rdx
	leaq	.LC14(%rip), %rcx
	movl	$885, %r8d
	call	_assert
	movl	6152(%rsi), %eax
	decl	%eax
	movl	%eax, 6152(%rsi)
	addq	$32, %rsp
	popq	%rbx
	popq	%rsi
	popq	%rdi
	ret
	.p2align 4,,7
.L439:
	leaq	.LC15(%rip), %rdx
	leaq	.LC27(%rip), %rcx
	movl	$4761, %r8d
	call	_assert
	jmp	.L433
	.p2align 4,,7
.L434:
	movl	4(%rdx), %eax
	movq	GImGui(%rip), %rdx
	movss	4(%rdi), %xmm0
	movss	%xmm0, 5120(%rdx,%rax)
	jmp	.L436
	.p2align 4,,7
.L435:
	movl	4(%rdx), %eax
	movq	GImGui(%rip), %rdx
	movss	8(%rdi), %xmm0
	movss	4(%rdi), %xmm1
	leaq	5120(%rdx,%rax), %rax
	movss	%xmm1, (%rax)
	movss	%xmm0, 4(%rax)
	jmp	.L436
	.p2align 4,,7
.L438:
	leaq	.LC10(%rip), %rdx
	leaq	.LC14(%rip), %rcx
	movl	$866, %r8d
	call	_assert
	movslq	6152(%rsi), %rax
	jmp	.L432
	.seh_endproc
	.p2align 4,,15
	.def	_ZN8ImGuiStbL21STB_TEXTEDIT_GETWIDTHEP18ImGuiTextEditStateii;	.scl	3;	.type	32;	.endef
	.seh_proc	_ZN8ImGuiStbL21STB_TEXTEDIT_GETWIDTHEP18ImGuiTextEditStateii
_ZN8ImGuiStbL21STB_TEXTEDIT_GETWIDTHEP18ImGuiTextEditStateii:
.LFB700:
	pushq	%rsi
	.seh_pushreg	%rsi
	pushq	%rbx
	.seh_pushreg	%rbx
	subq	$40, %rsp
	.seh_stackalloc	40
	.seh_endprologue
	leal	(%rdx,%r8), %ebx
	cmpl	8(%rcx), %ebx
	movq	%rcx, %rsi
	jge	.L448
.L443:
	movq	16(%rsi), %rax
	movslq	%ebx, %rbx
	movzwl	(%rax,%rbx,2), %eax
	cmpw	$10, %ax
	je	.L447
	movq	GImGui(%rip), %rcx
	movzwl	%ax, %r8d
	movq	5936(%rcx), %rdx
	cmpl	32(%rdx), %r8d
	jl	.L449
	movss	72(%rdx), %xmm1
.L446:
	movss	5944(%rcx), %xmm0
	divss	(%rdx), %xmm0
	mulss	%xmm1, %xmm0
	addq	$40, %rsp
	popq	%rbx
	popq	%rsi
	ret
	.p2align 4,,7
.L449:
	movq	40(%rdx), %r8
	movss	(%r8,%rax,4), %xmm1
	jmp	.L446
	.p2align 4,,7
.L447:
	movss	.LC20(%rip), %xmm0
	addq	$40, %rsp
	popq	%rbx
	popq	%rsi
	ret
	.p2align 4,,7
.L448:
	leaq	.LC10(%rip), %rdx
	leaq	.LC11(%rip), %rcx
	movl	$856, %r8d
	call	_assert
	jmp	.L443
	.seh_endproc
	.p2align 4,,15
	.def	_ZN8ImGuiStbL30STB_TEXTEDIT_MOVEWORDLEFT_IMPLEP18ImGuiTextEditStatei;	.scl	3;	.type	32;	.endef
	.seh_proc	_ZN8ImGuiStbL30STB_TEXTEDIT_MOVEWORDLEFT_IMPLEP18ImGuiTextEditStatei
_ZN8ImGuiStbL30STB_TEXTEDIT_MOVEWORDLEFT_IMPLEP18ImGuiTextEditStatei:
.LFB705:
	pushq	%r12
	.seh_pushreg	%r12
	pushq	%rbp
	.seh_pushreg	%rbp
	pushq	%rdi
	.seh_pushreg	%rdi
	pushq	%rsi
	.seh_pushreg	%rsi
	pushq	%rbx
	.seh_pushreg	%rbx
	subq	$32, %rsp
	.seh_stackalloc	32
	.seh_endprologue
	decl	%edx
	movq	%rcx, %rdi
	movl	%edx, %ebx
	js	.L451
	je	.L483
	movslq	%edx, %rsi
	movl	%edx, %ebp
	movabsq	$20895015895552, %r12
	addq	%rsi, %rsi
	jmp	.L454
	.p2align 4,,7
.L465:
	subq	$2, %rsi
	testl	%ebx, %ebx
	movl	%ebx, %ebp
	je	.L483
.L454:
	decl	%ebx
	cmpl	8(%rdi), %ebx
	jge	.L484
.L455:
	movq	16(%rdi), %rdx
	movl	$1, %eax
	movzwl	-2(%rdx,%rsi), %ecx
	cmpw	$44, %cx
	ja	.L456
	movq	%r12, %rax
	shrq	%cl, %rax
	andl	$1, %eax
	xorq	$1, %rax
	andl	$1, %eax
.L456:
	cmpw	$12288, %cx
	sete	%r8b
	cmpb	%al, %r8b
	jnb	.L457
	leal	-59(%rcx), %eax
	testw	$-33, %ax
	je	.L457
	leal	-123(%rcx), %eax
	cmpw	$2, %ax
	jbe	.L457
	cmpw	$93, %cx
	je	.L457
.L459:
	cmpl	$-1, %ebx
	jne	.L465
.L451:
	testl	%ebx, %ebx
	movl	$0, %eax
	cmovns	%ebx, %eax
.L486:
	addq	$32, %rsp
	popq	%rbx
	popq	%rsi
	popq	%rdi
	popq	%rbp
	popq	%r12
	ret
	.p2align 4,,7
.L483:
	xorl	%eax, %eax
	addq	$32, %rsp
	popq	%rbx
	popq	%rsi
	popq	%rdi
	popq	%rbp
	popq	%r12
	ret
	.p2align 4,,7
.L457:
	cmpl	%ebp, 8(%rdi)
	jle	.L485
.L460:
	movzwl	(%rdx,%rsi), %ecx
	movl	$1, %eax
	cmpw	$44, %cx
	ja	.L461
	movq	%r12, %rax
	shrq	%cl, %rax
	andl	$1, %eax
	xorq	$1, %rax
	andl	$1, %eax
.L461:
	cmpw	$12288, %cx
	sete	%dl
	cmpb	%al, %dl
	jnb	.L459
	leal	-59(%rcx), %eax
	testw	$-33, %ax
	je	.L459
	leal	-123(%rcx), %eax
	cmpw	$2, %ax
	jbe	.L459
	cmpw	$93, %cx
	je	.L459
	movl	%ebp, %ebx
	movl	$0, %eax
	testl	%ebx, %ebx
	cmovns	%ebx, %eax
	jmp	.L486
	.p2align 4,,7
.L484:
	leaq	.LC10(%rip), %rdx
	leaq	.LC11(%rip), %rcx
	movl	$856, %r8d
	call	_assert
	jmp	.L455
	.p2align 4,,7
.L485:
	leaq	.LC10(%rip), %rdx
	leaq	.LC11(%rip), %rcx
	movl	$856, %r8d
	call	_assert
	movq	16(%rdi), %rdx
	jmp	.L460
	.seh_endproc
	.p2align 4,,15
	.def	_ZN8ImGuiStbL31STB_TEXTEDIT_MOVEWORDRIGHT_IMPLEP18ImGuiTextEditStatei;	.scl	3;	.type	32;	.endef
	.seh_proc	_ZN8ImGuiStbL31STB_TEXTEDIT_MOVEWORDRIGHT_IMPLEP18ImGuiTextEditStatei
_ZN8ImGuiStbL31STB_TEXTEDIT_MOVEWORDRIGHT_IMPLEP18ImGuiTextEditStatei:
.LFB706:
	pushq	%r12
	.seh_pushreg	%r12
	pushq	%rbp
	.seh_pushreg	%rbp
	pushq	%rdi
	.seh_pushreg	%rdi
	pushq	%rsi
	.seh_pushreg	%rsi
	pushq	%rbx
	.seh_pushreg	%rbx
	subq	$32, %rsp
	.seh_stackalloc	32
	.seh_endprologue
	movl	60(%rcx), %edi
	leal	1(%rdx), %ebx
	movq	%rcx, %rsi
	cmpl	%edi, %ebx
	jl	.L518
.L489:
	cmpl	%ebx, %edi
	movl	%ebx, %eax
	cmovle	%edi, %eax
	addq	$32, %rsp
	popq	%rbx
	popq	%rsi
	popq	%rdi
	popq	%rbp
	popq	%r12
	ret
	.p2align 4,,7
.L518:
	testl	%ebx, %ebx
	jle	.L489
	movslq	%ebx, %rbp
	leal	-1(%rbx), %eax
	movabsq	$20895015895552, %r12
	addq	%rbp, %rbp
	cmpl	%eax, 8(%rsi)
	jle	.L519
	.p2align 4,,7
.L490:
	movq	16(%rsi), %rax
	movl	$1, %r8d
	movzwl	-2(%rax,%rbp), %ecx
	cmpw	$44, %cx
	ja	.L491
	movq	%r12, %r8
	shrq	%cl, %r8
	andl	$1, %r8d
	xorq	$1, %r8
	andl	$1, %r8d
.L491:
	cmpw	$12288, %cx
	sete	%dl
	cmpb	%r8b, %dl
	jnb	.L492
	leal	-59(%rcx), %edx
	testw	$-33, %dx
	je	.L492
	leal	-123(%rcx), %edx
	cmpw	$2, %dx
	jbe	.L492
	cmpw	$93, %cx
	je	.L492
.L494:
	incl	%ebx
	cmpl	%ebx, %edi
	je	.L520
	addq	$2, %rbp
	leal	-1(%rbx), %eax
	cmpl	%eax, 8(%rsi)
	jg	.L490
.L519:
	leaq	.LC10(%rip), %rdx
	leaq	.LC11(%rip), %rcx
	movl	$856, %r8d
	call	_assert
	jmp	.L490
	.p2align 4,,7
.L492:
	cmpl	%ebx, 8(%rsi)
	jle	.L521
.L495:
	movzwl	(%rax,%rbp), %ecx
	movl	$1, %edx
	cmpw	$44, %cx
	ja	.L496
	movq	%r12, %rdx
	shrq	%cl, %rdx
	andl	$1, %edx
	xorq	$1, %rdx
	andl	$1, %edx
.L496:
	cmpw	$12288, %cx
	sete	%al
	cmpb	%dl, %al
	jnb	.L494
	leal	-59(%rcx), %eax
	testw	$-33, %ax
	je	.L494
	leal	-123(%rcx), %eax
	cmpw	$2, %ax
	jbe	.L494
	cmpw	$93, %cx
	jne	.L489
	jmp	.L494
	.p2align 4,,7
.L521:
	leaq	.LC10(%rip), %rdx
	leaq	.LC11(%rip), %rcx
	movl	$856, %r8d
	call	_assert
	movq	16(%rsi), %rax
	jmp	.L495
.L520:
	movl	%edi, %ebx
	jmp	.L489
	.seh_endproc
	.p2align 4,,15
	.def	_ZN8ImGuiStbL22STB_TEXTEDIT_LAYOUTROWEPNS_14StbTexteditRowEP18ImGuiTextEditStatei.isra.33;	.scl	3;	.type	32;	.endef
	.seh_proc	_ZN8ImGuiStbL22STB_TEXTEDIT_LAYOUTROWEPNS_14StbTexteditRowEP18ImGuiTextEditStatei.isra.33
_ZN8ImGuiStbL22STB_TEXTEDIT_LAYOUTROWEPNS_14StbTexteditRowEP18ImGuiTextEditStatei.isra.33:
.LFB6088:
	.seh_endprologue
	movq	GImGui(%rip), %r11
	movslq	%r8d, %r8
	movslq	%r9d, %r9
	leaq	(%rdx,%r8,2), %r10
	leaq	(%rdx,%r9,2), %r9
	movss	5944(%r11), %xmm3
	cmpq	%r9, %r10
	jbe	.L537
	movzwl	(%r9), %edx
	leaq	2(%r9), %rax
	xorps	%xmm2, %xmm2
	cmpl	$10, %edx
	movq	%rdx, %r8
	je	.L524
	xorps	%xmm2, %xmm2
	movq	5936(%r11), %r11
	movaps	%xmm2, %xmm0
	movss	(%r11), %xmm5
.L527:
	cmpl	$13, %edx
	je	.L529
	cmpl	32(%r11), %edx
	jge	.L530
	movq	40(%r11), %rdx
	movss	(%rdx,%r8,4), %xmm1
.L531:
	movaps	%xmm3, %xmm4
	divss	%xmm5, %xmm4
	mulss	%xmm4, %xmm1
	addss	%xmm1, %xmm0
.L529:
	cmpq	%rax, %r10
	jbe	.L526
	addq	$2, %rax
	movzwl	-2(%rax), %edx
	cmpl	$10, %edx
	movq	%rdx, %r8
	jne	.L527
	ucomiss	%xmm0, %xmm2
	jnb	.L524
	movaps	%xmm2, %xmm5
	movaps	%xmm3, %xmm1
	maxss	%xmm0, %xmm5
	addss	%xmm2, %xmm1
	movaps	%xmm5, %xmm0
.L528:
	ucomiss	%xmm2, %xmm1
	jp	.L540
	je	.L523
.L540:
	subq	%r9, %rax
	shrq	%rax
	movq	%rax, %rdx
.L535:
	movl	$0x00000000, (%rcx)
	movss	%xmm0, 4(%rcx)
	movl	$0x00000000, 12(%rcx)
	movss	%xmm1, 8(%rcx)
	movl	%edx, 20(%rcx)
	movss	%xmm1, 16(%rcx)
	ret
	.p2align 4,,7
.L530:
	movss	72(%r11), %xmm1
	jmp	.L531
	.p2align 4,,7
.L524:
	movaps	%xmm3, %xmm1
	movaps	%xmm2, %xmm0
	addss	%xmm2, %xmm1
	jmp	.L528
	.p2align 4,,7
.L537:
	xorps	%xmm0, %xmm0
	movq	%r9, %rax
	movaps	%xmm0, %xmm1
.L523:
	subq	%r9, %rax
	shrq	%rax
	movq	%rax, %rdx
.L533:
	addss	%xmm3, %xmm1
	jmp	.L535
	.p2align 4,,7
.L526:
	ucomiss	%xmm2, %xmm0
	jbe	.L549
	subq	%r9, %rax
	movaps	%xmm2, %xmm1
	shrq	%rax
	movq	%rax, %rdx
	jmp	.L533
.L549:
	movq	%rax, %rdx
	movaps	%xmm2, %xmm1
	subq	%r9, %rdx
	shrq	%rdx
	ucomiss	%xmm2, %xmm0
	movaps	%xmm2, %xmm0
	ja	.L533
	jmp	.L523
	.seh_endproc
	.section	.text.unlikely,"x"
	.def	_ZN8ImGuiStbL25stb_textedit_find_charposEPNS_12StbFindStateEP18ImGuiTextEditStateii;	.scl	3;	.type	32;	.endef
	.seh_proc	_ZN8ImGuiStbL25stb_textedit_find_charposEPNS_12StbFindStateEP18ImGuiTextEditStateii
_ZN8ImGuiStbL25stb_textedit_find_charposEPNS_12StbFindStateEP18ImGuiTextEditStateii:
.LFB712:
	pushq	%r13
	.seh_pushreg	%r13
	pushq	%r12
	.seh_pushreg	%r12
	pushq	%rbp
	.seh_pushreg	%rbp
	pushq	%rdi
	.seh_pushreg	%rdi
	pushq	%rsi
	.seh_pushreg	%rsi
	pushq	%rbx
	.seh_pushreg	%rbx
	subq	$72, %rsp
	.seh_stackalloc	72
	.seh_endprologue
	cmpl	60(%rdx), %r8d
	movq	%rcx, %rbx
	movq	%rdx, %rdi
	movl	%r8d, %ebp
	jne	.L551
	testl	%r9d, %r9d
	je	.L552
	movq	16(%rdx), %rdx
	leaq	32(%rsp), %rcx
	xorl	%r9d, %r9d
	call	_ZN8ImGuiStbL22STB_TEXTEDIT_LAYOUTROWEPNS_14StbTexteditRowEP18ImGuiTextEditStatei.isra.33
	movss	48(%rsp), %xmm0
	movl	$0x00000000, 4(%rbx)
	subss	44(%rsp), %xmm0
	movl	$0, 12(%rbx)
	movl	%ebp, 16(%rbx)
	movss	%xmm0, 8(%rbx)
	movss	36(%rsp), %xmm0
	movss	%xmm0, (%rbx)
	jmp	.L550
.L552:
	leaq	32(%rsp), %r12
	movl	$0x00000000, 4(%rcx)
	movl	$0x00000000, (%rcx)
	movl	$0x3f800000, 8(%rcx)
	xorl	%esi, %esi
	xorl	%eax, %eax
.L555:
	cmpl	%ebp, %esi
	jge	.L554
	movq	16(%rdi), %rdx
	movl	60(%rdi), %r8d
	movl	%esi, %r9d
	movq	%r12, %rcx
	call	_ZN8ImGuiStbL22STB_TEXTEDIT_LAYOUTROWEPNS_14StbTexteditRowEP18ImGuiTextEditStatei.isra.33
	movl	%esi, %eax
	addl	52(%rsp), %esi
	jmp	.L555
.L554:
	movl	%esi, 12(%rbx)
	movl	$0, 16(%rbx)
	movl	%eax, 20(%rbx)
	jmp	.L550
.L551:
	leaq	32(%rsp), %r13
	movl	$0x00000000, 4(%rcx)
	xorl	%esi, %esi
	xorl	%r12d, %r12d
.L557:
	movq	16(%rdi), %rdx
	movl	60(%rdi), %r8d
	movl	%esi, %r9d
	movq	%r13, %rcx
	call	_ZN8ImGuiStbL22STB_TEXTEDIT_LAYOUTROWEPNS_14StbTexteditRowEP18ImGuiTextEditStatei.isra.33
	movl	52(%rsp), %eax
	leal	(%rsi,%rax), %edx
	cmpl	%edx, %ebp
	jl	.L556
	movss	4(%rbx), %xmm0
	movl	%esi, %r12d
	movl	%edx, %esi
	addss	40(%rsp), %xmm0
	movss	%xmm0, 4(%rbx)
	jmp	.L557
.L556:
	movss	48(%rsp), %xmm0
	movl	%r12d, 20(%rbx)
	subss	44(%rsp), %xmm0
	movl	%esi, 12(%rbx)
	xorl	%r12d, %r12d
	movl	%eax, 16(%rbx)
	movss	%xmm0, 8(%rbx)
	movss	32(%rsp), %xmm0
	movss	%xmm0, (%rbx)
.L559:
	leal	(%rsi,%r12), %eax
	cmpl	%eax, %ebp
	jle	.L550
	movl	%r12d, %r8d
	movl	%esi, %edx
	movq	%rdi, %rcx
	call	_ZN8ImGuiStbL21STB_TEXTEDIT_GETWIDTHEP18ImGuiTextEditStateii
	addss	(%rbx), %xmm0
	incq	%r12
	movss	%xmm0, (%rbx)
	jmp	.L559
.L550:
	addq	$72, %rsp
	popq	%rbx
	popq	%rsi
	popq	%rdi
	popq	%rbp
	popq	%r12
	popq	%r13
	ret
	.seh_endproc
	.text
	.p2align 4,,15
	.def	_ZN8ImGuiStbL27stb_text_create_undo_recordEPNS_12StbUndoStateEi;	.scl	3;	.type	32;	.endef
	.seh_proc	_ZN8ImGuiStbL27stb_text_create_undo_recordEPNS_12StbUndoStateEi
_ZN8ImGuiStbL27stb_text_create_undo_recordEPNS_12StbUndoStateEi:
.LFB726:
	pushq	%r12
	.seh_pushreg	%r12
	pushq	%rbp
	.seh_pushreg	%rbp
	pushq	%rdi
	.seh_pushreg	%rdi
	pushq	%rsi
	.seh_pushreg	%rsi
	pushq	%rbx
	.seh_pushreg	%rbx
	subq	$32, %rsp
	.seh_stackalloc	32
	.seh_endprologue
	movq	%rcx, %r12
	movw	$99, 3188(%rcx)
	movw	$999, 3192(%rcx)
	movzwl	3186(%rcx), %ecx
	movl	%edx, %esi
	cmpw	$99, %cx
	je	.L578
.L562:
	cmpl	$999, %esi
	leaq	1188(%r12), %rdi
	leaq	12(%r12), %rbp
	jg	.L579
	.p2align 4,,7
.L576:
	movswl	3190(%r12), %edx
	movswq	3186(%r12), %r8
	movl	%edx, %eax
	addl	%esi, %edx
	cmpl	$999, %edx
	jle	.L568
	testw	%r8w, %r8w
	jle	.L577
	cmpw	$0, 8(%r12)
	js	.L571
	movswq	4(%r12), %rdx
	movq	%rdi, %rcx
	subl	%edx, %eax
	movq	%rdx, %rbx
	leaq	(%rdi,%rdx,2), %rdx
	movswq	%ax, %r8
	movw	%ax, 3190(%r12)
	addq	%r8, %r8
	call	memmove
	movzwl	3186(%r12), %r8d
	testw	%r8w, %r8w
	jle	.L571
	movswl	%r8w, %edx
	leaq	8(%r12), %rax
	decl	%edx
	leaq	0(,%rdx,4), %rcx
	salq	$4, %rdx
	subq	%rcx, %rdx
	leaq	20(%r12,%rdx), %rcx
	.p2align 4,,7
.L573:
	movzwl	(%rax), %edx
	testw	%dx, %dx
	js	.L572
	subl	%ebx, %edx
	movw	%dx, (%rax)
.L572:
	addq	$12, %rax
	cmpq	%rax, %rcx
	jne	.L573
.L571:
	decl	%r8d
	movq	%rbp, %rdx
	movq	%r12, %rcx
	movw	%r8w, 3186(%r12)
	movswq	%r8w, %r8
	leaq	0(,%r8,4), %rax
	salq	$4, %r8
	subq	%rax, %r8
	call	memmove
	jmp	.L576
.L577:
	jmp	.L577
	.p2align 4,,7
.L568:
	leal	1(%r8), %eax
	movw	%ax, 3186(%r12)
	leaq	0(,%r8,4), %rax
	salq	$4, %r8
	subq	%rax, %r8
	leaq	(%r12,%r8), %rax
	addq	$32, %rsp
	popq	%rbx
	popq	%rsi
	popq	%rdi
	popq	%rbp
	popq	%r12
	ret
.L578:
	cmpw	$0, 8(%r12)
	js	.L563
	movswq	4(%r12), %rdx
	movzwl	3190(%r12), %eax
	leaq	1188(%r12), %rcx
	subl	%edx, %eax
	movq	%rdx, %rbx
	leaq	(%rcx,%rdx,2), %rdx
	movswq	%ax, %r8
	movw	%ax, 3190(%r12)
	addq	%r8, %r8
	call	memmove
	movzwl	3186(%r12), %ecx
	testw	%cx, %cx
	jle	.L563
	movswl	%cx, %edx
	leaq	8(%r12), %rax
	decl	%edx
	leaq	0(,%rdx,4), %r8
	salq	$4, %rdx
	subq	%r8, %rdx
	leaq	20(%r12,%rdx), %r8
	.p2align 4,,7
.L565:
	movzwl	(%rax), %edx
	testw	%dx, %dx
	js	.L564
	subl	%ebx, %edx
	movw	%dx, (%rax)
.L564:
	addq	$12, %rax
	cmpq	%r8, %rax
	jne	.L565
.L563:
	leal	-1(%rcx), %eax
	leaq	12(%r12), %rdx
	movw	%ax, 3186(%r12)
	movswq	%ax, %rax
	leaq	0(,%rax,4), %rcx
	salq	$4, %rax
	movq	%rax, %r8
	subq	%rcx, %r8
	movq	%r12, %rcx
	call	memmove
	jmp	.L562
.L579:
	xorl	%eax, %eax
	movw	$0, 3186(%r12)
	movw	$0, 3190(%r12)
	addq	$32, %rsp
	popq	%rbx
	popq	%rsi
	popq	%rdi
	popq	%rbp
	popq	%r12
	ret
	.seh_endproc
	.p2align 4,,15
	.def	_ZL17AddWindowSettingsPKc;	.scl	3;	.type	32;	.endef
	.seh_proc	_ZL17AddWindowSettingsPKc
_ZL17AddWindowSettingsPKc:
.LFB405:
	pushq	%r12
	.seh_pushreg	%r12
	pushq	%rbp
	.seh_pushreg	%rbp
	pushq	%rdi
	.seh_pushreg	%rdi
	pushq	%rsi
	.seh_pushreg	%rsi
	pushq	%rbx
	.seh_pushreg	%rbx
	subq	$32, %rsp
	.seh_stackalloc	32
	.seh_endprologue
	movq	GImGui(%rip), %rbx
	movq	%rcx, %rdi
	movl	6112(%rbx), %eax
	movq	%rbx, %rbp
	leal	1(%rax), %esi
	movl	6116(%rbx), %eax
	cmpl	%eax, %esi
	jle	.L581
	testl	%eax, %eax
	movl	$8, %edx
	je	.L582
	movl	%eax, %edx
	shrl	$31, %edx
	addl	%eax, %edx
	sarl	%edx
	addl	%eax, %edx
.L582:
	cmpl	%edx, %esi
	jge	.L590
	cmpl	%edx, %eax
	jl	.L595
	movq	%rbx, %rbp
.L581:
	movl	%esi, 6112(%rbx)
	movslq	6112(%rbp), %rax
	movq	%rbp, %r12
	testl	%eax, %eax
	jle	.L596
.L587:
	movq	6120(%rbp), %rdx
	salq	$5, %rax
	movq	%rdi, %rcx
	leaq	-32(%rdx,%rax), %rbx
	call	strlen
	leaq	1(%rax), %rsi
	incl	844(%r12)
	movq	%rsi, %rcx
	call	*232(%r12)
	movq	%rsi, %r8
	movq	%rdi, %rdx
	movq	%rax, %rcx
	call	memcpy
	xorl	%edx, %edx
	movq	%rax, (%rbx)
	movq	%rdi, %rcx
	call	_Z6ImHashPKvij.constprop.164
	movl	%eax, 8(%rbx)
	movq	%rbx, %rax
	movb	$0, 28(%rbx)
	movl	$0x7f7fffff, 12(%rbx)
	movl	$0x7f7fffff, 16(%rbx)
	movl	$0x00000000, 20(%rbx)
	movl	$0x00000000, 24(%rbx)
	addq	$32, %rsp
	popq	%rbx
	popq	%rsi
	popq	%rdi
	popq	%rbp
	popq	%r12
	ret
	.p2align 4,,7
.L590:
	movl	%esi, %ebp
.L583:
	incl	844(%rbx)
	movslq	%ebp, %rcx
	salq	$5, %rcx
	call	*232(%rbx)
	movq	6120(%rbx), %rcx
	movq	%rax, %r12
	testq	%rcx, %rcx
	je	.L584
	movslq	6112(%rbx), %r8
	movq	%rcx, %rdx
	movq	%rax, %rcx
	salq	$5, %r8
	call	memcpy
	movq	6120(%rbx), %rcx
	movq	GImGui(%rip), %rax
	testq	%rcx, %rcx
	je	.L586
	decl	844(%rax)
.L586:
	call	*240(%rax)
	movl	%ebp, 6116(%rbx)
	movq	%r12, 6120(%rbx)
	movq	GImGui(%rip), %rbp
	jmp	.L581
	.p2align 4,,7
.L584:
	movq	GImGui(%rip), %rax
	jmp	.L586
	.p2align 4,,7
.L596:
	leaq	.LC10(%rip), %rdx
	leaq	.LC14(%rip), %rcx
	movl	$866, %r8d
	call	_assert
	movq	GImGui(%rip), %r12
	movslq	6112(%rbp), %rax
	jmp	.L587
.L595:
	movl	%edx, %ebp
	jmp	.L583
	.seh_endproc
	.p2align 4,,15
	.def	_ZN8ImGuiStbL21stb_text_locate_coordEP18ImGuiTextEditStateff;	.scl	3;	.type	32;	.endef
	.seh_proc	_ZN8ImGuiStbL21stb_text_locate_coordEP18ImGuiTextEditStateff
_ZN8ImGuiStbL21stb_text_locate_coordEP18ImGuiTextEditStateff:
.LFB709:
	pushq	%rbp
	.seh_pushreg	%rbp
	pushq	%rdi
	.seh_pushreg	%rdi
	pushq	%rsi
	.seh_pushreg	%rsi
	pushq	%rbx
	.seh_pushreg	%rbx
	subq	$136, %rsp
	.seh_stackalloc	136
	movaps	%xmm6, 80(%rsp)
	.seh_savexmm	%xmm6, 80
	movaps	%xmm7, 96(%rsp)
	.seh_savexmm	%xmm7, 96
	movaps	%xmm8, 112(%rsp)
	.seh_savexmm	%xmm8, 112
	.seh_endprologue
	xorps	%xmm6, %xmm6
	movq	%rcx, %rsi
	movaps	%xmm1, %xmm8
	movl	60(%rcx), %edi
	movaps	%xmm2, %xmm7
	movss	%xmm6, 52(%rsp)
	movl	$0, 68(%rsp)
	movss	%xmm6, 48(%rsp)
	testl	%edi, %edi
	movss	%xmm6, 64(%rsp)
	movss	%xmm6, 60(%rsp)
	jle	.L616
	movl	%edi, %r8d
	xorl	%ebx, %ebx
	leaq	48(%rsp), %rbp
	jmp	.L601
	.p2align 4,,7
.L625:
	testl	%ebx, %ebx
	jne	.L599
	movss	60(%rsp), %xmm0
	addss	%xmm6, %xmm0
	ucomiss	%xmm7, %xmm0
	ja	.L615
.L599:
	movss	64(%rsp), %xmm0
	addss	%xmm6, %xmm0
	ucomiss	%xmm7, %xmm0
	ja	.L600
	addl	%edx, %ebx
	addss	56(%rsp), %xmm6
	cmpl	%edi, %ebx
	jge	.L616
	movl	60(%rsi), %r8d
.L601:
	movq	16(%rsi), %rdx
	movl	%ebx, %r9d
	movq	%rbp, %rcx
	call	_ZN8ImGuiStbL22STB_TEXTEDIT_LAYOUTROWEPNS_14StbTexteditRowEP18ImGuiTextEditStatei.isra.33
	movl	68(%rsp), %edx
	testl	%edx, %edx
	jg	.L625
.L616:
	movl	%edi, %eax
.L622:
	movaps	80(%rsp), %xmm6
	movaps	96(%rsp), %xmm7
	movaps	112(%rsp), %xmm8
	addq	$136, %rsp
	popq	%rbx
	popq	%rsi
	popq	%rdi
	popq	%rbp
	ret
	.p2align 4,,7
.L600:
	movss	48(%rsp), %xmm6
	movl	%ebx, %eax
	ucomiss	%xmm8, %xmm6
	ja	.L622
	movss	52(%rsp), %xmm0
	ucomiss	%xmm8, %xmm0
	jbe	.L602
	movslq	%ebx, %rbp
	xorl	%edi, %edi
	addq	%rbp, %rbp
	movss	.LC20(%rip), %xmm7
	jmp	.L610
	.p2align 4,,7
.L628:
	movq	40(%rcx), %r9
	movss	(%r9,%rdx,4), %xmm1
.L607:
	movss	5944(%r8), %xmm0
	divss	(%rcx), %xmm0
	mulss	%xmm1, %xmm0
.L605:
	movaps	%xmm0, %xmm1
	addss	%xmm6, %xmm1
	ucomiss	%xmm8, %xmm1
	ja	.L626
	movl	68(%rsp), %edx
	incl	%edi
	addq	$2, %rbp
	cmpl	%edi, %edx
	jle	.L602
	movaps	%xmm1, %xmm6
.L610:
	leal	(%rbx,%rdi), %eax
	cmpl	%eax, 8(%rsi)
	jle	.L627
.L604:
	movq	16(%rsi), %rdx
	movaps	%xmm7, %xmm0
	movzwl	(%rdx,%rbp), %edx
	cmpw	$10, %dx
	je	.L605
	movq	GImGui(%rip), %r8
	movzwl	%dx, %r9d
	movq	5936(%r8), %rcx
	cmpl	32(%rcx), %r9d
	jl	.L628
	movss	72(%rcx), %xmm1
	jmp	.L607
	.p2align 4,,7
.L602:
	leal	(%rbx,%rdx), %eax
	leal	-1(%rax), %edi
	cmpl	8(%rsi), %edi
	jge	.L629
.L611:
	movq	16(%rsi), %rdx
	movslq	%edi, %rdi
	cmpw	$10, (%rdx,%rdi,2)
	sete	%dl
	movzbl	%dl, %edx
	subl	%edx, %eax
	jmp	.L622
	.p2align 4,,7
.L627:
	leaq	.LC10(%rip), %rdx
	leaq	.LC11(%rip), %rcx
	movl	$856, %r8d
	movl	%eax, 44(%rsp)
	call	_assert
	movl	44(%rsp), %eax
	jmp	.L604
	.p2align 4,,7
.L615:
	xorl	%eax, %eax
	jmp	.L622
.L626:
	mulss	.LC29(%rip), %xmm0
	leal	1(%rax), %edx
	addss	%xmm6, %xmm0
	ucomiss	%xmm8, %xmm0
	cmovbe	%edx, %eax
	jmp	.L622
.L629:
	leaq	.LC10(%rip), %rdx
	leaq	.LC11(%rip), %rcx
	movl	$857, %r8d
	call	_assert
	movl	68(%rsp), %eax
	addl	%ebx, %eax
	jmp	.L611
	.seh_endproc
	.p2align 4,,15
	.def	_ZN8ImGuiStbL19stb_textedit_deleteEP18ImGuiTextEditStatePNS_17STB_TexteditStateEii;	.scl	3;	.type	32;	.endef
	.seh_proc	_ZN8ImGuiStbL19stb_textedit_deleteEP18ImGuiTextEditStatePNS_17STB_TexteditStateEii
_ZN8ImGuiStbL19stb_textedit_deleteEP18ImGuiTextEditStatePNS_17STB_TexteditStateEii:
.LFB714:
	pushq	%r15
	.seh_pushreg	%r15
	pushq	%r14
	.seh_pushreg	%r14
	pushq	%r13
	.seh_pushreg	%r13
	pushq	%r12
	.seh_pushreg	%r12
	pushq	%rbp
	.seh_pushreg	%rbp
	pushq	%rdi
	.seh_pushreg	%rdi
	pushq	%rsi
	.seh_pushreg	%rsi
	pushq	%rbx
	.seh_pushreg	%rbx
	subq	$40, %rsp
	.seh_stackalloc	40
	.seh_endprologue
	movq	%rcx, %rsi
	movzwl	3210(%rdx), %ecx
	movq	%rdx, %r14
	movslq	%r8d, %rbx
	movl	%r9d, %edi
	movw	$99, 3212(%rdx)
	movw	$999, 3216(%rdx)
	cmpw	$99, %cx
	je	.L674
.L631:
	cmpl	$999, %edi
	leaq	1212(%r14), %rbp
	leaq	36(%r14), %r13
	leaq	24(%r14), %r12
	jg	.L675
	.p2align 4,,7
.L672:
	movswl	3214(%r14), %ecx
	movswq	3210(%r14), %r8
	leal	(%rdi,%rcx), %eax
	movl	%ecx, %edx
	cmpl	$999, %eax
	jle	.L637
	testw	%r8w, %r8w
	jle	.L673
	cmpw	$0, 32(%r14)
	js	.L640
	movswq	28(%r14), %rax
	movq	%rbp, %rcx
	subl	%eax, %edx
	movq	%rax, %r15
	movw	%dx, 3214(%r14)
	movswq	%dx, %r8
	leaq	0(%rbp,%rax,2), %rdx
	addq	%r8, %r8
	call	memmove
	movzwl	3210(%r14), %r8d
	testw	%r8w, %r8w
	jle	.L640
	movswl	%r8w, %edx
	leaq	32(%r14), %rax
	decl	%edx
	leaq	0(,%rdx,4), %rcx
	salq	$4, %rdx
	subq	%rcx, %rdx
	leaq	44(%r14,%rdx), %rcx
	.p2align 4,,7
.L642:
	movzwl	(%rax), %edx
	testw	%dx, %dx
	js	.L641
	subl	%r15d, %edx
	movw	%dx, (%rax)
.L641:
	addq	$12, %rax
	cmpq	%rcx, %rax
	jne	.L642
.L640:
	decl	%r8d
	movq	%r13, %rdx
	movq	%r12, %rcx
	movw	%r8w, 3210(%r14)
	movswq	%r8w, %r8
	leaq	0(,%r8,4), %rax
	salq	$4, %r8
	subq	%rax, %r8
	call	memmove
	jmp	.L672
.L673:
	jmp	.L673
	.p2align 4,,7
.L637:
	leal	1(%r8), %eax
	movw	%ax, 3210(%r14)
	leaq	0(,%r8,4), %rax
	salq	$4, %r8
	subq	%rax, %r8
	testl	%edi, %edi
	leaq	(%r14,%r8), %rax
	movl	%ebx, 24(%rax)
	movw	%di, 28(%rax)
	movw	$0, 30(%rax)
	je	.L676
	movw	%cx, 32(%rax)
	addl	%edi, %edx
	movslq	%ecx, %rcx
	testl	%edi, %edi
	movw	%dx, 3214(%r14)
	leaq	1212(%r14,%rcx,2), %rax
	jle	.L677
	movslq	%ebx, %rbx
	movq	%rbx, %rdx
	movq	%rbx, %rbp
	leaq	(%rbx,%rbx), %r12
	negq	%rdx
	leal	(%rdi,%rbx), %r15d
	leaq	(%rax,%rdx,2), %r13
	jmp	.L646
	.p2align 4,,7
.L645:
	movq	16(%rsi), %r9
	incl	%ebp
	movzwl	(%r9,%r12), %eax
	movw	%ax, 0(%r13,%r12)
	addq	$2, %r12
	cmpl	%ebp, %r15d
	je	.L636
.L646:
	cmpl	8(%rsi), %ebp
	jl	.L645
	leaq	.LC10(%rip), %rdx
	leaq	.LC11(%rip), %rcx
	movl	$857, %r8d
	call	_assert
	jmp	.L645
.L675:
	movq	16(%rsi), %r9
	movw	$0, 3210(%r14)
	movw	$0, 3214(%r14)
.L636:
	leaq	(%r9,%rbx,2), %rcx
	movslq	%edi, %r12
	leaq	(%rcx,%r12,2), %r10
	movq	%rcx, %rdx
	testq	%r10, %r10
	setne	%bpl
	xorl	%r8d, %r8d
	.p2align 4,,7
.L647:
	cmpq	%rdx, %r10
	ja	.L658
	testb	%bpl, %bpl
	jne	.L648
.L658:
	movzwl	(%rdx), %eax
	testw	%ax, %ax
	je	.L648
	addq	$2, %rdx
	cmpl	$127, %eax
	jbe	.L678
	cmpl	$2047, %eax
	movl	$2, %r11d
	jbe	.L652
	leal	-56320(%rax), %r13d
	xorl	%r11d, %r11d
	cmpl	$1023, %r13d
	jbe	.L652
	subl	$55296, %eax
	cmpl	$1024, %eax
	sbbl	%r11d, %r11d
	notl	%r11d
	addl	$4, %r11d
.L652:
	addl	%r11d, %r8d
	cmpq	%rdx, %r10
	ja	.L658
	testb	%bpl, %bpl
	je	.L658
.L648:
	addq	%r12, %rbx
	subl	%r8d, 56(%rsi)
	subl	%edi, 60(%rsi)
	leaq	(%r9,%rbx,2), %rax
	leaq	2(%rax), %rdx
	movzwl	(%rax), %eax
	testw	%ax, %ax
	je	.L653
	.p2align 4,,7
.L654:
	addq	$2, %rcx
	addq	$2, %rdx
	movw	%ax, -2(%rcx)
	movzwl	-2(%rdx), %eax
	testw	%ax, %ax
	jne	.L654
.L653:
	movw	$0, (%rcx)
	movb	$0, 15(%r14)
	addq	$40, %rsp
	popq	%rbx
	popq	%rsi
	popq	%rdi
	popq	%rbp
	popq	%r12
	popq	%r13
	popq	%r14
	popq	%r15
	ret
	.p2align 4,,7
.L678:
	incl	%r8d
	jmp	.L647
.L674:
	cmpw	$0, 32(%rdx)
	js	.L632
	movswq	28(%rdx), %rdx
	movzwl	3214(%r14), %eax
	leaq	1212(%r14), %rcx
	subl	%edx, %eax
	movq	%rdx, %rbp
	leaq	(%rcx,%rdx,2), %rdx
	movswq	%ax, %r8
	movw	%ax, 3214(%r14)
	addq	%r8, %r8
	call	memmove
	movzwl	3210(%r14), %ecx
	testw	%cx, %cx
	jle	.L632
	movswl	%cx, %edx
	leaq	32(%r14), %rax
	decl	%edx
	leaq	0(,%rdx,4), %r8
	salq	$4, %rdx
	subq	%r8, %rdx
	leaq	44(%r14,%rdx), %r8
	.p2align 4,,7
.L634:
	movzwl	(%rax), %edx
	testw	%dx, %dx
	js	.L633
	subl	%ebp, %edx
	movw	%dx, (%rax)
.L633:
	addq	$12, %rax
	cmpq	%r8, %rax
	jne	.L634
.L632:
	leal	-1(%rcx), %eax
	leaq	36(%r14), %rdx
	leaq	24(%r14), %rcx
	movw	%ax, 3210(%r14)
	movswq	%ax, %rax
	leaq	0(,%rax,4), %r8
	salq	$4, %rax
	subq	%r8, %rax
	movq	%rax, %r8
	call	memmove
	jmp	.L631
.L676:
	movw	$-1, 32(%rax)
	movq	16(%rsi), %r9
	jmp	.L636
.L677:
	movq	16(%rsi), %r9
	jmp	.L636
	.seh_endproc
	.p2align 4,,15
	.def	_ZN8ImGuiStbL29stb_textedit_delete_selectionEP18ImGuiTextEditStatePNS_17STB_TexteditStateE;	.scl	3;	.type	32;	.endef
	.seh_proc	_ZN8ImGuiStbL29stb_textedit_delete_selectionEP18ImGuiTextEditStatePNS_17STB_TexteditStateE
_ZN8ImGuiStbL29stb_textedit_delete_selectionEP18ImGuiTextEditStatePNS_17STB_TexteditStateE:
.LFB715:
	pushq	%rbx
	.seh_pushreg	%rbx
	subq	$32, %rsp
	.seh_stackalloc	32
	.seh_endprologue
	movq	%rdx, %rbx
	movl	60(%rcx), %edx
	movl	4(%rbx), %r8d
	movl	8(%rbx), %eax
	cmpl	%eax, %r8d
	je	.L680
	cmpl	%r8d, %edx
	jge	.L681
	cmpl	%eax, %edx
	movl	%edx, 4(%rbx)
	movl	%edx, %r8d
	jl	.L692
	cmpl	%r8d, %eax
	je	.L695
.L683:
	cmpl	(%rbx), %edx
	jl	.L696
.L691:
	cmpl	%r8d, %eax
	.p2align 4,,3
	jle	.L686
	subl	%r8d, %eax
	movq	%rbx, %rdx
	movl	%eax, %r9d
	call	_ZN8ImGuiStbL19stb_textedit_deleteEP18ImGuiTextEditStatePNS_17STB_TexteditStateEii
	movl	4(%rbx), %eax
	movl	%eax, (%rbx)
	movl	%eax, 8(%rbx)
.L687:
	movb	$0, 15(%rbx)
.L679:
	addq	$32, %rsp
	popq	%rbx
	ret
	.p2align 4,,7
.L681:
	cmpl	%eax, %edx
	jge	.L683
.L692:
	movl	%edx, %eax
	movl	%edx, 8(%rbx)
	cmpl	%r8d, %eax
	jne	.L683
.L695:
	movl	%eax, (%rbx)
	jmp	.L684
	.p2align 4,,7
.L686:
	movl	%r8d, %r9d
	movq	%rbx, %rdx
	movl	%eax, %r8d
	subl	%eax, %r9d
	call	_ZN8ImGuiStbL19stb_textedit_deleteEP18ImGuiTextEditStatePNS_17STB_TexteditStateEii
	movl	8(%rbx), %eax
	movl	%eax, (%rbx)
	movl	%eax, 4(%rbx)
	jmp	.L687
	.p2align 4,,7
.L680:
	movl	(%rbx), %eax
.L684:
	cmpl	%eax, %edx
	jge	.L679
	movl	%edx, (%rbx)
	addq	$32, %rsp
	popq	%rbx
	ret
	.p2align 4,,7
.L696:
	movl	%edx, (%rbx)
	jmp	.L691
	.seh_endproc
	.p2align 4,,15
	.def	_ZL23AddWindowToSortedBufferR8ImVectorIP11ImGuiWindowES1_;	.scl	3;	.type	32;	.endef
	.seh_proc	_ZL23AddWindowToSortedBufferR8ImVectorIP11ImGuiWindowES1_
_ZL23AddWindowToSortedBufferR8ImVectorIP11ImGuiWindowES1_:
.LFB410:
	pushq	%rbp
	.seh_pushreg	%rbp
	pushq	%rdi
	.seh_pushreg	%rdi
	pushq	%rsi
	.seh_pushreg	%rsi
	pushq	%rbx
	.seh_pushreg	%rbx
	subq	$40, %rsp
	.seh_stackalloc	40
	.seh_endprologue
	movq	%rdx, %rsi
	movslq	(%rcx), %rdx
	movq	%rcx, %rbp
	cmpl	4(%rcx), %edx
	je	.L698
	movq	8(%rcx), %rax
	leal	1(%rdx), %r8d
.L699:
	cmpb	$0, 136(%rsi)
	movl	%r8d, 0(%rbp)
	movq	%rsi, (%rax,%rdx,8)
	je	.L697
	movl	280(%rsi), %edi
	cmpl	$1, %edi
	jle	.L706
	movq	288(%rsi), %rcx
	leaq	_ZL19ChildWindowComparerPKvS0_(%rip), %r9
	movslq	%edi, %rdx
	movl	$8, %r8d
	call	qsort
.L707:
	xorl	%ebx, %ebx
	jmp	.L711
	.p2align 4,,7
.L709:
	movq	288(%rsi), %rax
	movq	(%rax,%rbx,8), %rdx
	cmpb	$0, 136(%rdx)
	jne	.L714
.L710:
	incq	%rbx
	cmpl	%ebx, %edi
	jle	.L697
.L711:
	cmpl	%ebx, 280(%rsi)
	jg	.L709
	leaq	.LC10(%rip), %rdx
	leaq	.LC11(%rip), %rcx
	movl	$856, %r8d
	call	_assert
	jmp	.L709
	.p2align 4,,7
.L706:
	testl	%edi, %edi
	jg	.L707
.L697:
	addq	$40, %rsp
	popq	%rbx
	popq	%rsi
	popq	%rdi
	popq	%rbp
	ret
	.p2align 4,,7
.L714:
	movq	%rbp, %rcx
	call	_ZL23AddWindowToSortedBufferR8ImVectorIP11ImGuiWindowES1_
	jmp	.L710
	.p2align 4,,7
.L698:
	testl	%edx, %edx
	leal	1(%rdx), %r8d
	movl	$8, %eax
	jne	.L715
	cmpl	%eax, %r8d
	cmovge	%r8d, %eax
	cmpl	%edx, %eax
	movl	%eax, %ebx
	jg	.L701
.L716:
	movq	8(%rbp), %rax
	jmp	.L699
	.p2align 4,,7
.L715:
	movl	%edx, %eax
	shrl	$31, %eax
	addl	%edx, %eax
	sarl	%eax
	addl	%edx, %eax
	cmpl	%eax, %r8d
	cmovge	%r8d, %eax
	cmpl	%edx, %eax
	movl	%eax, %ebx
	jle	.L716
.L701:
	movq	GImGui(%rip), %rax
	movslq	%ebx, %rcx
	salq	$3, %rcx
	incl	844(%rax)
	call	*232(%rax)
	movq	8(%rbp), %rcx
	movq	%rax, %rdi
	testq	%rcx, %rcx
	je	.L702
	movslq	0(%rbp), %r8
	movq	%rcx, %rdx
	movq	%rax, %rcx
	salq	$3, %r8
	call	memcpy
	movq	8(%rbp), %rcx
	movq	GImGui(%rip), %rax
	testq	%rcx, %rcx
	je	.L704
	decl	844(%rax)
.L704:
	call	*240(%rax)
	movslq	0(%rbp), %rdx
	movq	%rdi, 8(%rbp)
	movq	%rdi, %rax
	movl	%ebx, 4(%rbp)
	leal	1(%rdx), %r8d
	jmp	.L699
.L702:
	movq	GImGui(%rip), %rax
	jmp	.L704
	.seh_endproc
	.p2align 4,,15
	.def	_ZN8ImGuiStbL24STB_TEXTEDIT_DELETECHARSEP18ImGuiTextEditStateii;	.scl	3;	.type	32;	.endef
	.seh_proc	_ZN8ImGuiStbL24STB_TEXTEDIT_DELETECHARSEP18ImGuiTextEditStateii
_ZN8ImGuiStbL24STB_TEXTEDIT_DELETECHARSEP18ImGuiTextEditStateii:
.LFB707:
	pushq	%r13
	.seh_pushreg	%r13
	pushq	%r12
	.seh_pushreg	%r12
	pushq	%rbp
	.seh_pushreg	%rbp
	pushq	%rdi
	.seh_pushreg	%rdi
	pushq	%rsi
	.seh_pushreg	%rsi
	pushq	%rbx
	.seh_pushreg	%rbx
	.seh_endprologue
	movq	16(%rcx), %r12
	movslq	%edx, %rdx
	movslq	%r8d, %rbp
	leaq	(%r12,%rdx,2), %r10
	leaq	(%r10,%rbp,2), %rbx
	movq	%r10, %r9
	testq	%rbx, %rbx
	setne	%dil
	xorl	%r11d, %r11d
	.p2align 4,,7
.L718:
	cmpq	%r9, %rbx
	ja	.L729
	testb	%dil, %dil
	jne	.L719
.L729:
	movzwl	(%r9), %eax
	testw	%ax, %ax
	je	.L719
	addq	$2, %r9
	cmpl	$127, %eax
	jbe	.L740
	cmpl	$2047, %eax
	movl	$2, %esi
	jbe	.L723
	leal	-56320(%rax), %r13d
	xorl	%esi, %esi
	cmpl	$1023, %r13d
	jbe	.L723
	subl	$55296, %eax
	cmpl	$1024, %eax
	sbbl	%esi, %esi
	notl	%esi
	addl	$4, %esi
.L723:
	addl	%esi, %r11d
	cmpq	%r9, %rbx
	ja	.L729
	testb	%dil, %dil
	je	.L729
.L719:
	addq	%rdx, %rbp
	subl	%r11d, 56(%rcx)
	subl	%r8d, 60(%rcx)
	leaq	(%r12,%rbp,2), %rax
	leaq	2(%rax), %rdx
	movzwl	(%rax), %eax
	testw	%ax, %ax
	je	.L724
	.p2align 4,,7
.L725:
	addq	$2, %r10
	addq	$2, %rdx
	movw	%ax, -2(%r10)
	movzwl	-2(%rdx), %eax
	testw	%ax, %ax
	jne	.L725
.L724:
	movw	$0, (%r10)
	popq	%rbx
	popq	%rsi
	popq	%rdi
	popq	%rbp
	popq	%r12
	popq	%r13
	ret
	.p2align 4,,7
.L740:
	incl	%r11d
	jmp	.L718
	.seh_endproc
	.p2align 4,,15
	.def	_ZN5ImGui11GetColorU32Eif.constprop.162;	.scl	3;	.type	32;	.endef
	.seh_proc	_ZN5ImGui11GetColorU32Eif.constprop.162
_ZN5ImGui11GetColorU32Eif.constprop.162:
.LFB6176:
	.seh_endprologue
	movq	GImGui(%rip), %rdx
	xorps	%xmm1, %xmm1
	movslq	%ecx, %rax
	addq	$328, %rax
	salq	$4, %rax
	movss	5120(%rdx), %xmm0
	addq	%rdx, %rax
	movss	(%rax), %xmm4
	mulss	12(%rax), %xmm0
	movss	4(%rax), %xmm3
	movss	8(%rax), %xmm2
	xorl	%eax, %eax
	ucomiss	%xmm4, %xmm1
	ja	.L742
	ucomiss	.LC28(%rip), %xmm4
	movl	$255, %eax
	jbe	.L754
.L742:
	xorl	%edx, %edx
	ucomiss	%xmm3, %xmm1
	ja	.L743
	ucomiss	.LC28(%rip), %xmm3
	movl	$65280, %edx
	jbe	.L755
.L743:
	orl	%edx, %eax
	xorl	%edx, %edx
	ucomiss	%xmm2, %xmm1
	ja	.L744
	ucomiss	.LC28(%rip), %xmm2
	movl	$16711680, %edx
	jbe	.L756
.L744:
	orl	%eax, %edx
	ucomiss	%xmm0, %xmm1
	ja	.L752
.L757:
	ucomiss	.LC28(%rip), %xmm0
	movl	$-16777216, %eax
	ja	.L745
	mulss	.LC30(%rip), %xmm0
	addss	.LC29(%rip), %xmm0
	cvttss2si	%xmm0, %eax
	sall	$24, %eax
.L745:
	orl	%edx, %eax
	ret
	.p2align 4,,7
.L756:
	mulss	.LC30(%rip), %xmm2
	addss	.LC29(%rip), %xmm2
	cvttss2si	%xmm2, %ecx
	sall	$16, %ecx
	movl	%ecx, %edx
	orl	%eax, %edx
	ucomiss	%xmm0, %xmm1
	jbe	.L757
.L752:
	xorl	%eax, %eax
	orl	%edx, %eax
	ret
	.p2align 4,,7
.L754:
	mulss	.LC30(%rip), %xmm4
	addss	.LC29(%rip), %xmm4
	cvttss2si	%xmm4, %eax
	jmp	.L742
	.p2align 4,,7
.L755:
	mulss	.LC30(%rip), %xmm3
	addss	.LC29(%rip), %xmm3
	cvttss2si	%xmm3, %ecx
	sall	$8, %ecx
	movl	%ecx, %edx
	jmp	.L743
	.seh_endproc
	.section	.text$_ZN10ImDrawListC1Ev,"x"
	.linkonce discard
	.align 2
	.p2align 4,,15
	.globl	_ZN10ImDrawListC1Ev
	.def	_ZN10ImDrawListC1Ev;	.scl	2;	.type	32;	.endef
	.seh_proc	_ZN10ImDrawListC1Ev
_ZN10ImDrawListC1Ev:
.LFB122:
	pushq	%rsi
	.seh_pushreg	%rsi
	pushq	%rbx
	.seh_pushreg	%rbx
	subq	$40, %rsp
	.seh_stackalloc	40
	.seh_endprologue
	movl	$0, 4(%rcx)
	movl	$0, (%rcx)
	movq	%rcx, %rbx
	movq	$0, 8(%rcx)
	movl	$0, 20(%rcx)
	movl	$0, 16(%rcx)
	movq	$0, 24(%rcx)
	movl	$0, 36(%rcx)
	movl	$0, 32(%rcx)
	movq	$0, 40(%rcx)
	movl	$0, 84(%rcx)
	movl	$0, 80(%rcx)
	movq	$0, 88(%rcx)
	movl	$0, 100(%rcx)
	movl	$0, 96(%rcx)
	movq	$0, 104(%rcx)
	movl	$0, 116(%rcx)
	movl	$0, 112(%rcx)
	movq	$0, 120(%rcx)
	movl	$0, 140(%rcx)
	movl	$0, 136(%rcx)
	movq	$0, 144(%rcx)
	movq	$0, 48(%rcx)
.LEHB0:
	call	_ZN10ImDrawList5ClearEv
.LEHE0:
	nop
	addq	$40, %rsp
	popq	%rbx
	popq	%rsi
	ret
.L767:
	movq	144(%rbx), %rcx
	movq	%rax, %rsi
	testq	%rcx, %rcx
	je	.L760
	movq	GImGui(%rip), %rax
	decl	844(%rax)
	call	*240(%rax)
.L760:
	movq	120(%rbx), %rcx
	testq	%rcx, %rcx
	je	.L761
	movq	GImGui(%rip), %rax
	decl	844(%rax)
	call	*240(%rax)
.L761:
	movq	104(%rbx), %rcx
	testq	%rcx, %rcx
	je	.L762
	movq	GImGui(%rip), %rax
	decl	844(%rax)
	call	*240(%rax)
.L762:
	movq	88(%rbx), %rcx
	testq	%rcx, %rcx
	je	.L763
	movq	GImGui(%rip), %rax
	decl	844(%rax)
	call	*240(%rax)
.L763:
	movq	40(%rbx), %rcx
	testq	%rcx, %rcx
	je	.L764
	movq	GImGui(%rip), %rax
	decl	844(%rax)
	call	*240(%rax)
.L764:
	movq	24(%rbx), %rcx
	testq	%rcx, %rcx
	je	.L765
	movq	GImGui(%rip), %rax
	decl	844(%rax)
	call	*240(%rax)
.L765:
	movq	8(%rbx), %rcx
	testq	%rcx, %rcx
	je	.L766
	movq	GImGui(%rip), %rax
	decl	844(%rax)
	call	*240(%rax)
.L766:
	movq	%rsi, %rcx
.LEHB1:
	call	_Unwind_Resume
	nop
.LEHE1:
	.seh_handler	__gxx_personality_seh0, @unwind, @except
	.seh_handlerdata
.LLSDA122:
	.byte	0xff
	.byte	0xff
	.byte	0x1
	.uleb128 .LLSDACSE122-.LLSDACSB122
.LLSDACSB122:
	.uleb128 .LEHB0-.LFB122
	.uleb128 .LEHE0-.LEHB0
	.uleb128 .L767-.LFB122
	.uleb128 0
	.uleb128 .LEHB1-.LFB122
	.uleb128 .LEHE1-.LEHB1
	.uleb128 0
	.uleb128 0
.LLSDACSE122:
	.section	.text$_ZN10ImDrawListC1Ev,"x"
	.linkonce discard
	.seh_endproc
	.section	.text$_ZN10ImDrawListD1Ev,"x"
	.linkonce discard
	.align 2
	.p2align 4,,15
	.globl	_ZN10ImDrawListD1Ev
	.def	_ZN10ImDrawListD1Ev;	.scl	2;	.type	32;	.endef
	.seh_proc	_ZN10ImDrawListD1Ev
_ZN10ImDrawListD1Ev:
.LFB125:
	pushq	%rbx
	.seh_pushreg	%rbx
	subq	$32, %rsp
	.seh_stackalloc	32
	.seh_endprologue
	movq	%rcx, %rbx
	call	_ZN10ImDrawList15ClearFreeMemoryEv
	movq	144(%rbx), %rcx
	testq	%rcx, %rcx
	je	.L792
	movq	GImGui(%rip), %rax
	decl	844(%rax)
	call	*240(%rax)
.L792:
	movq	120(%rbx), %rcx
	testq	%rcx, %rcx
	je	.L831
	movq	GImGui(%rip), %rax
	decl	844(%rax)
	call	*240(%rax)
	movq	104(%rbx), %rcx
	testq	%rcx, %rcx
	je	.L825
.L793:
	movq	GImGui(%rip), %rax
	decl	844(%rax)
	call	*240(%rax)
.L825:
	movq	88(%rbx), %rcx
	testq	%rcx, %rcx
	je	.L827
	movq	GImGui(%rip), %rax
	decl	844(%rax)
	call	*240(%rax)
.L827:
	movq	40(%rbx), %rcx
	testq	%rcx, %rcx
	je	.L828
	movq	GImGui(%rip), %rax
	decl	844(%rax)
	call	*240(%rax)
.L828:
	movq	24(%rbx), %rcx
	testq	%rcx, %rcx
	je	.L829
	movq	GImGui(%rip), %rax
	decl	844(%rax)
	call	*240(%rax)
.L829:
	movq	8(%rbx), %rcx
	testq	%rcx, %rcx
	je	.L791
	movq	GImGui(%rip), %rax
	decl	844(%rax)
	movq	240(%rax), %rax
	addq	$32, %rsp
	popq	%rbx
	rex.W jmp *%rax
	.p2align 4,,7
.L831:
	movq	104(%rbx), %rcx
	testq	%rcx, %rcx
	jne	.L793
	jmp	.L825
	.p2align 4,,7
.L791:
	addq	$32, %rsp
	popq	%rbx
	ret
	.seh_handler	__gxx_personality_seh0, @unwind, @except
	.seh_handlerdata
.LLSDA125:
	.byte	0xff
	.byte	0xff
	.byte	0x1
	.uleb128 .LLSDACSE125-.LLSDACSB125
.LLSDACSB125:
.LLSDACSE125:
	.section	.text$_ZN10ImDrawListD1Ev,"x"
	.linkonce discard
	.seh_endproc
	.section	.text$_ZN18ImGuiTextEditStateD1Ev,"x"
	.linkonce discard
	.align 2
	.p2align 4,,15
	.globl	_ZN18ImGuiTextEditStateD1Ev
	.def	_ZN18ImGuiTextEditStateD1Ev;	.scl	2;	.type	32;	.endef
	.seh_proc	_ZN18ImGuiTextEditStateD1Ev
_ZN18ImGuiTextEditStateD1Ev:
.LFB267:
	pushq	%rbx
	.seh_pushreg	%rbx
	subq	$32, %rsp
	.seh_stackalloc	32
	.seh_endprologue
	movq	%rcx, %rbx
	movq	48(%rcx), %rcx
	testq	%rcx, %rcx
	je	.L833
	movq	GImGui(%rip), %rax
	decl	844(%rax)
	call	*240(%rax)
.L833:
	movq	32(%rbx), %rcx
	testq	%rcx, %rcx
	je	.L847
	movq	GImGui(%rip), %rax
	decl	844(%rax)
	call	*240(%rax)
	movq	16(%rbx), %rcx
	testq	%rcx, %rcx
	je	.L832
.L834:
	movq	GImGui(%rip), %rax
	decl	844(%rax)
	movq	240(%rax), %rax
	addq	$32, %rsp
	popq	%rbx
	rex.W jmp *%rax
	.p2align 4,,7
.L847:
	movq	16(%rbx), %rcx
	testq	%rcx, %rcx
	jne	.L834
.L832:
	addq	$32, %rsp
	popq	%rbx
	ret
	.seh_handler	__gxx_personality_seh0, @unwind, @except
	.seh_handlerdata
.LLSDA267:
	.byte	0xff
	.byte	0xff
	.byte	0x1
	.uleb128 .LLSDACSE267-.LLSDACSB267
.LLSDACSB267:
.LLSDACSE267:
	.section	.text$_ZN18ImGuiTextEditStateD1Ev,"x"
	.linkonce discard
	.seh_endproc
	.text
	.align 2
	.p2align 4,,15
	.globl	_ZN10ImGuiStyleC2Ev
	.def	_ZN10ImGuiStyleC2Ev;	.scl	2;	.type	32;	.endef
	.seh_proc	_ZN10ImGuiStyleC2Ev
_ZN10ImGuiStyleC2Ev:
.LFB288:
	.seh_endprologue
	leaq	128(%rcx), %rax
	leaq	816(%rcx), %rdx
	.p2align 4,,7
.L849:
	movq	$0, (%rax)
	movq	$0, 8(%rax)
	addq	$16, %rax
	cmpq	%rax, %rdx
	jne	.L849
	movl	$0x3f800000, (%rcx)
	movl	$0x41000000, 4(%rcx)
	movl	$0x41000000, 8(%rcx)
	movl	$0x42000000, 12(%rcx)
	movl	$0x42000000, 16(%rcx)
	movl	$0x41100000, 20(%rcx)
	movl	$0x00000000, 24(%rcx)
	movl	$0x3f000000, 28(%rcx)
	movl	$0x00000000, 32(%rcx)
	movl	$0x40800000, 36(%rcx)
	movl	$0x40400000, 40(%rcx)
	movl	$0x00000000, 44(%rcx)
	movl	$0x41000000, 48(%rcx)
	movl	$0x40800000, 52(%rcx)
	movl	$0x40800000, 56(%rcx)
	movl	$0x40800000, 60(%rcx)
	movl	$0x00000000, 64(%rcx)
	movl	$0x00000000, 68(%rcx)
	movl	$0x41a80000, 72(%rcx)
	movl	$0x40c00000, 76(%rcx)
	movl	$0x41800000, 80(%rcx)
	movl	$0x41100000, 84(%rcx)
	movl	$0x41200000, 88(%rcx)
	movl	$0x00000000, 92(%rcx)
	movl	$0x3f000000, 96(%rcx)
	movl	$0x3f000000, 100(%rcx)
	movl	$0x41b00000, 104(%rcx)
	movl	$0x41b00000, 108(%rcx)
	movl	$0x40800000, 112(%rcx)
	movl	$0x40800000, 116(%rcx)
	movb	$1, 120(%rcx)
	movb	$1, 121(%rcx)
	movl	$0x3fa00000, 124(%rcx)
	movl	$0x3f666666, 128(%rcx)
	movl	$0x3f666666, 132(%rcx)
	movl	$0x3f666666, 136(%rcx)
	movl	$0x3f800000, 140(%rcx)
	movl	$0x3f19999a, 144(%rcx)
	movl	$0x3f19999a, 148(%rcx)
	movl	$0x3f19999a, 152(%rcx)
	movl	$0x3f800000, 156(%rcx)
	movl	$0x00000000, 160(%rcx)
	movl	$0x00000000, 164(%rcx)
	movl	$0x00000000, 168(%rcx)
	movl	$0x3f333333, 172(%rcx)
	movl	$0x00000000, 176(%rcx)
	movl	$0x00000000, 180(%rcx)
	movl	$0x00000000, 184(%rcx)
	movl	$0x00000000, 188(%rcx)
	movl	$0x3d4ccccd, 192(%rcx)
	movl	$0x3d4ccccd, 196(%rcx)
	movl	$0x3dcccccd, 200(%rcx)
	movl	$0x3f666666, 204(%rcx)
	movl	$0x3f333333, 208(%rcx)
	movl	$0x3f333333, 212(%rcx)
	movl	$0x3f333333, 216(%rcx)
	movl	$0x3f266666, 220(%rcx)
	movl	$0x00000000, 224(%rcx)
	movl	$0x00000000, 228(%rcx)
	movl	$0x00000000, 232(%rcx)
	movl	$0x00000000, 236(%rcx)
	movl	$0x3f4ccccd, 240(%rcx)
	movl	$0x3f4ccccd, 244(%rcx)
	movl	$0x3f4ccccd, 248(%rcx)
	movl	$0x3e99999a, 252(%rcx)
	movl	$0x3f666666, 256(%rcx)
	movl	$0x3f4ccccd, 260(%rcx)
	movl	$0x3f4ccccd, 264(%rcx)
	movl	$0x3ecccccd, 268(%rcx)
	movl	$0x3f666666, 272(%rcx)
	movl	$0x3f266666, 276(%rcx)
	movl	$0x3f266666, 280(%rcx)
	movl	$0x3ee66666, 284(%rcx)
	movl	$0x3e8a3d71, 288(%rcx)
	movl	$0x3e8a3d71, 292(%rcx)
	movl	$0x3f0a3d71, 296(%rcx)
	movl	$0x3f547ae1, 300(%rcx)
	movl	$0x3ecccccd, 304(%rcx)
	movl	$0x3ecccccd, 308(%rcx)
	movl	$0x3f4ccccd, 312(%rcx)
	movl	$0x3e4ccccd, 316(%rcx)
	movl	$0x3ea3d70a, 320(%rcx)
	movl	$0x3ea3d70a, 324(%rcx)
	movl	$0x3f2147ae, 328(%rcx)
	movl	$0x3f5eb852, 332(%rcx)
	movl	$0x3ecccccd, 336(%rcx)
	movl	$0x3ecccccd, 340(%rcx)
	movl	$0x3f0ccccd, 344(%rcx)
	movl	$0x3f4ccccd, 348(%rcx)
	movl	$0x3e4ccccd, 352(%rcx)
	movl	$0x3e800000, 356(%rcx)
	movl	$0x3e99999a, 360(%rcx)
	movl	$0x3f19999a, 364(%rcx)
	movl	$0x3ecccccd, 368(%rcx)
	movl	$0x3ecccccd, 372(%rcx)
	movl	$0x3f4ccccd, 376(%rcx)
	movl	$0x3e99999a, 380(%rcx)
	movl	$0x3ecccccd, 384(%rcx)
	movl	$0x3ecccccd, 388(%rcx)
	movl	$0x3f4ccccd, 392(%rcx)
	movl	$0x3ecccccd, 396(%rcx)
	movl	$0x3f4ccccd, 400(%rcx)
	movl	$0x3f000000, 404(%rcx)
	movl	$0x3f000000, 408(%rcx)
	movl	$0x3ecccccd, 412(%rcx)
	movl	$0x3e4ccccd, 416(%rcx)
	movl	$0x3e4ccccd, 420(%rcx)
	movl	$0x3e4ccccd, 424(%rcx)
	movl	$0x3f7d70a4, 428(%rcx)
	movl	$0x3f666666, 432(%rcx)
	movl	$0x3f666666, 436(%rcx)
	movl	$0x3f666666, 440(%rcx)
	movl	$0x3f000000, 444(%rcx)
	movl	$0x3f800000, 448(%rcx)
	movl	$0x3f800000, 452(%rcx)
	movl	$0x3f800000, 456(%rcx)
	movl	$0x3e99999a, 460(%rcx)
	movl	$0x3f4ccccd, 464(%rcx)
	movl	$0x3f000000, 468(%rcx)
	movl	$0x3f000000, 472(%rcx)
	movl	$0x3f800000, 476(%rcx)
	movl	$0x3f2b851f, 480(%rcx)
	movl	$0x3ecccccd, 484(%rcx)
	movl	$0x3ecccccd, 488(%rcx)
	movl	$0x3f19999a, 492(%rcx)
	movl	$0x3f2b851f, 496(%rcx)
	movl	$0x3ecccccd, 500(%rcx)
	movl	$0x3ecccccd, 504(%rcx)
	movl	$0x3f800000, 508(%rcx)
	movl	$0x3f4ccccd, 512(%rcx)
	movl	$0x3f000000, 516(%rcx)
	movl	$0x3f000000, 520(%rcx)
	movl	$0x3f800000, 524(%rcx)
	movl	$0x3ecccccd, 528(%rcx)
	movl	$0x3ecccccd, 532(%rcx)
	movl	$0x3f666666, 536(%rcx)
	movl	$0x3ee66666, 540(%rcx)
	movl	$0x3ee66666, 544(%rcx)
	movl	$0x3ee66666, 548(%rcx)
	movl	$0x3f666666, 552(%rcx)
	movl	$0x3f4ccccd, 556(%rcx)
	movl	$0x3f07ae14, 560(%rcx)
	movl	$0x3f07ae14, 564(%rcx)
	movl	$0x3f5eb852, 568(%rcx)
	movl	$0x3f4ccccd, 572(%rcx)
	movl	$0x3f000000, 576(%rcx)
	movl	$0x3f000000, 580(%rcx)
	movl	$0x3f000000, 584(%rcx)
	movl	$0x3f800000, 588(%rcx)
	movl	$0x3f333333, 592(%rcx)
	movl	$0x3f19999a, 596(%rcx)
	movl	$0x3f19999a, 600(%rcx)
	movl	$0x3f800000, 604(%rcx)
	movl	$0x3f666666, 608(%rcx)
	movl	$0x3f333333, 612(%rcx)
	movl	$0x3f333333, 616(%rcx)
	movl	$0x3f800000, 620(%rcx)
	movl	$0x3f800000, 624(%rcx)
	movl	$0x3f800000, 628(%rcx)
	movl	$0x3f800000, 632(%rcx)
	movl	$0x3e99999a, 636(%rcx)
	movl	$0x3f800000, 640(%rcx)
	movl	$0x3f800000, 644(%rcx)
	movl	$0x3f800000, 648(%rcx)
	movl	$0x3f19999a, 652(%rcx)
	movl	$0x3f800000, 656(%rcx)
	movl	$0x3f800000, 660(%rcx)
	movl	$0x3f800000, 664(%rcx)
	movl	$0x3f666666, 668(%rcx)
	movl	$0x3f000000, 672(%rcx)
	movl	$0x3f000000, 676(%rcx)
	movl	$0x3f666666, 680(%rcx)
	movl	$0x3f000000, 684(%rcx)
	movl	$0x3f333333, 688(%rcx)
	movl	$0x3f333333, 692(%rcx)
	movl	$0x3f666666, 696(%rcx)
	movl	$0x3f19999a, 700(%rcx)
	movl	$0x3f333333, 704(%rcx)
	movl	$0x3f333333, 708(%rcx)
	movl	$0x3f333333, 712(%rcx)
	movl	$0x3f800000, 716(%rcx)
	movl	$0x3f800000, 720(%rcx)
	movl	$0x3f800000, 724(%rcx)
	movl	$0x3f800000, 728(%rcx)
	movl	$0x3f800000, 732(%rcx)
	movl	$0x3f666666, 736(%rcx)
	movl	$0x3f333333, 740(%rcx)
	movl	$0x00000000, 744(%rcx)
	movl	$0x3f800000, 748(%rcx)
	movl	$0x3f666666, 752(%rcx)
	movl	$0x3f333333, 756(%rcx)
	movl	$0x00000000, 760(%rcx)
	movl	$0x3f800000, 764(%rcx)
	movl	$0x3f800000, 768(%rcx)
	movl	$0x3f19999a, 772(%rcx)
	movl	$0x00000000, 776(%rcx)
	movl	$0x3f800000, 780(%rcx)
	movl	$0x00000000, 784(%rcx)
	movl	$0x00000000, 788(%rcx)
	movl	$0x3f800000, 792(%rcx)
	movl	$0x3eb33333, 796(%rcx)
	movl	$0x3e4ccccd, 800(%rcx)
	movl	$0x3e4ccccd, 804(%rcx)
	movl	$0x3e4ccccd, 808(%rcx)
	movl	$0x3eb33333, 812(%rcx)
	ret
	.seh_endproc
	.globl	_ZN10ImGuiStyleC1Ev
	.def	_ZN10ImGuiStyleC1Ev;	.scl	2;	.type	32;	.endef
	.set	_ZN10ImGuiStyleC1Ev,_ZN10ImGuiStyleC2Ev
	.section .rdata,"dr"
.LC67:
	.ascii "imgui.ini\0"
.LC68:
	.ascii "imgui_log.txt\0"
	.text
	.align 2
	.p2align 4,,15
	.globl	_ZN7ImGuiIOC2Ev
	.def	_ZN7ImGuiIOC2Ev;	.scl	2;	.type	32;	.endef
	.seh_proc	_ZN7ImGuiIOC2Ev
_ZN7ImGuiIOC2Ev:
.LFB291:
	pushq	%rdi
	.seh_pushreg	%rdi
	pushq	%rsi
	.seh_pushreg	%rsi
	pushq	%rbx
	.seh_pushreg	%rbx
	.seh_endprologue
	xorl	%eax, %eax
	movaps	.LC69(%rip), %xmm0
	leaq	8(%rcx), %rdi
	movq	%rcx, %r8
	movq	$0, 876(%rcx)
	movq	$0, 884(%rcx)
	movq	$0, 892(%rcx)
	andq	$-8, %rdi
	movq	$0, 900(%rcx)
	movl	$0x00000000, 912(%rcx)
	movl	$0x00000000, 908(%rcx)
	movq	$0, 5104(%rcx)
	subq	%rdi, %rcx
	addl	$5112, %ecx
	shrl	$3, %ecx
	rep stosq
	leaq	.LC67(%rip), %rax
	movl	$0xbf800000, (%r8)
	movl	$0xbf800000, 4(%r8)
	movl	$0x3c888889, 8(%r8)
	movl	$0x40a00000, 12(%r8)
	movlps	%xmm0, 972(%r8)
	movq	%rax, 16(%r8)
	leaq	.LC68(%rip), %rax
	movl	$0x3f800000, 144(%r8)
	movq	$0, 152(%r8)
	movhps	%xmm0, 980(%r8)
	movq	%rax, 24(%r8)
	leaq	_ZL19GImDefaultFontAtlas(%rip), %rax
	movl	$0x3f800000, 160(%r8)
	movl	$0x3f800000, 164(%r8)
	movlps	%xmm0, 952(%r8)
	movq	%rax, 136(%r8)
	leaq	3060(%r8), %rax
	movl	$0xbf800000, 256(%r8)
	movl	$0xbf800000, 260(%r8)
	movhps	%xmm0, 960(%r8)
	andl	$15, %eax
	movl	$0xbf800000, 860(%r8)
	movl	$0xbf800000, 864(%r8)
	shrq	$2, %rax
	movl	$0x3e99999a, 32(%r8)
	negq	%rax
	movl	$0x40c00000, 36(%r8)
	movl	$0x40c00000, 40(%r8)
	andl	$3, %eax
	movl	$0xbf800000, 988(%r8)
	movl	$0xbf800000, 968(%r8)
	je	.L860
	cmpl	$1, %eax
	movl	$0xbf800000, 3060(%r8)
	movl	$0xbf800000, 1012(%r8)
	je	.L861
	cmpl	$2, %eax
	movl	$0xbf800000, 3064(%r8)
	movl	$0xbf800000, 1016(%r8)
	je	.L862
	movl	$0xbf800000, 3068(%r8)
	movl	$0xbf800000, 1020(%r8)
	movl	$509, %edi
	movl	$3, %r11d
.L853:
	movl	$512, %ebx
	movl	%eax, %edx
	movl	$127, %r10d
	subl	%eax, %ebx
	movl	$508, %esi
.L852:
	leaq	3060(,%rdx,4), %rax
	xorl	%ecx, %ecx
	leaq	(%r8,%rax), %r9
	leaq	-2048(%r8,%rax), %rdx
	.p2align 4,,7
.L854:
	addl	$4, %ecx
	prefetcht0	464(%r9)
	prefetcht0	464(%rdx)
	movaps	%xmm0, (%r9)
	addq	$64, %rdx
	addq	$64, %r9
	movlps	%xmm0, -64(%rdx)
	movhps	%xmm0, -56(%rdx)
	movaps	%xmm0, -48(%r9)
	movhps	%xmm0, -48(%rdx)
	movhps	%xmm0, -40(%rdx)
	movaps	%xmm0, -32(%r9)
	movhps	%xmm0, -32(%rdx)
	movhps	%xmm0, -24(%rdx)
	movaps	%xmm0, -16(%r9)
	movhps	%xmm0, -16(%rdx)
	movhps	%xmm0, -8(%rdx)
	cmpl	$124, %ecx
	jne	.L854
	xorl	%eax, %eax
	.p2align 4,,7
.L859:
	incl	%ecx
	movaps	%xmm0, (%r9,%rax)
	movlps	%xmm0, (%rdx,%rax)
	movhps	%xmm0, 8(%rdx,%rax)
	addq	$16, %rax
	cmpl	%r10d, %ecx
	jb	.L859
	addl	%esi, %r11d
	subl	%esi, %edi
	cmpl	%ebx, %esi
	je	.L856
	movslq	%r11d, %rax
	cmpl	$1, %edi
	leaq	(%r8,%rax,4), %rax
	movl	$0xbf800000, 3060(%rax)
	movl	$0xbf800000, 1012(%rax)
	leal	1(%r11), %eax
	je	.L856
	cltq
	addl	$2, %r11d
	cmpl	$2, %edi
	leaq	(%r8,%rax,4), %rax
	movl	$0xbf800000, 3060(%rax)
	movl	$0xbf800000, 1012(%rax)
	je	.L856
	movslq	%r11d, %r11
	leaq	(%r8,%r11,4), %rax
	movl	$0xbf800000, 3060(%rax)
	movl	$0xbf800000, 1012(%rax)
.L856:
	leaq	52(%r8), %rdi
	movl	%r8d, %edx
	movq	$-1, %rax
	movq	%rax, 44(%r8)
	movq	%rax, 112(%r8)
	andq	$-8, %rdi
	subl	%edi, %edx
	leal	120(%rdx), %ecx
	shrl	$3, %ecx
	rep stosq
	movq	.refptr.malloc(%rip), %rax
	movl	$0x3e800000, 120(%r8)
	movl	$0x3d4ccccd, 124(%r8)
	movq	$0, 128(%r8)
	movq	$0, 192(%r8)
	movq	$0, 216(%r8)
	movq	%rax, 224(%r8)
	movq	.refptr.free(%rip), %rax
	movq	%rax, 232(%r8)
	leaq	_ZL30GetClipboardTextFn_DefaultImplPv(%rip), %rax
	movq	%rax, 200(%r8)
	leaq	_ZL30SetClipboardTextFn_DefaultImplPvPKc(%rip), %rax
	movq	%rax, 208(%r8)
	leaq	_ZL34ImeSetInputScreenPosFn_DefaultImplii(%rip), %rax
	movq	%rax, 240(%r8)
	popq	%rbx
	popq	%rsi
	popq	%rdi
	ret
	.p2align 4,,7
.L860:
	movl	$512, %edi
	xorl	%r11d, %r11d
	movl	$512, %ebx
	xorl	%edx, %edx
	movl	$128, %r10d
	movl	$512, %esi
	jmp	.L852
	.p2align 4,,7
.L862:
	movl	$510, %edi
	movl	$2, %r11d
	jmp	.L853
	.p2align 4,,7
.L861:
	movl	$511, %edi
	movl	$1, %r11d
	jmp	.L853
	.seh_endproc
	.globl	_ZN7ImGuiIOC1Ev
	.def	_ZN7ImGuiIOC1Ev;	.scl	2;	.type	32;	.endef
	.set	_ZN7ImGuiIOC1Ev,_ZN7ImGuiIOC2Ev
	.section .rdata,"dr"
.LC74:
	.ascii "##Overlay\0"
	.section	.text$_ZN12ImGuiContextC1Ev,"x"
	.linkonce discard
	.align 2
	.p2align 4,,15
	.globl	_ZN12ImGuiContextC1Ev
	.def	_ZN12ImGuiContextC1Ev;	.scl	2;	.type	32;	.endef
	.seh_proc	_ZN12ImGuiContextC1Ev
_ZN12ImGuiContextC1Ev:
.LFB275:
	pushq	%r13
	.seh_pushreg	%r13
	pushq	%r12
	.seh_pushreg	%r12
	pushq	%rbp
	.seh_pushreg	%rbp
	pushq	%rdi
	.seh_pushreg	%rdi
	pushq	%rsi
	.seh_pushreg	%rsi
	pushq	%rbx
	.seh_pushreg	%rbx
	subq	$40, %rsp
	.seh_stackalloc	40
	.seh_endprologue
	movq	%rcx, %rbx
	leaq	8(%rcx), %rcx
	leaq	6392(%rbx), %rbp
	leaq	6336(%rbx), %r13
	call	_ZN7ImGuiIOC1Ev
	leaq	5120(%rbx), %rcx
	call	_ZN10ImGuiStyleC1Ev
	movl	$0x00000000, 5956(%rbx)
	movl	$0x00000000, 5952(%rbx)
	movq	%rbp, %rcx
	movl	$0, 5980(%rbx)
	movl	$0, 5976(%rbx)
	movq	$0, 5984(%rbx)
	movl	$0, 5996(%rbx)
	movl	$0, 5992(%rbx)
	movq	$0, 6000(%rbx)
	movl	$0, 6020(%rbx)
	movl	$0, 6016(%rbx)
	movq	$0, 6024(%rbx)
	movl	$0x00000000, 6084(%rbx)
	movl	$0x00000000, 6080(%rbx)
	movl	$0, 6116(%rbx)
	movl	$0, 6112(%rbx)
	movq	$0, 6120(%rbx)
	movl	$0, 6140(%rbx)
	movl	$0, 6136(%rbx)
	movq	$0, 6144(%rbx)
	movl	$0, 6156(%rbx)
	movl	$0, 6152(%rbx)
	movq	$0, 6160(%rbx)
	movl	$0, 6172(%rbx)
	movl	$0, 6168(%rbx)
	movq	$0, 6176(%rbx)
	movl	$0, 6188(%rbx)
	movl	$0, 6184(%rbx)
	movq	$0, 6192(%rbx)
	movl	$0, 6204(%rbx)
	movl	$0, 6200(%rbx)
	movq	$0, 6208(%rbx)
	movl	$0x00000000, 6220(%rbx)
	movl	$0x00000000, 6216(%rbx)
	movl	$0x00000000, 6228(%rbx)
	movl	$0x00000000, 6224(%rbx)
	movl	$0x00000000, 6236(%rbx)
	movl	$0x00000000, 6232(%rbx)
	movl	$0x7f7fffff, 6260(%rbx)
	movl	$0x7f7fffff, 6264(%rbx)
	movl	$0xff7fffff, 6268(%rbx)
	movl	$0xff7fffff, 6272(%rbx)
	movb	$0, 6304(%rbx)
	movq	$0, 6312(%rbx)
	movl	$0, 6328(%rbx)
	movl	$0, 6324(%rbx)
	movl	$0, 6320(%rbx)
	movl	$0, 6340(%rbx)
	movl	$0, 6336(%rbx)
	movq	$0, 6344(%rbx)
	movl	$0, 6356(%rbx)
	movl	$0, 6352(%rbx)
	movq	$0, 6360(%rbx)
	movl	$0, 6372(%rbx)
	movl	$0, 6368(%rbx)
	movq	$0, 6376(%rbx)
.LEHB2:
	call	_ZN10ImDrawListC1Ev
.LEHE2:
	leaq	6912(%rbx), %r12
	leaq	6920(%rbx), %rdi
	xorl	%eax, %eax
	movl	$0x00000000, 6556(%rbx)
	movl	$0x00000000, 6552(%rbx)
	leaq	10216(%rbx), %rdx
	andq	$-8, %rdi
	movq	%r12, %rcx
	movl	$0x00000000, 6564(%rbx)
	subq	%rdi, %rcx
	movl	$0x00000000, 6560(%rbx)
	movl	$0x00000000, 6572(%rbx)
	addl	$3304, %ecx
	movl	$0x00000000, 6568(%rbx)
	movl	$0x00000000, 6580(%rbx)
	shrl	$3, %ecx
	movl	$0x00000000, 6576(%rbx)
	movl	$0x00000000, 6588(%rbx)
	movl	$0x00000000, 6584(%rbx)
	movl	$0x00000000, 6596(%rbx)
	leaq	6548(%rbx), %rsi
	movl	$0x00000000, 6592(%rbx)
	movl	$0x00000000, 6608(%rbx)
	movl	$0x00000000, 6604(%rbx)
	movl	$0x00000000, 6616(%rbx)
	movl	$0x00000000, 6612(%rbx)
	movl	$0x00000000, 6624(%rbx)
	movl	$0x00000000, 6620(%rbx)
	movl	$0x00000000, 6632(%rbx)
	movl	$0x00000000, 6628(%rbx)
	movl	$0x00000000, 6640(%rbx)
	movl	$0x00000000, 6636(%rbx)
	movl	$0x00000000, 6648(%rbx)
	movl	$0x00000000, 6644(%rbx)
	movl	$0x00000000, 6660(%rbx)
	movl	$0x00000000, 6656(%rbx)
	movl	$0x00000000, 6668(%rbx)
	movl	$0x00000000, 6664(%rbx)
	movl	$0x00000000, 6676(%rbx)
	movl	$0x00000000, 6672(%rbx)
	movl	$0x00000000, 6684(%rbx)
	movl	$0x00000000, 6680(%rbx)
	movl	$0x00000000, 6692(%rbx)
	movl	$0x00000000, 6688(%rbx)
	movl	$0x00000000, 6700(%rbx)
	movl	$0x00000000, 6696(%rbx)
	movl	$0x00000000, 6712(%rbx)
	movl	$0x00000000, 6708(%rbx)
	movl	$0x00000000, 6720(%rbx)
	movl	$0x00000000, 6716(%rbx)
	movl	$0x00000000, 6728(%rbx)
	movl	$0x00000000, 6724(%rbx)
	movl	$0x00000000, 6736(%rbx)
	movl	$0x00000000, 6732(%rbx)
	movl	$0x00000000, 6744(%rbx)
	movl	$0x00000000, 6740(%rbx)
	movl	$0x00000000, 6752(%rbx)
	movl	$0x00000000, 6748(%rbx)
	movl	$0x00000000, 6764(%rbx)
	movl	$0x00000000, 6760(%rbx)
	movl	$0x00000000, 6772(%rbx)
	movl	$0x00000000, 6768(%rbx)
	movl	$0x00000000, 6780(%rbx)
	movl	$0x00000000, 6776(%rbx)
	movl	$0x00000000, 6788(%rbx)
	movl	$0x00000000, 6784(%rbx)
	movl	$0x00000000, 6796(%rbx)
	movl	$0x00000000, 6792(%rbx)
	movl	$0x00000000, 6804(%rbx)
	movl	$0x00000000, 6800(%rbx)
	movl	$0x00000000, 6816(%rbx)
	movl	$0x00000000, 6812(%rbx)
	movl	$0x00000000, 6824(%rbx)
	movl	$0x00000000, 6820(%rbx)
	movl	$0x00000000, 6832(%rbx)
	movl	$0x00000000, 6828(%rbx)
	movl	$0x00000000, 6840(%rbx)
	movl	$0x00000000, 6836(%rbx)
	movl	$0x00000000, 6848(%rbx)
	movl	$0x00000000, 6844(%rbx)
	movl	$0x00000000, 6856(%rbx)
	movl	$0x00000000, 6852(%rbx)
	movl	$0x00000000, 6868(%rbx)
	movl	$0x00000000, 6864(%rbx)
	movl	$0x00000000, 6876(%rbx)
	movl	$0x00000000, 6872(%rbx)
	movl	$0x00000000, 6884(%rbx)
	movl	$0x00000000, 6880(%rbx)
	movl	$0x00000000, 6892(%rbx)
	movl	$0x00000000, 6888(%rbx)
	movl	$0x00000000, 6900(%rbx)
	movl	$0x00000000, 6896(%rbx)
	movl	$0x00000000, 6908(%rbx)
	movl	$0x00000000, 6904(%rbx)
	movq	$0, 6912(%rbx)
	movq	$0, 10208(%rbx)
	rep stosq
	movq	%rdx, %rcx
.LEHB3:
	call	_ZN6ImFontC1Ev
.LEHE3:
	leaq	10392(%rbx), %rdi
	pxor	%xmm0, %xmm0
	movl	%ebx, %edx
	movl	$0, 10340(%rbx)
	movl	$0, 10336(%rbx)
	andq	$-8, %rdi
	movq	$0, 10344(%rbx)
	movb	$0, (%rbx)
	subl	%edi, %edx
	movq	$0, 5936(%rbx)
	movl	$0x00000000, 5948(%rbx)
	leal	11408(%rdx), %ecx
	movl	$0x00000000, 5944(%rbx)
	movl	$0x00000000, 5952(%rbx)
	movl	$0x00000000, 5956(%rbx)
	movl	$0x00000000, 5960(%rbx)
	xorl	%eax, %eax
	movl	$0, 5964(%rbx)
	movl	$-1, 5972(%rbx)
	shrl	$3, %ecx
	movl	$-1, 5968(%rbx)
	movq	$0, 6008(%rbx)
	movq	$0, 6032(%rbx)
	movq	$0, 6040(%rbx)
	movq	$0, 6048(%rbx)
	movl	$0, 6056(%rbx)
	movb	$0, 6060(%rbx)
	movl	$0, 6064(%rbx)
	movl	$0, 6068(%rbx)
	movl	$0, 6072(%rbx)
	movb	$0, 6076(%rbx)
	movb	$0, 6077(%rbx)
	movb	$0, 6078(%rbx)
	movl	$0xbf800000, 6080(%rbx)
	movl	$0xbf800000, 6084(%rbx)
	movq	$0, 6088(%rbx)
	movq	$0, 6096(%rbx)
	movl	$0, 6104(%rbx)
	movl	$0x00000000, 6128(%rbx)
	movl	$0x00000000, 6216(%rbx)
	movl	$0x00000000, 6220(%rbx)
	movl	$0x00000000, 6224(%rbx)
	movups	%xmm0, 6244(%rbx)
	movl	$0x00000000, 6228(%rbx)
	movb	$0, 6240(%rbx)
	movaps	.LC71(%rip), %xmm0
	movq	$0, 6280(%rbx)
	movq	$0, 6288(%rbx)
	movaps	.LC72(%rip), %xmm1
	movb	$0, 6296(%rbx)
	movb	$0, 6297(%rbx)
	movaps	.LC73(%rip), %xmm2
	movb	$0, 6298(%rbx)
	movl	$0, 6300(%rbx)
	movlps	%xmm0, 6260(%rbx)
	movl	$0, 10328(%rbx)
	movq	$0, 10352(%rbx)
	movhps	%xmm0, 6268(%rbx)
	movq	$0, 10376(%rbx)
	movq	$0, 10384(%rbx)
	movhps	%xmm1, 10360(%rbx)
	movq	$0, 11400(%rbx)
	movlps	%xmm2, 10368(%rbx)
	rep stosq
	movl	$0xbf800000, 11424(%rbx)
	leaq	8(%rsi), %rdi
	movl	$0xbf800000, 11428(%rbx)
	movq	$0, 11408(%rbx)
	movq	11424(%rbx), %rdx
	andq	$-8, %rdi
	movl	$0x00000000, 6384(%rbx)
	movl	$0, 6544(%rbx)
	movq	$0, 6548(%rbx)
	movq	%rdx, 11416(%rbx)
	leaq	.LC74(%rip), %rdx
	movq	%rdx, 6440(%rbx)
	movq	$0, 356(%rsi)
	subq	%rdi, %rsi
	leal	364(%rsi), %ecx
	movl	%ebx, %edx
	shrl	$3, %ecx
	rep stosq
	leaq	11472(%rbx), %rdi
	movb	$0, 11432(%rbx)
	movq	$0, 11440(%rbx)
	movq	$0, 11448(%rbx)
	movl	$0, 11456(%rbx)
	andq	$-8, %rdi
	movl	$2, 11460(%rbx)
	movq	$0, 11464(%rbx)
	subl	%edi, %edx
	movq	$0, 11936(%rbx)
	leal	11944(%rdx), %ecx
	shrl	$3, %ecx
	rep stosq
	leaq	11968(%rbx), %rdi
	movl	$0, 11944(%rbx)
	movl	$0x00000000, 11948(%rbx)
	movl	$-1, 11956(%rbx)
	movl	$-1, 11952(%rbx)
	andq	$-8, %rdi
	movq	$0, 11960(%rbx)
	movq	$0, 15025(%rbx)
	subl	%edi, %ebx
	leal	15033(%rbx), %ecx
	shrl	$3, %ecx
	rep stosq
	addq	$40, %rsp
	popq	%rbx
	popq	%rsi
	popq	%rdi
	popq	%rbp
	popq	%r12
	popq	%r13
	ret
.L889:
	movq	%rax, %rdi
.L874:
	leaq	6384(%rbx), %rsi
.L921:
	cmpq	%rsi, %r13
	je	.L922
	subq	$16, %rsi
	movq	8(%rsi), %rcx
	testq	%rcx, %rcx
	je	.L921
	movq	GImGui(%rip), %rax
	decl	844(%rax)
	call	*240(%rax)
	jmp	.L921
.L890:
	movq	%r12, %rcx
	movq	%rax, %rdi
	call	_ZN18ImGuiTextEditStateD1Ev
	movq	%rbp, %rcx
	call	_ZN10ImDrawListD1Ev
	jmp	.L874
.L922:
	movq	6208(%rbx), %rcx
	testq	%rcx, %rcx
	je	.L877
	movq	GImGui(%rip), %rax
	decl	844(%rax)
	call	*240(%rax)
.L877:
	movq	6192(%rbx), %rcx
	testq	%rcx, %rcx
	je	.L881
	movq	GImGui(%rip), %rax
	decl	844(%rax)
	call	*240(%rax)
.L881:
	movq	6176(%rbx), %rcx
	testq	%rcx, %rcx
	je	.L882
	movq	GImGui(%rip), %rax
	decl	844(%rax)
	call	*240(%rax)
.L882:
	movq	6160(%rbx), %rcx
	testq	%rcx, %rcx
	je	.L883
	movq	GImGui(%rip), %rax
	decl	844(%rax)
	call	*240(%rax)
.L883:
	movq	6144(%rbx), %rcx
	testq	%rcx, %rcx
	je	.L884
	movq	GImGui(%rip), %rax
	decl	844(%rax)
	call	*240(%rax)
.L884:
	movq	6120(%rbx), %rcx
	testq	%rcx, %rcx
	je	.L885
	movq	GImGui(%rip), %rax
	decl	844(%rax)
	call	*240(%rax)
.L885:
	movq	6024(%rbx), %rcx
	testq	%rcx, %rcx
	je	.L886
	movq	GImGui(%rip), %rax
	decl	844(%rax)
	call	*240(%rax)
.L886:
	movq	6000(%rbx), %rcx
	testq	%rcx, %rcx
	je	.L887
	movq	GImGui(%rip), %rax
	decl	844(%rax)
	call	*240(%rax)
.L887:
	movq	5984(%rbx), %rcx
	testq	%rcx, %rcx
	je	.L888
	movq	GImGui(%rip), %rax
	decl	844(%rax)
	call	*240(%rax)
.L888:
	movq	%rdi, %rcx
.LEHB4:
	call	_Unwind_Resume
	nop
.LEHE4:
	.seh_handler	__gxx_personality_seh0, @unwind, @except
	.seh_handlerdata
.LLSDA275:
	.byte	0xff
	.byte	0xff
	.byte	0x1
	.uleb128 .LLSDACSE275-.LLSDACSB275
.LLSDACSB275:
	.uleb128 .LEHB2-.LFB275
	.uleb128 .LEHE2-.LEHB2
	.uleb128 .L889-.LFB275
	.uleb128 0
	.uleb128 .LEHB3-.LFB275
	.uleb128 .LEHE3-.LEHB3
	.uleb128 .L890-.LFB275
	.uleb128 0
	.uleb128 .LEHB4-.LFB275
	.uleb128 .LEHE4-.LEHB4
	.uleb128 0
	.uleb128 0
.LLSDACSE275:
	.section	.text$_ZN12ImGuiContextC1Ev,"x"
	.linkonce discard
	.seh_endproc
	.text
	.align 2
	.p2align 4,,15
	.globl	_ZN7ImGuiIO17AddInputCharacterEt
	.def	_ZN7ImGuiIO17AddInputCharacterEt;	.scl	2;	.type	32;	.endef
	.seh_proc	_ZN7ImGuiIO17AddInputCharacterEt
_ZN7ImGuiIO17AddInputCharacterEt:
.LFB293:
	.seh_endprologue
	cmpw	$0, 794(%rcx)
	leaq	796(%rcx), %rax
	je	.L927
	xorl	%r8d, %r8d
	jmp	.L925
	.p2align 4,,7
.L928:
	movl	%r9d, %r8d
.L925:
	addq	$2, %rax
	leal	1(%r8), %r9d
	cmpw	$0, -2(%rax)
	jne	.L928
	addl	$2, %r8d
	cmpl	$15, %r9d
	jg	.L923
.L924:
	movslq	%r9d, %r9
	movslq	%r8d, %r8
	movw	%dx, 794(%rcx,%r9,2)
	movw	$0, 794(%rcx,%r8,2)
.L923:
	rep ret
.L927:
	movl	$1, %r8d
	xorl	%r9d, %r9d
	jmp	.L924
	.seh_endproc
	.p2align 4,,15
	.globl	_Z19ImIsPointInTriangleRK6ImVec2S1_S1_S1_
	.def	_Z19ImIsPointInTriangleRK6ImVec2S1_S1_S1_;	.scl	2;	.type	32;	.endef
	.seh_proc	_Z19ImIsPointInTriangleRK6ImVec2S1_S1_S1_
_Z19ImIsPointInTriangleRK6ImVec2S1_S1_S1_:
.LFB295:
	subq	$88, %rsp
	.seh_stackalloc	88
	movaps	%xmm6, (%rsp)
	.seh_savexmm	%xmm6, 0
	movaps	%xmm7, 16(%rsp)
	.seh_savexmm	%xmm7, 16
	movaps	%xmm8, 32(%rsp)
	.seh_savexmm	%xmm8, 32
	movaps	%xmm9, 48(%rsp)
	.seh_savexmm	%xmm9, 48
	movaps	%xmm10, 64(%rsp)
	.seh_savexmm	%xmm10, 64
	.seh_endprologue
	movss	(%rcx), %xmm3
	movss	4(%r8), %xmm8
	movaps	%xmm3, %xmm5
	movaps	%xmm8, %xmm4
	movss	(%r9), %xmm1
	movss	4(%r9), %xmm0
	subss	%xmm1, %xmm5
	subss	%xmm0, %xmm4
	movss	(%r8), %xmm9
	movss	4(%rcx), %xmm2
	movaps	%xmm2, %xmm10
	movss	4(%rdx), %xmm7
	movss	(%rdx), %xmm6
	mulss	%xmm5, %xmm4
	movaps	%xmm9, %xmm5
	subss	%xmm0, %xmm10
	subss	%xmm1, %xmm5
	subss	%xmm7, %xmm0
	subss	%xmm6, %xmm1
	mulss	%xmm10, %xmm5
	movaps	%xmm3, %xmm10
	subss	%xmm6, %xmm3
	subss	%xmm9, %xmm10
	subss	%xmm5, %xmm4
	xorps	%xmm5, %xmm5
	mulss	%xmm3, %xmm0
	ucomiss	%xmm4, %xmm5
	movaps	%xmm7, %xmm4
	subss	%xmm8, %xmm4
	seta	%dl
	mulss	%xmm10, %xmm4
	movaps	%xmm2, %xmm10
	subss	%xmm7, %xmm2
	movaps	16(%rsp), %xmm7
	subss	%xmm8, %xmm10
	movaps	%xmm6, %xmm8
	movaps	(%rsp), %xmm6
	subss	%xmm9, %xmm8
	mulss	%xmm2, %xmm1
	movaps	48(%rsp), %xmm9
	mulss	%xmm10, %xmm8
	movaps	64(%rsp), %xmm10
	subss	%xmm1, %xmm0
	subss	%xmm8, %xmm4
	movaps	32(%rsp), %xmm8
	ucomiss	%xmm4, %xmm5
	seta	%al
	cmpb	%dl, %al
	sete	%cl
	ucomiss	%xmm0, %xmm5
	seta	%al
	cmpb	%dl, %al
	sete	%al
	andl	%ecx, %eax
	addq	$88, %rsp
	ret
	.seh_endproc
	.p2align 4,,15
	.globl	_Z9ImStricmpPKcS0_
	.def	_Z9ImStricmpPKcS0_;	.scl	2;	.type	32;	.endef
	.seh_proc	_Z9ImStricmpPKcS0_
_Z9ImStricmpPKcS0_:
.LFB296:
	pushq	%r12
	.seh_pushreg	%r12
	pushq	%rbp
	.seh_pushreg	%rbp
	pushq	%rdi
	.seh_pushreg	%rdi
	pushq	%rsi
	.seh_pushreg	%rsi
	pushq	%rbx
	.seh_pushreg	%rbx
	subq	$32, %rsp
	.seh_stackalloc	32
	.seh_endprologue
	movq	__imp_toupper(%rip), %r12
	movq	%rcx, %rdi
	movq	%rdx, %rsi
	jmp	.L932
	.p2align 4,,7
.L939:
	testb	%bpl, %bpl
	je	.L931
	incq	%rdi
	incq	%rsi
.L932:
	movsbl	(%rsi), %ecx
	call	*%r12
	movsbl	(%rdi), %ecx
	movl	%eax, %ebx
	movl	%ecx, %ebp
	call	*%r12
	subl	%eax, %ebx
	movl	%ebx, %eax
	je	.L939
.L931:
	addq	$32, %rsp
	popq	%rbx
	popq	%rsi
	popq	%rdi
	popq	%rbp
	popq	%r12
	ret
	.seh_endproc
	.p2align 4,,15
	.globl	_Z10ImStrnicmpPKcS0_i
	.def	_Z10ImStrnicmpPKcS0_i;	.scl	2;	.type	32;	.endef
	.seh_proc	_Z10ImStrnicmpPKcS0_i
_Z10ImStrnicmpPKcS0_i:
.LFB297:
	pushq	%r14
	.seh_pushreg	%r14
	pushq	%r13
	.seh_pushreg	%r13
	pushq	%r12
	.seh_pushreg	%r12
	pushq	%rbp
	.seh_pushreg	%rbp
	pushq	%rdi
	.seh_pushreg	%rdi
	pushq	%rsi
	.seh_pushreg	%rsi
	pushq	%rbx
	.seh_pushreg	%rbx
	subq	$32, %rsp
	.seh_stackalloc	32
	.seh_endprologue
	testl	%r8d, %r8d
	movq	%rcx, %r12
	movq	%rdx, %r13
	jle	.L943
	leal	-1(%r8), %ebp
	movq	__imp_toupper(%rip), %rdi
	xorl	%ebx, %ebx
	incq	%rbp
	.p2align 4,,7
.L942:
	movsbl	0(%r13,%rbx), %ecx
	call	*%rdi
	movsbl	(%r12,%rbx), %ecx
	movl	%eax, %esi
	movl	%ecx, %r14d
	call	*%rdi
	subl	%eax, %esi
	movl	%esi, %eax
	jne	.L941
	testb	%r14b, %r14b
	jne	.L948
.L941:
	addq	$32, %rsp
	popq	%rbx
	popq	%rsi
	popq	%rdi
	popq	%rbp
	popq	%r12
	popq	%r13
	popq	%r14
	ret
	.p2align 4,,7
.L948:
	incq	%rbx
	cmpq	%rbx, %rbp
	jne	.L942
	addq	$32, %rsp
	popq	%rbx
	popq	%rsi
	popq	%rdi
	popq	%rbp
	popq	%r12
	popq	%r13
	popq	%r14
	ret
.L943:
	xorl	%eax, %eax
	jmp	.L941
	.seh_endproc
	.p2align 4,,15
	.globl	_Z9ImStrncpyPcPKci
	.def	_Z9ImStrncpyPcPKci;	.scl	2;	.type	32;	.endef
	.seh_proc	_Z9ImStrncpyPcPKci
_Z9ImStrncpyPcPKci:
.LFB298:
	pushq	%rsi
	.seh_pushreg	%rsi
	pushq	%rbx
	.seh_pushreg	%rbx
	subq	$40, %rsp
	.seh_stackalloc	40
	.seh_endprologue
	testl	%r8d, %r8d
	movq	%rcx, %rsi
	jle	.L949
	movslq	%r8d, %rbx
	movq	%rbx, %r8
	call	strncpy
	movb	$0, -1(%rsi,%rbx)
.L949:
	addq	$40, %rsp
	popq	%rbx
	popq	%rsi
	ret
	.seh_endproc
	.p2align 4,,15
	.globl	_Z8ImStrdupPKc
	.def	_Z8ImStrdupPKc;	.scl	2;	.type	32;	.endef
	.seh_proc	_Z8ImStrdupPKc
_Z8ImStrdupPKc:
.LFB299:
	pushq	%rsi
	.seh_pushreg	%rsi
	pushq	%rbx
	.seh_pushreg	%rbx
	subq	$40, %rsp
	.seh_stackalloc	40
	.seh_endprologue
	movq	%rcx, %rsi
	call	strlen
	leaq	1(%rax), %rbx
	movq	GImGui(%rip), %rax
	movq	%rbx, %rcx
	incl	844(%rax)
	call	*232(%rax)
	movq	%rbx, %r8
	movq	%rsi, %rdx
	movq	%rax, %rcx
	addq	$40, %rsp
	popq	%rbx
	popq	%rsi
	jmp	memcpy
	.seh_endproc
	.p2align 4,,15
	.globl	_Z9ImStrlenWPKt
	.def	_Z9ImStrlenWPKt;	.scl	2;	.type	32;	.endef
	.seh_proc	_Z9ImStrlenWPKt
_Z9ImStrlenWPKt:
.LFB300:
	.seh_endprologue
	xorl	%eax, %eax
	cmpw	$0, (%rcx)
	leaq	2(%rcx), %rdx
	je	.L955
	.p2align 4,,7
.L954:
	addq	$2, %rdx
	incl	%eax
	cmpw	$0, -2(%rdx)
	jne	.L954
	rep ret
.L955:
	rep ret
	.seh_endproc
	.p2align 4,,15
	.globl	_Z9ImStrbolWPKtS0_
	.def	_Z9ImStrbolWPKtS0_;	.scl	2;	.type	32;	.endef
	.seh_proc	_Z9ImStrbolWPKtS0_
_Z9ImStrbolWPKtS0_:
.LFB301:
	.seh_endprologue
	cmpq	%rdx, %rcx
	movq	%rcx, %rax
	jbe	.L958
	cmpw	$10, -2(%rcx)
	jne	.L960
	jmp	.L962
	.p2align 4,,7
.L961:
	cmpw	$10, -2(%rax)
	je	.L958
.L960:
	subq	$2, %rax
	cmpq	%rax, %rdx
	jb	.L961
.L958:
	rep ret
.L962:
	.p2align 4,,4
	rep ret
	.seh_endproc
	.p2align 4,,15
	.globl	_Z9ImStristrPKcS0_S0_S0_
	.def	_Z9ImStristrPKcS0_S0_S0_;	.scl	2;	.type	32;	.endef
	.seh_proc	_Z9ImStristrPKcS0_S0_S0_
_Z9ImStristrPKcS0_S0_S0_:
.LFB302:
	pushq	%r15
	.seh_pushreg	%r15
	pushq	%r14
	.seh_pushreg	%r14
	pushq	%r13
	.seh_pushreg	%r13
	pushq	%r12
	.seh_pushreg	%r12
	pushq	%rbp
	.seh_pushreg	%rbp
	pushq	%rdi
	.seh_pushreg	%rdi
	pushq	%rsi
	.seh_pushreg	%rsi
	pushq	%rbx
	.seh_pushreg	%rbx
	subq	$56, %rsp
	.seh_stackalloc	56
	.seh_endprologue
	testq	%r9, %r9
	movq	%rcx, %rbp
	movq	%rdx, %r14
	movq	%r8, %rbx
	movq	%r9, %r12
	je	.L978
.L964:
	movsbl	(%rbx), %ecx
	movq	__imp_toupper(%rip), %rsi
	call	*%rsi
	leaq	1(%rbx), %rdx
	movsbl	%al, %eax
	movl	%eax, 36(%rsp)
	movq	%rdx, 40(%rsp)
	jmp	.L971
	.p2align 4,,7
.L968:
	movq	%r13, %rbp
.L971:
	testq	%r14, %r14
	je	.L979
	cmpq	%r14, %rbp
	jnb	.L973
	movsbl	0(%rbp), %ecx
.L967:
	call	*%rsi
	cmpl	36(%rsp), %eax
	leaq	1(%rbp), %r13
	jne	.L968
	movq	40(%rsp), %rax
	movq	%r13, %r15
	cmpq	%rax, %r12
	movq	%rax, %rbx
	ja	.L970
	jmp	.L969
	.p2align 4,,7
.L980:
	incq	%rbx
	incq	%r15
	cmpq	%rbx, %r12
	je	.L976
.L970:
	movsbl	(%r15), %ecx
	call	*%rsi
	movsbl	(%rbx), %ecx
	movl	%eax, %edi
	call	*%rsi
	cmpl	%eax, %edi
	je	.L980
.L969:
	cmpq	%rbx, %r12
	jne	.L968
	.p2align 4,,7
.L976:
	movq	%rbp, %rax
	jmp	.L966
	.p2align 4,,7
.L979:
	movsbl	0(%rbp), %ecx
	testb	%cl, %cl
	jne	.L967
.L973:
	xorl	%eax, %eax
.L966:
	addq	$56, %rsp
	popq	%rbx
	popq	%rsi
	popq	%rdi
	popq	%rbp
	popq	%r12
	popq	%r13
	popq	%r14
	popq	%r15
	ret
.L978:
	movq	%r8, %rcx
	call	strlen
	leaq	(%rbx,%rax), %r12
	jmp	.L964
	.seh_endproc
	.section .rdata,"dr"
.LC75:
	.ascii "buf_size > 0\0"
	.text
	.p2align 4,,15
	.globl	_Z14ImFormatStringPciPKcz
	.def	_Z14ImFormatStringPciPKcz;	.scl	2;	.type	32;	.endef
	.seh_proc	_Z14ImFormatStringPciPKcz
_Z14ImFormatStringPciPKcz:
.LFB303:
	pushq	%rdi
	.seh_pushreg	%rdi
	pushq	%rsi
	.seh_pushreg	%rsi
	pushq	%rbx
	.seh_pushreg	%rbx
	subq	$48, %rsp
	.seh_stackalloc	48
	.seh_endprologue
	testl	%edx, %edx
	movq	%rcx, %rsi
	movl	%edx, %ebx
	movq	%r8, %rdi
	movq	%r9, 104(%rsp)
	jle	.L989
.L982:
	leaq	104(%rsp), %r9
	movslq	%ebx, %rdx
	movq	%rdi, %r8
	movq	%rsi, %rcx
	movq	%r9, 40(%rsp)
	call	__ms_vsnprintf
	cmpl	$-1, %eax
	je	.L985
	cmpl	%eax, %ebx
	jle	.L985
	movslq	%eax, %rdx
	movb	$0, (%rsi,%rdx)
	addq	$48, %rsp
	popq	%rbx
	popq	%rsi
	popq	%rdi
	ret
	.p2align 4,,7
.L985:
	leal	-1(%rbx), %eax
	movslq	%eax, %rdx
	movb	$0, (%rsi,%rdx)
	addq	$48, %rsp
	popq	%rbx
	popq	%rsi
	popq	%rdi
	ret
	.p2align 4,,7
.L989:
	leaq	.LC15(%rip), %rdx
	leaq	.LC75(%rip), %rcx
	movl	$973, %r8d
	call	_assert
	jmp	.L982
	.seh_endproc
	.p2align 4,,15
	.globl	_Z15ImFormatStringVPciPKcS_
	.def	_Z15ImFormatStringVPciPKcS_;	.scl	2;	.type	32;	.endef
	.seh_proc	_Z15ImFormatStringVPciPKcS_
_Z15ImFormatStringVPciPKcS_:
.LFB304:
	pushq	%rdi
	.seh_pushreg	%rdi
	pushq	%rsi
	.seh_pushreg	%rsi
	pushq	%rbx
	.seh_pushreg	%rbx
	subq	$48, %rsp
	.seh_stackalloc	48
	.seh_endprologue
	testl	%edx, %edx
	movq	%rcx, %rsi
	movl	%edx, %ebx
	movq	%r8, %rdi
	jle	.L998
.L991:
	movslq	%ebx, %rdx
	movq	%rdi, %r8
	movq	%rsi, %rcx
	call	__ms_vsnprintf
	cmpl	$-1, %eax
	je	.L994
	cmpl	%eax, %ebx
	jle	.L994
	movslq	%eax, %rdx
	movb	$0, (%rsi,%rdx)
	addq	$48, %rsp
	popq	%rbx
	popq	%rsi
	popq	%rdi
	ret
	.p2align 4,,7
.L994:
	leal	-1(%rbx), %eax
	movslq	%eax, %rdx
	movb	$0, (%rsi,%rdx)
	addq	$48, %rsp
	popq	%rbx
	popq	%rsi
	popq	%rdi
	ret
	.p2align 4,,7
.L998:
	leaq	.LC15(%rip), %rdx
	leaq	.LC75(%rip), %rcx
	movl	$986, %r8d
	movq	%r9, 40(%rsp)
	call	_assert
	movq	40(%rsp), %r9
	jmp	.L991
	.seh_endproc
	.p2align 4,,15
	.globl	_Z6ImHashPKvij
	.def	_Z6ImHashPKvij;	.scl	2;	.type	32;	.endef
	.seh_proc	_Z6ImHashPKvij
_Z6ImHashPKvij:
.LFB305:
	subq	$40, %rsp
	.seh_stackalloc	40
	movaps	%xmm6, (%rsp)
	.seh_savexmm	%xmm6, 0
	movaps	%xmm7, 16(%rsp)
	.seh_savexmm	%xmm7, 16
	.seh_endprologue
	leaq	_ZZ6ImHashPKvijE9crc32_lut(%rip), %r10
	movl	4+_ZZ6ImHashPKvijE9crc32_lut(%rip), %eax
	testl	%eax, %eax
	jne	.L1000
	pxor	%xmm3, %xmm3
	leaq	1024+_ZZ6ImHashPKvijE9crc32_lut(%rip), %r9
	movq	%r10, %rax
	movdqa	.LC23(%rip), %xmm6
	movdqa	.LC24(%rip), %xmm7
	movdqa	.LC25(%rip), %xmm5
	movdqa	.LC26(%rip), %xmm4
	.p2align 4,,7
.L1001:
	movdqa	%xmm6, %xmm0
	movdqa	%xmm3, %xmm2
	movdqa	%xmm6, %xmm1
	addq	$16, %rax
	paddd	%xmm7, %xmm6
	pand	%xmm5, %xmm0
	psrld	$1, %xmm1
	psubd	%xmm0, %xmm2
	movdqa	%xmm2, %xmm0
	movdqa	%xmm3, %xmm2
	pand	%xmm4, %xmm0
	pxor	%xmm1, %xmm0
	movdqa	%xmm0, %xmm1
	psrld	$1, %xmm0
	pand	%xmm5, %xmm1
	psubd	%xmm1, %xmm2
	pand	%xmm4, %xmm2
	movdqa	%xmm3, %xmm1
	pxor	%xmm0, %xmm2
	movdqa	%xmm2, %xmm0
	psrld	$1, %xmm2
	pand	%xmm5, %xmm0
	psubd	%xmm0, %xmm1
	pand	%xmm4, %xmm1
	pxor	%xmm2, %xmm1
	movdqa	%xmm3, %xmm2
	movdqa	%xmm1, %xmm0
	psrld	$1, %xmm1
	pand	%xmm5, %xmm0
	psubd	%xmm0, %xmm2
	movdqa	%xmm2, %xmm0
	movdqa	%xmm3, %xmm2
	pand	%xmm4, %xmm0
	pxor	%xmm1, %xmm0
	movdqa	%xmm0, %xmm1
	psrld	$1, %xmm0
	pand	%xmm5, %xmm1
	psubd	%xmm1, %xmm2
	pand	%xmm4, %xmm2
	movdqa	%xmm3, %xmm1
	pxor	%xmm0, %xmm2
	movdqa	%xmm2, %xmm0
	psrld	$1, %xmm2
	pand	%xmm5, %xmm0
	psubd	%xmm0, %xmm1
	pand	%xmm4, %xmm1
	pxor	%xmm2, %xmm1
	movdqa	%xmm3, %xmm2
	movdqa	%xmm1, %xmm0
	psrld	$1, %xmm1
	pand	%xmm5, %xmm0
	psubd	%xmm0, %xmm2
	movdqa	%xmm2, %xmm0
	movdqa	%xmm3, %xmm2
	pand	%xmm4, %xmm0
	pxor	%xmm1, %xmm0
	movdqa	%xmm0, %xmm1
	psrld	$1, %xmm0
	pand	%xmm5, %xmm1
	psubd	%xmm1, %xmm2
	movdqa	%xmm2, %xmm1
	pand	%xmm4, %xmm1
	pxor	%xmm1, %xmm0
	movaps	%xmm0, -16(%rax)
	cmpq	%r9, %rax
	jne	.L1001
.L1000:
	movl	%r8d, %eax
	testl	%edx, %edx
	leal	-1(%rdx), %r8d
	notl	%eax
	jle	.L1019
	movslq	%r8d, %r8
	leaq	1(%rcx,%r8), %r8
	.p2align 4,,7
.L1005:
	incq	%rcx
	movl	%eax, %edx
	xorb	-1(%rcx), %al
	shrl	$8, %edx
	movzbl	%al, %eax
	xorl	(%r10,%rax,4), %edx
	cmpq	%r8, %rcx
	movl	%edx, %eax
	jne	.L1005
.L1003:
	movaps	(%rsp), %xmm6
	notl	%eax
	movaps	16(%rsp), %xmm7
	addq	$40, %rsp
	ret
	.p2align 4,,7
.L1019:
	movzbl	(%rcx), %edx
	movl	%eax, %r9d
	leaq	1(%rcx), %r8
	testb	%dl, %dl
	jne	.L1007
	jmp	.L1003
	.p2align 4,,7
.L1006:
	movl	%eax, %ecx
	incq	%r8
	xorl	%edx, %eax
	movzbl	%al, %eax
	movzbl	-1(%r8), %edx
	shrl	$8, %ecx
	xorl	(%r10,%rax,4), %ecx
	testb	%dl, %dl
	movl	%ecx, %eax
	je	.L1003
.L1007:
	cmpb	$35, %dl
	jne	.L1006
	cmpb	$35, (%r8)
	jne	.L1006
	cmpb	$35, 1(%r8)
	cmove	%r9d, %eax
	jmp	.L1006
	.seh_endproc
	.align 2
	.p2align 4,,15
	.def	_ZN11ImGuiWindow5GetIDEPKcS1_.constprop.157;	.scl	3;	.type	32;	.endef
	.seh_proc	_ZN11ImGuiWindow5GetIDEPKcS1_.constprop.157
_ZN11ImGuiWindow5GetIDEPKcS1_.constprop.157:
.LFB6181:
	pushq	%rsi
	.seh_pushreg	%rsi
	pushq	%rbx
	.seh_pushreg	%rbx
	subq	$40, %rsp
	.seh_stackalloc	40
	.seh_endprologue
	movslq	496(%rcx), %rax
	movq	%rcx, %rbx
	movq	%rdx, %rsi
	testl	%eax, %eax
	jle	.L1023
.L1021:
	movq	504(%rbx), %rdx
	movq	%rsi, %rcx
	movl	-4(%rdx,%rax,4), %r8d
	xorl	%edx, %edx
	call	_Z6ImHashPKvij
	movq	GImGui(%rip), %rdx
	cmpl	6068(%rdx), %eax
	jne	.L1022
	movb	$1, 6076(%rdx)
.L1022:
	addq	$40, %rsp
	popq	%rbx
	popq	%rsi
	ret
	.p2align 4,,7
.L1023:
	leaq	.LC10(%rip), %rdx
	leaq	.LC14(%rip), %rcx
	movl	$866, %r8d
	call	_assert
	movslq	496(%rbx), %rax
	jmp	.L1021
	.seh_endproc
	.p2align 4,,15
	.globl	_Z18ImTextCharFromUtf8PjPKcS1_
	.def	_Z18ImTextCharFromUtf8PjPKcS1_;	.scl	2;	.type	32;	.endef
	.seh_proc	_Z18ImTextCharFromUtf8PjPKcS1_
_Z18ImTextCharFromUtf8PjPKcS1_:
.LFB306:
	.seh_endprologue
	movzbl	(%rdx), %eax
	testb	%al, %al
	js	.L1025
	movl	%eax, (%rcx)
	movl	$1, %eax
	ret
	.p2align 4,,7
.L1025:
	movl	%eax, %r9d
	andl	$-32, %r9d
	cmpb	$-64, %r9b
	je	.L1068
	movl	%eax, %r9d
	andl	$-16, %r9d
	cmpb	$-32, %r9b
	je	.L1069
	andl	$-8, %eax
	cmpb	$-16, %al
	je	.L1070
	movl	$0, (%rcx)
	xorl	%eax, %eax
.L1026:
	rep ret
	.p2align 4,,7
.L1069:
	testq	%r8, %r8
	movl	$65533, (%rcx)
	je	.L1030
	subq	%rdx, %r8
	cmpq	$2, %r8
	jle	.L1031
.L1030:
	movzbl	(%rdx), %r8d
	movzbl	1(%rdx), %r9d
	cmpb	$-32, %r8b
	je	.L1071
	cmpb	$-19, %r8b
	je	.L1072
.L1035:
	movl	%r9d, %r10d
	movl	$3, %eax
	andl	$-64, %r10d
	cmpb	$-128, %r10b
	jne	.L1026
.L1033:
	movzbl	2(%rdx), %r10d
	movl	$3, %eax
	movl	%r10d, %edx
	andl	$-64, %edx
	cmpb	$-128, %dl
	jne	.L1026
	movl	%r8d, %edx
	movl	%r10d, %r8d
	sall	$12, %edx
	andl	$63, %r8d
	andl	$61440, %edx
	addl	%r8d, %edx
	movl	%r9d, %r8d
	andl	$63, %r8d
	sall	$6, %r8d
	addl	%edx, %r8d
	movl	%r8d, (%rcx)
	ret
	.p2align 4,,7
.L1031:
	movl	$1, %eax
	ret
	.p2align 4,,7
.L1068:
	testq	%r8, %r8
	movl	$65533, (%rcx)
	je	.L1028
	subq	%rdx, %r8
	decq	%r8
	jle	.L1031
.L1028:
	movzbl	(%rdx), %r8d
	movl	$2, %eax
	cmpb	$-63, %r8b
	jbe	.L1026
	movzbl	1(%rdx), %edx
	movl	%edx, %r9d
	andl	$-64, %r9d
	cmpb	$-128, %r9b
	jne	.L1026
	andl	$31, %r8d
	andl	$63, %edx
	sall	$6, %r8d
	addl	%r8d, %edx
	movl	%edx, (%rcx)
	ret
	.p2align 4,,7
.L1070:
	testq	%r8, %r8
	movl	$65533, (%rcx)
	je	.L1037
	subq	%rdx, %r8
	cmpq	$3, %r8
	jle	.L1031
.L1037:
	movzbl	(%rdx), %r8d
	movl	$4, %eax
	cmpb	$-12, %r8b
	ja	.L1026
	cmpb	$-16, %r8b
	movzbl	1(%rdx), %r9d
	je	.L1073
	cmpb	$-12, %r8b
	je	.L1074
.L1041:
	movl	%r9d, %r10d
	movl	$4, %eax
	andl	$-64, %r10d
	cmpb	$-128, %r10b
	jne	.L1026
.L1039:
	movzbl	2(%rdx), %r11d
	movl	$4, %eax
	movl	%r11d, %r10d
	andl	$-64, %r10d
	cmpb	$-128, %r10b
	jne	.L1026
	movzbl	3(%rdx), %r10d
	movl	%r10d, %edx
	andl	$-64, %edx
	cmpb	$-128, %dl
	jne	.L1026
	movl	%r8d, %edx
	movl	%r11d, %r8d
	andl	$63, %r10d
	andl	$7, %edx
	andl	$63, %r8d
	sall	$6, %r8d
	sall	$18, %edx
	addl	%r8d, %edx
	leal	(%rdx,%r10), %r8d
	movl	%r9d, %edx
	andl	$63, %edx
	sall	$12, %edx
	addl	%r8d, %edx
	movl	%edx, %r8d
	andl	$-2048, %r8d
	cmpl	$55296, %r8d
	je	.L1026
	movl	%edx, (%rcx)
	ret
	.p2align 4,,7
.L1071:
	leal	96(%r9), %r10d
	movl	$3, %eax
	cmpb	$31, %r10b
	jbe	.L1033
	rep ret
	.p2align 4,,7
.L1072:
	cmpb	$-97, %r9b
	movl	$3, %eax
	jbe	.L1035
	.p2align 4,,2
	rep ret
.L1073:
	leal	112(%r9), %r10d
	cmpb	$47, %r10b
	jbe	.L1039
	.p2align 4,,3
	rep ret
.L1074:
	cmpb	$-113, %r9b
	jbe	.L1041
	.p2align 4,,7
	rep ret
	.seh_endproc
	.p2align 4,,15
	.def	_Z17ImTextStrFromUtf8PtiPKcS1_PS1_.constprop.167;	.scl	3;	.type	32;	.endef
	.seh_proc	_Z17ImTextStrFromUtf8PtiPKcS1_PS1_.constprop.167
_Z17ImTextStrFromUtf8PtiPKcS1_PS1_.constprop.167:
.LFB6171:
	pushq	%r13
	.seh_pushreg	%r13
	pushq	%r12
	.seh_pushreg	%r12
	pushq	%rbp
	.seh_pushreg	%rbp
	pushq	%rdi
	.seh_pushreg	%rdi
	pushq	%rsi
	.seh_pushreg	%rsi
	pushq	%rbx
	.seh_pushreg	%rbx
	subq	$56, %rsp
	.seh_stackalloc	56
	.seh_endprologue
	movslq	%edx, %rdx
	movq	%rcx, %rbp
	movq	%r8, %rbx
	leaq	-2(%rcx,%rdx,2), %rsi
	movq	%r9, %r12
	movq	%rcx, %r13
	cmpq	%rsi, %rcx
	jnb	.L1084
	cmpb	$0, (%r8)
	je	.L1084
	leaq	44(%rsp), %rdi
	jmp	.L1078
	.p2align 4,,7
.L1090:
	cmpl	$65535, %eax
	ja	.L1080
	movw	%ax, 0(%r13)
	addq	$2, %r13
.L1080:
	cmpq	%rsi, %r13
	jnb	.L1079
	cmpb	$0, (%rbx)
	je	.L1079
.L1078:
	xorl	%r8d, %r8d
	movq	%rbx, %rdx
	movq	%rdi, %rcx
	call	_Z18ImTextCharFromUtf8PjPKcS1_
	cltq
	addq	%rax, %rbx
	movl	44(%rsp), %eax
	testl	%eax, %eax
	jne	.L1090
.L1079:
	movq	%r13, %rax
	subq	%rbp, %rax
	shrq	%rax
.L1076:
	testq	%r12, %r12
	movw	$0, 0(%r13)
	je	.L1082
	movq	%rbx, (%r12)
.L1082:
	addq	$56, %rsp
	popq	%rbx
	popq	%rsi
	popq	%rdi
	popq	%rbp
	popq	%r12
	popq	%r13
	ret
.L1084:
	xorl	%eax, %eax
	jmp	.L1076
	.seh_endproc
	.p2align 4,,15
	.def	_ZL30SetClipboardTextFn_DefaultImplPvPKc;	.scl	3;	.type	32;	.endef
	.seh_proc	_ZL30SetClipboardTextFn_DefaultImplPvPKc
_ZL30SetClipboardTextFn_DefaultImplPvPKc:
.LFB5783:
	pushq	%rbp
	.seh_pushreg	%rbp
	pushq	%rdi
	.seh_pushreg	%rdi
	pushq	%rsi
	.seh_pushreg	%rsi
	pushq	%rbx
	.seh_pushreg	%rbx
	subq	$56, %rsp
	.seh_stackalloc	56
	.seh_endprologue
	xorl	%ecx, %ecx
	movq	%rdx, %rbp
	call	*__imp_OpenClipboard(%rip)
	testl	%eax, %eax
	jne	.L1104
.L1091:
	addq	$56, %rsp
	popq	%rbx
	popq	%rsi
	popq	%rdi
	popq	%rbp
	ret
	.p2align 4,,7
.L1104:
	cmpb	$0, 0(%rbp)
	je	.L1099
	movq	%rbp, %rbx
	xorl	%esi, %esi
	leaq	44(%rsp), %rdi
	jmp	.L1097
	.p2align 4,,7
.L1105:
	cmpl	$65536, %eax
	adcl	$0, %esi
	cmpb	$0, (%rbx)
	je	.L1095
.L1097:
	xorl	%r8d, %r8d
	movq	%rbx, %rdx
	movq	%rdi, %rcx
	call	_Z18ImTextCharFromUtf8PjPKcS1_
	cltq
	addq	%rax, %rbx
	movl	44(%rsp), %eax
	testl	%eax, %eax
	jne	.L1105
.L1095:
	incl	%esi
	movslq	%esi, %rdx
	addq	%rdx, %rdx
.L1094:
	movl	$2, %ecx
	call	*__imp_GlobalAlloc(%rip)
	testq	%rax, %rax
	movq	%rax, %rbx
	je	.L1091
	movq	%rax, %rcx
	call	*__imp_GlobalLock(%rip)
	xorl	%r9d, %r9d
	movq	%rbp, %r8
	movl	%esi, %edx
	movq	%rax, %rcx
	call	_Z17ImTextStrFromUtf8PtiPKcS1_PS1_.constprop.167
	movq	%rbx, %rcx
	call	*__imp_GlobalUnlock(%rip)
	call	*__imp_EmptyClipboard(%rip)
	movq	%rbx, %rdx
	movl	$13, %ecx
	call	*__imp_SetClipboardData(%rip)
	call	*__imp_CloseClipboard(%rip)
	nop
	addq	$56, %rsp
	popq	%rbx
	popq	%rsi
	popq	%rdi
	popq	%rbp
	ret
.L1099:
	movl	$2, %edx
	movl	$1, %esi
	jmp	.L1094
	.seh_endproc
	.align 2
	.p2align 4,,15
	.globl	_ZN7ImGuiIO22AddInputCharactersUTF8EPKc
	.def	_ZN7ImGuiIO22AddInputCharactersUTF8EPKc;	.scl	2;	.type	32;	.endef
	.seh_proc	_ZN7ImGuiIO22AddInputCharactersUTF8EPKc
_ZN7ImGuiIO22AddInputCharactersUTF8EPKc:
.LFB294:
	pushq	%r13
	.seh_pushreg	%r13
	pushq	%r12
	.seh_pushreg	%r12
	pushq	%rbp
	.seh_pushreg	%rbp
	pushq	%rdi
	.seh_pushreg	%rdi
	pushq	%rsi
	.seh_pushreg	%rsi
	pushq	%rbx
	.seh_pushreg	%rbx
	subq	$104, %rsp
	.seh_stackalloc	104
	.seh_endprologue
	cmpb	$0, (%rdx)
	leaq	48(%rsp), %rsi
	movq	%rcx, %rdi
	movq	%rdx, %rbx
	movq	%rsi, %r13
	je	.L1107
	leaq	44(%rsp), %rbp
	leaq	32(%rsi), %r12
	jmp	.L1109
	.p2align 4,,7
.L1126:
	cmpl	$65535, %eax
	ja	.L1111
	movw	%ax, 0(%r13)
	addq	$2, %r13
.L1111:
	cmpq	%r12, %r13
	jnb	.L1107
	cmpb	$0, (%rbx)
	je	.L1107
.L1109:
	xorl	%r8d, %r8d
	movq	%rbx, %rdx
	movq	%rbp, %rcx
	call	_Z18ImTextCharFromUtf8PjPKcS1_
	cltq
	addq	%rax, %rbx
	movl	44(%rsp), %eax
	testl	%eax, %eax
	jne	.L1126
.L1107:
	leaq	34(%rsi), %r10
	movw	$0, 0(%r13)
	movq	%rsi, %r8
	.p2align 4,,7
.L1118:
	movzwl	(%r8), %r9d
	testw	%r9w, %r9w
	je	.L1106
	cmpw	$0, 794(%rdi)
	leaq	796(%rdi), %rax
	je	.L1120
	xorl	%edx, %edx
	jmp	.L1115
	.p2align 4,,7
.L1121:
	movl	%ecx, %edx
.L1115:
	addq	$2, %rax
	leal	1(%rdx), %ecx
	cmpw	$0, -2(%rax)
	jne	.L1121
	addl	$2, %edx
	cmpl	$15, %ecx
	jle	.L1114
.L1116:
	addq	$2, %r8
	cmpq	%r10, %r8
	jne	.L1118
.L1106:
	addq	$104, %rsp
	popq	%rbx
	popq	%rsi
	popq	%rdi
	popq	%rbp
	popq	%r12
	popq	%r13
	ret
.L1120:
	movl	$1, %edx
	xorl	%ecx, %ecx
	.p2align 4,,7
.L1114:
	movslq	%ecx, %rcx
	movslq	%edx, %rdx
	movw	%r9w, 794(%rdi,%rcx,2)
	movw	$0, 794(%rdi,%rdx,2)
	jmp	.L1116
	.seh_endproc
	.p2align 4,,15
	.globl	_Z17ImTextStrFromUtf8PtiPKcS1_PS1_
	.def	_Z17ImTextStrFromUtf8PtiPKcS1_PS1_;	.scl	2;	.type	32;	.endef
	.seh_proc	_Z17ImTextStrFromUtf8PtiPKcS1_PS1_
_Z17ImTextStrFromUtf8PtiPKcS1_PS1_:
.LFB307:
	pushq	%r15
	.seh_pushreg	%r15
	pushq	%r14
	.seh_pushreg	%r14
	pushq	%r13
	.seh_pushreg	%r13
	pushq	%r12
	.seh_pushreg	%r12
	pushq	%rbp
	.seh_pushreg	%rbp
	pushq	%rdi
	.seh_pushreg	%rdi
	pushq	%rsi
	.seh_pushreg	%rsi
	pushq	%rbx
	.seh_pushreg	%rbx
	subq	$56, %rsp
	.seh_stackalloc	56
	.seh_endprologue
	movq	160(%rsp), %r14
	movslq	%edx, %rdx
	movq	%rcx, %r13
	movq	%r8, %rbx
	leaq	-2(%rcx,%rdx,2), %rdi
	movq	%r9, %rsi
	cmpq	%rdi, %rcx
	jnb	.L1138
	testq	%r9, %r9
	setne	%r12b
	cmpq	%r9, %r8
	jb	.L1140
	testb	%r12b, %r12b
	jne	.L1138
.L1140:
	cmpb	$0, (%rbx)
	movq	%r13, %r15
	je	.L1139
	leaq	44(%rsp), %rbp
	jmp	.L1132
	.p2align 4,,7
.L1154:
	cmpl	$65535, %eax
	ja	.L1134
	movw	%ax, (%r15)
	addq	$2, %r15
.L1134:
	cmpq	%rdi, %r15
	jnb	.L1133
	cmpq	%rbx, %rsi
	ja	.L1131
	testb	%r12b, %r12b
	jne	.L1133
.L1131:
	cmpb	$0, (%rbx)
	.p2align 4,,2
	je	.L1133
.L1132:
	movq	%rbx, %rdx
	movq	%rsi, %r8
	movq	%rbp, %rcx
	call	_Z18ImTextCharFromUtf8PjPKcS1_
	cltq
	addq	%rax, %rbx
	movl	44(%rsp), %eax
	testl	%eax, %eax
	jne	.L1154
.L1133:
	movq	%r15, %rax
	subq	%r13, %rax
	shrq	%rax
.L1128:
	testq	%r14, %r14
	movw	$0, (%r15)
	je	.L1136
	movq	%rbx, (%r14)
.L1136:
	addq	$56, %rsp
	popq	%rbx
	popq	%rsi
	popq	%rdi
	popq	%rbp
	popq	%r12
	popq	%r13
	popq	%r14
	popq	%r15
	ret
.L1138:
	movq	%r13, %r15
	xorl	%eax, %eax
	jmp	.L1128
.L1139:
	xorl	%eax, %eax
	jmp	.L1128
	.seh_endproc
	.p2align 4,,15
	.globl	_Z24ImTextCountCharsFromUtf8PKcS0_
	.def	_Z24ImTextCountCharsFromUtf8PKcS0_;	.scl	2;	.type	32;	.endef
	.seh_proc	_Z24ImTextCountCharsFromUtf8PKcS0_
_Z24ImTextCountCharsFromUtf8PKcS0_:
.LFB308:
	pushq	%r12
	.seh_pushreg	%r12
	pushq	%rbp
	.seh_pushreg	%rbp
	pushq	%rdi
	.seh_pushreg	%rdi
	pushq	%rsi
	.seh_pushreg	%rsi
	pushq	%rbx
	.seh_pushreg	%rbx
	subq	$48, %rsp
	.seh_stackalloc	48
	.seh_endprologue
	testq	%rdx, %rdx
	movq	%rcx, %rbx
	movq	%rdx, %rsi
	setne	%r12b
	xorl	%edi, %edi
	cmpq	%rdx, %rcx
	jb	.L1166
	testb	%r12b, %r12b
	jne	.L1156
.L1166:
	cmpb	$0, (%rbx)
	je	.L1156
	leaq	44(%rsp), %rbp
	jmp	.L1159
	.p2align 4,,7
.L1176:
	cmpl	$65536, %eax
	adcl	$0, %edi
	cmpq	%rbx, %rsi
	ja	.L1163
	testb	%r12b, %r12b
	jne	.L1156
.L1163:
	cmpb	$0, (%rbx)
	je	.L1156
.L1159:
	movq	%rbx, %rdx
	movq	%rsi, %r8
	movq	%rbp, %rcx
	call	_Z18ImTextCharFromUtf8PjPKcS1_
	cltq
	addq	%rax, %rbx
	movl	44(%rsp), %eax
	testl	%eax, %eax
	jne	.L1176
.L1156:
	movl	%edi, %eax
	addq	$48, %rsp
	popq	%rbx
	popq	%rsi
	popq	%rdi
	popq	%rbp
	popq	%r12
	ret
	.seh_endproc
	.p2align 4,,15
	.globl	_Z15ImTextStrToUtf8PciPKtS1_
	.def	_Z15ImTextStrToUtf8PciPKtS1_;	.scl	2;	.type	32;	.endef
	.seh_proc	_Z15ImTextStrToUtf8PciPKtS1_
_Z15ImTextStrToUtf8PciPKtS1_:
.LFB311:
	pushq	%rbp
	.seh_pushreg	%rbp
	pushq	%rdi
	.seh_pushreg	%rdi
	pushq	%rsi
	.seh_pushreg	%rsi
	pushq	%rbx
	.seh_pushreg	%rbx
	.seh_endprologue
	movslq	%edx, %rdx
	movq	%rcx, %rax
	leaq	(%rcx,%rdx), %rbx
	leaq	-1(%rbx), %rdx
.L1178:
	cmpq	%rdx, %rax
	jnb	.L1179
.L1197:
	testq	%r9, %r9
	je	.L1190
	cmpq	%r9, %r8
	jnb	.L1179
.L1190:
	movzwl	(%r8), %r10d
	testw	%r10w, %r10w
	je	.L1179
	movzwl	%r10w, %r11d
	addq	$2, %r8
	cmpl	$127, %r11d
	ja	.L1181
	movb	%r10b, (%rax)
	incq	%rax
	cmpq	%rdx, %rax
	jb	.L1197
.L1179:
	movb	$0, (%rax)
	subq	%rcx, %rax
	popq	%rbx
	popq	%rsi
	popq	%rdi
	popq	%rbp
	ret
	.p2align 4,,7
.L1181:
	movq	%rbx, %rsi
	subq	%rax, %rsi
	decl	%esi
	cmpl	$2047, %r11d
	ja	.L1183
	decl	%esi
	jle	.L1186
	shrl	$6, %r11d
	andl	$63, %r10d
	movl	$2, %edi
	subl	$64, %r11d
	addl	$-128, %r10d
	movb	%r11b, (%rax)
	movb	%r10b, 1(%rax)
.L1184:
	addq	%rdi, %rax
	jmp	.L1178
	.p2align 4,,7
.L1183:
	leal	-56320(%r11), %ebp
	xorl	%edi, %edi
	cmpl	$1023, %ebp
	jbe	.L1184
	leal	-55296(%r11), %ebp
	cmpl	$1023, %ebp
	ja	.L1185
	cmpl	$3, %esi
	jle	.L1184
	shrl	$6, %r11d
	andl	$63, %r10d
	movb	$-16, (%rax)
	andl	$63, %r11d
	addl	$-128, %r10d
	movb	$-115, 1(%rax)
	addl	$-128, %r11d
	movb	%r10b, 3(%rax)
	movl	$4, %edi
	movb	%r11b, 2(%rax)
	jmp	.L1184
	.p2align 4,,7
.L1185:
	cmpl	$2, %esi
	jle	.L1184
	movl	%r11d, %esi
	shrl	$6, %r11d
	andl	$63, %r10d
	shrl	$12, %esi
	andl	$63, %r11d
	addl	$-128, %r10d
	subl	$32, %esi
	addl	$-128, %r11d
	movb	%r10b, 2(%rax)
	movb	%sil, (%rax)
	movb	%r11b, 1(%rax)
	movl	$3, %edi
	jmp	.L1184
	.p2align 4,,7
.L1186:
	xorl	%edi, %edi
	jmp	.L1184
	.seh_endproc
	.p2align 4,,15
	.globl	_Z27ImTextCountUtf8BytesFromStrPKtS0_
	.def	_Z27ImTextCountUtf8BytesFromStrPKtS0_;	.scl	2;	.type	32;	.endef
	.seh_proc	_Z27ImTextCountUtf8BytesFromStrPKtS0_
_Z27ImTextCountUtf8BytesFromStrPKtS0_:
.LFB312:
	.seh_endprologue
	testq	%rdx, %rdx
	setne	%r10b
	xorl	%eax, %eax
	.p2align 4,,7
.L1199:
	cmpq	%rdx, %rcx
	jb	.L1208
	testb	%r10b, %r10b
	jne	.L1200
.L1208:
	movzwl	(%rcx), %r8d
	testw	%r8w, %r8w
	je	.L1200
	addq	$2, %rcx
	cmpl	$127, %r8d
	jbe	.L1215
	cmpl	$2047, %r8d
	movl	$2, %r9d
	jbe	.L1204
	leal	-56320(%r8), %r11d
	xorl	%r9d, %r9d
	cmpl	$1023, %r11d
	jbe	.L1204
	subl	$55296, %r8d
	cmpl	$1024, %r8d
	sbbl	%r9d, %r9d
	notl	%r9d
	addl	$4, %r9d
.L1204:
	addl	%r9d, %eax
	cmpq	%rdx, %rcx
	jb	.L1208
	testb	%r10b, %r10b
	je	.L1208
.L1200:
	rep ret
	.p2align 4,,7
.L1215:
	incl	%eax
	.p2align 4,,6
	jmp	.L1199
	.seh_endproc
	.section .rdata,"dr"
.LC76:
	.ascii "pos <= text_len\0"
	.text
	.p2align 4,,15
	.def	_ZN8ImGuiStbL24STB_TEXTEDIT_INSERTCHARSEP18ImGuiTextEditStateiPKti;	.scl	3;	.type	32;	.endef
	.seh_proc	_ZN8ImGuiStbL24STB_TEXTEDIT_INSERTCHARSEP18ImGuiTextEditStateiPKti
_ZN8ImGuiStbL24STB_TEXTEDIT_INSERTCHARSEP18ImGuiTextEditStateiPKti:
.LFB708:
	pushq	%r15
	.seh_pushreg	%r15
	pushq	%r14
	.seh_pushreg	%r14
	pushq	%r13
	.seh_pushreg	%r13
	pushq	%r12
	.seh_pushreg	%r12
	pushq	%rbp
	.seh_pushreg	%rbp
	pushq	%rdi
	.seh_pushreg	%rdi
	pushq	%rsi
	.seh_pushreg	%rsi
	pushq	%rbx
	.seh_pushreg	%rbx
	subq	$56, %rsp
	.seh_stackalloc	56
	.seh_endprologue
	movslq	60(%rcx), %rsi
	movq	%rcx, %rbx
	movl	%edx, %ebp
	movq	%r8, %r14
	movl	%r9d, %edi
	cmpl	%edx, %esi
	jl	.L1224
.L1217:
	leal	(%rsi,%rdi), %eax
	xorl	%r12d, %r12d
	cmpl	8(%rbx), %eax
	jl	.L1225
.L1218:
	movl	%r12d, %eax
	addq	$56, %rsp
	popq	%rbx
	popq	%rsi
	popq	%rdi
	popq	%rbp
	popq	%r12
	popq	%r13
	popq	%r14
	popq	%r15
	ret
	.p2align 4,,7
.L1225:
	movslq	%edi, %r9
	movq	%r14, %rcx
	leaq	(%r9,%r9), %r13
	movq	%r9, 40(%rsp)
	leaq	(%r14,%r13), %rdx
	call	_Z27ImTextCountUtf8BytesFromStrPKtS0_
	movl	%eax, %r15d
	movl	56(%rbx), %eax
	addl	%r15d, %eax
	cmpl	64(%rbx), %eax
	jge	.L1218
	cmpl	%ebp, %esi
	movq	16(%rbx), %rdx
	movq	40(%rsp), %r9
	je	.L1226
	movslq	%ebp, %rax
	subl	%ebp, %esi
	leaq	(%rdx,%rax,2), %r12
	addq	%rax, %r9
	movslq	%esi, %r8
	leaq	(%rdx,%r9,2), %rcx
	addq	%r8, %r8
	movq	%r12, %rdx
	call	memmove
	movq	%r12, %rcx
.L1220:
	movq	%r13, %r8
	movq	%r14, %rdx
	call	memcpy
	addl	60(%rbx), %edi
	addl	%r15d, 56(%rbx)
	movslq	%edi, %rsi
	cmpl	8(%rbx), %esi
	movl	%esi, 60(%rbx)
	jge	.L1227
.L1221:
	movq	16(%rbx), %rax
	movl	$1, %r12d
	movw	$0, (%rax,%rsi,2)
	jmp	.L1218
	.p2align 4,,7
.L1224:
	leaq	.LC15(%rip), %rdx
	leaq	.LC76(%rip), %rcx
	movl	$7527, %r8d
	call	_assert
	jmp	.L1217
	.p2align 4,,7
.L1226:
	leaq	(%rdx,%rsi,2), %rcx
	jmp	.L1220
	.p2align 4,,7
.L1227:
	leaq	.LC10(%rip), %rdx
	leaq	.LC11(%rip), %rcx
	movl	$856, %r8d
	call	_assert
	jmp	.L1221
	.seh_endproc
	.p2align 4,,15
	.def	_ZN8ImGuiStbL16stb_textedit_keyEP18ImGuiTextEditStatePNS_17STB_TexteditStateEi;	.scl	3;	.type	32;	.endef
	.seh_proc	_ZN8ImGuiStbL16stb_textedit_keyEP18ImGuiTextEditStatePNS_17STB_TexteditStateEi
_ZN8ImGuiStbL16stb_textedit_keyEP18ImGuiTextEditStatePNS_17STB_TexteditStateEi:
.LFB722:
	pushq	%r15
	.seh_pushreg	%r15
	pushq	%r14
	.seh_pushreg	%r14
	pushq	%r13
	.seh_pushreg	%r13
	pushq	%r12
	.seh_pushreg	%r12
	pushq	%rbp
	.seh_pushreg	%rbp
	pushq	%rdi
	.seh_pushreg	%rdi
	pushq	%rsi
	.seh_pushreg	%rsi
	pushq	%rbx
	.seh_pushreg	%rbx
	subq	$184, %rsp
	.seh_stackalloc	184
	movaps	%xmm6, 128(%rsp)
	.seh_savexmm	%xmm6, 128
	movaps	%xmm7, 144(%rsp)
	.seh_savexmm	%xmm7, 144
	movaps	%xmm8, 160(%rsp)
	.seh_savexmm	%xmm8, 160
	.seh_endprologue
	movq	%rcx, %r13
	movq	%rdx, %r15
.L1229:
	cmpl	$65548, %r8d
	je	.L1231
	jle	.L1638
	cmpl	$196613, %r8d
	je	.L1248
	.p2align 4,,4
	jg	.L1249
	cmpl	$196609, %r8d
	je	.L1250
	.p2align 4,,4
	jg	.L1251
	cmpl	$65549, %r8d
	je	.L1252
	cmpl	$196608, %r8d
	jne	.L1230
	movl	4(%r15), %ecx
	movl	8(%r15), %eax
	movl	60(%r13), %edx
	cmpl	%eax, %ecx
	je	.L1313
	cmpl	%ecx, %edx
	jge	.L1314
	cmpl	%eax, %edx
	movl	%edx, 4(%r15)
	movl	%edx, %ecx
	jge	.L1315
.L1484:
	movl	%edx, 8(%r15)
	movl	%edx, %eax
.L1315:
	cmpl	%eax, %ecx
	je	.L1639
.L1316:
	movl	%eax, (%r15)
.L1462:
	testl	%eax, %eax
	jle	.L1318
	decl	%eax
	movl	%eax, 8(%r15)
.L1318:
	movl	%eax, (%r15)
	movb	$0, 15(%r15)
	jmp	.L1228
	.p2align 4,,7
.L1638:
	cmpl	$65541, %r8d
	je	.L1233
	jle	.L1640
	cmpl	$65544, %r8d
	je	.L1241
	.p2align 4,,4
	jle	.L1641
	cmpl	$65546, %r8d
	je	.L1245
	.p2align 4,,4
	jle	.L1247
	movswq	3212(%r15), %rax
	cmpw	$99, %ax
	je	.L1599
	leaq	0(,%rax,4), %rdx
	leaq	24(%r15), %rbx
	salq	$4, %rax
	subq	%rdx, %rax
	addq	%rbx, %rax
	movzwl	6(%rax), %edx
	movl	(%rax), %edi
	movzwl	4(%rax), %r12d
	movswq	8(%rax), %rbp
	movswq	3210(%r15), %rax
	leaq	0(,%rax,4), %rcx
	salq	$4, %rax
	subq	%rcx, %rax
	testw	%dx, %dx
	leaq	(%r15,%rax), %r14
	movw	%r12w, 30(%r14)
	movw	%dx, 28(%r14)
	movl	%edi, 24(%r14)
	movw	$-1, 32(%r14)
	je	.L1296
	movswl	3214(%r15), %ecx
	movswl	3216(%r15), %r8d
	movswl	%dx, %esi
	movl	%esi, 44(%rsp)
	movl	%ecx, %eax
	addl	%esi, %ecx
	cmpl	%r8d, %ecx
	jle	.L1297
	movw	$0, 28(%r14)
	movw	$0, 30(%r14)
.L1298:
	movl	44(%rsp), %r8d
	movl	%edi, %edx
	movq	%r13, %rcx
	call	_ZN8ImGuiStbL24STB_TEXTEDIT_DELETECHARSEP18ImGuiTextEditStateii
.L1296:
	xorl	%esi, %esi
	testw	%r12w, %r12w
	je	.L1303
	movswl	%r12w, %esi
	leaq	1188(%rbx,%rbp,2), %r8
	movl	%edi, %edx
	movl	%esi, %r9d
	movq	%r13, %rcx
	call	_ZN8ImGuiStbL24STB_TEXTEDIT_INSERTCHARSEP18ImGuiTextEditStateiPKti
	addw	%r12w, 3216(%r15)
.L1303:
	addl	%esi, %edi
	incw	3210(%r15)
	movl	%edi, (%r15)
	incw	3212(%r15)
	jmp	.L1599
	.p2align 4,,7
.L1249:
	cmpl	$196616, %r8d
	je	.L1241
	jle	.L1642
	cmpl	$196620, %r8d
	je	.L1258
	cmpl	$196621, %r8d
	jne	.L1643
	movl	8(%r15), %eax
	cmpl	%eax, 4(%r15)
	movl	(%r15), %edx
	je	.L1644
.L1338:
	movq	%r13, %rcx
	call	_ZN8ImGuiStbL31STB_TEXTEDIT_MOVEWORDRIGHT_IMPLEP18ImGuiTextEditStatei
.L1624:
	movl	4(%r15), %ecx
	movl	%eax, (%r15)
	movl	%eax, 8(%r15)
	movl	60(%r13), %edx
	cmpl	%ecx, %eax
	je	.L1339
	cmpl	%ecx, %edx
	jge	.L1340
	cmpl	%eax, %edx
	movl	%edx, 4(%r15)
	jge	.L1645
	movl	%edx, 8(%r15)
	movl	%edx, %ecx
.L1343:
	movl	%ecx, (%r15)
.L1339:
	cmpl	%ecx, %edx
	jge	.L1228
.L1344:
	movl	%edx, (%r15)
	jmp	.L1228
	.p2align 4,,7
.L1640:
	cmpl	$65538, %r8d
	je	.L1235
	jg	.L1236
	cmpl	$65536, %r8d
	je	.L1237
	cmpl	$65537, %r8d
	jne	.L1230
	movl	8(%r15), %eax
	cmpl	%eax, 4(%r15)
	je	.L1307
	movq	%r15, %rdx
	movq	%r13, %rcx
	call	_ZN8ImGuiStbL25stb_textedit_move_to_lastEP18ImGuiTextEditStatePNS_17STB_TexteditStateE
	movl	4(%r15), %ecx
	movl	8(%r15), %eax
	movl	60(%r13), %edx
	cmpl	%eax, %ecx
	je	.L1595
	cmpl	%ecx, %edx
	jge	.L1310
	cmpl	%eax, %edx
	movl	%edx, 4(%r15)
	movl	%edx, %ecx
	jge	.L1311
.L1459:
	movl	%edx, 8(%r15)
	movl	%edx, %eax
.L1311:
	cmpl	%ecx, %eax
	je	.L1646
.L1595:
	movl	(%r15), %eax
.L1309:
	cmpl	%edx, %eax
	jle	.L1599
	movl	%edx, (%r15)
	jmp	.L1599
	.p2align 4,,7
.L1642:
	cmpl	$196614, %r8d
	je	.L1256
	cmpl	$196615, %r8d
	jne	.L1230
	movl	8(%r15), %eax
	cmpl	%eax, 4(%r15)
	je	.L1647
	movl	%eax, (%r15)
.L1406:
	movl	60(%r13), %eax
	movb	$0, 15(%r15)
	movl	%eax, 8(%r15)
	movl	%eax, (%r15)
	jmp	.L1228
	.p2align 4,,7
.L1641:
	cmpl	$65542, %r8d
	je	.L1243
	cmpl	$65543, %r8d
	jne	.L1230
	movl	60(%r13), %eax
	movl	$0, 8(%r15)
	movl	$0, 4(%r15)
	movb	$0, 15(%r15)
	movl	%eax, (%r15)
	jmp	.L1228
	.p2align 4,,7
.L1251:
	cmpl	$196611, %r8d
	je	.L1239
	jle	.L1235
	movl	4(%r15), %ecx
	movl	8(%r15), %eax
	movl	60(%r13), %edx
	cmpl	%eax, %ecx
	je	.L1429
	cmpl	%ecx, %edx
	jge	.L1430
	cmpl	%eax, %edx
	movl	%edx, 4(%r15)
	movl	%edx, %ecx
	jge	.L1431
.L1489:
	movl	%edx, 8(%r15)
	movl	%edx, %eax
.L1431:
	cmpl	%eax, %ecx
	je	.L1648
.L1432:
	movl	%eax, (%r15)
.L1478:
	cmpb	$0, 16(%r15)
	je	.L1598
	movl	$0, (%r15)
	xorl	%eax, %eax
	.p2align 4,,7
.L1437:
	movl	%eax, 8(%r15)
	jmp	.L1599
	.p2align 4,,7
.L1236:
	cmpl	$65539, %r8d
	je	.L1239
	cmpl	$65540, %r8d
	jne	.L1230
	movl	4(%r15), %eax
	movl	8(%r15), %ecx
	movl	60(%r13), %edx
	cmpl	%ecx, %eax
	je	.L1407
	cmpl	%eax, %edx
	jge	.L1408
	cmpl	%ecx, %edx
	movl	%edx, 4(%r15)
	movl	%edx, %eax
	jge	.L1409
.L1487:
	movl	%edx, 8(%r15)
	movl	%edx, %ecx
.L1409:
	cmpl	%ecx, %eax
	je	.L1649
.L1410:
	cmpl	(%r15), %edx
	jge	.L1471
	movl	%edx, (%r15)
.L1471:
	cmpl	%eax, %ecx
	jge	.L1412
	movl	%ecx, 4(%r15)
	movl	%ecx, %eax
.L1412:
	movl	%eax, (%r15)
	movl	%eax, 8(%r15)
	movb	$0, 15(%r15)
.L1473:
	cmpb	$0, 16(%r15)
	je	.L1594
	movl	$0, (%r15)
	.p2align 4,,7
.L1599:
	movb	$0, 15(%r15)
.L1228:
	movaps	128(%rsp), %xmm6
	movaps	144(%rsp), %xmm7
	movaps	160(%rsp), %xmm8
	addq	$184, %rsp
	popq	%rbx
	popq	%rsi
	popq	%rdi
	popq	%rbp
	popq	%r12
	popq	%r13
	popq	%r14
	popq	%r15
	ret
.L1650:
	leaq	.LC10(%rip), %rdx
	leaq	.LC11(%rip), %rcx
	movl	$857, %r8d
	call	_assert
.L1415:
	movq	16(%r13), %rdx
	movslq	%ebx, %rax
	cmpw	$10, (%rdx,%rax,2)
	je	.L1599
	movl	(%r15), %eax
	decl	%eax
	movl	%eax, (%r15)
.L1594:
	testl	%eax, %eax
	jle	.L1599
	leal	-1(%rax), %ebx
	cmpl	%ebx, 8(%r13)
	jg	.L1415
	jmp	.L1650
.L1248:
	movl	4(%r15), %eax
	movl	8(%r15), %ebx
	movl	60(%r13), %esi
	cmpl	%ebx, %eax
	je	.L1440
	cmpl	%eax, %esi
	jge	.L1441
	cmpl	%ebx, %esi
	movl	%esi, 4(%r15)
	movl	%esi, %eax
	jge	.L1442
.L1490:
	movl	%esi, 8(%r15)
	movl	%esi, %ebx
.L1442:
	cmpl	%ebx, %eax
	je	.L1651
.L1443:
	movl	%ebx, (%r15)
.L1483:
	cmpb	$0, 16(%r15)
	jne	.L1445
	cmpl	%ebx, %esi
	jg	.L1458
	.p2align 4,,7
.L1448:
	movl	%ebx, 8(%r15)
	movb	$0, 15(%r15)
	jmp	.L1228
.L1653:
	leaq	.LC10(%rip), %rdx
	leaq	.LC11(%rip), %rcx
	movl	$857, %r8d
	call	_assert
	movl	(%r15), %eax
.L1449:
	movq	16(%r13), %rdx
	movslq	%ebx, %rbx
	cmpw	$10, (%rdx,%rbx,2)
	je	.L1652
	leal	1(%rax), %ebx
	cmpl	%esi, %ebx
	movl	%ebx, (%r15)
	jge	.L1448
.L1458:
	cmpl	%ebx, 8(%r13)
	movl	%ebx, %eax
	jg	.L1449
	jmp	.L1653
.L1654:
	leaq	.LC10(%rip), %rdx
	leaq	.LC11(%rip), %rcx
	movl	$857, %r8d
	call	_assert
	movl	(%r15), %eax
.L1438:
	movq	16(%r13), %rdx
	movslq	%ebx, %rbx
	cmpw	$10, (%rdx,%rbx,2)
	je	.L1437
	decl	%eax
	movl	%eax, (%r15)
.L1598:
	testl	%eax, %eax
	jle	.L1437
	leal	-1(%rax), %ebx
	cmpl	%ebx, 8(%r13)
	jg	.L1438
	jmp	.L1654
.L1235:
	andl	$131072, %r8d
	cmpb	$0, 16(%r15)
	je	.L1375
	orl	$65536, %r8d
	jmp	.L1229
.L1247:
	movl	8(%r15), %eax
	cmpl	%eax, 4(%r15)
	jne	.L1402
	movl	60(%r13), %edx
	movl	(%r15), %eax
	cmpl	%eax, %edx
	jge	.L1403
	movl	%edx, (%r15)
	movl	%edx, %eax
.L1403:
	testl	%eax, %eax
	jle	.L1599
	leal	-1(%rax), %r8d
	movl	$1, %r9d
	movq	%r15, %rdx
	movq	%r13, %rcx
	call	_ZN8ImGuiStbL19stb_textedit_deleteEP18ImGuiTextEditStatePNS_17STB_TexteditStateEii
	decl	(%r15)
	jmp	.L1599
.L1643:
	cmpl	$196617, %r8d
	je	.L1247
.L1230:
	leal	-1(%r8), %eax
	cmpl	$65534, %eax
	ja	.L1228
	cmpl	$10, %r8d
	movw	%r8w, 96(%rsp)
	je	.L1655
.L1262:
	cmpb	$0, 12(%r15)
	je	.L1264
	movl	8(%r15), %eax
	cmpl	%eax, 4(%r15)
	je	.L1656
.L1264:
	movq	%r15, %rdx
	movq	%r13, %rcx
	call	_ZN8ImGuiStbL29stb_textedit_delete_selectionEP18ImGuiTextEditStatePNS_17STB_TexteditStateE
	movl	(%r15), %edx
	leaq	96(%rsp), %r8
	movl	$1, %r9d
	movq	%r13, %rcx
	call	_ZN8ImGuiStbL24STB_TEXTEDIT_INSERTCHARSEP18ImGuiTextEditStateiPKti
	testb	%al, %al
	je	.L1228
	leaq	24(%r15), %rcx
	xorl	%edx, %edx
	movl	(%r15), %ebx
	call	_ZN8ImGuiStbL27stb_text_create_undo_recordEPNS_12StbUndoStateEi
	testq	%rax, %rax
	je	.L1279
	movl	%ebx, (%rax)
	movw	$0, 4(%rax)
	movw	$1, 6(%rax)
	movw	$-1, 8(%rax)
.L1279:
	incl	(%r15)
	movb	$0, 15(%r15)
	jmp	.L1228
.L1402:
	movq	%r15, %rdx
	movq	%r13, %rcx
	call	_ZN8ImGuiStbL29stb_textedit_delete_selectionEP18ImGuiTextEditStatePNS_17STB_TexteditStateE
	jmp	.L1599
.L1243:
	movl	$0, 8(%r15)
	movl	$0, 4(%r15)
	movl	$0, (%r15)
	movb	$0, 15(%r15)
	jmp	.L1228
.L1258:
	movl	8(%r15), %eax
	cmpl	%eax, 4(%r15)
	movl	(%r15), %edx
	je	.L1657
.L1326:
	movq	%r13, %rcx
	call	_ZN8ImGuiStbL30STB_TEXTEDIT_MOVEWORDLEFT_IMPLEP18ImGuiTextEditStatei
	jmp	.L1624
.L1252:
	movl	8(%r15), %eax
	cmpl	%eax, 4(%r15)
	je	.L1333
	movq	%r15, %rdx
	movq	%r13, %rcx
	call	_ZN8ImGuiStbL25stb_textedit_move_to_lastEP18ImGuiTextEditStatePNS_17STB_TexteditStateE
	jmp	.L1228
.L1245:
	movswl	3210(%r15), %eax
	testw	%ax, %ax
	je	.L1599
	decl	%eax
	leaq	24(%r15), %rbx
	cltq
	leaq	0(,%rax,4), %rdx
	salq	$4, %rax
	subq	%rdx, %rax
	addq	%rbx, %rax
	movzwl	6(%rax), %ebp
	movl	(%rax), %edi
	movzwl	4(%rax), %r12d
	movzwl	8(%rax), %eax
	movw	%ax, 44(%rsp)
	movswq	3212(%r15), %rax
	leaq	0(,%rax,4), %rdx
	movq	%rax, %rcx
	salq	$4, %rax
	subq	%rdx, %rax
	addq	%r15, %rax
	testw	%bp, %bp
	movw	$-1, 20(%rax)
	movw	%bp, 16(%rax)
	movw	%r12w, 18(%rax)
	movl	%edi, 12(%rax)
	je	.L1281
	movswl	3214(%r15), %edx
	movswl	%bp, %esi
	leal	(%rdx,%rsi), %r8d
	cmpl	$998, %r8d
	jg	.L1282
	leaq	1212(%r15), %rax
	movl	%edi, 48(%rsp)
	movq	%rax, %r14
.L1283:
	movswl	3216(%r15), %r8d
	addl	%esi, %edx
	cmpl	%r8d, %edx
	movl	%r8d, %eax
	jle	.L1285
	cmpw	$98, %cx
	jg	.L1286
	cmpw	$0, 1208(%r15)
	movswl	%cx, %r8d
	js	.L1288
	movzwl	1204(%r15), %edi
	movl	$999, %r8d
	addl	%edi, %eax
	movswq	%ax, %rcx
	movw	%ax, 3216(%r15)
	cwtl
	subl	%eax, %r8d
	movq	%rcx, %rdx
	movswq	%di, %rax
	subq	%rax, %rdx
	leaq	(%r14,%rcx,2), %rcx
	movslq	%r8d, %r8
	leaq	(%r14,%rdx,2), %rdx
	addq	%r8, %r8
	call	memmove
	movswl	3212(%r15), %r8d
	cmpl	$97, %r8d
	movl	%r8d, %ecx
	jg	.L1288
	movl	%r8d, %edx
	.p2align 4,,7
.L1290:
	movslq	%edx, %rax
	leaq	0(,%rax,4), %r9
	salq	$4, %rax
	subq	%r9, %rax
	addq	%r15, %rax
	movzwl	32(%rax), %r9d
	testw	%r9w, %r9w
	js	.L1289
	addl	%edi, %r9d
	movw	%r9w, 32(%rax)
.L1289:
	incl	%edx
	cmpl	$98, %edx
	jne	.L1290
.L1288:
	movswq	%cx, %rax
	movl	$99, %edi
	leaq	0(,%rax,4), %rdx
	subl	%r8d, %edi
	salq	$4, %rax
	movslq	%edi, %r8
	subq	%rdx, %rax
	leaq	0(,%r8,4), %r9
	salq	$4, %r8
	leaq	(%rbx,%rax), %rcx
	leaq	-12(%rbx,%rax), %rdx
	subq	%r9, %r8
	call	memmove
	movzwl	3212(%r15), %eax
	leal	1(%rax), %ecx
	movw	%cx, 3212(%r15)
.L1286:
	cmpw	$99, %cx
	je	.L1599
	movswl	3214(%r15), %edx
	jmp	.L1283
.L1239:
	andl	$131072, %r8d
	cmpb	$0, 16(%r15)
	je	.L1350
	orl	$65537, %r8d
	jmp	.L1229
.L1237:
	movl	4(%r15), %eax
	movl	8(%r15), %edx
	cmpl	%edx, %eax
	je	.L1305
	jle	.L1306
	movl	%edx, 4(%r15)
	movl	%edx, %eax
.L1306:
	movl	%eax, (%r15)
	movl	%eax, 8(%r15)
	jmp	.L1599
.L1231:
	movl	4(%r15), %eax
	movl	8(%r15), %edx
	cmpl	%edx, %eax
	je	.L1319
	jle	.L1320
	movl	%edx, 4(%r15)
	movl	%edx, %eax
.L1320:
	movl	%eax, (%r15)
	movl	%eax, 8(%r15)
	movb	$0, 15(%r15)
	jmp	.L1228
.L1250:
	movl	4(%r15), %edx
	movl	8(%r15), %eax
	cmpl	%eax, %edx
	je	.L1658
	movl	%eax, (%r15)
.L1346:
	incl	%eax
	cmpl	%edx, %eax
	movl	%eax, 8(%r15)
	je	.L1347
	movl	60(%r13), %ecx
	cmpl	%edx, %ecx
	jge	.L1348
	cmpl	%eax, %ecx
	movl	%ecx, 4(%r15)
	movl	%eax, %edx
	jge	.L1347
.L1465:
	movl	%ecx, 8(%r15)
	movl	%ecx, %edx
.L1347:
	movl	%edx, (%r15)
	movb	$0, 15(%r15)
	jmp	.L1228
.L1233:
	movl	4(%r15), %ebx
	movl	8(%r15), %eax
	movl	60(%r13), %esi
	cmpl	%eax, %ebx
	je	.L1418
	cmpl	%ebx, %esi
	jge	.L1419
	cmpl	%eax, %esi
	movl	%esi, 4(%r15)
	movl	%esi, %ebx
	jge	.L1420
.L1488:
	movl	%esi, 8(%r15)
	movl	%esi, %eax
.L1420:
	cmpl	%eax, %ebx
	je	.L1659
.L1421:
	cmpl	(%r15), %esi
	jge	.L1475
	movl	%esi, (%r15)
.L1475:
	cmpl	%ebx, %eax
	jge	.L1423
	movl	%eax, 4(%r15)
	movl	%eax, %ebx
.L1423:
	movl	%ebx, (%r15)
	movl	%ebx, 8(%r15)
	movb	$0, 15(%r15)
.L1477:
	cmpb	$0, 16(%r15)
	jne	.L1424
	cmpl	%ebx, %esi
	jg	.L1546
	jmp	.L1599
	.p2align 4,,7
.L1427:
	movq	16(%r13), %rax
	movslq	%ebx, %rbx
	cmpw	$10, (%rax,%rbx,2)
	je	.L1599
	movl	(%r15), %eax
	leal	1(%rax), %ebx
	cmpl	%esi, %ebx
	movl	%ebx, (%r15)
	jge	.L1599
.L1546:
	cmpl	8(%r13), %ebx
	jl	.L1427
	leaq	.LC10(%rip), %rdx
	leaq	.LC11(%rip), %rcx
	movl	$857, %r8d
	call	_assert
	jmp	.L1427
.L1241:
	movl	8(%r15), %eax
	cmpl	%eax, 4(%r15)
	jne	.L1402
	movl	(%r15), %r8d
	cmpl	60(%r13), %r8d
	jge	.L1599
	movl	$1, %r9d
	movq	%r15, %rdx
	movq	%r13, %rcx
	call	_ZN8ImGuiStbL19stb_textedit_deleteEP18ImGuiTextEditStatePNS_17STB_TexteditStateEii
	jmp	.L1599
.L1256:
	movl	8(%r15), %eax
	cmpl	%eax, 4(%r15)
	je	.L1660
.L1404:
	movl	$0, 8(%r15)
	movl	$0, (%r15)
	movb	$0, 15(%r15)
	jmp	.L1228
.L1652:
	movl	%eax, %ebx
	jmp	.L1448
.L1340:
	cmpl	%eax, %edx
	jge	.L1228
	cmpl	%ecx, %edx
	movl	%edx, 8(%r15)
	jne	.L1344
	.p2align 4,,3
	jmp	.L1343
	.p2align 4,,7
.L1307:
	movl	(%r15), %eax
	incl	%eax
	movl	%eax, (%r15)
	movl	60(%r13), %edx
	jmp	.L1309
.L1418:
	movl	(%r15), %ebx
.L1422:
	cmpl	%ebx, %esi
	jge	.L1477
	cmpb	$0, 16(%r15)
	movl	%esi, (%r15)
	je	.L1599
.L1424:
	movl	%esi, (%r15)
	jmp	.L1599
.L1445:
	movl	%esi, (%r15)
	movl	%esi, %ebx
	jmp	.L1448
.L1282:
	movw	$0, 16(%rax)
.L1284:
	movl	%esi, %r8d
	movl	%edi, %edx
	movq	%r13, %rcx
	call	_ZN8ImGuiStbL24STB_TEXTEDIT_DELETECHARSEP18ImGuiTextEditStateii
.L1281:
	xorl	%esi, %esi
	testw	%r12w, %r12w
	je	.L1295
	movswq	44(%rsp), %rax
	movswl	%r12w, %esi
	movl	%edi, %edx
	movl	%esi, %r9d
	movq	%r13, %rcx
	leaq	1188(%rbx,%rax,2), %r8
	call	_ZN8ImGuiStbL24STB_TEXTEDIT_INSERTCHARSEP18ImGuiTextEditStateiPKti
	subw	%r12w, 3214(%r15)
.L1295:
	addl	%edi, %esi
	decw	3210(%r15)
	movl	%esi, (%r15)
	decw	3212(%r15)
	jmp	.L1599
.L1430:
	cmpl	%eax, %edx
	jl	.L1489
	jmp	.L1432
.L1419:
	cmpl	%eax, %esi
	.p2align 4,,7
	jl	.L1488
	.p2align 4,,9
	jmp	.L1421
.L1333:
	movl	(%r15), %edx
	movq	%r13, %rcx
	call	_ZN8ImGuiStbL31STB_TEXTEDIT_MOVEWORDRIGHT_IMPLEP18ImGuiTextEditStatei
.L1622:
	movl	4(%r15), %r8d
	movl	8(%r15), %ecx
	movl	%eax, (%r15)
	movl	60(%r13), %edx
	cmpl	%ecx, %r8d
	je	.L1334
	cmpl	%r8d, %edx
	jge	.L1335
	cmpl	%ecx, %edx
	movl	%edx, 4(%r15)
	movl	%edx, %r8d
	jge	.L1336
.L1464:
	movl	%edx, 8(%r15)
	movl	%edx, %ecx
.L1336:
	cmpl	%r8d, %ecx
	jne	.L1334
	movl	%ecx, (%r15)
	movl	%ecx, %eax
.L1334:
	cmpl	%eax, %edx
	jge	.L1228
	jmp	.L1344
.L1348:
	cmpl	%eax, %ecx
	movl	%eax, %edx
	jge	.L1347
	.p2align 4,,7
	jmp	.L1465
.L1314:
	cmpl	%eax, %edx
	.p2align 4,,5
	jl	.L1484
	.p2align 4,,9
	jmp	.L1316
.L1310:
	cmpl	%eax, %edx
	.p2align 4,,7
	jl	.L1459
	.p2align 4,,9
	jmp	.L1595
.L1441:
	cmpl	%ebx, %esi
	.p2align 4,,7
	jl	.L1490
	.p2align 4,,9
	jmp	.L1443
.L1408:
	cmpl	%ecx, %edx
	.p2align 4,,7
	jl	.L1487
	.p2align 4,,9
	jmp	.L1410
.L1407:
	movl	(%r15), %eax
.L1411:
	cmpl	%eax, %edx
	.p2align 4,,4
	jge	.L1473
	movl	%edx, (%r15)
	movl	%edx, %eax
	jmp	.L1473
.L1660:
	movl	(%r15), %eax
	movl	%eax, 4(%r15)
	jmp	.L1404
.L1429:
	movl	(%r15), %eax
.L1433:
	cmpl	%eax, %edx
	jge	.L1480
	movl	%edx, (%r15)
	movl	%edx, %eax
.L1480:
	movl	%eax, 8(%r15)
	movl	%eax, 4(%r15)
	jmp	.L1478
.L1440:
	movl	(%r15), %ebx
.L1444:
	cmpl	%ebx, %esi
	jge	.L1482
	movl	%esi, (%r15)
	movl	%esi, %ebx
.L1482:
	movl	%ebx, 8(%r15)
	movl	%ebx, 4(%r15)
	jmp	.L1483
.L1647:
	movl	(%r15), %eax
	movl	%eax, 8(%r15)
	movl	%eax, 4(%r15)
	jmp	.L1406
.L1305:
	movl	(%r15), %eax
	testl	%eax, %eax
	jle	.L1599
	decl	%eax
	movl	%eax, (%r15)
	jmp	.L1599
.L1658:
	movl	(%r15), %edx
	movl	%edx, 4(%r15)
	movl	%edx, %eax
	jmp	.L1346
.L1313:
	movl	(%r15), %ecx
.L1317:
	cmpl	%ecx, %edx
	jge	.L1661
	movl	%edx, (%r15)
	movl	%edx, %eax
.L1461:
	movl	%eax, 8(%r15)
	movl	%eax, 4(%r15)
	jmp	.L1462
.L1655:
	cmpb	$0, 16(%r15)
	je	.L1262
	jmp	.L1228
.L1649:
	movl	%eax, (%r15)
	.p2align 4,,3
	jmp	.L1411
.L1659:
	movl	%ebx, (%r15)
	.p2align 4,,5
	jmp	.L1422
.L1648:
	movl	%eax, (%r15)
	.p2align 4,,2
	jmp	.L1433
.L1639:
	movl	%ecx, (%r15)
	.p2align 4,,2
	jmp	.L1317
.L1646:
	movl	%eax, (%r15)
	.p2align 4,,2
	jmp	.L1309
.L1651:
	movl	%ebx, (%r15)
	.p2align 4,,2
	jmp	.L1444
.L1335:
	cmpl	%ecx, %edx
	.p2align 4,,3
	jl	.L1464
	.p2align 4,,6
	jmp	.L1334
.L1297:
	movw	%ax, 32(%r14)
	xorl	%r9d, %r9d
	addl	%edx, %eax
	testw	%dx, %dx
	movw	%ax, 3214(%r15)
	jle	.L1298
	movl	%edi, 48(%rsp)
	movq	%rbx, 56(%rsp)
	movq	%r13, %rdi
	movq	%r15, %r13
	movq	%r14, %r15
	movl	%r9d, %r14d
	jmp	.L1574
	.p2align 4,,7
.L1300:
	movq	16(%rdi), %rdx
	movslq	%ebx, %rax
	movslq	%esi, %rsi
	incl	%r14d
	movzwl	(%rdx,%rax,2), %eax
	movw	%ax, 1212(%r13,%rsi,2)
	movswl	28(%r15), %eax
	cmpl	%r14d, %eax
	jle	.L1662
.L1574:
	movswl	32(%r15), %esi
	movl	24(%r15), %ebx
	addl	%r14d, %ebx
	addl	%r14d, %esi
	cmpl	8(%rdi), %ebx
	jl	.L1300
	leaq	.LC10(%rip), %rdx
	leaq	.LC11(%rip), %rcx
	movl	$857, %r8d
	call	_assert
	jmp	.L1300
.L1662:
	movq	%r13, %r15
	movq	56(%rsp), %rbx
	movq	%rdi, %r13
	movl	48(%rsp), %edi
	jmp	.L1298
.L1319:
	movl	(%r15), %edx
	movq	%r13, %rcx
	call	_ZN8ImGuiStbL30STB_TEXTEDIT_MOVEWORDLEFT_IMPLEP18ImGuiTextEditStatei
	jmp	.L1622
.L1656:
	movslq	(%r15), %rbp
	cmpl	60(%r13), %ebp
	jge	.L1264
	movswq	3210(%r15), %r8
	movw	$99, 3212(%r15)
	movw	$999, 3216(%r15)
	cmpw	$99, %r8w
	je	.L1663
.L1452:
	leaq	1212(%r15), %rbx
	leaq	36(%r15), %rdi
	leaq	24(%r15), %rsi
	.p2align 4,,7
.L1275:
	movzwl	3214(%r15), %eax
	cmpw	$998, %ax
	jle	.L1269
	testw	%r8w, %r8w
	jle	.L1575
	cmpw	$0, 32(%r15)
	js	.L1272
	movswq	28(%r15), %rdx
	movq	%rbx, %rcx
	subl	%edx, %eax
	movq	%rdx, %r12
	leaq	(%rbx,%rdx,2), %rdx
	movswq	%ax, %r8
	movw	%ax, 3214(%r15)
	addq	%r8, %r8
	call	memmove
	movzwl	3210(%r15), %r8d
	testw	%r8w, %r8w
	jle	.L1272
	movswl	%r8w, %edx
	leaq	32(%r15), %rax
	decl	%edx
	leaq	0(,%rdx,4), %rcx
	salq	$4, %rdx
	subq	%rcx, %rdx
	leaq	44(%r15,%rdx), %rcx
	.p2align 4,,7
.L1274:
	movzwl	(%rax), %edx
	testw	%dx, %dx
	js	.L1273
	subl	%r12d, %edx
	movw	%dx, (%rax)
.L1273:
	addq	$12, %rax
	cmpq	%rax, %rcx
	jne	.L1274
.L1272:
	decl	%r8d
	movq	%rdi, %rdx
	movq	%rsi, %rcx
	movw	%r8w, 3210(%r15)
	movswq	%r8w, %r8
	leaq	0(,%r8,4), %rax
	salq	$4, %r8
	subq	%rax, %r8
	call	memmove
	movswq	3210(%r15), %r8
	jmp	.L1275
.L1575:
	jmp	.L1575
	.p2align 4,,7
.L1269:
	leal	1(%r8), %edx
	movswl	%ax, %ebx
	movw	%dx, 3210(%r15)
	leaq	0(,%r8,4), %rdx
	salq	$4, %r8
	subq	%rdx, %r8
	leaq	(%r15,%r8), %rdx
	movl	%ebp, 24(%rdx)
	movw	$1, 28(%rdx)
	movw	$1, 30(%rdx)
	movw	%ax, 32(%rdx)
	leal	1(%rax), %edx
	cmpl	8(%r13), %ebp
	movw	%dx, 3214(%r15)
	movl	%ebp, %edx
	jge	.L1664
.L1276:
	movq	16(%r13), %rax
	movl	$1, %r8d
	movzwl	(%rax,%rbp,2), %ecx
	movslq	%ebx, %rax
	movw	%cx, 1212(%r15,%rax,2)
	movq	%r13, %rcx
	call	_ZN8ImGuiStbL24STB_TEXTEDIT_DELETECHARSEP18ImGuiTextEditStateii
	movl	(%r15), %edx
	leaq	96(%rsp), %r8
	movl	$1, %r9d
	movq	%r13, %rcx
	call	_ZN8ImGuiStbL24STB_TEXTEDIT_INSERTCHARSEP18ImGuiTextEditStateiPKti
	testb	%al, %al
	jne	.L1279
	jmp	.L1228
.L1664:
	leaq	.LC10(%rip), %rdx
	leaq	.LC11(%rip), %rcx
	movl	$857, %r8d
	call	_assert
	movl	(%r15), %edx
	jmp	.L1276
.L1657:
	movl	%edx, 8(%r15)
	movl	%edx, 4(%r15)
	jmp	.L1326
.L1644:
	movl	%edx, 8(%r15)
	movl	%edx, 4(%r15)
	jmp	.L1338
.L1285:
	subl	%ebp, %eax
	movswq	%cx, %rcx
	movslq	48(%rsp), %r9
	movl	%eax, %edx
	leaq	0(,%rcx,4), %rax
	salq	$4, %rcx
	subq	%rax, %rcx
	xorl	%eax, %eax
	leaq	(%r15,%rcx), %rbp
	movq	%r9, %rdi
	addq	%r9, %r9
	testl	%esi, %esi
	movw	%dx, 20(%rbp)
	movw	%dx, 3216(%r15)
	jg	.L1573
	jmp	.L1284
	.p2align 4,,7
.L1292:
	movq	16(%r13), %rdx
	incl	%eax
	movslq	%r14d, %r14
	movzwl	(%rdx,%r9), %edx
	addq	$2, %r9
	cmpl	%eax, %esi
	movw	%dx, 1212(%r15,%r14,2)
	je	.L1284
.L1573:
	movswl	20(%rbp), %r14d
	leal	(%rdi,%rax), %edx
	addl	%eax, %r14d
	cmpl	%edx, 8(%r13)
	jg	.L1292
	leaq	.LC10(%rip), %rdx
	leaq	.LC11(%rip), %rcx
	movl	$857, %r8d
	movl	%eax, 56(%rsp)
	movq	%r9, 48(%rsp)
	call	_assert
	movl	56(%rsp), %eax
	movq	48(%rsp), %r9
	jmp	.L1292
.L1663:
	cmpw	$0, 32(%r15)
	js	.L1266
	movswq	28(%r15), %rdx
	movzwl	3214(%r15), %eax
	leaq	1212(%r15), %rcx
	subl	%edx, %eax
	movq	%rdx, %rbx
	leaq	(%rcx,%rdx,2), %rdx
	movswq	%ax, %r8
	movw	%ax, 3214(%r15)
	addq	%r8, %r8
	call	memmove
	movzwl	3210(%r15), %r8d
	testw	%r8w, %r8w
	jle	.L1266
	movswl	%r8w, %edx
	leaq	32(%r15), %rax
	decl	%edx
	leaq	0(,%rdx,4), %rcx
	salq	$4, %rdx
	subq	%rcx, %rdx
	leaq	44(%r15,%rdx), %rcx
	.p2align 4,,7
.L1268:
	movzwl	(%rax), %edx
	testw	%dx, %dx
	js	.L1267
	subl	%ebx, %edx
	movw	%dx, (%rax)
.L1267:
	addq	$12, %rax
	cmpq	%rcx, %rax
	jne	.L1268
.L1266:
	leal	-1(%r8), %eax
	leaq	36(%r15), %rdx
	leaq	24(%r15), %rcx
	movw	%ax, 3210(%r15)
	movswq	%ax, %rax
	leaq	0(,%rax,4), %r8
	salq	$4, %rax
	subq	%r8, %rax
	movq	%rax, %r8
	call	memmove
	movswq	3210(%r15), %r8
	jmp	.L1452
.L1350:
	testl	%r8d, %r8d
	movl	%r8d, %ebx
	je	.L1352
	movl	4(%r15), %eax
	movl	8(%r15), %ecx
	cmpl	%ecx, %eax
	je	.L1665
	movl	%ecx, (%r15)
	movl	60(%r13), %edx
.L1355:
	cmpl	%eax, %edx
	jge	.L1357
	cmpl	%edx, %ecx
	movl	%edx, 4(%r15)
	movl	%edx, %eax
	jle	.L1358
.L1466:
	movl	%edx, 8(%r15)
.L1358:
	cmpl	8(%r15), %eax
	jne	.L1597
	movl	%eax, (%r15)
.L1356:
	cmpl	%edx, %eax
	movl	%eax, %r8d
	jle	.L1359
	movl	%edx, (%r15)
	movl	%edx, %r8d
.L1359:
	movzbl	16(%r15), %r9d
	leaq	64(%rsp), %rcx
	movq	%r13, %rdx
	call	_ZN8ImGuiStbL25stb_textedit_find_charposEPNS_12StbFindStateEP18ImGuiTextEditStateii
	movl	80(%rsp), %esi
	testl	%esi, %esi
	je	.L1228
	cmpb	$0, 15(%r15)
	je	.L1362
	movss	20(%r15), %xmm6
.L1363:
	addl	76(%rsp), %esi
	movq	16(%r13), %rdx
	leaq	96(%rsp), %rcx
	xorl	%edi, %edi
	movl	%esi, (%r15)
	movl	60(%r13), %r8d
	movl	%esi, %r9d
	call	_ZN8ImGuiStbL22STB_TEXTEDIT_LAYOUTROWEPNS_14StbTexteditRowEP18ImGuiTextEditStatei.isra.33
	movl	116(%rsp), %edx
	movss	96(%rsp), %xmm8
	movss	.LC20(%rip), %xmm7
	testl	%edx, %edx
	jg	.L1555
	jmp	.L1393
	.p2align 4,,7
.L1507:
	addss	%xmm0, %xmm8
	ucomiss	%xmm6, %xmm8
	ja	.L1393
	incl	(%r15)
	incl	%edi
	cmpl	%edi, 116(%rsp)
	jle	.L1393
.L1555:
	movl	%edi, %r8d
	movl	%esi, %edx
	movq	%r13, %rcx
	call	_ZN8ImGuiStbL21STB_TEXTEDIT_GETWIDTHEP18ImGuiTextEditStateii
	ucomiss	%xmm7, %xmm0
	jp	.L1507
	jne	.L1507
.L1393:
	movl	4(%r15), %eax
	movl	8(%r15), %ecx
	movl	60(%r13), %edx
	cmpl	%ecx, %eax
	je	.L1396
	cmpl	%eax, %edx
	jge	.L1397
	cmpl	%ecx, %edx
	movl	%edx, 4(%r15)
	movl	%edx, %eax
	jge	.L1398
.L1469:
	movl	%edx, 8(%r15)
.L1398:
	cmpl	8(%r15), %eax
	jne	.L1396
	movl	%eax, (%r15)
.L1396:
	movl	(%r15), %eax
	cmpl	%eax, %edx
	jge	.L1399
	movl	%edx, (%r15)
	movl	%edx, %eax
.L1399:
	testl	%ebx, %ebx
	movb	$1, 15(%r15)
	movss	%xmm6, 20(%r15)
	je	.L1228
	movl	%eax, 8(%r15)
	jmp	.L1228
.L1397:
	cmpl	%ecx, %edx
	jge	.L1396
	.p2align 4,,5
	jmp	.L1469
	.p2align 4,,7
.L1357:
	cmpl	%edx, %ecx
	.p2align 4,,7
	jg	.L1466
.L1597:
	movl	(%r15), %eax
	.p2align 4,,6
	jmp	.L1356
.L1352:
	movl	8(%r15), %eax
	cmpl	%eax, 4(%r15)
	jne	.L1578
	movl	(%r15), %eax
.L1354:
	movl	60(%r13), %edx
	jmp	.L1356
	.p2align 4,,7
.L1375:
	testl	%r8d, %r8d
	movl	%r8d, %ebx
	movl	4(%r15), %eax
	je	.L1376
	movl	8(%r15), %r8d
	cmpl	%r8d, %eax
	je	.L1666
	movl	%r8d, (%r15)
	movl	60(%r13), %edx
	cmpl	%edx, %eax
	jle	.L1667
	cmpl	%edx, %r8d
	movl	%edx, 4(%r15)
	movl	%edx, %eax
	jle	.L1382
.L1468:
	movl	%edx, 8(%r15)
.L1382:
	cmpl	8(%r15), %eax
	movl	%eax, %r8d
	jne	.L1668
	movl	%eax, (%r15)
.L1384:
	cmpl	%edx, %r8d
	jle	.L1385
	movl	%edx, (%r15)
	movl	%edx, %r8d
.L1385:
	leaq	64(%rsp), %rcx
	xorl	%r9d, %r9d
	movq	%r13, %rdx
	call	_ZN8ImGuiStbL25stb_textedit_find_charposEPNS_12StbFindStateEP18ImGuiTextEditStateii
	movl	84(%rsp), %r9d
	cmpl	76(%rsp), %r9d
	je	.L1228
	cmpb	$0, 15(%r15)
	je	.L1388
	movss	20(%r15), %xmm6
.L1389:
	movl	%r9d, (%r15)
	movq	16(%r13), %rdx
	leaq	96(%rsp), %rcx
	movl	60(%r13), %r8d
	xorl	%esi, %esi
	call	_ZN8ImGuiStbL22STB_TEXTEDIT_LAYOUTROWEPNS_14StbTexteditRowEP18ImGuiTextEditStatei.isra.33
	movl	116(%rsp), %eax
	movss	96(%rsp), %xmm8
	movss	.LC20(%rip), %xmm7
	testl	%eax, %eax
	jg	.L1556
	jmp	.L1393
	.p2align 4,,7
.L1508:
	addss	%xmm0, %xmm8
	ucomiss	%xmm6, %xmm8
	ja	.L1393
	incl	(%r15)
	incl	%esi
	cmpl	%esi, 116(%rsp)
	jle	.L1393
.L1556:
	movl	84(%rsp), %edx
	movl	%esi, %r8d
	movq	%r13, %rcx
	call	_ZN8ImGuiStbL21STB_TEXTEDIT_GETWIDTHEP18ImGuiTextEditStateii
	ucomiss	%xmm7, %xmm0
	jp	.L1508
	jne	.L1508
	.p2align 4,,8
	jmp	.L1393
	.p2align 4,,7
.L1388:
	movss	64(%rsp), %xmm6
	.p2align 4,,5
	jmp	.L1389
.L1667:
	cmpl	%edx, %r8d
	.p2align 4,,2
	jle	.L1385
	.p2align 4,,2
	jmp	.L1468
	.p2align 4,,7
.L1376:
	movl	8(%r15), %edx
	cmpl	%edx, %eax
	.p2align 4,,2
	je	.L1669
	.p2align 4,,5
	jle	.L1381
	movl	%edx, 4(%r15)
	movl	%edx, %eax
.L1381:
	movl	%eax, (%r15)
	movl	%eax, 8(%r15)
	movb	$0, 15(%r15)
.L1378:
	movl	60(%r13), %edx
	movl	%eax, %r8d
	jmp	.L1384
	.p2align 4,,7
.L1578:
	movq	%r15, %rdx
	movq	%r13, %rcx
	call	_ZN8ImGuiStbL25stb_textedit_move_to_lastEP18ImGuiTextEditStatePNS_17STB_TexteditStateE
	movl	4(%r15), %eax
	movl	8(%r15), %ecx
	movl	60(%r13), %edx
	cmpl	%ecx, %eax
	jne	.L1355
	jmp	.L1597
.L1645:
	jne	.L1228
	movl	%edx, %ecx
	.p2align 4,,9
	jmp	.L1343
.L1362:
	movss	64(%rsp), %xmm6
	.p2align 4,,3
	jmp	.L1363
.L1665:
	movl	(%r15), %eax
	movl	%eax, 8(%r15)
	movl	%eax, 4(%r15)
	jmp	.L1354
.L1669:
	movl	(%r15), %eax
	jmp	.L1378
.L1661:
	movl	%ecx, %eax
	jmp	.L1461
.L1668:
	movl	(%r15), %r8d
	.p2align 4,,3
	jmp	.L1384
.L1666:
	movl	(%r15), %eax
	movl	%eax, 8(%r15)
	movl	%eax, 4(%r15)
	jmp	.L1378
	.seh_endproc
	.p2align 4,,15
	.def	_ZL30GetClipboardTextFn_DefaultImplPv;	.scl	3;	.type	32;	.endef
	.seh_proc	_ZL30GetClipboardTextFn_DefaultImplPv
_ZL30GetClipboardTextFn_DefaultImplPv:
.LFB5781:
	pushq	%r12
	.seh_pushreg	%r12
	pushq	%rbp
	.seh_pushreg	%rbp
	pushq	%rdi
	.seh_pushreg	%rdi
	pushq	%rsi
	.seh_pushreg	%rsi
	pushq	%rbx
	.seh_pushreg	%rbx
	subq	$32, %rsp
	.seh_stackalloc	32
	.seh_endprologue
	cmpb	$0, _ZGVZL30GetClipboardTextFn_DefaultImplPvE9buf_local(%rip)
	je	.L1700
.L1672:
	movq	8+_ZZL30GetClipboardTextFn_DefaultImplPvE9buf_local(%rip), %rcx
	testq	%rcx, %rcx
	je	.L1685
	movq	GImGui(%rip), %rax
	movl	$0, 4+_ZZL30GetClipboardTextFn_DefaultImplPvE9buf_local(%rip)
	movl	$0, _ZZL30GetClipboardTextFn_DefaultImplPvE9buf_local(%rip)
	decl	844(%rax)
	call	*240(%rax)
	movq	$0, 8+_ZZL30GetClipboardTextFn_DefaultImplPvE9buf_local(%rip)
.L1685:
	xorl	%ecx, %ecx
	call	*__imp_OpenClipboard(%rip)
	testl	%eax, %eax
	je	.L1675
	movl	$13, %ecx
	call	*__imp_GetClipboardData(%rip)
	testq	%rax, %rax
	movq	%rax, %rsi
	je	.L1675
	movq	%rax, %rcx
	call	*__imp_GlobalLock(%rip)
	testq	%rax, %rax
	movq	%rax, %rdi
	je	.L1676
	xorl	%edx, %edx
	movq	%rax, %rcx
	call	_Z27ImTextCountUtf8BytesFromStrPKtS0_
	leal	1(%rax), %ebx
	movl	4+_ZZL30GetClipboardTextFn_DefaultImplPvE9buf_local(%rip), %eax
	cmpl	%eax, %ebx
	jle	.L1681
	testl	%eax, %eax
	movl	$8, %edx
	je	.L1679
	movl	%eax, %edx
	shrl	$31, %edx
	addl	%eax, %edx
	sarl	%edx
	addl	%eax, %edx
.L1679:
	cmpl	%edx, %ebx
	jl	.L1701
	movl	%ebx, %ebp
.L1680:
	movq	GImGui(%rip), %rax
	movslq	%ebp, %rcx
	incl	844(%rax)
	call	*232(%rax)
	movq	8+_ZZL30GetClipboardTextFn_DefaultImplPvE9buf_local(%rip), %rcx
	movq	%rax, %r12
	testq	%rcx, %rcx
	je	.L1682
	movslq	_ZZL30GetClipboardTextFn_DefaultImplPvE9buf_local(%rip), %r8
	movq	%rcx, %rdx
	movq	%rax, %rcx
	call	memcpy
	movq	8+_ZZL30GetClipboardTextFn_DefaultImplPvE9buf_local(%rip), %rcx
	movq	GImGui(%rip), %rax
	testq	%rcx, %rcx
	je	.L1684
	decl	844(%rax)
.L1684:
	call	*240(%rax)
	movq	%r12, 8+_ZZL30GetClipboardTextFn_DefaultImplPvE9buf_local(%rip)
	movl	%ebp, 4+_ZZL30GetClipboardTextFn_DefaultImplPvE9buf_local(%rip)
	movq	%r12, %rcx
	jmp	.L1678
	.p2align 4,,7
.L1701:
	cmpl	%edx, %eax
	jl	.L1702
.L1681:
	movq	8+_ZZL30GetClipboardTextFn_DefaultImplPvE9buf_local(%rip), %rcx
.L1678:
	xorl	%r9d, %r9d
	movq	%rdi, %r8
	movl	%ebx, %edx
	movl	%ebx, _ZZL30GetClipboardTextFn_DefaultImplPvE9buf_local(%rip)
	call	_Z15ImTextStrToUtf8PciPKtS1_
.L1676:
	movq	%rsi, %rcx
	call	*__imp_GlobalUnlock(%rip)
	call	*__imp_CloseClipboard(%rip)
	movq	8+_ZZL30GetClipboardTextFn_DefaultImplPvE9buf_local(%rip), %rax
	addq	$32, %rsp
	popq	%rbx
	popq	%rsi
	popq	%rdi
	popq	%rbp
	popq	%r12
	ret
	.p2align 4,,7
.L1700:
	leaq	_ZGVZL30GetClipboardTextFn_DefaultImplPvE9buf_local(%rip), %rcx
	call	__cxa_guard_acquire
	testl	%eax, %eax
	je	.L1672
	leaq	_ZGVZL30GetClipboardTextFn_DefaultImplPvE9buf_local(%rip), %rcx
	movl	$0, 4+_ZZL30GetClipboardTextFn_DefaultImplPvE9buf_local(%rip)
	movl	$0, _ZZL30GetClipboardTextFn_DefaultImplPvE9buf_local(%rip)
	movq	$0, 8+_ZZL30GetClipboardTextFn_DefaultImplPvE9buf_local(%rip)
	call	__cxa_guard_release
	leaq	__tcf_0(%rip), %rcx
	call	atexit
	jmp	.L1672
	.p2align 4,,7
.L1675:
	xorl	%eax, %eax
	addq	$32, %rsp
	popq	%rbx
	popq	%rsi
	popq	%rdi
	popq	%rbp
	popq	%r12
	ret
	.p2align 4,,7
.L1682:
	movq	GImGui(%rip), %rax
	jmp	.L1684
.L1702:
	movl	%edx, %ebp
	jmp	.L1680
	.seh_endproc
	.p2align 4,,15
	.globl	_ZN5ImGui23ColorConvertU32ToFloat4Ej
	.def	_ZN5ImGui23ColorConvertU32ToFloat4Ej;	.scl	2;	.type	32;	.endef
	.seh_proc	_ZN5ImGui23ColorConvertU32ToFloat4Ej
_ZN5ImGui23ColorConvertU32ToFloat4Ej:
.LFB313:
	.seh_endprologue
	movss	.LC77(%rip), %xmm2
	movq	%rcx, %rax
	movzbl	%dl, %ecx
	movl	%edx, %r8d
	cvtsi2ss	%ecx, %xmm0
	movzbl	%dh, %ecx
	shrl	$16, %r8d
	shrl	$24, %edx
	movzbl	%r8b, %r8d
	cvtsi2ss	%r8d, %xmm1
	mulss	%xmm2, %xmm0
	mulss	%xmm2, %xmm1
	movss	%xmm0, (%rax)
	cvtsi2ss	%ecx, %xmm0
	movss	%xmm1, 8(%rax)
	mulss	%xmm2, %xmm0
	movss	%xmm0, 4(%rax)
	cvtsi2ss	%edx, %xmm0
	mulss	%xmm2, %xmm0
	movss	%xmm0, 12(%rax)
	ret
	.seh_endproc
	.p2align 4,,15
	.globl	_ZN5ImGui23ColorConvertFloat4ToU32ERK6ImVec4
	.def	_ZN5ImGui23ColorConvertFloat4ToU32ERK6ImVec4;	.scl	2;	.type	32;	.endef
	.seh_proc	_ZN5ImGui23ColorConvertFloat4ToU32ERK6ImVec4
_ZN5ImGui23ColorConvertFloat4ToU32ERK6ImVec4:
.LFB314:
	.seh_endprologue
	xorps	%xmm0, %xmm0
	xorl	%eax, %eax
	movss	(%rcx), %xmm1
	ucomiss	%xmm1, %xmm0
	ja	.L1705
	ucomiss	.LC28(%rip), %xmm1
	movl	$255, %eax
	jbe	.L1717
.L1705:
	movss	4(%rcx), %xmm1
	xorl	%edx, %edx
	ucomiss	%xmm1, %xmm0
	ja	.L1706
	ucomiss	.LC28(%rip), %xmm1
	movl	$65280, %edx
	jbe	.L1718
.L1706:
	movss	8(%rcx), %xmm1
	orl	%edx, %eax
	xorl	%edx, %edx
	ucomiss	%xmm1, %xmm0
	ja	.L1707
	ucomiss	.LC28(%rip), %xmm1
	movl	$16711680, %edx
	jbe	.L1719
.L1707:
	movss	12(%rcx), %xmm1
	orl	%eax, %edx
	ucomiss	%xmm1, %xmm0
	ja	.L1715
.L1720:
	ucomiss	.LC28(%rip), %xmm1
	movl	$-16777216, %eax
	ja	.L1708
	mulss	.LC30(%rip), %xmm1
	addss	.LC29(%rip), %xmm1
	cvttss2si	%xmm1, %eax
	sall	$24, %eax
.L1708:
	orl	%edx, %eax
	ret
	.p2align 4,,7
.L1719:
	mulss	.LC30(%rip), %xmm1
	addss	.LC29(%rip), %xmm1
	cvttss2si	%xmm1, %r8d
	movss	12(%rcx), %xmm1
	movl	%r8d, %edx
	sall	$16, %edx
	orl	%eax, %edx
	ucomiss	%xmm1, %xmm0
	jbe	.L1720
.L1715:
	xorl	%eax, %eax
	orl	%edx, %eax
	ret
	.p2align 4,,7
.L1717:
	mulss	.LC30(%rip), %xmm1
	addss	.LC29(%rip), %xmm1
	cvttss2si	%xmm1, %eax
	jmp	.L1705
	.p2align 4,,7
.L1718:
	mulss	.LC30(%rip), %xmm1
	addss	.LC29(%rip), %xmm1
	cvttss2si	%xmm1, %r8d
	movl	%r8d, %edx
	sall	$8, %edx
	jmp	.L1706
	.seh_endproc
	.p2align 4,,15
	.globl	_ZN5ImGui11GetColorU32Eif
	.def	_ZN5ImGui11GetColorU32Eif;	.scl	2;	.type	32;	.endef
	.seh_proc	_ZN5ImGui11GetColorU32Eif
_ZN5ImGui11GetColorU32Eif:
.LFB315:
	.seh_endprologue
	movq	GImGui(%rip), %rdx
	xorps	%xmm0, %xmm0
	movslq	%ecx, %rax
	addq	$328, %rax
	mulss	5120(%rdx), %xmm1
	salq	$4, %rax
	addq	%rdx, %rax
	movss	(%rax), %xmm4
	movss	4(%rax), %xmm3
	movss	8(%rax), %xmm2
	mulss	12(%rax), %xmm1
	xorl	%eax, %eax
	ucomiss	%xmm4, %xmm0
	ja	.L1722
	ucomiss	.LC28(%rip), %xmm4
	movl	$255, %eax
	jbe	.L1734
.L1722:
	xorl	%edx, %edx
	ucomiss	%xmm3, %xmm0
	ja	.L1723
	ucomiss	.LC28(%rip), %xmm3
	movl	$65280, %edx
	jbe	.L1735
.L1723:
	orl	%edx, %eax
	xorl	%edx, %edx
	ucomiss	%xmm2, %xmm0
	ja	.L1724
	ucomiss	.LC28(%rip), %xmm2
	movl	$16711680, %edx
	jbe	.L1736
.L1724:
	orl	%eax, %edx
	ucomiss	%xmm1, %xmm0
	ja	.L1732
.L1737:
	ucomiss	.LC28(%rip), %xmm1
	movl	$-16777216, %eax
	ja	.L1725
	mulss	.LC30(%rip), %xmm1
	addss	.LC29(%rip), %xmm1
	cvttss2si	%xmm1, %eax
	sall	$24, %eax
.L1725:
	orl	%edx, %eax
	ret
	.p2align 4,,7
.L1736:
	mulss	.LC30(%rip), %xmm2
	addss	.LC29(%rip), %xmm2
	cvttss2si	%xmm2, %ecx
	sall	$16, %ecx
	movl	%ecx, %edx
	orl	%eax, %edx
	ucomiss	%xmm1, %xmm0
	jbe	.L1737
.L1732:
	xorl	%eax, %eax
	orl	%edx, %eax
	ret
	.p2align 4,,7
.L1734:
	mulss	.LC30(%rip), %xmm4
	addss	.LC29(%rip), %xmm4
	cvttss2si	%xmm4, %eax
	jmp	.L1722
	.p2align 4,,7
.L1735:
	mulss	.LC30(%rip), %xmm3
	addss	.LC29(%rip), %xmm3
	cvttss2si	%xmm3, %ecx
	sall	$8, %ecx
	movl	%ecx, %edx
	jmp	.L1723
	.seh_endproc
	.p2align 4,,15
	.globl	_ZN5ImGui11GetColorU32ERK6ImVec4
	.def	_ZN5ImGui11GetColorU32ERK6ImVec4;	.scl	2;	.type	32;	.endef
	.seh_proc	_ZN5ImGui11GetColorU32ERK6ImVec4
_ZN5ImGui11GetColorU32ERK6ImVec4:
.LFB316:
	.seh_endprologue
	movq	GImGui(%rip), %rax
	xorps	%xmm1, %xmm1
	movss	(%rcx), %xmm4
	movss	4(%rcx), %xmm3
	movss	5120(%rax), %xmm0
	xorl	%eax, %eax
	ucomiss	%xmm4, %xmm1
	movss	8(%rcx), %xmm2
	mulss	12(%rcx), %xmm0
	ja	.L1739
	ucomiss	.LC28(%rip), %xmm4
	movl	$255, %eax
	jbe	.L1751
.L1739:
	xorl	%edx, %edx
	ucomiss	%xmm3, %xmm1
	ja	.L1740
	ucomiss	.LC28(%rip), %xmm3
	movl	$65280, %edx
	jbe	.L1752
.L1740:
	orl	%edx, %eax
	xorl	%edx, %edx
	ucomiss	%xmm2, %xmm1
	ja	.L1741
	ucomiss	.LC28(%rip), %xmm2
	movl	$16711680, %edx
	jbe	.L1753
.L1741:
	orl	%eax, %edx
	ucomiss	%xmm0, %xmm1
	ja	.L1749
.L1754:
	ucomiss	.LC28(%rip), %xmm0
	movl	$-16777216, %eax
	ja	.L1742
	mulss	.LC30(%rip), %xmm0
	addss	.LC29(%rip), %xmm0
	cvttss2si	%xmm0, %eax
	sall	$24, %eax
.L1742:
	orl	%edx, %eax
	ret
	.p2align 4,,7
.L1753:
	mulss	.LC30(%rip), %xmm2
	addss	.LC29(%rip), %xmm2
	cvttss2si	%xmm2, %ecx
	sall	$16, %ecx
	movl	%ecx, %edx
	orl	%eax, %edx
	ucomiss	%xmm0, %xmm1
	jbe	.L1754
.L1749:
	xorl	%eax, %eax
	orl	%edx, %eax
	ret
	.p2align 4,,7
.L1751:
	mulss	.LC30(%rip), %xmm4
	addss	.LC29(%rip), %xmm4
	cvttss2si	%xmm4, %eax
	jmp	.L1739
	.p2align 4,,7
.L1752:
	mulss	.LC30(%rip), %xmm3
	addss	.LC29(%rip), %xmm3
	cvttss2si	%xmm3, %ecx
	sall	$8, %ecx
	movl	%ecx, %edx
	jmp	.L1740
	.seh_endproc
	.p2align 4,,15
	.globl	_ZN5ImGui20ColorConvertRGBtoHSVEfffRfS0_S0_
	.def	_ZN5ImGui20ColorConvertRGBtoHSVEfffRfS0_S0_;	.scl	2;	.type	32;	.endef
	.seh_proc	_ZN5ImGui20ColorConvertRGBtoHSVEfffRfS0_S0_
_ZN5ImGui20ColorConvertRGBtoHSVEfffRfS0_S0_:
.LFB317:
	.seh_endprologue
	ucomiss	%xmm1, %xmm2
	ja	.L1760
	ucomiss	%xmm0, %xmm1
	movss	.LC78(%rip), %xmm3
	xorps	%xmm4, %xmm4
	ja	.L1761
.L1764:
	movaps	%xmm4, %xmm3
.L1757:
	movaps	%xmm1, %xmm4
	movaps	%xmm0, %xmm5
	subss	%xmm2, %xmm1
	movq	40(%rsp), %rax
	minss	%xmm2, %xmm4
	movss	.LC80(%rip), %xmm2
	subss	%xmm4, %xmm5
	movaps	%xmm5, %xmm4
	mulss	.LC37(%rip), %xmm5
	addss	%xmm2, %xmm5
	addss	%xmm0, %xmm2
	divss	%xmm5, %xmm1
	divss	%xmm2, %xmm4
	addss	%xmm3, %xmm1
	movss	.LC81(%rip), %xmm3
	andps	%xmm3, %xmm1
	movss	%xmm1, (%r9)
	movss	%xmm4, (%rax)
	movq	48(%rsp), %rax
	movss	%xmm0, (%rax)
	ret
	.p2align 4,,7
.L1760:
	movaps	%xmm1, %xmm3
	movaps	%xmm2, %xmm1
	movss	.LC20(%rip), %xmm4
	movaps	%xmm3, %xmm2
	ucomiss	%xmm0, %xmm1
	movss	.LC79(%rip), %xmm3
	jbe	.L1764
.L1761:
	movaps	%xmm0, %xmm4
	movaps	%xmm1, %xmm0
	movaps	%xmm4, %xmm1
	jmp	.L1757
	.seh_endproc
	.p2align 4,,15
	.globl	_ZN5ImGui20ColorConvertHSVtoRGBEfffRfS0_S0_
	.def	_ZN5ImGui20ColorConvertHSVtoRGBEfffRfS0_S0_;	.scl	2;	.type	32;	.endef
	.seh_proc	_ZN5ImGui20ColorConvertHSVtoRGBEfffRfS0_S0_
_ZN5ImGui20ColorConvertHSVtoRGBEfffRfS0_S0_:
.LFB318:
	pushq	%rsi
	.seh_pushreg	%rsi
	pushq	%rbx
	.seh_pushreg	%rbx
	subq	$72, %rsp
	.seh_stackalloc	72
	movaps	%xmm6, 48(%rsp)
	.seh_savexmm	%xmm6, 48
	.seh_endprologue
	movaps	%xmm1, %xmm6
	ucomiss	.LC9(%rip), %xmm1
	movq	128(%rsp), %rsi
	movq	136(%rsp), %rbx
	jp	.L1766
	jne	.L1766
	movss	%xmm2, (%rbx)
	movss	%xmm2, (%rsi)
	movss	%xmm2, (%r9)
.L1765:
	movaps	48(%rsp), %xmm6
	addq	$72, %rsp
	popq	%rbx
	popq	%rsi
	ret
	.p2align 4,,7
.L1766:
	movss	.LC28(%rip), %xmm1
	movq	%r9, 40(%rsp)
	movss	%xmm2, 36(%rsp)
	call	fmodf
	divss	.LC82(%rip), %xmm0
	movaps	%xmm6, %xmm4
	movss	36(%rsp), %xmm2
	movq	40(%rsp), %r9
	cvttss2si	%xmm0, %eax
	cvtsi2ss	%eax, %xmm1
	cmpl	$4, %eax
	subss	%xmm1, %xmm0
	movss	.LC28(%rip), %xmm1
	movaps	%xmm1, %xmm5
	movaps	%xmm1, %xmm3
	mulss	%xmm0, %xmm4
	subss	%xmm6, %xmm3
	subss	%xmm4, %xmm5
	mulss	%xmm2, %xmm3
	movaps	%xmm5, %xmm4
	movaps	%xmm1, %xmm5
	mulss	%xmm2, %xmm4
	subss	%xmm0, %xmm5
	mulss	%xmm5, %xmm6
	subss	%xmm6, %xmm1
	mulss	%xmm2, %xmm1
	ja	.L1769
	leaq	.L1771(%rip), %rdx
	movl	%eax, %eax
	movslq	(%rdx,%rax,4), %rax
	addq	%rax, %rdx
	jmp	*%rdx
	.section .rdata,"dr"
	.align 4
.L1771:
	.long	.L1770-.L1771
	.long	.L1772-.L1771
	.long	.L1773-.L1771
	.long	.L1774-.L1771
	.long	.L1775-.L1771
	.text
	.p2align 4,,7
.L1774:
	movss	%xmm3, (%r9)
	movss	%xmm4, (%rsi)
	movss	%xmm2, (%rbx)
	jmp	.L1765
	.p2align 4,,7
.L1773:
	movss	%xmm3, (%r9)
	movss	%xmm2, (%rsi)
	movss	%xmm1, (%rbx)
	jmp	.L1765
	.p2align 4,,7
.L1772:
	movss	%xmm4, (%r9)
	movss	%xmm2, (%rsi)
	movss	%xmm3, (%rbx)
	jmp	.L1765
	.p2align 4,,7
.L1770:
	movss	%xmm2, (%r9)
	movss	%xmm1, (%rsi)
	movss	%xmm3, (%rbx)
	jmp	.L1765
	.p2align 4,,7
.L1775:
	movss	%xmm1, (%r9)
	movss	%xmm3, (%rsi)
	movss	%xmm2, (%rbx)
	jmp	.L1765
	.p2align 4,,7
.L1769:
	movss	%xmm2, (%r9)
	movss	%xmm3, (%rsi)
	movss	%xmm4, (%rbx)
	jmp	.L1765
	.seh_endproc
	.p2align 4,,15
	.globl	_Z10ImFileOpenPKcS0_
	.def	_Z10ImFileOpenPKcS0_;	.scl	2;	.type	32;	.endef
	.seh_proc	_Z10ImFileOpenPKcS0_
_Z10ImFileOpenPKcS0_:
.LFB319:
	pushq	%r13
	.seh_pushreg	%r13
	pushq	%r12
	.seh_pushreg	%r12
	pushq	%rbp
	.seh_pushreg	%rbp
	pushq	%rdi
	.seh_pushreg	%rdi
	pushq	%rsi
	.seh_pushreg	%rsi
	pushq	%rbx
	.seh_pushreg	%rbx
	subq	$72, %rsp
	.seh_stackalloc	72
	.seh_endprologue
	cmpb	$0, (%rcx)
	movq	%rcx, %rdi
	movq	%rdx, %rbp
	je	.L1778
	movq	%rcx, %rbx
	xorl	%r12d, %r12d
	leaq	60(%rsp), %rsi
	jmp	.L1782
	.p2align 4,,7
.L1811:
	cmpl	$65536, %eax
	adcl	$0, %r12d
	cmpb	$0, (%rbx)
	je	.L1781
.L1782:
	xorl	%r8d, %r8d
	movq	%rbx, %rdx
	movq	%rsi, %rcx
	call	_Z18ImTextCharFromUtf8PjPKcS1_
	cltq
	addq	%rax, %rbx
	movl	60(%rsp), %eax
	testl	%eax, %eax
	jne	.L1811
.L1781:
	incl	%r12d
	cmpb	$0, 0(%rbp)
	je	.L1795
.L1792:
	movq	%rbp, %rbx
	xorl	%r13d, %r13d
	jmp	.L1786
	.p2align 4,,7
.L1812:
	cmpl	$65536, %eax
	adcl	$0, %r13d
	cmpb	$0, (%rbx)
	je	.L1784
.L1786:
	xorl	%r8d, %r8d
	movq	%rbx, %rdx
	movq	%rsi, %rcx
	call	_Z18ImTextCharFromUtf8PjPKcS1_
	cltq
	addq	%rax, %rbx
	movl	60(%rsp), %eax
	testl	%eax, %eax
	jne	.L1812
.L1784:
	leal	1(%r13), %edx
.L1783:
	leal	(%r12,%rdx), %esi
	cmpl	$7, %esi
	jle	.L1796
	movslq	%esi, %rcx
	movl	%edx, %r13d
	addq	%rcx, %rcx
.L1787:
	movq	GImGui(%rip), %rax
	incl	844(%rax)
.LEHB5:
	call	*232(%rax)
	movq	%rax, %rbx
	movq	GImGui(%rip), %rax
	xorl	%ecx, %ecx
	call	*240(%rax)
.LEHE5:
	xorl	%r9d, %r9d
	movq	%rdi, %r8
	movl	%r12d, %edx
	movq	%rbx, %rcx
	call	_Z17ImTextStrFromUtf8PtiPKcS1_PS1_.constprop.167
	cmpl	%r12d, %esi
	jg	.L1788
	leaq	.LC10(%rip), %rdx
	leaq	.LC11(%rip), %rcx
	movl	$856, %r8d
.LEHB6:
	call	_assert
	movslq	%r12d, %r12
	movq	%rbp, %r8
	movl	%r13d, %edx
	leaq	(%rbx,%r12,2), %rsi
	xorl	%r9d, %r9d
	movq	%rsi, %rcx
	call	_Z17ImTextStrFromUtf8PtiPKcS1_PS1_.constprop.167
	leaq	.LC10(%rip), %rdx
	leaq	.LC11(%rip), %rcx
	movl	$856, %r8d
	call	_assert
.L1793:
	movq	%rsi, %rdx
	movq	%rbx, %rcx
	call	*__imp__wfopen(%rip)
.LEHE6:
	testq	%rbx, %rbx
	je	.L1803
	movq	GImGui(%rip), %rdx
	movq	%rax, 40(%rsp)
	movq	%rbx, %rcx
	decl	844(%rdx)
	call	*240(%rdx)
	movq	40(%rsp), %rax
.L1803:
	addq	$72, %rsp
	popq	%rbx
	popq	%rsi
	popq	%rdi
	popq	%rbp
	popq	%r12
	popq	%r13
	ret
	.p2align 4,,7
.L1788:
	movslq	%r12d, %r12
	xorl	%r9d, %r9d
	movq	%rbp, %r8
	leaq	(%rbx,%r12,2), %rsi
	movl	%r13d, %edx
	movq	%rsi, %rcx
	call	_Z17ImTextStrFromUtf8PtiPKcS1_PS1_.constprop.167
	jmp	.L1793
	.p2align 4,,7
.L1796:
	movl	%edx, %r13d
	movl	$16, %ecx
	jmp	.L1787
.L1778:
	cmpb	$0, (%rdx)
	je	.L1797
	movl	$1, %r12d
	leaq	60(%rsp), %rsi
	jmp	.L1792
.L1795:
	movl	$1, %edx
	jmp	.L1783
.L1797:
	movl	$16, %ecx
	movl	$2, %esi
	movl	$1, %r13d
	movl	$1, %r12d
	jmp	.L1787
.L1798:
	testq	%rbx, %rbx
	je	.L1791
	movq	GImGui(%rip), %rdx
	movq	%rax, 40(%rsp)
	movq	%rbx, %rcx
	decl	844(%rdx)
	call	*240(%rdx)
	movq	40(%rsp), %rax
.L1791:
	movq	%rax, %rcx
.LEHB7:
	call	_Unwind_Resume
.LEHE7:
.L1799:
	jmp	.L1791
	.seh_handler	__gxx_personality_seh0, @unwind, @except
	.seh_handlerdata
.LLSDA319:
	.byte	0xff
	.byte	0xff
	.byte	0x1
	.uleb128 .LLSDACSE319-.LLSDACSB319
.LLSDACSB319:
	.uleb128 .LEHB5-.LFB319
	.uleb128 .LEHE5-.LEHB5
	.uleb128 .L1799-.LFB319
	.uleb128 0
	.uleb128 .LEHB6-.LFB319
	.uleb128 .LEHE6-.LEHB6
	.uleb128 .L1798-.LFB319
	.uleb128 0
	.uleb128 .LEHB7-.LFB319
	.uleb128 .LEHE7-.LEHB7
	.uleb128 0
	.uleb128 0
.LLSDACSE319:
	.text
	.seh_endproc
	.section .rdata,"dr"
.LC83:
	.ascii "wt\0"
.LC84:
	.ascii "###\0"
.LC85:
	.ascii "[%s]\12\0"
.LC86:
	.ascii "Pos=%d,%d\12\0"
.LC87:
	.ascii "Size=%d,%d\12\0"
.LC88:
	.ascii "Collapsed=%d\12\0"
	.text
	.p2align 4,,15
	.def	_ZL21SaveIniSettingsToDiskPKc;	.scl	3;	.type	32;	.endef
	.seh_proc	_ZL21SaveIniSettingsToDiskPKc
_ZL21SaveIniSettingsToDiskPKc:
.LFB407:
	pushq	%r15
	.seh_pushreg	%r15
	pushq	%r14
	.seh_pushreg	%r14
	pushq	%r13
	.seh_pushreg	%r13
	pushq	%r12
	.seh_pushreg	%r12
	pushq	%rbp
	.seh_pushreg	%rbp
	pushq	%rdi
	.seh_pushreg	%rdi
	pushq	%rsi
	.seh_pushreg	%rsi
	pushq	%rbx
	.seh_pushreg	%rbx
	subq	$136, %rsp
	.seh_stackalloc	136
	movaps	%xmm6, 48(%rsp)
	.seh_savexmm	%xmm6, 48
	movaps	%xmm7, 64(%rsp)
	.seh_savexmm	%xmm7, 64
	movaps	%xmm8, 80(%rsp)
	.seh_savexmm	%xmm8, 80
	movaps	%xmm9, 96(%rsp)
	.seh_savexmm	%xmm9, 96
	movaps	%xmm10, 112(%rsp)
	.seh_savexmm	%xmm10, 112
	.seh_endprologue
	testq	%rcx, %rcx
	movq	GImGui(%rip), %r12
	movq	%rcx, 40(%rsp)
	movl	$0x00000000, 6128(%r12)
	je	.L1813
	movl	5976(%r12), %eax
	xorl	%edi, %edi
	xorl	%r13d, %r13d
	testl	%eax, %eax
	je	.L1834
	leaq	1024+_ZZ6ImHashPKvijE9crc32_lut(%rip), %r14
	movdqa	.LC23(%rip), %xmm6
	pxor	%xmm7, %xmm7
	movdqa	.LC24(%rip), %xmm10
	movdqa	.LC25(%rip), %xmm9
	movdqa	.LC26(%rip), %xmm8
	jmp	.L1855
	.p2align 4,,7
.L1819:
	movq	5984(%r12), %rax
	movq	(%rax,%rdi), %r15
	testb	$1, 13(%r15)
	je	.L1857
.L1820:
	movl	5976(%r12), %eax
	incl	%r13d
	addq	$8, %rdi
	cmpl	%r13d, %eax
	je	.L1834
.L1855:
	cmpl	%r13d, %eax
	jg	.L1819
	leaq	.LC10(%rip), %rdx
	leaq	.LC11(%rip), %rcx
	movl	$856, %r8d
	call	_assert
	jmp	.L1819
	.p2align 4,,7
.L1857:
	movl	4+_ZZ6ImHashPKvijE9crc32_lut(%rip), %eax
	movq	(%r15), %rdx
	leaq	_ZZ6ImHashPKvijE9crc32_lut(%rip), %r8
	movq	GImGui(%rip), %rsi
	testl	%eax, %eax
	jne	.L1824
	movdqa	%xmm6, %xmm3
	movq	%r8, %rax
	.p2align 4,,7
.L1825:
	movdqa	%xmm3, %xmm0
	movdqa	%xmm7, %xmm4
	movdqa	%xmm3, %xmm1
	addq	$16, %rax
	paddd	%xmm10, %xmm3
	pand	%xmm9, %xmm0
	psrld	$1, %xmm1
	movdqa	%xmm7, %xmm2
	movdqa	%xmm7, %xmm5
	psubd	%xmm0, %xmm4
	movdqa	%xmm4, %xmm0
	movdqa	%xmm7, %xmm4
	pand	%xmm8, %xmm0
	pxor	%xmm1, %xmm0
	movdqa	%xmm0, %xmm1
	psrld	$1, %xmm0
	pand	%xmm9, %xmm1
	psubd	%xmm1, %xmm2
	pand	%xmm8, %xmm2
	movdqa	%xmm7, %xmm1
	pxor	%xmm0, %xmm2
	movdqa	%xmm2, %xmm0
	psrld	$1, %xmm2
	pand	%xmm9, %xmm0
	psubd	%xmm0, %xmm1
	pand	%xmm8, %xmm1
	pxor	%xmm2, %xmm1
	movdqa	%xmm7, %xmm2
	movdqa	%xmm1, %xmm0
	psrld	$1, %xmm1
	pand	%xmm9, %xmm0
	psubd	%xmm0, %xmm5
	movdqa	%xmm5, %xmm0
	movdqa	%xmm7, %xmm5
	pand	%xmm8, %xmm0
	pxor	%xmm1, %xmm0
	movdqa	%xmm0, %xmm1
	psrld	$1, %xmm0
	pand	%xmm9, %xmm1
	psubd	%xmm1, %xmm2
	pand	%xmm8, %xmm2
	movdqa	%xmm7, %xmm1
	pxor	%xmm0, %xmm2
	movdqa	%xmm2, %xmm0
	psrld	$1, %xmm2
	pand	%xmm9, %xmm0
	psubd	%xmm0, %xmm1
	pand	%xmm8, %xmm1
	pxor	%xmm2, %xmm1
	movdqa	%xmm1, %xmm0
	psrld	$1, %xmm1
	pand	%xmm9, %xmm0
	psubd	%xmm0, %xmm4
	movdqa	%xmm4, %xmm0
	pand	%xmm8, %xmm0
	pxor	%xmm1, %xmm0
	movdqa	%xmm0, %xmm1
	psrld	$1, %xmm0
	pand	%xmm9, %xmm1
	psubd	%xmm1, %xmm5
	movdqa	%xmm5, %xmm1
	pand	%xmm8, %xmm1
	pxor	%xmm1, %xmm0
	movaps	%xmm0, -16(%rax)
	cmpq	%r14, %rax
	jne	.L1825
.L1824:
	leaq	1(%rdx), %rcx
	movzbl	(%rdx), %edx
	movl	$-1, %eax
	testb	%dl, %dl
	jne	.L1829
	jmp	.L1858
	.p2align 4,,7
.L1856:
	movl	%eax, %r9d
	movzbl	%al, %eax
	shrl	$8, %r9d
.L1827:
	xorl	%edx, %eax
	incq	%rcx
	movzbl	-1(%rcx), %edx
	movzbl	%al, %eax
	xorl	(%r8,%rax,4), %r9d
	testb	%dl, %dl
	movl	%r9d, %eax
	je	.L1859
.L1829:
	cmpb	$35, %dl
	jne	.L1856
	cmpb	$35, (%rcx)
	jne	.L1856
	cmpb	$35, 1(%rcx)
	jne	.L1856
	movl	$255, %eax
	movl	$16777215, %r9d
	jmp	.L1827
	.p2align 4,,7
.L1859:
	notl	%eax
	movl	%eax, %ebx
.L1822:
	movl	6112(%rsi), %edx
	testl	%edx, %edx
	je	.L1830
	xorl	%r9d, %r9d
	xorl	%ebp, %ebp
	jmp	.L1833
	.p2align 4,,7
.L1831:
	movq	%r9, %rdx
	addq	6120(%rsi), %rdx
	cmpl	%ebx, 8(%rdx)
	je	.L1832
.L1860:
	movl	6112(%rsi), %edx
	incl	%ebp
	addq	$32, %r9
	cmpl	%ebp, %edx
	je	.L1830
.L1833:
	cmpl	%ebp, %edx
	jg	.L1831
	leaq	.LC10(%rip), %rdx
	leaq	.LC11(%rip), %rcx
	movl	$856, %r8d
	movq	%r9, 32(%rsp)
	call	_assert
	movq	32(%rsp), %r9
	movq	%r9, %rdx
	addq	6120(%rsi), %rdx
	cmpl	%ebx, 8(%rdx)
	jne	.L1860
.L1832:
	movq	28(%r15), %rax
	movq	%rax, 12(%rdx)
	movq	44(%r15), %rax
	movq	%rax, 20(%rdx)
	movzbl	139(%r15), %eax
	movb	%al, 28(%rdx)
	jmp	.L1820
	.p2align 4,,7
.L1830:
	movq	28(%r15), %rax
	movq	%rax, 12
	ud2
	.p2align 4,,7
.L1834:
	movq	40(%rsp), %rcx
	leaq	.LC83(%rip), %rdx
	call	_Z10ImFileOpenPKcS0_
	testq	%rax, %rax
	movq	%rax, %rbp
	je	.L1813
	movl	6112(%r12), %eax
	xorl	%edi, %edi
	xorl	%esi, %esi
	testl	%eax, %eax
	jne	.L1853
	jmp	.L1841
	.p2align 4,,7
.L1837:
	movq	%rdi, %rbx
	addq	6120(%r12), %rbx
	movss	12(%rbx), %xmm0
	ucomiss	.LC21(%rip), %xmm0
	jp	.L1845
	je	.L1838
.L1845:
	movq	(%rbx), %r13
	leaq	.LC84(%rip), %rdx
	movq	%r13, %rcx
	call	strstr
	leaq	.LC85(%rip), %rdx
	testq	%rax, %rax
	movq	%r13, %r8
	cmovne	%rax, %r8
	movq	%rbp, %rcx
	call	fprintf
	movss	16(%rbx), %xmm0
	leaq	.LC86(%rip), %rdx
	movss	12(%rbx), %xmm1
	movq	%rbp, %rcx
	cvttss2si	%xmm0, %r9d
	cvttss2si	%xmm1, %r8d
	call	fprintf
	movss	24(%rbx), %xmm2
	leaq	.LC87(%rip), %rdx
	movss	20(%rbx), %xmm3
	movq	%rbp, %rcx
	cvttss2si	%xmm3, %r8d
	cvttss2si	%xmm2, %r9d
	call	fprintf
	movzbl	28(%rbx), %r8d
	leaq	.LC88(%rip), %rdx
	movq	%rbp, %rcx
	call	fprintf
	movq	%rbp, %rdx
	movl	$10, %ecx
	call	fputc
.L1838:
	movl	6112(%r12), %eax
	incl	%esi
	addq	$32, %rdi
	cmpl	%esi, %eax
	je	.L1841
.L1853:
	cmpl	%esi, %eax
	jg	.L1837
	leaq	.LC10(%rip), %rdx
	leaq	.LC11(%rip), %rcx
	movl	$856, %r8d
	call	_assert
	jmp	.L1837
	.p2align 4,,7
.L1841:
	movaps	48(%rsp), %xmm6
	movq	%rbp, %rcx
	movaps	64(%rsp), %xmm7
	movaps	80(%rsp), %xmm8
	movaps	96(%rsp), %xmm9
	movaps	112(%rsp), %xmm10
	addq	$136, %rsp
	popq	%rbx
	popq	%rsi
	popq	%rdi
	popq	%rbp
	popq	%r12
	popq	%r13
	popq	%r14
	popq	%r15
	jmp	fclose
.L1813:
	movaps	48(%rsp), %xmm6
	movaps	64(%rsp), %xmm7
	movaps	80(%rsp), %xmm8
	movaps	96(%rsp), %xmm9
	movaps	112(%rsp), %xmm10
	addq	$136, %rsp
	popq	%rbx
	popq	%rsi
	popq	%rdi
	popq	%rbp
	popq	%r12
	popq	%r13
	popq	%r14
	popq	%r15
	ret
.L1858:
	xorl	%ebx, %ebx
	jmp	.L1822
	.seh_endproc
	.section .rdata,"dr"
.LC89:
	.ascii "filename && file_open_mode\0"
	.text
	.p2align 4,,15
	.globl	_Z18ImFileLoadToMemoryPKcS0_Pii
	.def	_Z18ImFileLoadToMemoryPKcS0_Pii;	.scl	2;	.type	32;	.endef
	.seh_proc	_Z18ImFileLoadToMemoryPKcS0_Pii
_Z18ImFileLoadToMemoryPKcS0_Pii:
.LFB320:
	pushq	%r13
	.seh_pushreg	%r13
	pushq	%r12
	.seh_pushreg	%r12
	pushq	%rbp
	.seh_pushreg	%rbp
	pushq	%rdi
	.seh_pushreg	%rdi
	pushq	%rsi
	.seh_pushreg	%rsi
	pushq	%rbx
	.seh_pushreg	%rbx
	subq	$40, %rsp
	.seh_stackalloc	40
	.seh_endprologue
	testq	%rcx, %rcx
	movq	%rcx, %rbx
	movq	%rdx, %rsi
	movq	%r8, %rdi
	movl	%r9d, %r12d
	je	.L1873
	testq	%rdx, %rdx
	je	.L1873
.L1862:
	testq	%rdi, %rdi
	je	.L1864
	movl	$0, (%rdi)
.L1864:
	movq	%rbx, %rcx
	movq	%rsi, %rdx
	call	_Z10ImFileOpenPKcS0_
	testq	%rax, %rax
	movq	%rax, %rbx
	je	.L1889
	xorl	%edx, %edx
	movl	$2, %r8d
	movq	%rax, %rcx
	call	fseek
	testl	%eax, %eax
	je	.L1892
.L1866:
	movq	%rbx, %rcx
	call	fclose
.L1889:
	xorl	%esi, %esi
.L1878:
	movq	%rsi, %rax
	addq	$40, %rsp
	popq	%rbx
	popq	%rsi
	popq	%rdi
	popq	%rbp
	popq	%r12
	popq	%r13
	ret
	.p2align 4,,7
.L1873:
	leaq	.LC15(%rip), %rdx
	leaq	.LC89(%rip), %rcx
	movl	$1319, %r8d
	call	_assert
	jmp	.L1862
	.p2align 4,,7
.L1892:
	movq	%rbx, %rcx
	call	ftell
	cmpl	$-1, %eax
	movl	%eax, %r13d
	je	.L1866
	xorl	%r8d, %r8d
	xorl	%edx, %edx
	movq	%rbx, %rcx
	call	fseek
	testl	%eax, %eax
	jne	.L1866
	movq	GImGui(%rip), %rax
	leal	0(%r13,%r12), %ecx
	movslq	%ecx, %rcx
	incl	844(%rax)
	call	*232(%rax)
	testq	%rax, %rax
	movq	%rax, %rsi
	je	.L1893
	movslq	%r13d, %rbp
	movq	%rbx, %r9
	movl	$1, %edx
	movq	%rbp, %r8
	movq	%rsi, %rcx
	call	fread
	cmpq	%rax, %rbp
	jne	.L1894
	testl	%r12d, %r12d
	jle	.L1869
	leaq	(%rsi,%rbp), %rcx
	movslq	%r12d, %r8
	xorl	%edx, %edx
	call	memset
.L1869:
	movq	%rbx, %rcx
	call	fclose
	testq	%rdi, %rdi
	je	.L1878
	movq	%rsi, %rax
	movl	%r13d, (%rdi)
	addq	$40, %rsp
	popq	%rbx
	popq	%rsi
	popq	%rdi
	popq	%rbp
	popq	%r12
	popq	%r13
	ret
	.p2align 4,,7
.L1894:
	movq	%rbx, %rcx
	call	fclose
	movq	GImGui(%rip), %rax
	movq	%rsi, %rcx
	xorl	%esi, %esi
	decl	844(%rax)
	call	*240(%rax)
	jmp	.L1878
	.p2align 4,,7
.L1893:
	movq	%rbx, %rcx
	call	fclose
	.p2align 4,,5
	jmp	.L1878
	.seh_endproc
	.align 2
	.p2align 4,,15
	.globl	_ZN12ImGuiStorage5ClearEv
	.def	_ZN12ImGuiStorage5ClearEv;	.scl	2;	.type	32;	.endef
	.seh_proc	_ZN12ImGuiStorage5ClearEv
_ZN12ImGuiStorage5ClearEv:
.LFB321:
	pushq	%rbx
	.seh_pushreg	%rbx
	subq	$32, %rsp
	.seh_stackalloc	32
	.seh_endprologue
	movq	%rcx, %rbx
	movq	8(%rcx), %rcx
	testq	%rcx, %rcx
	je	.L1895
	movq	GImGui(%rip), %rax
	movl	$0, 4(%rbx)
	movl	$0, (%rbx)
	decl	844(%rax)
	call	*240(%rax)
	movq	$0, 8(%rbx)
.L1895:
	addq	$32, %rsp
	popq	%rbx
	ret
	.seh_endproc
	.align 2
	.p2align 4,,15
	.globl	_ZNK12ImGuiStorage6GetIntEji
	.def	_ZNK12ImGuiStorage6GetIntEji;	.scl	2;	.type	32;	.endef
	.seh_proc	_ZNK12ImGuiStorage6GetIntEji
_ZNK12ImGuiStorage6GetIntEji:
.LFB323:
	pushq	%rbx
	.seh_pushreg	%rbx
	.seh_endprologue
	movslq	(%rcx), %rbx
	movq	8(%rcx), %r11
	salq	$4, %rbx
	leaq	(%r11,%rbx), %rax
	shrq	$4, %rbx
.L1906:
	testl	%ebx, %ebx
	jle	.L1901
	movl	%ebx, %r9d
	sarl	%r9d
	movslq	%r9d, %rcx
	salq	$4, %rcx
	addq	%r11, %rcx
	cmpl	(%rcx), %edx
	jbe	.L1904
	jmp	.L1917
	.p2align 4,,7
.L1914:
	movl	%r9d, %r10d
	sarl	%r10d
	movslq	%r10d, %rcx
	salq	$4, %rcx
	addq	%r11, %rcx
	cmpl	(%rcx), %edx
	ja	.L1902
	movl	%r10d, %r9d
.L1904:
	testl	%r9d, %r9d
	jne	.L1914
.L1901:
	cmpq	%r11, %rax
	je	.L1910
	cmpl	(%r11), %edx
	je	.L1908
.L1910:
	movl	%r8d, %eax
	popq	%rbx
	ret
.L1917:
	movl	%r9d, %r10d
	movl	%ebx, %r9d
	.p2align 4,,7
.L1902:
	incl	%r10d
	movl	%r9d, %ebx
	leaq	16(%rcx), %r11
	subl	%r10d, %ebx
	jmp	.L1906
	.p2align 4,,7
.L1908:
	movl	8(%r11), %eax
	popq	%rbx
	ret
	.seh_endproc
	.align 2
	.p2align 4,,15
	.globl	_ZNK12ImGuiStorage7GetBoolEjb
	.def	_ZNK12ImGuiStorage7GetBoolEjb;	.scl	2;	.type	32;	.endef
	.seh_proc	_ZNK12ImGuiStorage7GetBoolEjb
_ZNK12ImGuiStorage7GetBoolEjb:
.LFB324:
	pushq	%rbx
	.seh_pushreg	%rbx
	.seh_endprologue
	movslq	(%rcx), %r11
	movq	8(%rcx), %r10
	movzbl	%r8b, %r8d
	salq	$4, %r11
	leaq	(%r10,%r11), %rbx
	shrq	$4, %r11
.L1924:
	testl	%r11d, %r11d
	jle	.L1919
	movl	%r11d, %ecx
	sarl	%ecx
	movslq	%ecx, %rax
	salq	$4, %rax
	addq	%r10, %rax
	cmpl	(%rax), %edx
	jbe	.L1922
	jmp	.L1934
	.p2align 4,,7
.L1931:
	movl	%ecx, %r9d
	sarl	%r9d
	movslq	%r9d, %rax
	salq	$4, %rax
	addq	%r10, %rax
	cmpl	(%rax), %edx
	ja	.L1920
	movl	%r9d, %ecx
.L1922:
	testl	%ecx, %ecx
	jne	.L1931
.L1919:
	cmpq	%r10, %rbx
	je	.L1925
	cmpl	(%r10), %edx
	jne	.L1925
	movl	8(%r10), %r8d
.L1925:
	testl	%r8d, %r8d
	setne	%al
	popq	%rbx
	ret
.L1934:
	movl	%ecx, %r9d
	movl	%r11d, %ecx
	.p2align 4,,7
.L1920:
	incl	%r9d
	leaq	16(%rax), %r10
	subl	%r9d, %ecx
	movl	%ecx, %r11d
	jmp	.L1924
	.seh_endproc
	.align 2
	.p2align 4,,15
	.globl	_ZNK12ImGuiStorage8GetFloatEjf
	.def	_ZNK12ImGuiStorage8GetFloatEjf;	.scl	2;	.type	32;	.endef
	.seh_proc	_ZNK12ImGuiStorage8GetFloatEjf
_ZNK12ImGuiStorage8GetFloatEjf:
.LFB325:
	.seh_endprologue
	movslq	(%rcx), %r10
	movq	8(%rcx), %r9
	salq	$4, %r10
	leaq	(%r9,%r10), %r11
	shrq	$4, %r10
.L1941:
	testl	%r10d, %r10d
	jle	.L1936
	movl	%r10d, %ecx
	sarl	%ecx
	movslq	%ecx, %rax
	salq	$4, %rax
	addq	%r9, %rax
	cmpl	(%rax), %edx
	jbe	.L1939
	jmp	.L1952
	.p2align 4,,7
.L1949:
	movl	%ecx, %r8d
	sarl	%r8d
	movslq	%r8d, %rax
	salq	$4, %rax
	addq	%r9, %rax
	cmpl	(%rax), %edx
	ja	.L1937
	movl	%r8d, %ecx
.L1939:
	testl	%ecx, %ecx
	jne	.L1949
.L1936:
	cmpq	%r9, %r11
	je	.L1945
	cmpl	(%r9), %edx
	je	.L1943
.L1945:
	movaps	%xmm2, %xmm0
	.p2align 4,,2
	ret
.L1952:
	movl	%ecx, %r8d
	movl	%r10d, %ecx
	.p2align 4,,7
.L1937:
	incl	%r8d
	leaq	16(%rax), %r9
	subl	%r8d, %ecx
	movl	%ecx, %r10d
	jmp	.L1941
	.p2align 4,,7
.L1943:
	movss	8(%r9), %xmm0
	ret
	.seh_endproc
	.align 2
	.p2align 4,,15
	.globl	_ZNK12ImGuiStorage10GetVoidPtrEj
	.def	_ZNK12ImGuiStorage10GetVoidPtrEj;	.scl	2;	.type	32;	.endef
	.seh_proc	_ZNK12ImGuiStorage10GetVoidPtrEj
_ZNK12ImGuiStorage10GetVoidPtrEj:
.LFB326:
	.seh_endprologue
	movslq	(%rcx), %r10
	movq	8(%rcx), %r9
	salq	$4, %r10
	leaq	(%r9,%r10), %r11
	shrq	$4, %r10
.L1959:
	testl	%r10d, %r10d
	jle	.L1954
	movl	%r10d, %ecx
	sarl	%ecx
	movslq	%ecx, %rax
	salq	$4, %rax
	addq	%r9, %rax
	cmpl	(%rax), %edx
	jbe	.L1957
	jmp	.L1970
	.p2align 4,,7
.L1967:
	movl	%ecx, %r8d
	sarl	%r8d
	movslq	%r8d, %rax
	salq	$4, %rax
	addq	%r9, %rax
	cmpl	(%rax), %edx
	ja	.L1955
	movl	%r8d, %ecx
.L1957:
	testl	%ecx, %ecx
	jne	.L1967
.L1954:
	cmpq	%r9, %r11
	je	.L1963
	cmpl	(%r9), %edx
	je	.L1961
.L1963:
	xorl	%eax, %eax
	.p2align 4,,3
	ret
.L1970:
	movl	%ecx, %r8d
	movl	%r10d, %ecx
	.p2align 4,,7
.L1955:
	incl	%r8d
	leaq	16(%rax), %r9
	subl	%r8d, %ecx
	movl	%ecx, %r10d
	jmp	.L1959
	.p2align 4,,7
.L1961:
	movq	8(%r9), %rax
	ret
	.seh_endproc
	.section .rdata,"dr"
.LC90:
	.ascii "it >= Data && it <= Data+Size\0"
	.text
	.align 2
	.p2align 4,,15
	.globl	_ZN12ImGuiStorage10GetBoolRefEjb
	.def	_ZN12ImGuiStorage10GetBoolRefEjb;	.scl	2;	.type	32;	.endef
	.seh_proc	_ZN12ImGuiStorage10GetBoolRefEjb
_ZN12ImGuiStorage10GetBoolRefEjb:
.LFB328:
	pushq	%r14
	.seh_pushreg	%r14
	pushq	%r13
	.seh_pushreg	%r13
	pushq	%r12
	.seh_pushreg	%r12
	pushq	%rbp
	.seh_pushreg	%rbp
	pushq	%rdi
	.seh_pushreg	%rdi
	pushq	%rsi
	.seh_pushreg	%rsi
	pushq	%rbx
	.seh_pushreg	%rbx
	subq	$32, %rsp
	.seh_stackalloc	32
	.seh_endprologue
	movslq	(%rcx), %r11
	movq	8(%rcx), %rax
	movq	%rcx, %rsi
	movl	%edx, %ebx
	movl	%r8d, %edi
	movq	%rax, %rbp
	movq	%r11, %r9
	salq	$4, %r11
	leaq	(%rax,%r11), %r10
	shrq	$4, %r11
.L1977:
	testl	%r11d, %r11d
	jle	.L1972
	movl	%r11d, %ecx
	sarl	%ecx
	movslq	%ecx, %rdx
	salq	$4, %rdx
	addq	%rbp, %rdx
	cmpl	(%rdx), %ebx
	jbe	.L1975
	jmp	.L2003
	.p2align 4,,7
.L2000:
	movl	%ecx, %r8d
	sarl	%r8d
	movslq	%r8d, %rdx
	salq	$4, %rdx
	addq	%rbp, %rdx
	cmpl	(%rdx), %ebx
	ja	.L1973
	movl	%r8d, %ecx
.L1975:
	testl	%ecx, %ecx
	jne	.L2000
.L1972:
	cmpq	%rbp, %r10
	je	.L1978
	cmpl	0(%rbp), %ebx
	je	.L1979
.L1978:
	cmpq	%rbp, %r10
	.p2align 4,,2
	jb	.L1989
	cmpq	%rbp, %rax
	.p2align 4,,2
	ja	.L1989
	subq	%rax, %rbp
	movq	%rbp, %r13
	sarq	$4, %r13
	cmpl	%r9d, 4(%rsi)
	je	.L2004
.L1980:
	movslq	%r9d, %r8
	cmpq	%r8, %r13
	jge	.L1986
	subq	%r13, %r8
	incq	%r13
	leaq	(%rax,%rbp), %rdx
	salq	$4, %r13
	salq	$4, %r8
	leaq	(%rax,%r13), %rcx
	call	memmove
	movl	(%rsi), %r9d
	movq	8(%rsi), %rax
.L1986:
	addq	%rax, %rbp
	movzbl	%dil, %edi
	incl	%r9d
	movl	%ebx, 0(%rbp)
	movl	%edi, 8(%rbp)
	movl	%r9d, (%rsi)
.L1979:
	leaq	8(%rbp), %rax
	addq	$32, %rsp
	popq	%rbx
	popq	%rsi
	popq	%rdi
	popq	%rbp
	popq	%r12
	popq	%r13
	popq	%r14
	ret
.L2003:
	movl	%ecx, %r8d
	movl	%r11d, %ecx
	.p2align 4,,7
.L1973:
	incl	%r8d
	leaq	16(%rdx), %rbp
	subl	%r8d, %ecx
	movl	%ecx, %r11d
	jmp	.L1977
	.p2align 4,,7
.L1989:
	leaq	.LC10(%rip), %rdx
	leaq	.LC90(%rip), %rcx
	movl	$888, %r8d
	call	_assert
	movq	8(%rsi), %rax
	movl	(%rsi), %r9d
	subq	%rax, %rbp
	movq	%rbp, %r13
	sarq	$4, %r13
	cmpl	%r9d, 4(%rsi)
	jne	.L1980
.L2004:
	testl	%r9d, %r9d
	je	.L1991
	leal	(%r9,%r9), %r14d
	cmpl	%r14d, %r9d
	jge	.L1980
	movslq	%r14d, %rcx
	salq	$4, %rcx
	jmp	.L1981
	.p2align 4,,7
.L1991:
	movl	$64, %ecx
	movl	$4, %r14d
.L1981:
	movq	GImGui(%rip), %rax
	incl	844(%rax)
	call	*232(%rax)
	movq	8(%rsi), %rdx
	movq	%rax, %r12
	testq	%rdx, %rdx
	je	.L1982
	movslq	(%rsi), %r8
	movq	%rax, %rcx
	salq	$4, %r8
	call	memcpy
	movq	8(%rsi), %rdx
	movq	GImGui(%rip), %rax
	testq	%rdx, %rdx
	je	.L1984
	decl	844(%rax)
.L1984:
	movq	%rdx, %rcx
	call	*240(%rax)
	movq	%r12, 8(%rsi)
	movq	%r12, %rax
	movl	%r14d, 4(%rsi)
	movl	(%rsi), %r9d
	jmp	.L1980
.L1982:
	movq	GImGui(%rip), %rax
	jmp	.L1984
	.seh_endproc
	.align 2
	.p2align 4,,15
	.globl	_ZN12ImGuiStorage9SetAllIntEi
	.def	_ZN12ImGuiStorage9SetAllIntEi;	.scl	2;	.type	32;	.endef
	.seh_proc	_ZN12ImGuiStorage9SetAllIntEi
_ZN12ImGuiStorage9SetAllIntEi:
.LFB335:
	.seh_endprologue
	movl	(%rcx), %eax
	testl	%eax, %eax
	jle	.L2005
	leal	-1(%rax), %r9d
	xorl	%eax, %eax
	incq	%r9
	salq	$4, %r9
	.p2align 4,,7
.L2008:
	movq	8(%rcx), %r8
	movl	%edx, 8(%r8,%rax)
	addq	$16, %rax
	cmpq	%r9, %rax
	jne	.L2008
.L2005:
	rep ret
	.seh_endproc
	.align 2
	.p2align 4,,15
	.globl	_ZN15ImGuiTextFilter9TextRange5splitEcR8ImVectorIS0_E
	.def	_ZN15ImGuiTextFilter9TextRange5splitEcR8ImVectorIS0_E;	.scl	2;	.type	32;	.endef
	.seh_proc	_ZN15ImGuiTextFilter9TextRange5splitEcR8ImVectorIS0_E
_ZN15ImGuiTextFilter9TextRange5splitEcR8ImVectorIS0_E:
.LFB340:
	pushq	%r15
	.seh_pushreg	%r15
	pushq	%r14
	.seh_pushreg	%r14
	pushq	%r13
	.seh_pushreg	%r13
	pushq	%r12
	.seh_pushreg	%r12
	pushq	%rbp
	.seh_pushreg	%rbp
	pushq	%rdi
	.seh_pushreg	%rdi
	pushq	%rsi
	.seh_pushreg	%rsi
	pushq	%rbx
	.seh_pushreg	%rbx
	subq	$56, %rsp
	.seh_stackalloc	56
	.seh_endprologue
	movl	4(%r8), %eax
	movq	%rcx, %r15
	movq	%r8, %rdi
	movl	%edx, %ebp
	testl	%eax, %eax
	jns	.L2010
	movq	GImGui(%rip), %rax
	xorl	%ecx, %ecx
	incl	844(%rax)
	call	*232(%rax)
	movq	8(%rdi), %rcx
	movq	%rax, %rbx
	testq	%rcx, %rcx
	je	.L2011
	movslq	(%rdi), %r8
	movq	%rcx, %rdx
	movq	%rax, %rcx
	salq	$4, %r8
	call	memcpy
	movq	8(%rdi), %rcx
	movq	GImGui(%rip), %rax
	testq	%rcx, %rcx
	je	.L2013
	decl	844(%rax)
.L2013:
	call	*240(%rax)
	movq	%rbx, 8(%rdi)
	movl	$0, 4(%rdi)
.L2010:
	movq	(%r15), %r13
	movq	8(%r15), %rax
	movl	$0, (%rdi)
	leaq	1(%r13), %rbx
	cmpq	%rax, %r13
	jb	.L2035
	jmp	.L2009
	.p2align 4,,7
.L2016:
	incq	%rbx
	cmpq	%rax, %rsi
	jnb	.L2039
.L2035:
	cmpb	%bpl, -1(%rbx)
	leaq	-1(%rbx), %r12
	movq	%rbx, %rsi
	jne	.L2016
	movslq	(%rdi), %r8
	cmpl	4(%rdi), %r8d
	je	.L2017
	movq	8(%rdi), %rax
	leal	1(%r8), %edx
.L2018:
	salq	$4, %r8
	movl	%edx, (%rdi)
	addq	%r8, %rax
	movq	%r13, (%rax)
	movq	%r12, 8(%rax)
	movq	%rbx, %r13
	movq	8(%r15), %rax
	incq	%rbx
	cmpq	%rax, %rsi
	jb	.L2035
	.p2align 4,,7
.L2039:
	cmpq	%rsi, %r13
	je	.L2009
	movslq	(%rdi), %rdx
	cmpl	4(%rdi), %edx
	je	.L2026
	movq	8(%rdi), %rax
	leal	1(%rdx), %ecx
.L2027:
	salq	$4, %rdx
	movl	%ecx, (%rdi)
	addq	%rdx, %rax
	movq	%r13, (%rax)
	movq	%rsi, 8(%rax)
.L2009:
	addq	$56, %rsp
	popq	%rbx
	popq	%rsi
	popq	%rdi
	popq	%rbp
	popq	%r12
	popq	%r13
	popq	%r14
	popq	%r15
	ret
	.p2align 4,,7
.L2017:
	testl	%r8d, %r8d
	leal	1(%r8), %edx
	movl	$8, %eax
	je	.L2019
	movl	%r8d, %eax
	shrl	$31, %eax
	addl	%r8d, %eax
	sarl	%eax
	addl	%r8d, %eax
.L2019:
	cmpl	%eax, %edx
	cmovge	%edx, %eax
	cmpl	%eax, %r8d
	movl	%eax, %r14d
	jl	.L2020
	movq	8(%rdi), %rax
	jmp	.L2018
	.p2align 4,,7
.L2026:
	testl	%edx, %edx
	leal	1(%rdx), %ecx
	movl	$8, %eax
	je	.L2028
	movl	%edx, %eax
	shrl	$31, %eax
	addl	%edx, %eax
	sarl	%eax
	addl	%edx, %eax
.L2028:
	cmpl	%eax, %ecx
	cmovge	%ecx, %eax
	cmpl	%eax, %edx
	movl	%eax, %ebx
	jl	.L2029
	movq	8(%rdi), %rax
	jmp	.L2027
	.p2align 4,,7
.L2020:
	movq	GImGui(%rip), %rax
	movslq	%r14d, %rcx
	salq	$4, %rcx
	incl	844(%rax)
	call	*232(%rax)
	movq	8(%rdi), %rcx
	movq	%rax, 40(%rsp)
	testq	%rcx, %rcx
	je	.L2021
	movslq	(%rdi), %r8
	movq	%rcx, %rdx
	movq	%rax, %rcx
	salq	$4, %r8
	call	memcpy
	movq	8(%rdi), %rcx
	movq	GImGui(%rip), %rax
	testq	%rcx, %rcx
	je	.L2023
	decl	844(%rax)
.L2023:
	call	*240(%rax)
	movslq	(%rdi), %r8
	movq	40(%rsp), %rax
	movl	%r14d, 4(%rdi)
	movq	%rax, 8(%rdi)
	leal	1(%r8), %edx
	jmp	.L2018
	.p2align 4,,7
.L2011:
	movq	GImGui(%rip), %rax
	jmp	.L2013
	.p2align 4,,7
.L2029:
	movq	GImGui(%rip), %rax
	movslq	%ebx, %rcx
	salq	$4, %rcx
	incl	844(%rax)
	call	*232(%rax)
	movq	8(%rdi), %rcx
	movq	%rax, %rbp
	testq	%rcx, %rcx
	je	.L2030
	movslq	(%rdi), %r8
	movq	%rcx, %rdx
	movq	%rax, %rcx
	salq	$4, %r8
	call	memcpy
	movq	8(%rdi), %rcx
	movq	GImGui(%rip), %rax
	testq	%rcx, %rcx
	je	.L2032
	decl	844(%rax)
.L2032:
	call	*240(%rax)
	movslq	(%rdi), %rdx
	movq	%rbp, 8(%rdi)
	movq	%rbp, %rax
	movl	%ebx, 4(%rdi)
	leal	1(%rdx), %ecx
	jmp	.L2027
.L2021:
	movq	GImGui(%rip), %rax
	jmp	.L2023
.L2030:
	movq	GImGui(%rip), %rax
	jmp	.L2032
	.seh_endproc
	.align 2
	.p2align 4,,15
	.globl	_ZN15ImGuiTextFilter5BuildEv
	.def	_ZN15ImGuiTextFilter5BuildEv;	.scl	2;	.type	32;	.endef
	.seh_proc	_ZN15ImGuiTextFilter5BuildEv
_ZN15ImGuiTextFilter5BuildEv:
.LFB341:
	pushq	%rdi
	.seh_pushreg	%rdi
	pushq	%rsi
	.seh_pushreg	%rsi
	pushq	%rbx
	.seh_pushreg	%rbx
	subq	$48, %rsp
	.seh_stackalloc	48
	.seh_endprologue
	movl	260(%rcx), %eax
	movq	%rcx, %rsi
	leaq	256(%rcx), %rbx
	testl	%eax, %eax
	jns	.L2041
	movq	GImGui(%rip), %rax
	xorl	%ecx, %ecx
	incl	844(%rax)
	call	*232(%rax)
	movq	264(%rsi), %rcx
	movq	%rax, %rdi
	testq	%rcx, %rcx
	je	.L2042
	movslq	256(%rsi), %r8
	movq	%rcx, %rdx
	movq	%rax, %rcx
	salq	$4, %r8
	call	memcpy
	movq	264(%rsi), %rcx
	movq	GImGui(%rip), %rax
	testq	%rcx, %rcx
	je	.L2044
	decl	844(%rax)
.L2044:
	call	*240(%rax)
	movq	%rdi, 264(%rsi)
	movl	$0, 260(%rsi)
.L2041:
	movq	%rsi, %rcx
	movl	$0, 256(%rsi)
	xorl	%edi, %edi
	call	strlen
	leaq	32(%rsp), %rcx
	addq	%rsi, %rax
	movq	%rbx, %r8
	movl	$44, %edx
	movq	%rsi, 32(%rsp)
	movq	%rax, 40(%rsp)
	call	_ZN15ImGuiTextFilter9TextRange5splitEcR8ImVectorIS0_E
	movl	256(%rsi), %r10d
	xorl	%ebx, %ebx
	movl	$0, 272(%rsi)
	testl	%r10d, %r10d
	jne	.L2067
	jmp	.L2040
	.p2align 4,,7
.L2060:
	movq	%rdi, %rdx
	addq	264(%rsi), %rdx
	movq	(%rdx), %rax
	cmpq	8(%rdx), %rax
	je	.L2054
.L2055:
	cmpb	$45, (%rax)
	je	.L2069
	incl	272(%rsi)
.L2069:
	movl	256(%rsi), %r10d
.L2054:
	incl	%ebx
	addq	$16, %rdi
	cmpl	%r10d, %ebx
	je	.L2040
.L2067:
	cmpl	%ebx, %r10d
	jle	.L2071
.L2046:
	movq	%rdi, %rcx
	addq	264(%rsi), %rcx
	movq	(%rcx), %r8
	movq	8(%rcx), %rdx
	cmpq	%r8, %rdx
	jbe	.L2052
	movzbl	(%r8), %eax
	cmpb	$32, %al
	je	.L2048
	cmpb	$9, %al
	je	.L2048
	.p2align 4,,7
.L2049:
	movzbl	-1(%rdx), %eax
	cmpb	$32, %al
	je	.L2063
	cmpb	$9, %al
	je	.L2063
	.p2align 4,,7
.L2052:
	cmpl	%r10d, %ebx
	jl	.L2060
	leaq	.LC10(%rip), %rdx
	leaq	.LC11(%rip), %rcx
	movl	$856, %r8d
	call	_assert
	movq	%rdi, %rdx
	addq	264(%rsi), %rdx
	movq	(%rdx), %rax
	cmpq	8(%rdx), %rax
	je	.L2069
	cmpl	%ebx, 256(%rsi)
	jg	.L2055
	leaq	.LC10(%rip), %rdx
	leaq	.LC11(%rip), %rcx
	movl	$856, %r8d
	call	_assert
	movq	264(%rsi), %rax
	movq	(%rax,%rdi), %rax
	jmp	.L2055
	.p2align 4,,7
.L2063:
	leaq	-1(%rdx), %rax
.L2066:
	cmpq	%r8, %rax
	movq	%rax, 8(%rcx)
	jbe	.L2052
	movzbl	-1(%rax), %edx
	decq	%rax
	cmpb	$32, %dl
	je	.L2066
	cmpb	$9, %dl
	jne	.L2052
	jmp	.L2066
	.p2align 4,,7
.L2071:
	leaq	.LC10(%rip), %rdx
	leaq	.LC11(%rip), %rcx
	movl	$856, %r8d
	call	_assert
	movl	256(%rsi), %r10d
	jmp	.L2046
	.p2align 4,,7
.L2048:
	leaq	1(%r8), %rax
	.p2align 4,,7
.L2065:
	cmpq	%rdx, %rax
	movq	%rax, %r8
	movq	%rax, (%rcx)
	je	.L2052
	movzbl	(%rax), %r9d
	incq	%rax
	cmpb	$32, %r9b
	je	.L2065
	cmpb	$9, %r9b
	jne	.L2049
	jmp	.L2065
.L2040:
	addq	$48, %rsp
	popq	%rbx
	popq	%rsi
	popq	%rdi
	ret
.L2042:
	movq	GImGui(%rip), %rax
	jmp	.L2044
	.seh_endproc
	.align 2
	.p2align 4,,15
	.globl	_ZN15ImGuiTextFilterC2EPKc
	.def	_ZN15ImGuiTextFilterC2EPKc;	.scl	2;	.type	32;	.endef
	.seh_proc	_ZN15ImGuiTextFilterC2EPKc
_ZN15ImGuiTextFilterC2EPKc:
.LFB337:
	pushq	%rsi
	.seh_pushreg	%rsi
	pushq	%rbx
	.seh_pushreg	%rbx
	subq	$40, %rsp
	.seh_stackalloc	40
	.seh_endprologue
	testq	%rdx, %rdx
	movq	%rcx, %rbx
	movl	$0, 260(%rcx)
	movl	$0, 256(%rcx)
	movq	$0, 264(%rcx)
	je	.L2073
	movl	$256, %r8d
	call	strncpy
	movb	$0, 255(%rbx)
	movq	%rbx, %rcx
.LEHB8:
	call	_ZN15ImGuiTextFilter5BuildEv
.LEHE8:
	nop
	addq	$40, %rsp
	popq	%rbx
	popq	%rsi
	ret
	.p2align 4,,7
.L2073:
	movb	$0, (%rcx)
	movl	$0, 272(%rcx)
	addq	$40, %rsp
	popq	%rbx
	popq	%rsi
	ret
.L2077:
	movq	264(%rbx), %rcx
	movq	%rax, %rsi
	testq	%rcx, %rcx
	je	.L2076
	movq	GImGui(%rip), %rdx
	decl	844(%rdx)
	call	*240(%rdx)
.L2076:
	movq	%rsi, %rcx
.LEHB9:
	call	_Unwind_Resume
	nop
.LEHE9:
	.seh_handler	__gxx_personality_seh0, @unwind, @except
	.seh_handlerdata
.LLSDA337:
	.byte	0xff
	.byte	0xff
	.byte	0x1
	.uleb128 .LLSDACSE337-.LLSDACSB337
.LLSDACSB337:
	.uleb128 .LEHB8-.LFB337
	.uleb128 .LEHE8-.LEHB8
	.uleb128 .L2077-.LFB337
	.uleb128 0
	.uleb128 .LEHB9-.LFB337
	.uleb128 .LEHE9-.LEHB9
	.uleb128 0
	.uleb128 0
.LLSDACSE337:
	.text
	.seh_endproc
	.globl	_ZN15ImGuiTextFilterC1EPKc
	.def	_ZN15ImGuiTextFilterC1EPKc;	.scl	2;	.type	32;	.endef
	.set	_ZN15ImGuiTextFilterC1EPKc,_ZN15ImGuiTextFilterC2EPKc
	.section .rdata,"dr"
.LC91:
	.ascii "\0"
	.text
	.align 2
	.p2align 4,,15
	.globl	_ZNK15ImGuiTextFilter10PassFilterEPKcS1_
	.def	_ZNK15ImGuiTextFilter10PassFilterEPKcS1_;	.scl	2;	.type	32;	.endef
	.seh_proc	_ZNK15ImGuiTextFilter10PassFilterEPKcS1_
_ZNK15ImGuiTextFilter10PassFilterEPKcS1_:
.LFB342:
	pushq	%r15
	.seh_pushreg	%r15
	pushq	%r14
	.seh_pushreg	%r14
	pushq	%r13
	.seh_pushreg	%r13
	pushq	%r12
	.seh_pushreg	%r12
	pushq	%rbp
	.seh_pushreg	%rbp
	pushq	%rdi
	.seh_pushreg	%rdi
	pushq	%rsi
	.seh_pushreg	%rsi
	pushq	%rbx
	.seh_pushreg	%rbx
	subq	$72, %rsp
	.seh_stackalloc	72
	.seh_endprologue
	movl	256(%rcx), %eax
	movq	%rcx, 144(%rsp)
	movq	%rdx, 152(%rsp)
	movq	%r8, %r14
	testl	%eax, %eax
	je	.L2100
	cmpq	$0, 152(%rsp)
	leaq	.LC91(%rip), %rdx
	movq	__imp_toupper(%rip), %rsi
	cmovne	152(%rsp), %rdx
	movq	$0, 56(%rsp)
	movl	$0, 44(%rsp)
	movq	%rsi, %r13
	movq	%rdx, 152(%rsp)
	.p2align 4,,7
.L2104:
	cmpl	44(%rsp), %eax
	jle	.L2118
.L2085:
	movq	144(%rsp), %rdx
	movq	56(%rsp), %rax
	addq	264(%rdx), %rax
	movq	(%rax), %rbx
	movq	8(%rax), %rbp
	cmpq	%rbp, %rbx
	je	.L2086
	movzbl	(%rbx), %edi
	cmpb	$45, %dil
	je	.L2119
	testq	%rbp, %rbp
	je	.L2120
.L2095:
	movsbl	%dil, %ecx
	call	*%rsi
	leaq	1(%rbx), %rdx
	movsbl	%al, %eax
	movl	%eax, 40(%rsp)
	movq	%rdx, 48(%rsp)
	movq	152(%rsp), %rdx
	leaq	1(%rdx), %r12
	jmp	.L2102
	.p2align 4,,7
.L2098:
	incq	%r12
.L2102:
	testq	%r14, %r14
	je	.L2121
	leaq	-1(%r12), %rax
	cmpq	%rax, %r14
	jbe	.L2086
	movsbl	-1(%r12), %ecx
.L2097:
	call	*%rsi
	cmpl	40(%rsp), %eax
	jne	.L2098
	movq	48(%rsp), %rax
	movq	%r12, %r15
	cmpq	%rbp, %rax
	movq	%rax, %rbx
	jb	.L2101
	jmp	.L2099
	.p2align 4,,7
.L2122:
	incq	%rbx
	incq	%r15
	cmpq	%rbx, %rbp
	je	.L2100
.L2101:
	movsbl	(%r15), %ecx
	call	*%rsi
	movsbl	(%rbx), %ecx
	movl	%eax, %edi
	call	*%rsi
	cmpl	%eax, %edi
	je	.L2122
.L2099:
	cmpq	%rbx, %rbp
	jne	.L2098
	.p2align 4,,7
.L2100:
	movl	$1, %eax
	jmp	.L2116
	.p2align 4,,7
.L2121:
	movsbl	-1(%r12), %ecx
	testb	%cl, %cl
	jne	.L2097
.L2086:
	movq	144(%rsp), %rax
	incl	44(%rsp)
	movl	44(%rsp), %edx
	addq	$16, 56(%rsp)
	movl	256(%rax), %eax
	cmpl	%edx, %eax
	jne	.L2104
	movq	144(%rsp), %rax
	movl	272(%rax), %eax
	testl	%eax, %eax
	sete	%al
	jmp	.L2116
.L2118:
	leaq	.LC10(%rip), %rdx
	leaq	.LC11(%rip), %rcx
	movl	$857, %r8d
	call	_assert
	jmp	.L2085
.L2119:
	testq	%rbp, %rbp
	je	.L2123
.L2088:
	movsbl	1(%rbx), %ecx
	.p2align 4,,4
	call	*%r13
	leaq	2(%rbx), %rdx
	movsbl	%al, %eax
	movl	%eax, 40(%rsp)
	movq	%rdx, 48(%rsp)
	movq	152(%rsp), %rdx
	leaq	1(%rdx), %r12
	jmp	.L2094
	.p2align 4,,7
.L2091:
	incq	%r12
.L2094:
	testq	%r14, %r14
	je	.L2124
	leaq	-1(%r12), %rax
	cmpq	%rax, %r14
	jbe	.L2086
	movsbl	-1(%r12), %ecx
.L2090:
	call	*%r13
	cmpl	40(%rsp), %eax
	jne	.L2091
	movq	48(%rsp), %rax
	movq	%r12, %r15
	cmpq	%rbp, %rax
	movq	%rax, %rbx
	jb	.L2093
	jmp	.L2092
	.p2align 4,,7
.L2125:
	incq	%rbx
	incq	%r15
	cmpq	%rbx, %rbp
	je	.L2108
.L2093:
	movsbl	(%r15), %ecx
	call	*%r13
	movsbl	(%rbx), %ecx
	movl	%eax, %edi
	call	*%r13
	cmpl	%eax, %edi
	je	.L2125
.L2092:
	cmpq	%rbx, %rbp
	jne	.L2091
	.p2align 4,,7
.L2108:
	xorl	%eax, %eax
.L2116:
	addq	$72, %rsp
	popq	%rbx
	popq	%rsi
	popq	%rdi
	popq	%rbp
	popq	%r12
	popq	%r13
	popq	%r14
	popq	%r15
	ret
	.p2align 4,,7
.L2124:
	movsbl	-1(%r12), %ecx
	testb	%cl, %cl
	je	.L2086
	jmp	.L2090
.L2120:
	movq	%rbx, %rcx
	call	strlen
	leaq	(%rbx,%rax), %rbp
	jmp	.L2095
.L2123:
	leaq	1(%rbx), %rdi
	movq	%rdi, %rcx
	call	strlen
	leaq	(%rdi,%rax), %rbp
	jmp	.L2088
	.seh_endproc
	.align 2
	.p2align 4,,15
	.globl	_ZN15ImGuiTextBuffer7appendvEPKcPc
	.def	_ZN15ImGuiTextBuffer7appendvEPKcPc;	.scl	2;	.type	32;	.endef
	.seh_proc	_ZN15ImGuiTextBuffer7appendvEPKcPc
_ZN15ImGuiTextBuffer7appendvEPKcPc:
.LFB343:
	pushq	%r15
	.seh_pushreg	%r15
	pushq	%r14
	.seh_pushreg	%r14
	pushq	%r13
	.seh_pushreg	%r13
	pushq	%r12
	.seh_pushreg	%r12
	pushq	%rbp
	.seh_pushreg	%rbp
	pushq	%rdi
	.seh_pushreg	%rdi
	pushq	%rsi
	.seh_pushreg	%rsi
	pushq	%rbx
	.seh_pushreg	%rbx
	subq	$40, %rsp
	.seh_stackalloc	40
	.seh_endprologue
	movq	%r8, %r9
	movq	%rcx, %rbx
	movq	%rdx, %r12
	xorl	%ecx, %ecx
	movq	%r8, %r14
	movq	%rdx, %r8
	xorl	%edx, %edx
	call	__ms_vsnprintf
	testl	%eax, %eax
	movl	%eax, %ebp
	jle	.L2126
	movslq	(%rbx), %rdi
	leal	(%rdi,%rax), %esi
	movl	4(%rbx), %eax
	cmpl	%eax, %esi
	jl	.L2128
	leal	(%rax,%rax), %edx
	cmpl	%esi, %edx
	cmovl	%esi, %edx
	cmpl	%edx, %eax
	movl	%edx, %r13d
	jl	.L2148
.L2129:
	cmpl	%eax, %esi
	jle	.L2128
	testl	%eax, %eax
	movl	$8, %edx
	je	.L2133
	movl	%eax, %edx
	shrl	$31, %edx
	addl	%eax, %edx
	sarl	%edx
	addl	%eax, %edx
.L2133:
	cmpl	%edx, %esi
	jge	.L2142
	cmpl	%eax, %edx
	jg	.L2149
.L2128:
	cmpl	%esi, %edi
	movl	%esi, (%rbx)
	leal	1(%rbp), %r13d
	jge	.L2150
.L2138:
	movq	8(%rbx), %rax
	movslq	%r13d, %rdx
	movq	%r14, %r9
	movq	%r12, %r8
	leaq	-1(%rax,%rdi), %rbx
	movq	%rbx, %rcx
	call	__ms_vsnprintf
	cmpl	$-1, %eax
	je	.L2143
	cmpl	%eax, %r13d
	jle	.L2143
.L2139:
	cltq
	movb	$0, (%rbx,%rax)
.L2126:
	addq	$40, %rsp
	popq	%rbx
	popq	%rsi
	popq	%rdi
	popq	%rbp
	popq	%r12
	popq	%r13
	popq	%r14
	popq	%r15
	ret
	.p2align 4,,7
.L2150:
	leaq	.LC10(%rip), %rdx
	leaq	.LC11(%rip), %rcx
	movl	$856, %r8d
	call	_assert
	jmp	.L2138
	.p2align 4,,7
.L2143:
	movl	%ebp, %eax
	jmp	.L2139
	.p2align 4,,7
.L2142:
	movl	%esi, %r13d
.L2134:
	movq	GImGui(%rip), %rax
	movslq	%r13d, %rcx
	incl	844(%rax)
	call	*232(%rax)
	movq	8(%rbx), %rcx
	movq	%rax, %r15
	testq	%rcx, %rcx
	je	.L2135
	movslq	(%rbx), %r8
	movq	%rcx, %rdx
	movq	%rax, %rcx
	call	memcpy
	movq	8(%rbx), %rcx
	movq	GImGui(%rip), %rax
	testq	%rcx, %rcx
	je	.L2137
	decl	844(%rax)
.L2137:
	call	*240(%rax)
	cmpl	%esi, %edi
	movl	%r13d, 4(%rbx)
	movq	%r15, 8(%rbx)
	movl	%esi, (%rbx)
	leal	1(%rbp), %r13d
	jl	.L2138
	jmp	.L2150
	.p2align 4,,7
.L2135:
	movq	GImGui(%rip), %rax
	jmp	.L2137
	.p2align 4,,7
.L2148:
	movq	GImGui(%rip), %rax
	movslq	%edx, %rcx
	incl	844(%rax)
	call	*232(%rax)
	movq	8(%rbx), %rcx
	movq	%rax, %r15
	testq	%rcx, %rcx
	je	.L2130
	movslq	(%rbx), %r8
	movq	%rcx, %rdx
	movq	%rax, %rcx
	call	memcpy
	movq	8(%rbx), %rcx
	movq	GImGui(%rip), %rax
	testq	%rcx, %rcx
	je	.L2132
	decl	844(%rax)
.L2132:
	call	*240(%rax)
	movq	%r15, 8(%rbx)
	movl	%r13d, 4(%rbx)
	movl	%r13d, %eax
	jmp	.L2129
	.p2align 4,,7
.L2130:
	movq	GImGui(%rip), %rax
	jmp	.L2132
.L2149:
	movl	%edx, %r13d
	jmp	.L2134
	.seh_endproc
	.align 2
	.p2align 4,,15
	.globl	_ZN15ImGuiTextBuffer6appendEPKcz
	.def	_ZN15ImGuiTextBuffer6appendEPKcz;	.scl	2;	.type	32;	.endef
	.seh_proc	_ZN15ImGuiTextBuffer6appendEPKcz
_ZN15ImGuiTextBuffer6appendEPKcz:
.LFB344:
	subq	$56, %rsp
	.seh_stackalloc	56
	.seh_endprologue
	movq	%r8, 80(%rsp)
	leaq	80(%rsp), %r8
	movq	%r9, 88(%rsp)
	movq	%r8, 40(%rsp)
	call	_ZN15ImGuiTextBuffer7appendvEPKcPc
	nop
	addq	$56, %rsp
	ret
	.seh_endproc
	.align 2
	.p2align 4,,15
	.globl	_ZN18ImGuiSimpleColumnsC2Ev
	.def	_ZN18ImGuiSimpleColumnsC2Ev;	.scl	2;	.type	32;	.endef
	.seh_proc	_ZN18ImGuiSimpleColumnsC2Ev
_ZN18ImGuiSimpleColumnsC2Ev:
.LFB346:
	.seh_endprologue
	xorps	%xmm0, %xmm0
	movl	$0, (%rcx)
	movq	$0, 16(%rcx)
	movq	$0, 24(%rcx)
	movq	$0, 32(%rcx)
	movss	%xmm0, 12(%rcx)
	movq	$0, 40(%rcx)
	movq	$0, 48(%rcx)
	movss	%xmm0, 8(%rcx)
	movq	$0, 56(%rcx)
	movq	$0, 64(%rcx)
	movss	%xmm0, 4(%rcx)
	movq	$0, 72(%rcx)
	ret
	.seh_endproc
	.globl	_ZN18ImGuiSimpleColumnsC1Ev
	.def	_ZN18ImGuiSimpleColumnsC1Ev;	.scl	2;	.type	32;	.endef
	.set	_ZN18ImGuiSimpleColumnsC1Ev,_ZN18ImGuiSimpleColumnsC2Ev
	.section .rdata,"dr"
	.align 8
.LC92:
	.ascii "Count <= ((int)(sizeof(Pos)/sizeof(*Pos)))\0"
	.text
	.align 2
	.p2align 4,,15
	.globl	_ZN18ImGuiSimpleColumns6UpdateEifb
	.def	_ZN18ImGuiSimpleColumns6UpdateEifb;	.scl	2;	.type	32;	.endef
	.seh_proc	_ZN18ImGuiSimpleColumns6UpdateEifb
_ZN18ImGuiSimpleColumns6UpdateEifb:
.LFB348:
	pushq	%rsi
	.seh_pushreg	%rsi
	pushq	%rbx
	.seh_pushreg	%rbx
	subq	$56, %rsp
	.seh_stackalloc	56
	.seh_endprologue
	cmpl	$8, (%rcx)
	movq	%rcx, %rbx
	movl	%edx, %esi
	jg	.L2200
.L2154:
	testb	%r9b, %r9b
	movl	%esi, (%rbx)
	movl	$0x00000000, 12(%rbx)
	movl	$0x00000000, 8(%rbx)
	movss	%xmm2, 4(%rbx)
	jne	.L2201
.L2155:
	testl	%esi, %esi
	jle	.L2153
	xorps	%xmm1, %xmm1
	movss	48(%rbx), %xmm0
	cmpl	$1, %esi
	movss	%xmm1, 16(%rbx)
	addss	%xmm1, %xmm0
	movss	%xmm1, 48(%rbx)
	je	.L2157
	movss	52(%rbx), %xmm3
	ucomiss	%xmm1, %xmm3
	jbe	.L2158
	addss	%xmm2, %xmm0
.L2158:
	cvttss2si	%xmm0, %eax
	cmpl	$2, %esi
	addss	52(%rbx), %xmm0
	movss	%xmm1, 52(%rbx)
	cvtsi2ss	%eax, %xmm3
	movss	%xmm3, 20(%rbx)
	je	.L2157
	movss	56(%rbx), %xmm3
	ucomiss	%xmm1, %xmm3
	jbe	.L2160
	addss	%xmm2, %xmm0
.L2160:
	cvttss2si	%xmm0, %eax
	cmpl	$3, %esi
	addss	56(%rbx), %xmm0
	movss	%xmm1, 56(%rbx)
	cvtsi2ss	%eax, %xmm3
	movss	%xmm3, 24(%rbx)
	je	.L2157
	movss	60(%rbx), %xmm3
	ucomiss	%xmm1, %xmm3
	jbe	.L2162
	addss	%xmm2, %xmm0
.L2162:
	cvttss2si	%xmm0, %eax
	cmpl	$4, %esi
	addss	60(%rbx), %xmm0
	movss	%xmm1, 60(%rbx)
	cvtsi2ss	%eax, %xmm3
	movss	%xmm3, 28(%rbx)
	je	.L2157
	movss	64(%rbx), %xmm3
	ucomiss	%xmm1, %xmm3
	jbe	.L2164
	addss	%xmm2, %xmm0
.L2164:
	cvttss2si	%xmm0, %eax
	cmpl	$5, %esi
	addss	64(%rbx), %xmm0
	movss	%xmm1, 64(%rbx)
	cvtsi2ss	%eax, %xmm3
	movss	%xmm3, 32(%rbx)
	je	.L2157
	movss	68(%rbx), %xmm3
	ucomiss	%xmm1, %xmm3
	jbe	.L2166
	addss	%xmm2, %xmm0
.L2166:
	cvttss2si	%xmm0, %eax
	cmpl	$6, %esi
	addss	68(%rbx), %xmm0
	movss	%xmm1, 68(%rbx)
	cvtsi2ss	%eax, %xmm3
	movss	%xmm3, 36(%rbx)
	je	.L2157
	movss	72(%rbx), %xmm3
	ucomiss	%xmm1, %xmm3
	jbe	.L2168
	addss	%xmm2, %xmm0
.L2168:
	cvttss2si	%xmm0, %eax
	cmpl	$7, %esi
	addss	72(%rbx), %xmm0
	movss	%xmm1, 72(%rbx)
	cvtsi2ss	%eax, %xmm3
	movss	%xmm3, 40(%rbx)
	je	.L2157
	movss	76(%rbx), %xmm3
	ucomiss	%xmm1, %xmm3
	jbe	.L2170
	addss	%xmm2, %xmm0
.L2170:
	cvttss2si	%xmm0, %eax
	addss	76(%rbx), %xmm0
	movl	$0x00000000, 76(%rbx)
	cvtsi2ss	%eax, %xmm1
	movss	%xmm1, 44(%rbx)
.L2157:
	movss	%xmm0, 8(%rbx)
.L2153:
	addq	$56, %rsp
	popq	%rbx
	popq	%rsi
	ret
	.p2align 4,,7
.L2200:
	leaq	.LC15(%rip), %rdx
	leaq	.LC92(%rip), %rcx
	movl	$1648, %r8d
	movl	%r9d, 44(%rsp)
	movss	%xmm2, 40(%rsp)
	call	_assert
	movl	44(%rsp), %r9d
	movss	40(%rsp), %xmm2
	jmp	.L2154
	.p2align 4,,7
.L2201:
	movq	$0, 48(%rbx)
	movq	$0, 56(%rbx)
	movq	$0, 64(%rbx)
	movq	$0, 72(%rbx)
	jmp	.L2155
	.seh_endproc
	.align 2
	.p2align 4,,15
	.globl	_ZN18ImGuiSimpleColumns11DeclColumnsEfff
	.def	_ZN18ImGuiSimpleColumns11DeclColumnsEfff;	.scl	2;	.type	32;	.endef
	.seh_proc	_ZN18ImGuiSimpleColumns11DeclColumnsEfff
_ZN18ImGuiSimpleColumns11DeclColumnsEfff:
.LFB349:
	.seh_endprologue
	movaps	%xmm1, %xmm0
	movl	$0x00000000, 12(%rcx)
	movss	48(%rcx), %xmm4
	cmpless	%xmm4, %xmm0
	andps	%xmm0, %xmm4
	andnps	%xmm1, %xmm0
	movaps	%xmm2, %xmm1
	orps	%xmm0, %xmm4
	movss	52(%rcx), %xmm0
	cmpless	%xmm0, %xmm1
	movss	%xmm4, 48(%rcx)
	andps	%xmm1, %xmm0
	andnps	%xmm2, %xmm1
	movaps	%xmm3, %xmm2
	orps	%xmm1, %xmm0
	movss	56(%rcx), %xmm1
	cmpless	%xmm1, %xmm2
	movss	%xmm0, 52(%rcx)
	andps	%xmm2, %xmm1
	andnps	%xmm3, %xmm2
	orps	%xmm2, %xmm1
	xorps	%xmm2, %xmm2
	movss	%xmm1, 56(%rcx)
	addss	%xmm2, %xmm4
	ucomiss	%xmm2, %xmm0
	addss	%xmm2, %xmm4
	movaps	%xmm4, %xmm1
	jbe	.L2223
	movss	4(%rcx), %xmm4
.L2209:
	addss	%xmm4, %xmm0
	movaps	%xmm0, %xmm4
	movss	56(%rcx), %xmm0
	ucomiss	%xmm2, %xmm0
	addss	%xmm1, %xmm4
	jbe	.L2224
	movss	4(%rcx), %xmm1
.L2211:
	addss	%xmm1, %xmm0
	movss	8(%rcx), %xmm2
	addss	%xmm4, %xmm0
	movaps	%xmm0, %xmm1
	movss	%xmm0, 12(%rcx)
	cmpnless	%xmm2, %xmm1
	andps	%xmm1, %xmm0
	andnps	%xmm2, %xmm1
	orps	%xmm1, %xmm0
	ret
.L2223:
	movaps	%xmm2, %xmm4
	jmp	.L2209
.L2224:
	movaps	%xmm2, %xmm1
	jmp	.L2211
	.seh_endproc
	.align 2
	.p2align 4,,15
	.globl	_ZN18ImGuiSimpleColumns14CalcExtraSpaceEf
	.def	_ZN18ImGuiSimpleColumns14CalcExtraSpaceEf;	.scl	2;	.type	32;	.endef
	.seh_proc	_ZN18ImGuiSimpleColumns14CalcExtraSpaceEf
_ZN18ImGuiSimpleColumns14CalcExtraSpaceEf:
.LFB350:
	.seh_endprologue
	subss	8(%rcx), %xmm1
	movaps	%xmm1, %xmm0
	cmpnless	.LC9(%rip), %xmm0
	andps	%xmm1, %xmm0
	ret
	.seh_endproc
	.align 2
	.p2align 4,,15
	.globl	_ZN16ImGuiListClipper5BeginEif
	.def	_ZN16ImGuiListClipper5BeginEif;	.scl	2;	.type	32;	.endef
	.seh_proc	_ZN16ImGuiListClipper5BeginEif
_ZN16ImGuiListClipper5BeginEif:
.LFB352:
	.seh_endprologue
	movq	GImGui(%rip), %r8
	ucomiss	.LC9(%rip), %xmm2
	movq	6008(%r8), %rax
	movss	196(%rax), %xmm3
	movaps	%xmm3, %xmm0
	movss	32(%rax), %xmm1
	movss	100(%rax), %xmm4
	movl	%edx, 8(%rcx)
	subss	%xmm1, %xmm0
	movss	%xmm2, 4(%rcx)
	movl	$0, 12(%rcx)
	movl	$-1, 16(%rcx)
	movl	$-1, 20(%rcx)
	addss	%xmm4, %xmm0
	movss	%xmm0, (%rcx)
	jbe	.L2228
	cmpb	$0, 11432(%r8)
	je	.L2231
	movl	$0, 16(%rcx)
	movl	%edx, 20(%rcx)
.L2237:
	movl	$2, 12(%rcx)
.L2228:
	rep ret
	.p2align 4,,7
.L2231:
	cmpb	$0, 140(%rax)
	jne	.L2245
	movss	516(%rax), %xmm5
	xorl	%r9d, %r9d
	subss	%xmm3, %xmm5
	divss	%xmm2, %xmm5
	cvttss2si	%xmm5, %r11d
	movss	524(%rax), %xmm5
	subss	%xmm3, %xmm5
	movaps	%xmm5, %xmm3
	divss	%xmm2, %xmm3
	testl	%r11d, %r11d
	cvttss2si	%xmm3, %r10d
	js	.L2234
	cmpl	%r11d, %edx
	cmovle	%edx, %r11d
	movl	%r11d, %r9d
.L2234:
	incl	%r10d
	movl	%r9d, %r11d
	cmpl	%r9d, %r10d
	jl	.L2235
	cmpl	%r10d, %edx
	cmovle	%edx, %r10d
	movl	%r10d, %r11d
.L2235:
	testl	%r9d, %r9d
	movl	%r9d, 16(%rcx)
	movl	%r11d, 20(%rcx)
	jle	.L2237
	cvtsi2ss	%r9d, %xmm3
	subss	%xmm4, %xmm1
	cmpl	$1, 444(%rax)
	movb	$1, 138(%rax)
	mulss	%xmm2, %xmm3
	addss	%xmm3, %xmm0
	addss	%xmm1, %xmm0
	movss	220(%rax), %xmm1
	movaps	%xmm0, %xmm3
	movss	%xmm0, 196(%rax)
	cmpless	%xmm1, %xmm3
	andps	%xmm3, %xmm1
	andnps	%xmm0, %xmm3
	orps	%xmm3, %xmm1
	movss	%xmm1, 220(%rax)
	movaps	%xmm0, %xmm1
	subss	%xmm2, %xmm1
	subss	5172(%r8), %xmm2
	movss	%xmm1, 204(%rax)
	movss	%xmm2, 232(%rax)
	jle	.L2237
	movss	%xmm0, 460(%rax)
	jmp	.L2237
	.p2align 4,,7
.L2245:
	movl	$0, 20(%rcx)
	movl	$0, 16(%rcx)
	jmp	.L2237
	.seh_endproc
	.align 2
	.p2align 4,,15
	.globl	_ZN16ImGuiListClipper3EndEv
	.def	_ZN16ImGuiListClipper3EndEv;	.scl	2;	.type	32;	.endef
	.seh_proc	_ZN16ImGuiListClipper3EndEv
_ZN16ImGuiListClipper3EndEv:
.LFB353:
	.seh_endprologue
	movl	8(%rcx), %eax
	testl	%eax, %eax
	js	.L2246
	cmpl	$2147483647, %eax
	je	.L2249
	cvtsi2ss	%eax, %xmm0
	movq	GImGui(%rip), %rdx
	movss	4(%rcx), %xmm2
	movss	(%rcx), %xmm1
	movq	6008(%rdx), %rax
	cmpl	$1, 444(%rax)
	movb	$1, 138(%rax)
	mulss	%xmm2, %xmm0
	addss	%xmm0, %xmm1
	movss	32(%rax), %xmm0
	subss	100(%rax), %xmm0
	addss	%xmm1, %xmm0
	movss	220(%rax), %xmm1
	movaps	%xmm0, %xmm3
	movss	%xmm0, 196(%rax)
	cmpless	%xmm1, %xmm3
	andps	%xmm3, %xmm1
	andnps	%xmm0, %xmm3
	orps	%xmm3, %xmm1
	movss	%xmm1, 220(%rax)
	movaps	%xmm0, %xmm1
	subss	%xmm2, %xmm1
	subss	5172(%rdx), %xmm2
	movss	%xmm1, 204(%rax)
	movss	%xmm2, 232(%rax)
	jle	.L2249
	movss	%xmm0, 460(%rax)
.L2249:
	movl	$-1, 8(%rcx)
	movl	$3, 12(%rcx)
.L2246:
	rep ret
	.seh_endproc
	.section .rdata,"dr"
.LC93:
	.ascii "items_height > 0.0f\0"
	.align 8
.LC94:
	.ascii "DisplayStart >= 0 && DisplayEnd >= 0\0"
	.text
	.align 2
	.p2align 4,,15
	.globl	_ZN16ImGuiListClipper4StepEv
	.def	_ZN16ImGuiListClipper4StepEv;	.scl	2;	.type	32;	.endef
	.seh_proc	_ZN16ImGuiListClipper4StepEv
_ZN16ImGuiListClipper4StepEv:
.LFB354:
	pushq	%rbx
	.seh_pushreg	%rbx
	subq	$48, %rsp
	.seh_stackalloc	48
	.seh_endprologue
	movl	8(%rcx), %edx
	movq	%rcx, %rbx
	testl	%edx, %edx
	je	.L2253
	movq	GImGui(%rip), %r8
	movq	6008(%r8), %rcx
	cmpb	$0, 140(%rcx)
	je	.L2279
.L2253:
	movl	$-1, 8(%rbx)
	xorl	%eax, %eax
.L2275:
	addq	$48, %rsp
	popq	%rbx
	ret
	.p2align 4,,7
.L2279:
	movl	12(%rbx), %eax
	testl	%eax, %eax
	je	.L2280
	cmpl	$1, %eax
	je	.L2281
	cmpl	$2, %eax
	je	.L2282
	cmpl	$3, %eax
	movl	%edx, %eax
	setne	%r9b
	shrl	$31, %eax
	orb	%r9b, %al
	jne	.L2269
	cmpl	$2147483647, %edx
	je	.L2263
	cvtsi2ss	%edx, %xmm0
	cmpl	$1, 444(%rcx)
	movss	4(%rbx), %xmm2
	movss	(%rbx), %xmm1
	movb	$1, 138(%rcx)
	mulss	%xmm2, %xmm0
	addss	%xmm0, %xmm1
	movss	32(%rcx), %xmm0
	subss	100(%rcx), %xmm0
	addss	%xmm1, %xmm0
	movss	220(%rcx), %xmm1
	movaps	%xmm0, %xmm3
	movss	%xmm0, 196(%rcx)
	cmpless	%xmm1, %xmm3
	andps	%xmm3, %xmm1
	andnps	%xmm0, %xmm3
	orps	%xmm3, %xmm1
	movss	%xmm1, 220(%rcx)
	movaps	%xmm0, %xmm1
	subss	%xmm2, %xmm1
	subss	5172(%r8), %xmm2
	movss	%xmm1, 204(%rcx)
	movss	%xmm2, 232(%rcx)
	jle	.L2263
	movss	%xmm0, 460(%rcx)
.L2263:
	movl	$-1, 8(%rbx)
	movl	$3, 12(%rbx)
	jmp	.L2275
	.p2align 4,,7
.L2280:
	movss	196(%rcx), %xmm0
	movl	$1, %eax
	subss	32(%rcx), %xmm0
	movl	$0, 16(%rbx)
	movl	$1, 20(%rbx)
	addss	100(%rcx), %xmm0
	movl	$1, 12(%rbx)
	movss	%xmm0, (%rbx)
	addq	$48, %rsp
	popq	%rbx
	ret
	.p2align 4,,7
.L2282:
	movl	16(%rbx), %edx
	testl	%edx, %edx
	js	.L2260
	movl	20(%rbx), %eax
	testl	%eax, %eax
	js	.L2260
.L2261:
	movl	$3, 12(%rbx)
	movl	$1, %eax
	jmp	.L2275
	.p2align 4,,7
.L2281:
	cmpl	$1, %edx
	je	.L2253
	movss	196(%rcx), %xmm2
	subss	32(%rcx), %xmm2
	addss	100(%rcx), %xmm2
	subss	(%rbx), %xmm2
	ucomiss	.LC9(%rip), %xmm2
	jbe	.L2283
.L2258:
	decl	%edx
	movq	%rbx, %rcx
	call	_ZN16ImGuiListClipper5BeginEif
	incl	16(%rbx)
	incl	20(%rbx)
	movl	$1, %eax
	movl	$3, 12(%rbx)
	jmp	.L2275
	.p2align 4,,7
.L2260:
	leaq	.LC15(%rip), %rdx
	leaq	.LC94(%rip), %rcx
	movl	$1753, %r8d
	call	_assert
	jmp	.L2261
	.p2align 4,,7
.L2283:
	leaq	.LC15(%rip), %rdx
	leaq	.LC93(%rip), %rcx
	movl	$1744, %r8d
	movss	%xmm2, 44(%rsp)
	call	_assert
	movl	8(%rbx), %edx
	movss	44(%rsp), %xmm2
	jmp	.L2258
.L2269:
	xorl	%eax, %eax
	jmp	.L2275
	.seh_endproc
	.section	.text$_ZN16ImGuiDrawContextD1Ev,"x"
	.linkonce discard
	.align 2
	.p2align 4,,15
	.globl	_ZN16ImGuiDrawContextD1Ev
	.def	_ZN16ImGuiDrawContextD1Ev;	.scl	2;	.type	32;	.endef
	.seh_proc	_ZN16ImGuiDrawContextD1Ev
_ZN16ImGuiDrawContextD1Ev:
.LFB358:
	pushq	%rbx
	.seh_pushreg	%rbx
	subq	$32, %rsp
	.seh_stackalloc	32
	.seh_endprologue
	movq	%rcx, %rbx
	movq	296(%rcx), %rcx
	testq	%rcx, %rcx
	je	.L2285
	movq	GImGui(%rip), %rax
	decl	844(%rax)
	call	*240(%rax)
.L2285:
	movq	200(%rbx), %rcx
	testq	%rcx, %rcx
	je	.L2324
	movq	GImGui(%rip), %rax
	decl	844(%rax)
	call	*240(%rax)
	movq	184(%rbx), %rcx
	testq	%rcx, %rcx
	je	.L2318
.L2286:
	movq	GImGui(%rip), %rax
	decl	844(%rax)
	call	*240(%rax)
.L2318:
	movq	168(%rbx), %rcx
	testq	%rcx, %rcx
	je	.L2320
	movq	GImGui(%rip), %rax
	decl	844(%rax)
	call	*240(%rax)
.L2320:
	movq	152(%rbx), %rcx
	testq	%rcx, %rcx
	je	.L2321
	movq	GImGui(%rip), %rax
	decl	844(%rax)
	call	*240(%rax)
.L2321:
	movq	136(%rbx), %rcx
	testq	%rcx, %rcx
	je	.L2322
	movq	GImGui(%rip), %rax
	decl	844(%rax)
	call	*240(%rax)
.L2322:
	movq	96(%rbx), %rcx
	testq	%rcx, %rcx
	je	.L2284
	movq	GImGui(%rip), %rax
	decl	844(%rax)
	movq	240(%rax), %rax
	addq	$32, %rsp
	popq	%rbx
	rex.W jmp *%rax
	.p2align 4,,7
.L2324:
	movq	184(%rbx), %rcx
	testq	%rcx, %rcx
	jne	.L2286
	jmp	.L2318
	.p2align 4,,7
.L2284:
	addq	$32, %rsp
	popq	%rbx
	ret
	.seh_handler	__gxx_personality_seh0, @unwind, @except
	.seh_handlerdata
.LLSDA358:
	.byte	0xff
	.byte	0xff
	.byte	0x1
	.uleb128 .LLSDACSE358-.LLSDACSB358
.LLSDACSB358:
.LLSDACSE358:
	.section	.text$_ZN16ImGuiDrawContextD1Ev,"x"
	.linkonce discard
	.seh_endproc
	.section .rdata,"dr"
.LC95:
	.ascii "#MOVE\0"
	.text
	.align 2
	.p2align 4,,15
	.globl	_ZN11ImGuiWindowC2EPKc
	.def	_ZN11ImGuiWindowC2EPKc;	.scl	2;	.type	32;	.endef
	.seh_proc	_ZN11ImGuiWindowC2EPKc
_ZN11ImGuiWindowC2EPKc:
.LFB359:
	pushq	%rdi
	.seh_pushreg	%rdi
	pushq	%rsi
	.seh_pushreg	%rsi
	pushq	%rbx
	.seh_pushreg	%rbx
	subq	$32, %rsp
	.seh_stackalloc	32
	.seh_endprologue
	movl	$0x00000000, 24(%rcx)
	movl	$0x00000000, 20(%rcx)
	movq	%rcx, %rbx
	movl	$0x00000000, 32(%rcx)
	movl	$0x00000000, 28(%rcx)
	movq	%rdx, %rdi
	movl	$0x00000000, 40(%rcx)
	movl	$0x00000000, 36(%rcx)
	movl	$0x00000000, 48(%rcx)
	movl	$0x00000000, 44(%rcx)
	movl	$0x00000000, 56(%rcx)
	movl	$0x00000000, 52(%rcx)
	movl	$0x00000000, 64(%rcx)
	movl	$0x00000000, 60(%rcx)
	movl	$0x7f7fffff, 68(%rcx)
	movl	$0x7f7fffff, 72(%rcx)
	movl	$0xff7fffff, 76(%rcx)
	movl	$0xff7fffff, 80(%rcx)
	movl	$0x00000000, 88(%rcx)
	movl	$0x00000000, 84(%rcx)
	movl	$0x00000000, 100(%rcx)
	movl	$0x00000000, 96(%rcx)
	movl	$0x00000000, 108(%rcx)
	movl	$0x00000000, 104(%rcx)
	movl	$0x00000000, 116(%rcx)
	movl	$0x00000000, 112(%rcx)
	movl	$0x00000000, 128(%rcx)
	movl	$0x00000000, 124(%rcx)
	movl	$0x00000000, 220(%rcx)
	movl	$0x00000000, 216(%rcx)
	movl	$0, 284(%rcx)
	movl	$0, 280(%rcx)
	movq	$0, 288(%rcx)
	movl	$0, 324(%rcx)
	movl	$0, 320(%rcx)
	movq	216(%rcx), %rax
	movq	$0, 328(%rcx)
	movl	$0, 340(%rcx)
	movl	$0, 336(%rcx)
	movq	$0, 344(%rcx)
	movq	%rax, 208(%rcx)
	movq	%rax, 200(%rcx)
	movq	%rax, 192(%rcx)
	movl	$0, 356(%rcx)
	movl	$0, 352(%rcx)
	movq	$0, 360(%rcx)
	movl	$0, 372(%rcx)
	movl	$0, 368(%rcx)
	movq	$0, 376(%rcx)
	movl	$0, 388(%rcx)
	movl	$0, 384(%rcx)
	movq	$0, 392(%rcx)
	movl	$0, 484(%rcx)
	movl	$0, 480(%rcx)
	movq	$0, 488(%rcx)
	movl	$0x00000000, 232(%rcx)
	movl	$0x00000000, 224(%rcx)
	movl	$0x00000000, 236(%rcx)
	movl	$0x00000000, 228(%rcx)
	movl	$0xbf800000, 240(%rcx)
	movl	$0, 244(%rcx)
	movl	$0, 248(%rcx)
	movl	$0x00000000, 252(%rcx)
	movl	$0x00000000, 256(%rcx)
	movl	$0x00000000, 260(%rcx)
	movl	$0x00000000, 264(%rcx)
	movb	$0, 269(%rcx)
	movb	$0, 268(%rcx)
	movb	$0, 270(%rcx)
	movl	$0x00000000, 272(%rcx)
	movq	$0, 296(%rcx)
	movl	$0, 304(%rcx)
	movl	$0x00000000, 308(%rcx)
	movb	$0, 317(%rcx)
	movb	$1, 316(%rcx)
	movl	$0xbf800000, 312(%rcx)
	movl	$0, 400(%rcx)
	movq	$0, 404(%rcx)
	movq	$0, 412(%rcx)
	movq	$0, 420(%rcx)
	movl	$0x00000000, 428(%rcx)
	movl	$0x00000000, 432(%rcx)
	movl	$0x00000000, 436(%rcx)
	movl	$0, 440(%rcx)
	movl	$1, 444(%rcx)
	movl	$0x00000000, 452(%rcx)
	movl	$0x00000000, 448(%rcx)
	movl	$0x00000000, 456(%rcx)
	movl	$0x00000000, 464(%rcx)
	movl	$0x00000000, 460(%rcx)
	movb	$1, 468(%rcx)
	movl	$0, 472(%rcx)
	movl	$0, 500(%rcx)
	movl	$0, 496(%rcx)
	movq	$0, 504(%rcx)
	movl	$0x7f7fffff, 512(%rcx)
	movl	$0x7f7fffff, 516(%rcx)
	movl	$0xff7fffff, 520(%rcx)
	movl	$0xff7fffff, 524(%rcx)
	movl	$0x7f7fffff, 528(%rcx)
	movl	$0x7f7fffff, 532(%rcx)
	movl	$0xff7fffff, 536(%rcx)
	movl	$0xff7fffff, 540(%rcx)
	movl	$0, 552(%rcx)
	movl	$0x00000000, 564(%rcx)
	movl	$0x00000000, 560(%rcx)
	movl	$0x00000000, 556(%rcx)
	movq	$0, 568(%rcx)
	movq	$0, 576(%rcx)
	movq	$0, 584(%rcx)
	movq	$0, 592(%rcx)
	movq	$0, 600(%rcx)
	movq	$0, 608(%rcx)
	movq	$0, 616(%rcx)
	movq	$0, 624(%rcx)
	movl	$0, 636(%rcx)
	movl	$0, 632(%rcx)
	movq	$0, 640(%rcx)
	movq	%rdx, %rcx
	call	strlen
	leaq	1(%rax), %rsi
	movq	GImGui(%rip), %rax
	movq	%rsi, %rcx
	incl	844(%rax)
.LEHB10:
	call	*232(%rax)
	movq	%rsi, %r8
	movq	%rdi, %rdx
	movq	%rax, %rcx
	call	memcpy
	xorl	%edx, %edx
	movq	%rax, (%rbx)
	movq	%rdi, %rcx
	call	_Z6ImHashPKvij.constprop.164
	movslq	496(%rbx), %rdx
	movl	%eax, 8(%rbx)
	cmpl	500(%rbx), %edx
	je	.L2326
	movq	504(%rbx), %rcx
	leal	1(%rdx), %r8d
.L2327:
	movl	%r8d, 496(%rbx)
	movl	%eax, (%rcx,%rdx,4)
	leaq	.LC95(%rip), %rdx
	movq	%rbx, %rcx
	call	_ZN11ImGuiWindow5GetIDEPKcS1_.constprop.157
	movl	%eax, 92(%rbx)
	movl	$0x00000000, 28(%rbx)
	movl	$152, %ecx
	movl	$0x00000000, 32(%rbx)
	movq	28(%rbx), %rax
	movl	$0x00000000, 44(%rbx)
	movl	$0x00000000, 48(%rbx)
	movl	$0x00000000, 60(%rbx)
	movl	$0x00000000, 64(%rbx)
	movq	%rax, 20(%rbx)
	movq	44(%rbx), %rax
	movl	$0, 12(%rbx)
	movl	$0, 16(%rbx)
	movl	$0x00000000, 84(%rbx)
	movl	$0x00000000, 88(%rbx)
	movq	%rax, 36(%rbx)
	movq	60(%rbx), %rax
	movl	$0x00000000, 96(%rbx)
	movl	$0x00000000, 100(%rbx)
	movl	$0x7f7fffff, 104(%rbx)
	movl	$0x7f7fffff, 108(%rbx)
	movq	%rax, 52(%rbx)
	movl	$0x3f000000, 112(%rbx)
	movl	$0x3f000000, 116(%rbx)
	movb	$0, 121(%rbx)
	movb	$0, 120(%rbx)
	movl	$0x00000000, 124(%rbx)
	movl	$0x00000000, 128(%rbx)
	movl	$0x00000000, 132(%rbx)
	movb	$0, 137(%rbx)
	movb	$0, 136(%rbx)
	movb	$0, 138(%rbx)
	movb	$0, 139(%rbx)
	movb	$0, 140(%rbx)
	movq	GImGui(%rip), %rax
	movl	$0, 144(%rbx)
	movl	$0, 148(%rbx)
	movl	$-1, 156(%rbx)
	movl	$-1, 152(%rbx)
	movb	$0, 160(%rbx)
	movl	$-1, 164(%rbx)
	movl	$0, 168(%rbx)
	movl	$15, 180(%rbx)
	movl	$15, 176(%rbx)
	movl	$15, 172(%rbx)
	movb	$0, 184(%rbx)
	movl	$-1, 544(%rbx)
	movl	$0x00000000, 548(%rbx)
	movl	$0x3f800000, 648(%rbx)
	incl	844(%rax)
	call	*232(%rax)
	movq	%rax, 656(%rbx)
	movq	%rax, %rcx
	call	_ZN10ImDrawListC1Ev
	movq	656(%rbx), %rax
	movq	(%rbx), %rdx
	movq	%rdx, 48(%rax)
	movq	$0, 664(%rbx)
	movq	$0, 672(%rbx)
	movq	$0, 680(%rbx)
	movl	$-1, 692(%rbx)
	movl	$-1, 688(%rbx)
	movl	$2147483647, 700(%rbx)
	movl	$2147483647, 696(%rbx)
	movl	$2147483647, 708(%rbx)
	movl	$2147483647, 704(%rbx)
	addq	$32, %rsp
	popq	%rbx
	popq	%rsi
	popq	%rdi
	ret
	.p2align 4,,7
.L2326:
	testl	%edx, %edx
	leal	1(%rdx), %r8d
	movl	$8, %ecx
	jne	.L2346
	cmpl	%ecx, %r8d
	movl	%ecx, %esi
	cmovge	%r8d, %esi
	cmpl	%esi, %edx
	jl	.L2329
.L2347:
	movq	504(%rbx), %rcx
	jmp	.L2327
	.p2align 4,,7
.L2346:
	movl	%edx, %ecx
	shrl	$31, %ecx
	addl	%edx, %ecx
	sarl	%ecx
	addl	%edx, %ecx
	cmpl	%ecx, %r8d
	movl	%ecx, %esi
	cmovge	%r8d, %esi
	cmpl	%esi, %edx
	jge	.L2347
.L2329:
	movq	GImGui(%rip), %rax
	movslq	%esi, %rcx
	salq	$2, %rcx
	incl	844(%rax)
	call	*232(%rax)
	movq	504(%rbx), %rcx
	movq	%rax, %rdi
	testq	%rcx, %rcx
	je	.L2330
	movslq	496(%rbx), %r8
	movq	%rcx, %rdx
	movq	%rax, %rcx
	salq	$2, %r8
	call	memcpy
	movq	504(%rbx), %rcx
	movq	GImGui(%rip), %rax
	testq	%rcx, %rcx
	je	.L2332
	decl	844(%rax)
.L2332:
	call	*240(%rax)
.LEHE10:
	movslq	496(%rbx), %rdx
	movq	%rdi, 504(%rbx)
	movq	%rdi, %rcx
	movl	%esi, 500(%rbx)
	movl	8(%rbx), %eax
	leal	1(%rdx), %r8d
	jmp	.L2327
	.p2align 4,,7
.L2330:
	movq	GImGui(%rip), %rax
	jmp	.L2332
.L2337:
	movq	640(%rbx), %rcx
	movq	%rax, %rsi
	testq	%rcx, %rcx
	je	.L2334
	movq	GImGui(%rip), %rax
	decl	844(%rax)
	call	*240(%rax)
.L2334:
	movq	504(%rbx), %rcx
	testq	%rcx, %rcx
	je	.L2335
	movq	GImGui(%rip), %rax
	decl	844(%rax)
	call	*240(%rax)
.L2335:
	leaq	192(%rbx), %rcx
	call	_ZN16ImGuiDrawContextD1Ev
	movq	%rsi, %rcx
.LEHB11:
	call	_Unwind_Resume
	nop
.LEHE11:
	.seh_handler	__gxx_personality_seh0, @unwind, @except
	.seh_handlerdata
.LLSDA359:
	.byte	0xff
	.byte	0xff
	.byte	0x1
	.uleb128 .LLSDACSE359-.LLSDACSB359
.LLSDACSB359:
	.uleb128 .LEHB10-.LFB359
	.uleb128 .LEHE10-.LEHB10
	.uleb128 .L2337-.LFB359
	.uleb128 0
	.uleb128 .LEHB11-.LFB359
	.uleb128 .LEHE11-.LEHB11
	.uleb128 0
	.uleb128 0
.LLSDACSE359:
	.text
	.seh_endproc
	.globl	_ZN11ImGuiWindowC1EPKc
	.def	_ZN11ImGuiWindowC1EPKc;	.scl	2;	.type	32;	.endef
	.set	_ZN11ImGuiWindowC1EPKc,_ZN11ImGuiWindowC2EPKc
	.align 2
	.p2align 4,,15
	.globl	_ZN11ImGuiWindowD2Ev
	.def	_ZN11ImGuiWindowD2Ev;	.scl	2;	.type	32;	.endef
	.seh_proc	_ZN11ImGuiWindowD2Ev
_ZN11ImGuiWindowD2Ev:
.LFB362:
	pushq	%rbx
	.seh_pushreg	%rbx
	subq	$32, %rsp
	.seh_stackalloc	32
	.seh_endprologue
	movq	%rcx, %rbx
	movq	656(%rcx), %rcx
	call	_ZN10ImDrawListD1Ev
	movq	656(%rbx), %rcx
	movq	GImGui(%rip), %rax
	testq	%rcx, %rcx
	je	.L2350
	decl	844(%rax)
.L2350:
	call	*240(%rax)
	movq	(%rbx), %rcx
	movq	$0, 656(%rbx)
	movq	GImGui(%rip), %rax
	testq	%rcx, %rcx
	je	.L2352
	decl	844(%rax)
.L2352:
	call	*240(%rax)
	movq	640(%rbx), %rcx
	movq	$0, (%rbx)
	testq	%rcx, %rcx
	je	.L2363
	movq	GImGui(%rip), %rax
	decl	844(%rax)
	call	*240(%rax)
	movq	504(%rbx), %rcx
	testq	%rcx, %rcx
	je	.L2354
.L2353:
	movq	GImGui(%rip), %rax
	decl	844(%rax)
	call	*240(%rax)
.L2354:
	leaq	192(%rbx), %rcx
	addq	$32, %rsp
	popq	%rbx
	jmp	_ZN16ImGuiDrawContextD1Ev
	.p2align 4,,7
.L2363:
	movq	504(%rbx), %rcx
	testq	%rcx, %rcx
	jne	.L2353
	jmp	.L2354
	.seh_handler	__gxx_personality_seh0, @unwind, @except
	.seh_handlerdata
.LLSDA362:
	.byte	0xff
	.byte	0xff
	.byte	0x1
	.uleb128 .LLSDACSE362-.LLSDACSB362
.LLSDACSB362:
.LLSDACSE362:
	.text
	.seh_endproc
	.globl	_ZN11ImGuiWindowD1Ev
	.def	_ZN11ImGuiWindowD1Ev;	.scl	2;	.type	32;	.endef
	.set	_ZN11ImGuiWindowD1Ev,_ZN11ImGuiWindowD2Ev
	.align 2
	.p2align 4,,15
	.globl	_ZN11ImGuiWindow5GetIDEPKcS1_
	.def	_ZN11ImGuiWindow5GetIDEPKcS1_;	.scl	2;	.type	32;	.endef
	.seh_proc	_ZN11ImGuiWindow5GetIDEPKcS1_
_ZN11ImGuiWindow5GetIDEPKcS1_:
.LFB364:
	pushq	%rdi
	.seh_pushreg	%rdi
	pushq	%rsi
	.seh_pushreg	%rsi
	pushq	%rbx
	.seh_pushreg	%rbx
	subq	$32, %rsp
	.seh_stackalloc	32
	.seh_endprologue
	movslq	496(%rcx), %rax
	movq	%rcx, %rsi
	movq	%rdx, %rdi
	movq	%r8, %rbx
	testl	%eax, %eax
	jle	.L2369
.L2365:
	movq	504(%rsi), %rdx
	movq	%rdi, %rcx
	movl	-4(%rdx,%rax,4), %r8d
	movl	%ebx, %eax
	movl	$0, %edx
	subl	%edi, %eax
	testq	%rbx, %rbx
	cmovne	%eax, %edx
	call	_Z6ImHashPKvij
	movq	GImGui(%rip), %rdx
	cmpl	6068(%rdx), %eax
	jne	.L2367
	movb	$1, 6076(%rdx)
.L2367:
	addq	$32, %rsp
	popq	%rbx
	popq	%rsi
	popq	%rdi
	ret
	.p2align 4,,7
.L2369:
	leaq	.LC10(%rip), %rdx
	leaq	.LC14(%rip), %rcx
	movl	$866, %r8d
	call	_assert
	movslq	496(%rsi), %rax
	jmp	.L2365
	.seh_endproc
	.align 2
	.p2align 4,,15
	.globl	_ZN11ImGuiWindow5GetIDEPKv
	.def	_ZN11ImGuiWindow5GetIDEPKv;	.scl	2;	.type	32;	.endef
	.seh_proc	_ZN11ImGuiWindow5GetIDEPKv
_ZN11ImGuiWindow5GetIDEPKv:
.LFB365:
	pushq	%rbx
	.seh_pushreg	%rbx
	subq	$64, %rsp
	.seh_stackalloc	64
	movaps	%xmm6, 32(%rsp)
	.seh_savexmm	%xmm6, 32
	movaps	%xmm7, 48(%rsp)
	.seh_savexmm	%xmm7, 48
	.seh_endprologue
	movq	%rcx, %rbx
	movslq	496(%rcx), %rax
	movq	%rdx, 88(%rsp)
	testl	%eax, %eax
	jle	.L2378
.L2371:
	movq	504(%rbx), %rdx
	leaq	_ZZ6ImHashPKvijE9crc32_lut(%rip), %rcx
	movl	-4(%rdx,%rax,4), %r8d
	movl	4+_ZZ6ImHashPKvijE9crc32_lut(%rip), %eax
	testl	%eax, %eax
	jne	.L2375
	pxor	%xmm3, %xmm3
	leaq	1024+_ZZ6ImHashPKvijE9crc32_lut(%rip), %rdx
	movq	%rcx, %rax
	movdqa	.LC23(%rip), %xmm6
	movdqa	.LC24(%rip), %xmm7
	movdqa	.LC25(%rip), %xmm5
	movdqa	.LC26(%rip), %xmm4
	.p2align 4,,7
.L2376:
	movdqa	%xmm6, %xmm0
	movdqa	%xmm3, %xmm2
	movdqa	%xmm6, %xmm1
	addq	$16, %rax
	paddd	%xmm7, %xmm6
	pand	%xmm5, %xmm0
	psrld	$1, %xmm1
	psubd	%xmm0, %xmm2
	movdqa	%xmm2, %xmm0
	movdqa	%xmm3, %xmm2
	pand	%xmm4, %xmm0
	pxor	%xmm1, %xmm0
	movdqa	%xmm0, %xmm1
	psrld	$1, %xmm0
	pand	%xmm5, %xmm1
	psubd	%xmm1, %xmm2
	pand	%xmm4, %xmm2
	movdqa	%xmm3, %xmm1
	pxor	%xmm0, %xmm2
	movdqa	%xmm2, %xmm0
	psrld	$1, %xmm2
	pand	%xmm5, %xmm0
	psubd	%xmm0, %xmm1
	pand	%xmm4, %xmm1
	pxor	%xmm2, %xmm1
	movdqa	%xmm3, %xmm2
	movdqa	%xmm1, %xmm0
	psrld	$1, %xmm1
	pand	%xmm5, %xmm0
	psubd	%xmm0, %xmm2
	movdqa	%xmm2, %xmm0
	movdqa	%xmm3, %xmm2
	pand	%xmm4, %xmm0
	pxor	%xmm1, %xmm0
	movdqa	%xmm0, %xmm1
	psrld	$1, %xmm0
	pand	%xmm5, %xmm1
	psubd	%xmm1, %xmm2
	pand	%xmm4, %xmm2
	movdqa	%xmm3, %xmm1
	pxor	%xmm0, %xmm2
	movdqa	%xmm2, %xmm0
	psrld	$1, %xmm2
	pand	%xmm5, %xmm0
	psubd	%xmm0, %xmm1
	pand	%xmm4, %xmm1
	pxor	%xmm2, %xmm1
	movdqa	%xmm3, %xmm2
	movdqa	%xmm1, %xmm0
	psrld	$1, %xmm1
	pand	%xmm5, %xmm0
	psubd	%xmm0, %xmm2
	movdqa	%xmm2, %xmm0
	movdqa	%xmm3, %xmm2
	pand	%xmm4, %xmm0
	pxor	%xmm1, %xmm0
	movdqa	%xmm0, %xmm1
	psrld	$1, %xmm0
	pand	%xmm5, %xmm1
	psubd	%xmm1, %xmm2
	movdqa	%xmm2, %xmm1
	pand	%xmm4, %xmm1
	pxor	%xmm1, %xmm0
	movaps	%xmm0, -16(%rax)
	cmpq	%rdx, %rax
	jne	.L2376
.L2375:
	movl	%r8d, %edx
	notl	%edx
	movl	%edx, %eax
	xorb	88(%rsp), %dl
	shrl	$8, %eax
	movzbl	%dl, %edx
	xorl	(%rcx,%rdx,4), %eax
	movl	%eax, %edx
	xorb	89(%rsp), %al
	shrl	$8, %edx
	movzbl	%al, %eax
	xorl	(%rcx,%rax,4), %edx
	movl	%edx, %eax
	xorb	90(%rsp), %dl
	shrl	$8, %eax
	movzbl	%dl, %edx
	xorl	(%rcx,%rdx,4), %eax
	movl	%eax, %edx
	xorb	91(%rsp), %al
	shrl	$8, %edx
	movzbl	%al, %eax
	xorl	(%rcx,%rax,4), %edx
	movl	%edx, %eax
	xorb	92(%rsp), %dl
	shrl	$8, %eax
	movzbl	%dl, %edx
	xorl	(%rcx,%rdx,4), %eax
	movl	%eax, %edx
	xorb	93(%rsp), %al
	shrl	$8, %edx
	movzbl	%al, %eax
	xorl	(%rcx,%rax,4), %edx
	movl	%edx, %eax
	xorb	94(%rsp), %dl
	shrl	$8, %eax
	movzbl	%dl, %edx
	xorl	(%rcx,%rdx,4), %eax
	movl	%eax, %edx
	xorb	95(%rsp), %al
	shrl	$8, %edx
	movzbl	%al, %eax
	xorl	(%rcx,%rax,4), %edx
	movl	%edx, %eax
	movq	GImGui(%rip), %rdx
	notl	%eax
	cmpl	%eax, 6068(%rdx)
	jne	.L2374
	movb	$1, 6076(%rdx)
.L2374:
	movaps	32(%rsp), %xmm6
	movaps	48(%rsp), %xmm7
	addq	$64, %rsp
	popq	%rbx
	ret
.L2378:
	leaq	.LC10(%rip), %rdx
	leaq	.LC14(%rip), %rcx
	movl	$866, %r8d
	call	_assert
	movslq	496(%rbx), %rax
	jmp	.L2371
	.seh_endproc
	.align 2
	.p2align 4,,15
	.globl	_ZN11ImGuiWindow16GetIDNoKeepAliveEPKcS1_
	.def	_ZN11ImGuiWindow16GetIDNoKeepAliveEPKcS1_;	.scl	2;	.type	32;	.endef
	.seh_proc	_ZN11ImGuiWindow16GetIDNoKeepAliveEPKcS1_
_ZN11ImGuiWindow16GetIDNoKeepAliveEPKcS1_:
.LFB366:
	pushq	%rdi
	.seh_pushreg	%rdi
	pushq	%rsi
	.seh_pushreg	%rsi
	pushq	%rbx
	.seh_pushreg	%rbx
	subq	$32, %rsp
	.seh_stackalloc	32
	.seh_endprologue
	movslq	496(%rcx), %rax
	movq	%rcx, %rsi
	movq	%rdx, %rdi
	movq	%r8, %rbx
	testl	%eax, %eax
	jle	.L2383
.L2380:
	movq	504(%rsi), %rdx
	movq	%rdi, %rcx
	movl	-4(%rdx,%rax,4), %r8d
	movl	%ebx, %eax
	movl	$0, %edx
	subl	%edi, %eax
	testq	%rbx, %rbx
	cmovne	%eax, %edx
	addq	$32, %rsp
	popq	%rbx
	popq	%rsi
	popq	%rdi
	jmp	_Z6ImHashPKvij
	.p2align 4,,7
.L2383:
	leaq	.LC10(%rip), %rdx
	leaq	.LC14(%rip), %rcx
	movl	$866, %r8d
	call	_assert
	movslq	496(%rsi), %rax
	jmp	.L2380
	.seh_endproc
	.section .rdata,"dr"
	.align 8
.LC96:
	.ascii "g.CurrentWindowStack.Size >= 2\0"
	.text
	.p2align 4,,15
	.globl	_ZN5ImGui15GetParentWindowEv
	.def	_ZN5ImGui15GetParentWindowEv;	.scl	2;	.type	32;	.endef
	.seh_proc	_ZN5ImGui15GetParentWindowEv
_ZN5ImGui15GetParentWindowEv:
.LFB368:
	pushq	%rsi
	.seh_pushreg	%rsi
	pushq	%rbx
	.seh_pushreg	%rbx
	subq	$40, %rsp
	.seh_stackalloc	40
	.seh_endprologue
	movq	GImGui(%rip), %rsi
	movl	6016(%rsi), %eax
	cmpl	$1, %eax
	jle	.L2387
.L2385:
	leal	-2(%rax), %ebx
	cmpl	%eax, %ebx
	jl	.L2386
	leaq	.LC10(%rip), %rdx
	leaq	.LC11(%rip), %rcx
	movl	$856, %r8d
	call	_assert
.L2386:
	movq	6024(%rsi), %rax
	movslq	%ebx, %rbx
	movq	(%rax,%rbx,8), %rax
	addq	$40, %rsp
	popq	%rbx
	popq	%rsi
	ret
	.p2align 4,,7
.L2387:
	leaq	.LC15(%rip), %rdx
	leaq	.LC96(%rip), %rcx
	movl	$1860, %r8d
	call	_assert
	movl	6016(%rsi), %eax
	jmp	.L2385
	.seh_endproc
	.p2align 4,,15
	.globl	_ZN5ImGui11SetActiveIDEjP11ImGuiWindow
	.def	_ZN5ImGui11SetActiveIDEjP11ImGuiWindow;	.scl	2;	.type	32;	.endef
	.seh_proc	_ZN5ImGui11SetActiveIDEjP11ImGuiWindow
_ZN5ImGui11SetActiveIDEjP11ImGuiWindow:
.LFB369:
	.seh_endprologue
	movq	GImGui(%rip), %rax
	testl	%ecx, %ecx
	movl	%ecx, 6068(%rax)
	movb	$0, 6078(%rax)
	movb	$1, 6077(%rax)
	je	.L2389
	movb	$1, 6076(%rax)
.L2389:
	movq	%rdx, 6088(%rax)
	ret
	.seh_endproc
	.p2align 4,,15
	.globl	_ZN5ImGui13ClearActiveIDEv
	.def	_ZN5ImGui13ClearActiveIDEv;	.scl	2;	.type	32;	.endef
	.seh_proc	_ZN5ImGui13ClearActiveIDEv
_ZN5ImGui13ClearActiveIDEv:
.LFB370:
	.seh_endprologue
	movq	GImGui(%rip), %rax
	movl	$0, 6068(%rax)
	movb	$0, 6078(%rax)
	movb	$1, 6077(%rax)
	movq	$0, 6088(%rax)
	ret
	.seh_endproc
	.p2align 4,,15
	.globl	_ZN5ImGui12SetHoveredIDEj
	.def	_ZN5ImGui12SetHoveredIDEj;	.scl	2;	.type	32;	.endef
	.seh_proc	_ZN5ImGui12SetHoveredIDEj
_ZN5ImGui12SetHoveredIDEj:
.LFB371:
	.seh_endprologue
	movq	GImGui(%rip), %rax
	movl	%ecx, 6056(%rax)
	movb	$0, 6060(%rax)
	ret
	.seh_endproc
	.p2align 4,,15
	.globl	_ZN5ImGui11KeepAliveIDEj
	.def	_ZN5ImGui11KeepAliveIDEj;	.scl	2;	.type	32;	.endef
	.seh_proc	_ZN5ImGui11KeepAliveIDEj
_ZN5ImGui11KeepAliveIDEj:
.LFB372:
	.seh_endprologue
	movq	GImGui(%rip), %rax
	cmpl	%ecx, 6068(%rax)
	je	.L2397
	rep ret
	.p2align 4,,7
.L2397:
	movb	$1, 6076(%rax)
	ret
	.seh_endproc
	.p2align 4,,15
	.globl	_ZN5ImGui8ItemSizeERK6ImVec2f
	.def	_ZN5ImGui8ItemSizeERK6ImVec2f;	.scl	2;	.type	32;	.endef
	.seh_proc	_ZN5ImGui8ItemSizeERK6ImVec2f
_ZN5ImGui8ItemSizeERK6ImVec2f:
.LFB373:
	.seh_endprologue
	movq	GImGui(%rip), %rdx
	movq	6008(%rdx), %rax
	cmpb	$0, 140(%rax)
	movb	$1, 138(%rax)
	jne	.L2398
	movss	4(%rcx), %xmm3
	movaps	%xmm3, %xmm0
	movss	224(%rax), %xmm2
	movss	192(%rax), %xmm4
	cmpless	%xmm2, %xmm0
	addss	(%rcx), %xmm4
	andps	%xmm0, %xmm2
	andnps	%xmm3, %xmm0
	movss	228(%rax), %xmm3
	orps	%xmm0, %xmm2
	movaps	%xmm1, %xmm0
	movss	%xmm4, 200(%rax)
	movaps	%xmm4, %xmm5
	cmpless	%xmm3, %xmm0
	andps	%xmm0, %xmm3
	andnps	%xmm1, %xmm0
	movss	28(%rax), %xmm1
	addss	428(%rax), %xmm1
	orps	%xmm0, %xmm3
	movss	196(%rax), %xmm0
	movss	%xmm0, 204(%rax)
	addss	%xmm2, %xmm0
	addss	436(%rax), %xmm1
	addss	5172(%rdx), %xmm0
	movss	%xmm2, 232(%rax)
	movl	$0x00000000, 228(%rax)
	movss	%xmm3, 236(%rax)
	movl	$0x00000000, 224(%rax)
	cvttss2si	%xmm0, %edx
	cvtsi2ss	%edx, %xmm0
	cvttss2si	%xmm1, %edx
	movss	%xmm0, 196(%rax)
	cvtsi2ss	%edx, %xmm1
	movss	%xmm1, 192(%rax)
	movss	216(%rax), %xmm1
	cmpless	%xmm1, %xmm5
	andps	%xmm5, %xmm1
	andnps	%xmm4, %xmm5
	movaps	%xmm0, %xmm4
	orps	%xmm5, %xmm1
	movss	%xmm1, 216(%rax)
	movss	220(%rax), %xmm1
	cmpless	%xmm1, %xmm4
	andps	%xmm4, %xmm1
	andnps	%xmm0, %xmm4
	orps	%xmm4, %xmm1
	movss	%xmm1, 220(%rax)
.L2398:
	rep ret
	.seh_endproc
	.p2align 4,,15
	.globl	_ZN5ImGui8ItemSizeERK6ImRectf
	.def	_ZN5ImGui8ItemSizeERK6ImRectf;	.scl	2;	.type	32;	.endef
	.seh_proc	_ZN5ImGui8ItemSizeERK6ImRectf
_ZN5ImGui8ItemSizeERK6ImRectf:
.LFB374:
	subq	$56, %rsp
	.seh_stackalloc	56
	.seh_endprologue
	movss	12(%rcx), %xmm0
	movss	8(%rcx), %xmm2
	subss	4(%rcx), %xmm0
	subss	(%rcx), %xmm2
	leaq	32(%rsp), %rcx
	movss	%xmm0, 36(%rsp)
	movss	%xmm2, 32(%rsp)
	call	_ZN5ImGui8ItemSizeERK6ImVec2f
	nop
	addq	$56, %rsp
	ret
	.seh_endproc
	.p2align 4,,15
	.globl	_ZN5ImGui11IsClippedExERK6ImRectPKjb
	.def	_ZN5ImGui11IsClippedExERK6ImRectPKjb;	.scl	2;	.type	32;	.endef
	.seh_proc	_ZN5ImGui11IsClippedExERK6ImRectPKjb
_ZN5ImGui11IsClippedExERK6ImRectPKjb:
.LFB376:
	.seh_endprologue
	movq	GImGui(%rip), %r9
	movss	12(%rcx), %xmm0
	movq	6008(%r9), %rax
	ucomiss	516(%rax), %xmm0
	jbe	.L2406
	movss	524(%rax), %xmm0
	ucomiss	4(%rcx), %xmm0
	ja	.L2424
.L2406:
	testq	%rdx, %rdx
	je	.L2411
	xorl	%eax, %eax
	movl	6068(%r9), %ecx
	cmpl	%ecx, (%rdx)
	je	.L2421
.L2411:
	testb	%r8b, %r8b
	movl	$1, %eax
	jne	.L2421
	movzbl	11432(%r9), %eax
	xorl	$1, %eax
	ret
	.p2align 4,,7
.L2424:
	movss	8(%rcx), %xmm0
	ucomiss	512(%rax), %xmm0
	jbe	.L2406
	movss	520(%rax), %xmm0
	xorl	%eax, %eax
	ucomiss	(%rcx), %xmm0
	jbe	.L2406
.L2421:
	rep ret
	.seh_endproc
	.p2align 4,,15
	.globl	_ZN5ImGui23FocusableItemUnregisterEP11ImGuiWindow
	.def	_ZN5ImGui23FocusableItemUnregisterEP11ImGuiWindow;	.scl	2;	.type	32;	.endef
	.seh_proc	_ZN5ImGui23FocusableItemUnregisterEP11ImGuiWindow
_ZN5ImGui23FocusableItemUnregisterEP11ImGuiWindow:
.LFB379:
	.seh_endprologue
	decl	688(%rcx)
	decl	692(%rcx)
	ret
	.seh_endproc
	.p2align 4,,15
	.globl	_ZN5ImGui8MemAllocEy
	.def	_ZN5ImGui8MemAllocEy;	.scl	2;	.type	32;	.endef
	.seh_proc	_ZN5ImGui8MemAllocEy
_ZN5ImGui8MemAllocEy:
.LFB382:
	.seh_endprologue
	movq	GImGui(%rip), %rax
	incl	844(%rax)
	movq	232(%rax), %rax
	rex.W jmp *%rax
	.seh_endproc
	.p2align 4,,15
	.globl	_ZN5ImGui7MemFreeEPv
	.def	_ZN5ImGui7MemFreeEPv;	.scl	2;	.type	32;	.endef
	.seh_proc	_ZN5ImGui7MemFreeEPv
_ZN5ImGui7MemFreeEPv:
.LFB383:
	.seh_endprologue
	movq	GImGui(%rip), %rax
	testq	%rcx, %rcx
	je	.L2429
	decl	844(%rax)
.L2429:
	rex.W jmp *240(%rax)
	.seh_endproc
	.p2align 4,,15
	.globl	_ZN5ImGui16GetClipboardTextEv
	.def	_ZN5ImGui16GetClipboardTextEv;	.scl	2;	.type	32;	.endef
	.seh_proc	_ZN5ImGui16GetClipboardTextEv
_ZN5ImGui16GetClipboardTextEv:
.LFB384:
	.seh_endprologue
	movq	GImGui(%rip), %rdx
	movq	208(%rdx), %rax
	testq	%rax, %rax
	je	.L2431
	movq	224(%rdx), %rcx
	rex.W jmp *%rax
	.p2align 4,,7
.L2431:
	leaq	.LC91(%rip), %rax
	ret
	.seh_endproc
	.p2align 4,,15
	.globl	_ZN5ImGui16SetClipboardTextEPKc
	.def	_ZN5ImGui16SetClipboardTextEPKc;	.scl	2;	.type	32;	.endef
	.seh_proc	_ZN5ImGui16SetClipboardTextEPKc
_ZN5ImGui16SetClipboardTextEPKc:
.LFB385:
	.seh_endprologue
	movq	GImGui(%rip), %r8
	movq	%rcx, %rdx
	movq	216(%r8), %rax
	testq	%rax, %rax
	je	.L2432
	movq	224(%r8), %rcx
	rex.W jmp *%rax
	.p2align 4,,7
.L2432:
	rep ret
	.seh_endproc
	.section .rdata,"dr"
.LC97:
	.ascii "1.50 WIP\0"
	.text
	.p2align 4,,15
	.globl	_ZN5ImGui10GetVersionEv
	.def	_ZN5ImGui10GetVersionEv;	.scl	2;	.type	32;	.endef
	.seh_proc	_ZN5ImGui10GetVersionEv
_ZN5ImGui10GetVersionEv:
.LFB386:
	.seh_endprologue
	leaq	.LC97(%rip), %rax
	ret
	.seh_endproc
	.p2align 4,,15
	.globl	_ZN5ImGui17GetCurrentContextEv
	.def	_ZN5ImGui17GetCurrentContextEv;	.scl	2;	.type	32;	.endef
	.seh_proc	_ZN5ImGui17GetCurrentContextEv
_ZN5ImGui17GetCurrentContextEv:
.LFB387:
	.seh_endprologue
	movq	GImGui(%rip), %rax
	ret
	.seh_endproc
	.p2align 4,,15
	.globl	_ZN5ImGui17SetCurrentContextEP12ImGuiContext
	.def	_ZN5ImGui17SetCurrentContextEP12ImGuiContext;	.scl	2;	.type	32;	.endef
	.seh_proc	_ZN5ImGui17SetCurrentContextEP12ImGuiContext
_ZN5ImGui17SetCurrentContextEP12ImGuiContext:
.LFB388:
	.seh_endprologue
	movq	%rcx, GImGui(%rip)
	ret
	.seh_endproc
	.p2align 4,,15
	.globl	_ZN5ImGui13CreateContextEPFPvyEPFvS0_E
	.def	_ZN5ImGui13CreateContextEPFPvyEPFvS0_E;	.scl	2;	.type	32;	.endef
	.seh_proc	_ZN5ImGui13CreateContextEPFPvyEPFvS0_E
_ZN5ImGui13CreateContextEPFPvyEPFvS0_E:
.LFB389:
	pushq	%rsi
	.seh_pushreg	%rsi
	pushq	%rbx
	.seh_pushreg	%rbx
	subq	$56, %rsp
	.seh_stackalloc	56
	.seh_endprologue
	leaq	malloc(%rip), %rax
	testq	%rcx, %rcx
	movq	%rcx, %rbx
	movq	%rdx, %rsi
	cmove	%rax, %rbx
	movl	$15040, %ecx
	call	*%rbx
	movq	%rax, %rcx
	movq	%rax, 40(%rsp)
	call	_ZN12ImGuiContextC1Ev
	movq	40(%rsp), %rax
	leaq	free(%rip), %rdx
	testq	%rsi, %rsi
	cmove	%rdx, %rsi
	movq	%rbx, 232(%rax)
	movq	%rsi, 240(%rax)
	addq	$56, %rsp
	popq	%rbx
	popq	%rsi
	ret
	.seh_endproc
	.section	.text$_ZN12ImGuiContextD1Ev,"x"
	.linkonce discard
	.align 2
	.p2align 4,,15
	.globl	_ZN12ImGuiContextD1Ev
	.def	_ZN12ImGuiContextD1Ev;	.scl	2;	.type	32;	.endef
	.seh_proc	_ZN12ImGuiContextD1Ev
_ZN12ImGuiContextD1Ev:
.LFB393:
	pushq	%rdi
	.seh_pushreg	%rdi
	pushq	%rsi
	.seh_pushreg	%rsi
	pushq	%rbx
	.seh_pushreg	%rbx
	subq	$32, %rsp
	.seh_stackalloc	32
	.seh_endprologue
	movq	%rcx, %rsi
	movq	10344(%rcx), %rcx
	testq	%rcx, %rcx
	je	.L2442
	movq	GImGui(%rip), %rax
	decl	844(%rax)
	call	*240(%rax)
.L2442:
	leaq	10216(%rsi), %rcx
	call	_ZN6ImFontD1Ev
	movq	6960(%rsi), %rcx
	testq	%rcx, %rcx
	je	.L2523
	movq	GImGui(%rip), %rax
	decl	844(%rax)
	call	*240(%rax)
	movq	6944(%rsi), %rcx
	testq	%rcx, %rcx
	je	.L2510
.L2443:
	movq	GImGui(%rip), %rax
	decl	844(%rax)
	call	*240(%rax)
.L2510:
	movq	6928(%rsi), %rcx
	testq	%rcx, %rcx
	je	.L2447
	movq	GImGui(%rip), %rax
	decl	844(%rax)
	call	*240(%rax)
.L2447:
	leaq	6392(%rsi), %rcx
	leaq	6336(%rsi), %rdi
	leaq	6384(%rsi), %rbx
	call	_ZN10ImDrawListD1Ev
.L2520:
	cmpq	%rbx, %rdi
	je	.L2448
.L2524:
	subq	$16, %rbx
	movq	8(%rbx), %rcx
	testq	%rcx, %rcx
	je	.L2520
	movq	GImGui(%rip), %rax
	decl	844(%rax)
	call	*240(%rax)
	cmpq	%rbx, %rdi
	jne	.L2524
.L2448:
	movq	6208(%rsi), %rcx
	testq	%rcx, %rcx
	je	.L2525
	movq	GImGui(%rip), %rax
	decl	844(%rax)
	call	*240(%rax)
	movq	6192(%rsi), %rcx
	testq	%rcx, %rcx
	je	.L2511
.L2451:
	movq	GImGui(%rip), %rax
	decl	844(%rax)
	call	*240(%rax)
.L2511:
	movq	6176(%rsi), %rcx
	testq	%rcx, %rcx
	je	.L2514
	movq	GImGui(%rip), %rax
	decl	844(%rax)
	call	*240(%rax)
.L2514:
	movq	6160(%rsi), %rcx
	testq	%rcx, %rcx
	je	.L2515
	movq	GImGui(%rip), %rax
	decl	844(%rax)
	call	*240(%rax)
.L2515:
	movq	6144(%rsi), %rcx
	testq	%rcx, %rcx
	je	.L2516
	movq	GImGui(%rip), %rax
	decl	844(%rax)
	call	*240(%rax)
.L2516:
	movq	6120(%rsi), %rcx
	testq	%rcx, %rcx
	je	.L2517
	movq	GImGui(%rip), %rax
	decl	844(%rax)
	call	*240(%rax)
.L2517:
	movq	6024(%rsi), %rcx
	testq	%rcx, %rcx
	je	.L2518
	movq	GImGui(%rip), %rax
	decl	844(%rax)
	call	*240(%rax)
.L2518:
	movq	6000(%rsi), %rcx
	testq	%rcx, %rcx
	je	.L2519
	movq	GImGui(%rip), %rax
	decl	844(%rax)
	call	*240(%rax)
.L2519:
	movq	5984(%rsi), %rcx
	testq	%rcx, %rcx
	je	.L2441
	movq	GImGui(%rip), %rax
	decl	844(%rax)
	movq	240(%rax), %rax
	addq	$32, %rsp
	popq	%rbx
	popq	%rsi
	popq	%rdi
	rex.W jmp *%rax
	.p2align 4,,7
.L2523:
	movq	6944(%rsi), %rcx
	testq	%rcx, %rcx
	jne	.L2443
	jmp	.L2510
	.p2align 4,,7
.L2525:
	movq	6192(%rsi), %rcx
	testq	%rcx, %rcx
	jne	.L2451
	jmp	.L2511
	.p2align 4,,7
.L2441:
	addq	$32, %rsp
	popq	%rbx
	popq	%rsi
	popq	%rdi
	ret
	.seh_handler	__gxx_personality_seh0, @unwind, @except
	.seh_handlerdata
.LLSDA393:
	.byte	0xff
	.byte	0xff
	.byte	0x1
	.uleb128 .LLSDACSE393-.LLSDACSB393
.LLSDACSB393:
.LLSDACSE393:
	.section	.text$_ZN12ImGuiContextD1Ev,"x"
	.linkonce discard
	.seh_endproc
	.text
	.p2align 4,,15
	.def	__tcf_2;	.scl	3;	.type	32;	.endef
	.seh_proc	__tcf_2
__tcf_2:
.LFB6053:
	.seh_endprologue
	leaq	_ZL17GImDefaultContext(%rip), %rcx
	jmp	_ZN12ImGuiContextD1Ev
	.seh_endproc
	.p2align 4,,15
	.globl	_ZN5ImGui14DestroyContextEP12ImGuiContext
	.def	_ZN5ImGui14DestroyContextEP12ImGuiContext;	.scl	2;	.type	32;	.endef
	.seh_proc	_ZN5ImGui14DestroyContextEP12ImGuiContext
_ZN5ImGui14DestroyContextEP12ImGuiContext:
.LFB390:
	pushq	%rsi
	.seh_pushreg	%rsi
	pushq	%rbx
	.seh_pushreg	%rbx
	subq	$40, %rsp
	.seh_stackalloc	40
	.seh_endprologue
	movq	240(%rcx), %rsi
	movq	%rcx, %rbx
	call	_ZN12ImGuiContextD1Ev
	movq	%rbx, %rcx
	call	*%rsi
	cmpq	GImGui(%rip), %rbx
	je	.L2529
	addq	$40, %rsp
	popq	%rbx
	popq	%rsi
	ret
	.p2align 4,,7
.L2529:
	movq	$0, GImGui(%rip)
	addq	$40, %rsp
	popq	%rbx
	popq	%rsi
	ret
	.seh_endproc
	.p2align 4,,15
	.globl	_ZN5ImGui5GetIOEv
	.def	_ZN5ImGui5GetIOEv;	.scl	2;	.type	32;	.endef
	.seh_proc	_ZN5ImGui5GetIOEv
_ZN5ImGui5GetIOEv:
.LFB394:
	.seh_endprologue
	movq	GImGui(%rip), %rax
	addq	$8, %rax
	ret
	.seh_endproc
	.p2align 4,,15
	.globl	_ZN5ImGui8GetStyleEv
	.def	_ZN5ImGui8GetStyleEv;	.scl	2;	.type	32;	.endef
	.seh_proc	_ZN5ImGui8GetStyleEv
_ZN5ImGui8GetStyleEv:
.LFB395:
	.seh_endprologue
	movq	GImGui(%rip), %rax
	addq	$5120, %rax
	ret
	.seh_endproc
	.p2align 4,,15
	.globl	_ZN5ImGui11GetDrawDataEv
	.def	_ZN5ImGui11GetDrawDataEv;	.scl	2;	.type	32;	.endef
	.seh_proc	_ZN5ImGui11GetDrawDataEv
_ZN5ImGui11GetDrawDataEv:
.LFB396:
	.seh_endprologue
	movq	GImGui(%rip), %rdx
	cmpb	$0, 6304(%rdx)
	leaq	6304(%rdx), %rax
	movl	$0, %edx
	cmove	%rdx, %rax
	ret
	.seh_endproc
	.p2align 4,,15
	.globl	_ZN5ImGui7GetTimeEv
	.def	_ZN5ImGui7GetTimeEv;	.scl	2;	.type	32;	.endef
	.seh_proc	_ZN5ImGui7GetTimeEv
_ZN5ImGui7GetTimeEv:
.LFB397:
	.seh_endprologue
	movq	GImGui(%rip), %rax
	movss	5960(%rax), %xmm0
	ret
	.seh_endproc
	.p2align 4,,15
	.globl	_ZN5ImGui13GetFrameCountEv
	.def	_ZN5ImGui13GetFrameCountEv;	.scl	2;	.type	32;	.endef
	.seh_proc	_ZN5ImGui13GetFrameCountEv
_ZN5ImGui13GetFrameCountEv:
.LFB398:
	.seh_endprologue
	movq	GImGui(%rip), %rax
	movl	5964(%rax), %eax
	ret
	.seh_endproc
	.p2align 4,,15
	.globl	_ZN5ImGui8ShutdownEv
	.def	_ZN5ImGui8ShutdownEv;	.scl	2;	.type	32;	.endef
	.seh_proc	_ZN5ImGui8ShutdownEv
_ZN5ImGui8ShutdownEv:
.LFB400:
	pushq	%rdi
	.seh_pushreg	%rdi
	pushq	%rsi
	.seh_pushreg	%rsi
	pushq	%rbx
	.seh_pushreg	%rbx
	subq	$32, %rsp
	.seh_stackalloc	32
	.seh_endprologue
	movq	GImGui(%rip), %rbx
	movq	144(%rbx), %rcx
	testq	%rcx, %rcx
	je	.L2538
.LEHB12:
	call	_ZN11ImFontAtlas5ClearEv
.L2538:
	cmpb	$0, (%rbx)
	jne	.L2660
	addq	$32, %rsp
	popq	%rbx
	popq	%rsi
	popq	%rdi
	ret
	.p2align 4,,7
.L2660:
	movq	24(%rbx), %rcx
	xorl	%edi, %edi
	xorl	%esi, %esi
	call	_ZL21SaveIniSettingsToDiskPKc
	movl	5976(%rbx), %edx
	testl	%edx, %edx
	jg	.L2640
	jmp	.L2546
	.p2align 4,,7
.L2543:
	movq	5984(%rbx), %rax
	movq	(%rax,%rdi), %rcx
	movq	GImGui(%rip), %rax
	testq	%rcx, %rcx
	je	.L2545
	decl	844(%rax)
.L2545:
	call	*240(%rax)
	incl	%esi
	addq	$8, %rdi
	cmpl	%esi, 5976(%rbx)
	jle	.L2546
.L2640:
	movq	5984(%rbx), %rax
	movq	(%rax,%rdi), %rcx
	call	_ZN11ImGuiWindowD1Ev
	cmpl	%esi, 5976(%rbx)
	jg	.L2543
	leaq	.LC10(%rip), %rdx
	leaq	.LC11(%rip), %rcx
	movl	$856, %r8d
	call	_assert
	jmp	.L2543
	.p2align 4,,7
.L2546:
	movq	5984(%rbx), %rcx
	testq	%rcx, %rcx
	je	.L2542
	movq	GImGui(%rip), %rax
	movl	$0, 5980(%rbx)
	movl	$0, 5976(%rbx)
	decl	844(%rax)
	call	*240(%rax)
	movq	$0, 5984(%rbx)
.L2542:
	movq	6000(%rbx), %rcx
	testq	%rcx, %rcx
	je	.L2661
	movq	GImGui(%rip), %rax
	movl	$0, 5996(%rbx)
	movl	$0, 5992(%rbx)
	decl	844(%rax)
	call	*240(%rax)
	movq	6024(%rbx), %rcx
	movq	$0, 6000(%rbx)
	movq	$0, 6008(%rbx)
	testq	%rcx, %rcx
	je	.L2549
.L2649:
	movq	GImGui(%rip), %rax
	movl	$0, 6020(%rbx)
	movl	$0, 6016(%rbx)
	decl	844(%rax)
	call	*240(%rax)
	movq	$0, 6024(%rbx)
.L2549:
	movl	6112(%rbx), %eax
	xorl	%edi, %edi
	xorl	%esi, %esi
	movq	$0, 6032(%rbx)
	movq	$0, 6040(%rbx)
	movq	$0, 6048(%rbx)
	testl	%eax, %eax
	movq	$0, 6088(%rbx)
	movq	$0, 6096(%rbx)
	jle	.L2555
	.p2align 4,,7
.L2628:
	movq	6120(%rbx), %rax
	movq	(%rax,%rdi), %rcx
	movq	GImGui(%rip), %rax
	testq	%rcx, %rcx
	je	.L2554
	decl	844(%rax)
.L2554:
	call	*240(%rax)
	incl	%esi
	addq	$32, %rdi
	cmpl	%esi, 6112(%rbx)
	jg	.L2628
.L2555:
	movq	6120(%rbx), %rcx
	testq	%rcx, %rcx
	je	.L2552
	movq	GImGui(%rip), %rax
	movl	$0, 6116(%rbx)
	movl	$0, 6112(%rbx)
	decl	844(%rax)
	call	*240(%rax)
	movq	$0, 6120(%rbx)
.L2552:
	movq	6144(%rbx), %rcx
	testq	%rcx, %rcx
	je	.L2662
	movq	GImGui(%rip), %rax
	movl	$0, 6140(%rbx)
	movl	$0, 6136(%rbx)
	decl	844(%rax)
	call	*240(%rax)
	movq	6160(%rbx), %rcx
	movq	$0, 6144(%rbx)
	testq	%rcx, %rcx
	je	.L2643
.L2650:
	movq	GImGui(%rip), %rax
	movl	$0, 6156(%rbx)
	movl	$0, 6152(%rbx)
	decl	844(%rax)
	call	*240(%rax)
	movq	$0, 6160(%rbx)
.L2643:
	movq	6176(%rbx), %rcx
	testq	%rcx, %rcx
	je	.L2645
	movq	GImGui(%rip), %rax
	movl	$0, 6172(%rbx)
	movl	$0, 6168(%rbx)
	decl	844(%rax)
	call	*240(%rax)
	movq	$0, 6176(%rbx)
.L2645:
	movq	6192(%rbx), %rcx
	testq	%rcx, %rcx
	je	.L2646
	movq	GImGui(%rip), %rax
	movl	$0, 6188(%rbx)
	movl	$0, 6184(%rbx)
	decl	844(%rax)
	call	*240(%rax)
	movq	$0, 6192(%rbx)
.L2646:
	movq	6208(%rbx), %rcx
	testq	%rcx, %rcx
	je	.L2561
	movq	GImGui(%rip), %rax
	movl	$0, 6204(%rbx)
	movl	$0, 6200(%rbx)
	decl	844(%rax)
	call	*240(%rax)
	movq	$0, 6208(%rbx)
.L2561:
	leaq	6344(%rbx), %rsi
	leaq	6392(%rbx), %rdi
	movq	$0, 6280(%rbx)
	movq	$0, 6288(%rbx)
.L2563:
	movq	(%rsi), %rcx
	testq	%rcx, %rcx
	je	.L2562
	movq	GImGui(%rip), %rax
	movl	$0, -4(%rsi)
	movl	$0, -8(%rsi)
	decl	844(%rax)
	call	*240(%rax)
	movq	$0, (%rsi)
.L2562:
	addq	$16, %rsi
	cmpq	%rsi, %rdi
	jne	.L2563
	movq	%rdi, %rcx
	call	_ZN10ImDrawList15ClearFreeMemoryEv
	movq	10344(%rbx), %rcx
	testq	%rcx, %rcx
	je	.L2564
	movq	GImGui(%rip), %rax
	movl	$0, 10340(%rbx)
	movl	$0, 10336(%rbx)
	decl	844(%rax)
	call	*240(%rax)
	movq	$0, 10344(%rbx)
.L2564:
	movq	11408(%rbx), %rcx
	testq	%rcx, %rcx
	je	.L2663
	movq	GImGui(%rip), %rax
	decl	844(%rax)
	call	*240(%rax)
	movq	6928(%rbx), %rcx
	movq	$0, 11408(%rbx)
	testq	%rcx, %rcx
	je	.L2641
.L2654:
	movq	GImGui(%rip), %rax
	movl	$0, 6924(%rbx)
	movl	$0, 6920(%rbx)
	decl	844(%rax)
	call	*240(%rax)
	movq	$0, 6928(%rbx)
.L2641:
	movq	6944(%rbx), %rcx
	testq	%rcx, %rcx
	je	.L2648
	movq	GImGui(%rip), %rax
	movl	$0, 6940(%rbx)
	movl	$0, 6936(%rbx)
	decl	844(%rax)
	call	*240(%rax)
	movq	$0, 6944(%rbx)
.L2648:
	movq	6960(%rbx), %rcx
	testq	%rcx, %rcx
	je	.L2570
	movq	GImGui(%rip), %rax
	movl	$0, 6956(%rbx)
	movl	$0, 6952(%rbx)
	decl	844(%rax)
	call	*240(%rax)
	movq	$0, 6960(%rbx)
.L2570:
	movq	11440(%rbx), %rsi
	testq	%rsi, %rsi
	je	.L2604
	call	*__imp___iob_func(%rip)
	addq	$48, %rax
	cmpq	%rax, %rsi
	je	.L2604
	movq	11440(%rbx), %rcx
	call	fclose
.LEHE12:
	movq	$0, 11440(%rbx)
.L2604:
	movq	11448(%rbx), %rax
	testq	%rax, %rax
	je	.L2573
	movq	8(%rax), %rcx
	testq	%rcx, %rcx
	je	.L2574
	movq	GImGui(%rip), %rax
	decl	844(%rax)
	call	*240(%rax)
	movq	11448(%rbx), %rax
	movq	GImGui(%rip), %rdx
	testq	%rax, %rax
	je	.L2575
.L2574:
	movq	GImGui(%rip), %rdx
	decl	844(%rdx)
.L2575:
	movq	%rax, %rcx
.LEHB13:
	call	*240(%rdx)
.LEHE13:
.L2573:
	movb	$0, (%rbx)
	addq	$32, %rsp
	popq	%rbx
	popq	%rsi
	popq	%rdi
	ret
	.p2align 4,,7
.L2661:
	movq	6024(%rbx), %rcx
	movq	$0, 6008(%rbx)
	testq	%rcx, %rcx
	jne	.L2649
	jmp	.L2549
	.p2align 4,,7
.L2663:
	movq	6928(%rbx), %rcx
	testq	%rcx, %rcx
	jne	.L2654
	jmp	.L2641
	.p2align 4,,7
.L2662:
	movq	6160(%rbx), %rcx
	testq	%rcx, %rcx
	jne	.L2650
	jmp	.L2643
	.seh_handler	__gxx_personality_seh0, @unwind, @except
	.seh_handlerdata
.LLSDA400:
	.byte	0xff
	.byte	0xff
	.byte	0x1
	.uleb128 .LLSDACSE400-.LLSDACSB400
.LLSDACSB400:
	.uleb128 .LEHB12-.LFB400
	.uleb128 .LEHE12-.LEHB12
	.uleb128 0
	.uleb128 0
	.uleb128 .LEHB13-.LFB400
	.uleb128 .LEHE13-.LEHB13
	.uleb128 0
	.uleb128 0
.LLSDACSE400:
	.text
	.seh_endproc
	.p2align 4,,15
	.globl	_ZN5ImGui12PushClipRectERK6ImVec2S2_b
	.def	_ZN5ImGui12PushClipRectERK6ImVec2S2_b;	.scl	2;	.type	32;	.endef
	.seh_proc	_ZN5ImGui12PushClipRectERK6ImVec2S2_b
_ZN5ImGui12PushClipRectERK6ImVec2S2_b:
.LFB413:
	pushq	%rsi
	.seh_pushreg	%rsi
	pushq	%rbx
	.seh_pushreg	%rbx
	subq	$40, %rsp
	.seh_stackalloc	40
	.seh_endprologue
	movq	GImGui(%rip), %rax
	movzbl	%r8b, %r9d
	movq	(%rdx), %r8
	movq	(%rcx), %rdx
	movq	6008(%rax), %rbx
	movq	656(%rbx), %rcx
	movb	$1, 138(%rbx)
	call	_ZN10ImDrawList12PushClipRectE6ImVec2S0_b
	movq	656(%rbx), %rsi
	movslq	80(%rsi), %rax
	testl	%eax, %eax
	jle	.L2666
.L2665:
	movq	88(%rsi), %rdx
	salq	$4, %rax
	leaq	-16(%rdx,%rax), %rax
	movss	4(%rax), %xmm2
	movss	12(%rax), %xmm0
	movss	8(%rax), %xmm1
	movss	(%rax), %xmm3
	movss	%xmm3, 512(%rbx)
	movss	%xmm2, 516(%rbx)
	movss	%xmm1, 520(%rbx)
	movss	%xmm0, 524(%rbx)
	addq	$40, %rsp
	popq	%rbx
	popq	%rsi
	ret
	.p2align 4,,7
.L2666:
	leaq	.LC10(%rip), %rdx
	leaq	.LC14(%rip), %rcx
	movl	$866, %r8d
	call	_assert
	movslq	80(%rsi), %rax
	jmp	.L2665
	.seh_endproc
	.p2align 4,,15
	.globl	_ZN5ImGui11PopClipRectEv
	.def	_ZN5ImGui11PopClipRectEv;	.scl	2;	.type	32;	.endef
	.seh_proc	_ZN5ImGui11PopClipRectEv
_ZN5ImGui11PopClipRectEv:
.LFB414:
	pushq	%rsi
	.seh_pushreg	%rsi
	pushq	%rbx
	.seh_pushreg	%rbx
	subq	$40, %rsp
	.seh_stackalloc	40
	.seh_endprologue
	movq	GImGui(%rip), %rax
	movq	6008(%rax), %rbx
	movq	656(%rbx), %rcx
	movb	$1, 138(%rbx)
	call	_ZN10ImDrawList11PopClipRectEv
	movq	656(%rbx), %rsi
	movslq	80(%rsi), %rax
	testl	%eax, %eax
	jle	.L2669
.L2668:
	movq	88(%rsi), %rdx
	salq	$4, %rax
	leaq	-16(%rdx,%rax), %rax
	movss	4(%rax), %xmm2
	movss	12(%rax), %xmm0
	movss	8(%rax), %xmm1
	movss	(%rax), %xmm3
	movss	%xmm3, 512(%rbx)
	movss	%xmm2, 516(%rbx)
	movss	%xmm1, 520(%rbx)
	movss	%xmm0, 524(%rbx)
	addq	$40, %rsp
	popq	%rbx
	popq	%rsi
	ret
	.p2align 4,,7
.L2669:
	leaq	.LC10(%rip), %rdx
	leaq	.LC14(%rip), %rcx
	movl	$866, %r8d
	call	_assert
	movslq	80(%rsi), %rax
	jmp	.L2668
	.seh_endproc
	.p2align 4,,15
	.globl	_ZN5ImGui19FindRenderedTextEndEPKcS1_
	.def	_ZN5ImGui19FindRenderedTextEndEPKcS1_;	.scl	2;	.type	32;	.endef
	.seh_proc	_ZN5ImGui19FindRenderedTextEndEPKcS1_
_ZN5ImGui19FindRenderedTextEndEPKcS1_:
.LFB417:
	.seh_endprologue
	movq	%rcx, %rax
	testq	%rdx, %rdx
	movq	$-1, %rcx
	cmove	%rcx, %rdx
	cmpq	%rdx, %rax
	jnb	.L2672
	movzbl	(%rax), %ecx
	testb	%cl, %cl
	jne	.L2674
	jmp	.L2683
	.p2align 4,,7
.L2675:
	incq	%rax
	cmpq	%rax, %rdx
	je	.L2672
	movzbl	(%rax), %ecx
	testb	%cl, %cl
	je	.L2672
.L2674:
	cmpb	$35, %cl
	jne	.L2675
	cmpb	$35, 1(%rax)
	jne	.L2675
.L2672:
	.p2align 4,,4
	rep ret
.L2683:
	.p2align 4,,7
	rep ret
	.seh_endproc
	.p2align 4,,15
	.globl	_ZN5ImGui7LogTextEPKcz
	.def	_ZN5ImGui7LogTextEPKcz;	.scl	2;	.type	32;	.endef
	.seh_proc	_ZN5ImGui7LogTextEPKcz
_ZN5ImGui7LogTextEPKcz:
.LFB418:
	subq	$56, %rsp
	.seh_stackalloc	56
	.seh_endprologue
	movq	GImGui(%rip), %rax
	movq	%rdx, 72(%rsp)
	movq	%r8, 80(%rsp)
	movq	%r9, 88(%rsp)
	cmpb	$0, 11432(%rax)
	jne	.L2689
.L2684:
	addq	$56, %rsp
	ret
	.p2align 4,,7
.L2689:
	movq	11440(%rax), %r9
	leaq	72(%rsp), %r8
	movq	%r8, 40(%rsp)
	testq	%r9, %r9
	je	.L2686
	movq	%rcx, %rdx
	movq	%r9, %rcx
	call	vfprintf
	nop
	addq	$56, %rsp
	ret
	.p2align 4,,7
.L2686:
	movq	11448(%rax), %rax
	movq	%rcx, %rdx
	movq	%rax, %rcx
	call	_ZN15ImGuiTextBuffer7appendvEPKcPc
	jmp	.L2684
	.seh_endproc
	.section .rdata,"dr"
.LC98:
	.ascii "\15\12%*s%.*s\0"
.LC99:
	.ascii " %.*s\0"
	.text
	.p2align 4,,15
	.def	_ZL15LogRenderedTextRK6ImVec2PKcS3_;	.scl	3;	.type	32;	.endef
	.seh_proc	_ZL15LogRenderedTextRK6ImVec2PKcS3_
_ZL15LogRenderedTextRK6ImVec2PKcS3_:
.LFB419:
	pushq	%r13
	.seh_pushreg	%r13
	pushq	%r12
	.seh_pushreg	%r12
	pushq	%rbp
	.seh_pushreg	%rbp
	pushq	%rdi
	.seh_pushreg	%rdi
	pushq	%rsi
	.seh_pushreg	%rsi
	pushq	%rbx
	.seh_pushreg	%rbx
	subq	$56, %rsp
	.seh_stackalloc	56
	.seh_endprologue
	movq	%r8, %rsi
	movq	GImGui(%rip), %r8
	movq	%rdx, %r12
	testq	%rsi, %rsi
	movq	6008(%r8), %rdx
	je	.L2718
.L2691:
	movss	.LC28(%rip), %xmm0
	movl	244(%rdx), %eax
	addss	240(%rdx), %xmm0
	movss	4(%rcx), %xmm1
	movl	11456(%r8), %ecx
	movss	%xmm1, 240(%rdx)
	ucomiss	%xmm0, %xmm1
	seta	%dil
	cmpl	%eax, %ecx
	jg	.L2696
	subl	%ecx, %eax
.L2697:
	leal	0(,%rax,4), %ebp
	movq	%r12, %r8
.L2707:
	cmpq	%r8, %rsi
	jbe	.L2698
	cmpb	$10, (%r8)
	movq	%r8, %rbx
	jne	.L2701
	jmp	.L2699
	.p2align 4,,7
.L2702:
	cmpb	$10, (%rbx)
	je	.L2699
.L2701:
	incq	%rbx
	cmpq	%rbx, %rsi
	.p2align 4,,2
	jne	.L2702
.L2698:
	cmpq	%r8, %rsi
	movq	%rsi, %rdx
	je	.L2690
	movq	%rsi, %rbx
	movl	$1, %r13d
.L2708:
	subq	%r8, %rdx
	cmpq	%r12, %r8
	jne	.L2713
	testb	%dil, %dil
	jne	.L2713
	leaq	.LC99(%rip), %rcx
	call	_ZN5ImGui7LogTextEPKcz
.L2706:
	testb	%r13b, %r13b
	jne	.L2690
	leaq	1(%rbx), %r8
	jmp	.L2707
	.p2align 4,,7
.L2699:
	cmpq	%rbx, %rsi
	jbe	.L2698
	movq	%rbx, %rdx
	xorl	%r13d, %r13d
	jmp	.L2708
	.p2align 4,,7
.L2690:
	addq	$56, %rsp
	popq	%rbx
	popq	%rsi
	popq	%rdi
	popq	%rbp
	popq	%r12
	popq	%r13
	ret
	.p2align 4,,7
.L2713:
	movq	%r8, 32(%rsp)
	leaq	.LC98(%rip), %rcx
	leaq	.LC91(%rip), %r8
	movl	%edx, %r9d
	movl	%ebp, %edx
	call	_ZN5ImGui7LogTextEPKcz
	jmp	.L2706
	.p2align 4,,7
.L2696:
	movl	%eax, 11456(%r8)
	xorl	%eax, %eax
	jmp	.L2697
.L2718:
	cmpq	$-1, %r12
	je	.L2710
	movzbl	(%r12), %eax
	movq	%r12, %rsi
	testb	%al, %al
	jne	.L2693
	jmp	.L2691
	.p2align 4,,7
.L2694:
	incq	%rsi
	cmpq	$-1, %rsi
	je	.L2691
	movzbl	(%rsi), %eax
	testb	%al, %al
	je	.L2691
.L2693:
	cmpb	$35, %al
	jne	.L2694
	cmpb	$35, 1(%rsi)
	jne	.L2694
	.p2align 4,,5
	jmp	.L2691
.L2710:
	movq	%r12, %rsi
	.p2align 4,,4
	jmp	.L2691
	.seh_endproc
	.p2align 4,,15
	.globl	_ZN5ImGui10RenderTextE6ImVec2PKcS2_b
	.def	_ZN5ImGui10RenderTextE6ImVec2PKcS2_b;	.scl	2;	.type	32;	.endef
	.seh_proc	_ZN5ImGui10RenderTextE6ImVec2PKcS2_b
_ZN5ImGui10RenderTextE6ImVec2PKcS2_b:
.LFB420:
	pushq	%rbp
	.seh_pushreg	%rbp
	pushq	%rdi
	.seh_pushreg	%rdi
	pushq	%rsi
	.seh_pushreg	%rsi
	pushq	%rbx
	.seh_pushreg	%rbx
	subq	$88, %rsp
	.seh_stackalloc	88
	.seh_endprologue
	movq	GImGui(%rip), %rdi
	testb	%r9b, %r9b
	movq	%rcx, 128(%rsp)
	movq	%rdx, %rsi
	movq	6008(%rdi), %rbp
	movb	$1, 138(%rbp)
	je	.L2720
	testq	%r8, %r8
	movq	$-1, %rax
	cmove	%rax, %r8
	cmpq	%r8, %rdx
	jnb	.L2719
	movzbl	(%rdx), %eax
	testb	%al, %al
	je	.L2719
	movq	%rdx, %rbx
	jmp	.L2724
	.p2align 4,,7
.L2726:
	incq	%rbx
	cmpq	%r8, %rbx
	je	.L2736
	movzbl	(%rbx), %eax
	testb	%al, %al
	je	.L2736
.L2724:
	cmpb	$35, %al
	jne	.L2726
	cmpb	$35, 1(%rbx)
	jne	.L2726
	.p2align 4,,7
.L2736:
	movl	%ebx, %edx
	subl	%esi, %edx
	testl	%edx, %edx
	jg	.L2737
.L2719:
	addq	$88, %rsp
	popq	%rbx
	popq	%rsi
	popq	%rdi
	popq	%rbp
	ret
	.p2align 4,,7
.L2720:
	testq	%r8, %r8
	je	.L2728
	movl	%r8d, %edx
	movq	%r8, %rbx
	subl	%esi, %edx
.L2725:
	testl	%edx, %edx
	jle	.L2719
.L2737:
	xorl	%ecx, %ecx
	call	_ZN5ImGui11GetColorU32Eif.constprop.162
	movq	5936(%rdi), %rdx
	movq	656(%rbp), %rcx
	leaq	128(%rsp), %r9
	movss	5944(%rdi), %xmm2
	movq	$0, 64(%rsp)
	movl	$0x00000000, 56(%rsp)
	movq	%rbx, 48(%rsp)
	movq	%rsi, 40(%rsp)
	movl	%eax, 32(%rsp)
	call	_ZN10ImDrawList7AddTextEPK6ImFontfRK6ImVec2jPKcS7_fPK6ImVec4
	cmpb	$0, 11432(%rdi)
	je	.L2719
	leaq	128(%rsp), %rcx
	movq	%rbx, %r8
	movq	%rsi, %rdx
	call	_ZL15LogRenderedTextRK6ImVec2PKcS3_
	nop
	addq	$88, %rsp
	popq	%rbx
	popq	%rsi
	popq	%rdi
	popq	%rbp
	ret
	.p2align 4,,7
.L2728:
	movq	%rdx, %rcx
	call	strlen
	movl	%eax, %edx
	leaq	(%rsi,%rax), %rbx
	jmp	.L2725
	.seh_endproc
	.p2align 4,,15
	.globl	_ZN5ImGui17RenderTextWrappedE6ImVec2PKcS2_f
	.def	_ZN5ImGui17RenderTextWrappedE6ImVec2PKcS2_f;	.scl	2;	.type	32;	.endef
	.seh_proc	_ZN5ImGui17RenderTextWrappedE6ImVec2PKcS2_f
_ZN5ImGui17RenderTextWrappedE6ImVec2PKcS2_f:
.LFB421:
	pushq	%rbp
	.seh_pushreg	%rbp
	pushq	%rdi
	.seh_pushreg	%rdi
	pushq	%rsi
	.seh_pushreg	%rsi
	pushq	%rbx
	.seh_pushreg	%rbx
	subq	$104, %rsp
	.seh_stackalloc	104
	movaps	%xmm6, 80(%rsp)
	.seh_savexmm	%xmm6, 80
	.seh_endprologue
	testq	%r8, %r8
	movq	%rdx, %rdi
	movq	%r8, %rbx
	movq	GImGui(%rip), %rsi
	movq	%rcx, 144(%rsp)
	movaps	%xmm3, %xmm6
	movq	6008(%rsi), %rbp
	movb	$1, 138(%rbp)
	je	.L2743
.L2739:
	movq	%rbx, %rax
	subq	%rdi, %rax
	testl	%eax, %eax
	jle	.L2738
	xorl	%ecx, %ecx
	call	_ZN5ImGui11GetColorU32Eif.constprop.162
	movq	5936(%rsi), %rdx
	movq	656(%rbp), %rcx
	leaq	144(%rsp), %r9
	movss	5944(%rsi), %xmm2
	movq	$0, 64(%rsp)
	movss	%xmm6, 56(%rsp)
	movq	%rbx, 48(%rsp)
	movq	%rdi, 40(%rsp)
	movl	%eax, 32(%rsp)
	call	_ZN10ImDrawList7AddTextEPK6ImFontfRK6ImVec2jPKcS7_fPK6ImVec4
	cmpb	$0, 11432(%rsi)
	jne	.L2744
.L2738:
	movaps	80(%rsp), %xmm6
	addq	$104, %rsp
	popq	%rbx
	popq	%rsi
	popq	%rdi
	popq	%rbp
	ret
	.p2align 4,,7
.L2744:
	leaq	144(%rsp), %rcx
	movq	%rbx, %r8
	movq	%rdi, %rdx
	call	_ZL15LogRenderedTextRK6ImVec2PKcS3_
	nop
	movaps	80(%rsp), %xmm6
	addq	$104, %rsp
	popq	%rbx
	popq	%rsi
	popq	%rdi
	popq	%rbp
	ret
	.p2align 4,,7
.L2743:
	movq	%rdx, %rcx
	call	strlen
	leaq	(%rdi,%rax), %rbx
	jmp	.L2739
	.seh_endproc
	.p2align 4,,15
	.globl	_ZN5ImGui11RenderFrameE6ImVec2S0_jbf
	.def	_ZN5ImGui11RenderFrameE6ImVec2S0_jbf;	.scl	2;	.type	32;	.endef
	.seh_proc	_ZN5ImGui11RenderFrameE6ImVec2S0_jbf
_ZN5ImGui11RenderFrameE6ImVec2S0_jbf:
.LFB423:
	pushq	%rdi
	.seh_pushreg	%rdi
	pushq	%rsi
	.seh_pushreg	%rsi
	pushq	%rbx
	.seh_pushreg	%rbx
	addq	$-128, %rsp
	.seh_stackalloc	128
	movaps	%xmm6, 96(%rsp)
	.seh_savexmm	%xmm6, 96
	movaps	%xmm7, 112(%rsp)
	.seh_savexmm	%xmm7, 112
	.seh_endprologue
	leaq	168(%rsp), %rsi
	movl	%r9d, %edi
	movl	%r8d, %r9d
	movq	GImGui(%rip), %rax
	movq	%rcx, 160(%rsp)
	movss	192(%rsp), %xmm6
	movq	%rdx, 168(%rsp)
	leaq	160(%rsp), %rdx
	movq	%rsi, %r8
	movq	6008(%rax), %rbx
	movq	656(%rbx), %rcx
	movb	$1, 138(%rbx)
	movss	%xmm6, 32(%rsp)
	movl	$-1, 40(%rsp)
	call	_ZN10ImDrawList13AddRectFilledERK6ImVec2S2_jfi
	testb	%dil, %dil
	je	.L2745
	testb	$-128, 12(%rbx)
	jne	.L2750
.L2745:
	movaps	96(%rsp), %xmm6
	movaps	112(%rsp), %xmm7
	subq	$-128, %rsp
	popq	%rbx
	popq	%rsi
	popq	%rdi
	ret
	.p2align 4,,7
.L2750:
	movl	$6, %ecx
	call	_ZN5ImGui11GetColorU32Eif.constprop.162
	movss	.LC28(%rip), %xmm7
	movq	656(%rbx), %rcx
	movss	172(%rsp), %xmm0
	leaq	64(%rsp), %rdx
	movss	168(%rsp), %xmm1
	addss	%xmm7, %xmm0
	addss	%xmm7, %xmm1
	leaq	80(%rsp), %r8
	movss	%xmm7, 48(%rsp)
	movss	%xmm6, 32(%rsp)
	movl	%eax, %r9d
	movl	$-1, 40(%rsp)
	movss	%xmm0, 84(%rsp)
	movss	%xmm1, 80(%rsp)
	movss	164(%rsp), %xmm0
	movss	160(%rsp), %xmm1
	addss	%xmm7, %xmm0
	addss	%xmm7, %xmm1
	movss	%xmm0, 68(%rsp)
	movss	%xmm1, 64(%rsp)
	call	_ZN10ImDrawList7AddRectERK6ImVec2S2_jfif
	movl	$5, %ecx
	call	_ZN5ImGui11GetColorU32Eif.constprop.162
	movq	656(%rbx), %rcx
	leaq	160(%rsp), %rdx
	movss	%xmm7, 48(%rsp)
	movss	%xmm6, 32(%rsp)
	movl	%eax, %r9d
	movl	$-1, 40(%rsp)
	movq	%rsi, %r8
	call	_ZN10ImDrawList7AddRectERK6ImVec2S2_jfif
	jmp	.L2745
	.seh_endproc
	.p2align 4,,15
	.globl	_ZN5ImGui22RenderCollapseTriangleE6ImVec2bf
	.def	_ZN5ImGui22RenderCollapseTriangleE6ImVec2bf;	.scl	2;	.type	32;	.endef
	.seh_proc	_ZN5ImGui22RenderCollapseTriangleE6ImVec2bf
_ZN5ImGui22RenderCollapseTriangleE6ImVec2bf:
.LFB424:
	subq	$120, %rsp
	.seh_stackalloc	120
	.seh_endprologue
	movq	GImGui(%rip), %rax
	movss	.LC50(%rip), %xmm0
	movss	5944(%rax), %xmm1
	movq	6008(%rax), %r8
	mulss	%xmm1, %xmm0
	movq	%rcx, %rax
	mulss	.LC29(%rip), %xmm1
	shrq	$32, %rax
	testb	%dl, %dl
	movq	%rax, 48(%rsp)
	movb	$1, 138(%r8)
	mulss	%xmm2, %xmm0
	mulss	%xmm1, %xmm2
	movaps	%xmm0, %xmm4
	addss	48(%rsp), %xmm2
	movl	%ecx, 48(%rsp)
	movd	48(%rsp), %xmm3
	addss	%xmm3, %xmm1
	xorps	%xmm3, %xmm3
	jne	.L2754
	mulss	%xmm0, %xmm3
	addss	%xmm1, %xmm4
	addss	%xmm2, %xmm3
	movss	%xmm4, 64(%rsp)
	movss	%xmm3, 68(%rsp)
	movss	.LC100(%rip), %xmm3
	mulss	%xmm0, %xmm3
	addss	%xmm3, %xmm1
	movss	.LC102(%rip), %xmm3
	mulss	%xmm0, %xmm3
	mulss	.LC101(%rip), %xmm0
	movss	%xmm1, 80(%rsp)
	addss	%xmm2, %xmm3
	movss	%xmm1, 96(%rsp)
	addss	%xmm0, %xmm2
	movss	%xmm3, 84(%rsp)
	movss	%xmm2, 100(%rsp)
.L2753:
	xorl	%ecx, %ecx
	call	_ZN5ImGui11GetColorU32Eif.constprop.162
	movq	656(%r8), %rcx
	leaq	64(%rsp), %rdx
	leaq	96(%rsp), %r9
	leaq	80(%rsp), %r8
	movl	%eax, 32(%rsp)
	call	_ZN10ImDrawList17AddTriangleFilledERK6ImVec2S2_S2_j
	nop
	addq	$120, %rsp
	ret
	.p2align 4,,7
.L2754:
	mulss	%xmm0, %xmm3
	mulss	.LC60(%rip), %xmm4
	addss	%xmm1, %xmm3
	subss	%xmm4, %xmm2
	movss	%xmm3, 64(%rsp)
	movaps	%xmm0, %xmm3
	addss	%xmm2, %xmm3
	movss	%xmm3, 68(%rsp)
