	.file	"main.cpp"
	.text
	.p2align 4,,15
	.def	_ZL21stbi__mad3sizes_validiiii;	.scl	3;	.type	32;	.endef
	.seh_proc	_ZL21stbi__mad3sizes_validiiii
_ZL21stbi__mad3sizes_validiiii:
.LFB573:
	.seh_endprologue
	movl	%edx, %eax
	movl	%edx, %r10d
	shrl	$31, %eax
	jne	.L6
	movl	%ecx, %eax
	shrl	$31, %eax
	jne	.L6
	testl	%edx, %edx
	jne	.L17
.L3:
	imull	%ecx, %r10d
	xorl	%r11d, %r11d
	testl	%r8d, %r8d
	jns	.L18
.L2:
	movl	%r11d, %eax
	ret
	.p2align 4,,7
.L17:
	movl	$2147483647, %eax
	cltd
	idivl	%r10d
	cmpl	%eax, %ecx
	jle	.L3
.L6:
	xorl	%r11d, %r11d
	movl	%r11d, %eax
	ret
	.p2align 4,,7
.L18:
	jne	.L19
.L4:
	xorl	%r11d, %r11d
	testl	%r9d, %r9d
	js	.L2
	imull	%r8d, %r10d
	movl	$2147483647, %eax
	xorl	%r11d, %r11d
	subl	%r9d, %eax
	cmpl	%eax, %r10d
	setle	%r11b
	movl	%r11d, %eax
	ret
	.p2align 4,,7
.L19:
	movl	$2147483647, %eax
	cltd
	idivl	%r8d
	cmpl	%eax, %r10d
	jle	.L4
	jmp	.L2
	.seh_endproc
	.p2align 4,,15
	.def	_ZL10stbi__skipP13stbi__contexti;	.scl	3;	.type	32;	.endef
	.seh_proc	_ZL10stbi__skipP13stbi__contexti
_ZL10stbi__skipP13stbi__contexti:
.LFB609:
	.seh_endprologue
	testl	%edx, %edx
	js	.L25
	cmpq	$0, 16(%rcx)
	je	.L23
	movq	192(%rcx), %r9
	movq	184(%rcx), %rax
	movq	%r9, %r8
	subq	%rax, %r8
	cmpl	%r8d, %edx
	jg	.L26
	movslq	%edx, %rdx
	addq	%rax, %rdx
	movq	%rdx, 184(%rcx)
	ret
	.p2align 4,,7
.L25:
	movq	192(%rcx), %rax
	movq	%rax, 184(%rcx)
	ret
	.p2align 4,,7
.L26:
	subl	%r8d, %edx
	movq	40(%rcx), %r8
	movq	24(%rcx), %rax
	movq	%r9, 184(%rcx)
	movq	%r8, %rcx
	rex.W jmp *%rax
	.p2align 4,,7
.L23:
	movq	184(%rcx), %rax
	movslq	%edx, %rdx
	addq	%rax, %rdx
	movq	%rdx, 184(%rcx)
	ret
	.seh_endproc
	.p2align 4,,15
	.def	_ZL16stbi__idct_blockPhiPs;	.scl	3;	.type	32;	.endef
	.seh_proc	_ZL16stbi__idct_blockPhiPs
_ZL16stbi__idct_blockPhiPs:
.LFB632:
	pushq	%r15
	.seh_pushreg	%r15
	pushq	%r14
	.seh_pushreg	%r14
	pushq	%r13
	.seh_pushreg	%r13
	pushq	%r12
	.seh_pushreg	%r12
	pushq	%rbp
	.seh_pushreg	%rbp
	pushq	%rdi
	.seh_pushreg	%rdi
	pushq	%rsi
	.seh_pushreg	%rsi
	pushq	%rbx
	.seh_pushreg	%rbx
	subq	$312, %rsp
	.seh_stackalloc	312
	.seh_endprologue
	leaq	16(%r8), %rax
	leaq	48(%rsp), %rsi
	movl	%edx, 392(%rsp)
	movq	%r8, %r14
	movq	%rcx, 384(%rsp)
	movq	%rax, 32(%rsp)
	movq	%rsi, 40(%rsp)
	jmp	.L36
	.p2align 4,,7
.L74:
	testw	%cx, %cx
	jne	.L28
	movswl	48(%r14), %edx
	testw	%dx, %dx
	je	.L31
	movswl	96(%r14), %r9d
	movzwl	64(%r14), %ebx
	movswl	112(%r14), %r11d
	movswl	80(%r14), %r10d
	.p2align 4,,7
.L30:
	leal	(%rcx,%r9), %r8d
	imull	$-7567, %r9d, %r9d
	imull	$2217, %r8d, %edi
	leal	(%r9,%rdi), %r15d
	movswl	(%r14), %r9d
	imull	$3135, %ecx, %r8d
	movswl	%bx, %ecx
	movl	%r15d, 12(%rsp)
	leal	(%r9,%rcx), %ebp
	subl	%ecx, %r9d
	addl	%edi, %r8d
	movl	%r9d, %ebx
	leal	(%r10,%rax), %r9d
	sall	$12, %ebx
	sall	$12, %ebp
	movl	%ebx, %ecx
	movl	%ebp, %edi
	subl	%r15d, %ecx
	subl	%r8d, %edi
	movl	%ecx, 16(%rsp)
	leal	(%r11,%rdx), %ecx
	movl	%edi, 24(%rsp)
	imull	$8410, %r10d, %edi
	leal	(%rcx,%r9), %r12d
	imull	$6149, %eax, %r15d
	addl	%r11d, %eax
	movl	%edi, 28(%rsp)
	imull	$4816, %r12d, %r12d
	imull	$12586, %edx, %edi
	addl	%r10d, %edx
	imull	$-3685, %eax, %eax
	imull	$-1597, %r9d, %r9d
	addl	%r12d, %eax
	imull	$-10497, %edx, %edx
	imull	$-8034, %ecx, %ecx
	addl	%edx, %r12d
	leal	(%rax,%r9), %edx
	imull	$1223, %r11d, %r13d
	addl	%edx, %r15d
	leal	(%r12,%rcx), %edx
	addl	%eax, %ecx
	movl	12(%rsp), %eax
	addl	%ecx, %r13d
	leal	512(%r8,%rbp), %ecx
	addl	%r9d, %r12d
	addl	%edx, %edi
	addl	28(%rsp), %r12d
	leal	512(%rax,%rbx), %r8d
	leal	(%r15,%rcx), %r9d
	movl	16(%rsp), %ebx
	subl	%r15d, %ecx
	movl	24(%rsp), %eax
	sarl	$10, %ecx
	sarl	$10, %r9d
	movl	%ecx, 224(%rsi)
	leal	(%rdi,%r8), %ecx
	leal	512(%rbx), %edx
	addl	$512, %eax
	movl	%r9d, (%rsi)
	sarl	$10, %ecx
	subl	%edi, %r8d
	movl	%ecx, 32(%rsi)
	leal	(%r12,%rdx), %ecx
	subl	%r12d, %edx
	sarl	$10, %edx
	sarl	$10, %r8d
	movl	%edx, 160(%rsi)
	leal	0(%r13,%rax), %edx
	subl	%r13d, %eax
	sarl	$10, %ecx
	sarl	$10, %eax
	movl	%r8d, 192(%rsi)
	sarl	$10, %edx
	movl	%ecx, 64(%rsi)
	movl	%eax, 128(%rsi)
	movl	%edx, 96(%rsi)
.L35:
	addq	$2, %r14
	addq	$4, %rsi
	cmpq	32(%rsp), %r14
	je	.L73
.L36:
	movswl	16(%r14), %eax
	movswl	32(%r14), %ecx
	testw	%ax, %ax
	je	.L74
.L28:
	movswl	96(%r14), %r9d
	movzwl	64(%r14), %ebx
	movswl	112(%r14), %r11d
	movswl	80(%r14), %r10d
	movswl	48(%r14), %edx
	jmp	.L30
	.p2align 4,,7
.L73:
	movslq	392(%rsp), %rax
	movq	384(%rsp), %r13
	movq	40(%rsp), %rsi
	movq	%rax, 16(%rsp)
	.p2align 4,,7
.L53:
	movl	8(%rsi), %r11d
	movl	24(%rsi), %r10d
	movl	(%rsi), %r9d
	movl	12(%rsi), %r8d
	movl	28(%rsi), %edx
	movl	4(%rsi), %ecx
	leal	(%r11,%r10), %eax
	movl	20(%rsi), %r14d
	imull	$-7567, %r10d, %r10d
	imull	$2217, %eax, %eax
	addl	%r8d, %edx
	imull	$3135, %r11d, %r11d
	addl	%eax, %r10d
	imull	$6149, %ecx, %r15d
	addl	%eax, %r11d
	movl	16(%rsi), %eax
	imull	$8410, %r14d, %r14d
	leal	(%r9,%rax), %edi
	subl	%eax, %r9d
	sall	$12, %r9d
	sall	$12, %edi
	movl	%r9d, %ebx
	movl	%edi, %eax
	subl	%r10d, %ebx
	subl	%r11d, %eax
	movl	%ebx, 24(%rsp)
	movl	28(%rsi), %ebx
	movl	%eax, 12(%rsp)
	movl	%edx, %eax
	movl	20(%rsi), %edx
	leal	16842752(%r11,%rdi), %r11d
	movl	24(%rsp), %edi
	imull	$1223, %ebx, %r12d
	addl	%ecx, %edx
	addl	28(%rsi), %ecx
	leal	(%rax,%rdx), %ebp
	imull	$12586, %r8d, %ebx
	addl	20(%rsi), %r8d
	imull	$4816, %ebp, %ebp
	imull	$-3685, %ecx, %ecx
	imull	$-1597, %edx, %edx
	addl	%ebp, %ecx
	imull	$-10497, %r8d, %r8d
	imull	$-8034, %eax, %eax
	addl	%r8d, %ebp
	leal	(%rcx,%rdx), %r8d
	addl	%r8d, %r15d
	leal	0(%rbp,%rax), %r8d
	addl	%ecx, %eax
	leal	(%rax,%r12), %ecx
	movl	12(%rsp), %eax
	addl	%edx, %ebp
	addl	%r8d, %ebx
	leal	16842752(%r10,%r9), %r8d
	leal	(%r15,%r11), %r9d
	addl	%r14d, %ebp
	leal	16842752(%rdi), %edx
	sarl	$17, %r9d
	addl	$16842752, %eax
	cmpl	$255, %r9d
	jbe	.L37
	xorl	%r10d, %r10d
	testl	%r9d, %r9d
	js	.L38
	cmpl	$255, %r9d
	movl	$-1, %r10d
	jg	.L38
.L37:
	movl	%r9d, %r10d
.L38:
	subl	%r15d, %r11d
	movb	%r10b, 0(%r13)
	movl	%r11d, %r9d
	sarl	$17, %r9d
	cmpl	$255, %r9d
	jbe	.L39
	xorl	%r10d, %r10d
	testl	%r9d, %r9d
	js	.L40
	cmpl	$255, %r9d
	movl	$-1, %r10d
	jg	.L40
.L39:
	movl	%r9d, %r10d
.L40:
	leal	(%rbx,%r8), %r9d
	movb	%r10b, 7(%r13)
	sarl	$17, %r9d
	cmpl	$255, %r9d
	jbe	.L41
	xorl	%r10d, %r10d
	testl	%r9d, %r9d
	js	.L42
	cmpl	$255, %r9d
	movl	$-1, %r10d
	jg	.L42
.L41:
	movl	%r9d, %r10d
.L42:
	subl	%ebx, %r8d
	movb	%r10b, 1(%r13)
	sarl	$17, %r8d
	cmpl	$255, %r8d
	jbe	.L43
	xorl	%r9d, %r9d
	testl	%r8d, %r8d
	js	.L44
	cmpl	$255, %r8d
	movl	$-1, %r9d
	jg	.L44
.L43:
	movl	%r8d, %r9d
.L44:
	leal	0(%rbp,%rdx), %r8d
	movb	%r9b, 6(%r13)
	sarl	$17, %r8d
	cmpl	$255, %r8d
	jbe	.L45
	xorl	%r9d, %r9d
	testl	%r8d, %r8d
	js	.L46
	cmpl	$255, %r8d
	movl	$-1, %r9d
	jg	.L46
.L45:
	movl	%r8d, %r9d
.L46:
	subl	%ebp, %edx
	movb	%r9b, 2(%r13)
	sarl	$17, %edx
	cmpl	$255, %edx
	jbe	.L47
	xorl	%r8d, %r8d
	testl	%edx, %edx
	js	.L48
	cmpl	$255, %edx
	movl	$-1, %r8d
	jg	.L48
.L47:
	movl	%edx, %r8d
.L48:
	leal	(%rcx,%rax), %edx
	movb	%r8b, 5(%r13)
	sarl	$17, %edx
	cmpl	$255, %edx
	jbe	.L49
	xorl	%r8d, %r8d
	testl	%edx, %edx
	js	.L50
	cmpl	$255, %edx
	movl	$-1, %r8d
	jg	.L50
.L49:
	movl	%edx, %r8d
.L50:
	subl	%ecx, %eax
	movb	%r8b, 3(%r13)
	sarl	$17, %eax
	cmpl	$255, %eax
	jbe	.L51
	xorl	%edx, %edx
	testl	%eax, %eax
	js	.L52
	cmpl	$255, %eax
	movl	$-1, %edx
	jle	.L51
	.p2align 4,,7
.L52:
	leaq	304(%rsp), %rax
	addq	$32, %rsi
	movb	%dl, 4(%r13)
	addq	16(%rsp), %r13
	cmpq	%rax, %rsi
	jne	.L53
	addq	$312, %rsp
	popq	%rbx
	popq	%rsi
	popq	%rdi
	popq	%rbp
	popq	%r12
	popq	%r13
	popq	%r14
	popq	%r15
	ret
	.p2align 4,,7
.L51:
	movl	%eax, %edx
	jmp	.L52
	.p2align 4,,7
.L31:
	movzwl	64(%r14), %ebx
	testw	%bx, %bx
	je	.L32
	movswl	96(%r14), %r9d
	movswl	112(%r14), %r11d
	movswl	%dx, %ecx
	movswl	80(%r14), %r10d
	jmp	.L30
	.p2align 4,,7
.L32:
	movswl	80(%r14), %r10d
	movswl	96(%r14), %r9d
	movswl	112(%r14), %r11d
	testw	%r10w, %r10w
	jne	.L75
	testw	%r9w, %r9w
	jne	.L76
	testw	%r11w, %r11w
	jne	.L54
	movswl	(%r14), %eax
	sall	$2, %eax
	movl	%eax, 224(%rsi)
	movl	%eax, 192(%rsi)
	movl	%eax, 160(%rsi)
	movl	%eax, 128(%rsi)
	movl	%eax, 96(%rsi)
	movl	%eax, 64(%rsi)
	movl	%eax, 32(%rsi)
	movl	%eax, (%rsi)
	jmp	.L35
	.p2align 4,,7
.L75:
	movswl	%bx, %edx
	movswl	%bx, %ecx
	jmp	.L30
	.p2align 4,,7
.L76:
	movswl	%r10w, %edx
	movl	%r10d, %ebx
	movswl	%r10w, %ecx
	jmp	.L30
.L54:
	movswl	%r9w, %edx
	movswl	%r9w, %r10d
	movl	%r9d, %ebx
	movswl	%r9w, %ecx
	jmp	.L30
	.seh_endproc
	.p2align 4,,15
	.def	_ZL14resample_row_1PhS_S_ii;	.scl	3;	.type	32;	.endef
	.seh_proc	_ZL14resample_row_1PhS_S_ii
_ZL14resample_row_1PhS_S_ii:
.LFB645:
	.seh_endprologue
	movq	%rdx, %rax
	ret
	.seh_endproc
	.p2align 4,,15
	.def	_ZL22stbi__resample_row_v_2PhS_S_ii;	.scl	3;	.type	32;	.endef
	.seh_proc	_ZL22stbi__resample_row_v_2PhS_S_ii
_ZL22stbi__resample_row_v_2PhS_S_ii:
.LFB646:
	pushq	%r13
	.seh_pushreg	%r13
	pushq	%r12
	.seh_pushreg	%r12
	pushq	%rbp
	.seh_pushreg	%rbp
	pushq	%rdi
	.seh_pushreg	%rdi
	pushq	%rsi
	.seh_pushreg	%rsi
	pushq	%rbx
	.seh_pushreg	%rbx
	subq	$104, %rsp
	.seh_stackalloc	104
	movaps	%xmm6, (%rsp)
	.seh_savexmm	%xmm6, 0
	movaps	%xmm7, 16(%rsp)
	.seh_savexmm	%xmm7, 16
	movaps	%xmm8, 32(%rsp)
	.seh_savexmm	%xmm8, 32
	movaps	%xmm9, 48(%rsp)
	.seh_savexmm	%xmm9, 48
	movaps	%xmm10, 64(%rsp)
	.seh_savexmm	%xmm10, 64
	movaps	%xmm11, 80(%rsp)
	.seh_savexmm	%xmm11, 80
	.seh_endprologue
	testl	%r9d, %r9d
	movq	%rcx, %rax
	jle	.L111
	leaq	16(%rcx), %r10
	leaq	16(%rdx), %rcx
	cmpq	%rcx, %rax
	setnb	%r11b
	cmpq	%r10, %rdx
	setnb	%cl
	orl	%r11d, %ecx
	cmpl	$17, %r9d
	seta	%r11b
	testb	%r11b, %cl
	je	.L80
	leaq	16(%r8), %rcx
	cmpq	%rcx, %rax
	setnb	%r11b
	cmpq	%r10, %r8
	setnb	%cl
	orb	%cl, %r11b
	je	.L80
	movq	%rdx, %rcx
	negq	%rcx
	andl	$15, %ecx
	cmpl	%r9d, %ecx
	cmova	%r9d, %ecx
	xorl	%esi, %esi
	testl	%ecx, %ecx
	je	.L81
	movzbl	(%rdx), %r10d
	leal	(%r10,%r10,2), %r11d
	movzbl	(%r8), %r10d
	leal	2(%r11,%r10), %r10d
	sarl	$2, %r10d
	cmpl	$1, %ecx
	movb	%r10b, (%rax)
	je	.L94
	movzbl	1(%rdx), %r10d
	leal	(%r10,%r10,2), %r11d
	movzbl	1(%r8), %r10d
	leal	2(%r11,%r10), %r10d
	sarl	$2, %r10d
	cmpl	$2, %ecx
	movb	%r10b, 1(%rax)
	je	.L95
	movzbl	2(%rdx), %r10d
	leal	(%r10,%r10,2), %r11d
	movzbl	2(%r8), %r10d
	leal	2(%r11,%r10), %r10d
	sarl	$2, %r10d
	cmpl	$3, %ecx
	movb	%r10b, 2(%rax)
	je	.L96
	movzbl	3(%rdx), %r10d
	leal	(%r10,%r10,2), %r11d
	movzbl	3(%r8), %r10d
	leal	2(%r11,%r10), %r10d
	sarl	$2, %r10d
	cmpl	$4, %ecx
	movb	%r10b, 3(%rax)
	je	.L97
	movzbl	4(%rdx), %r10d
	leal	(%r10,%r10,2), %r11d
	movzbl	4(%r8), %r10d
	leal	2(%r11,%r10), %r10d
	sarl	$2, %r10d
	cmpl	$5, %ecx
	movb	%r10b, 4(%rax)
	je	.L98
	movzbl	5(%rdx), %r10d
	leal	(%r10,%r10,2), %r11d
	movzbl	5(%r8), %r10d
	leal	2(%r11,%r10), %r10d
	sarl	$2, %r10d
	cmpl	$6, %ecx
	movb	%r10b, 5(%rax)
	je	.L99
	movzbl	6(%rdx), %r10d
	leal	(%r10,%r10,2), %r11d
	movzbl	6(%r8), %r10d
	leal	2(%r11,%r10), %r10d
	sarl	$2, %r10d
	cmpl	$7, %ecx
	movb	%r10b, 6(%rax)
	je	.L100
	movzbl	7(%rdx), %r10d
	leal	(%r10,%r10,2), %r11d
	movzbl	7(%r8), %r10d
	leal	2(%r11,%r10), %r10d
	sarl	$2, %r10d
	cmpl	$8, %ecx
	movb	%r10b, 7(%rax)
	je	.L101
	movzbl	8(%rdx), %r10d
	leal	(%r10,%r10,2), %r11d
	movzbl	8(%r8), %r10d
	leal	2(%r11,%r10), %r10d
	sarl	$2, %r10d
	cmpl	$9, %ecx
	movb	%r10b, 8(%rax)
	je	.L102
	movzbl	9(%rdx), %r10d
	leal	(%r10,%r10,2), %r11d
	movzbl	9(%r8), %r10d
	leal	2(%r11,%r10), %r10d
	sarl	$2, %r10d
	cmpl	$10, %ecx
	movb	%r10b, 9(%rax)
	je	.L103
	movzbl	10(%rdx), %r10d
	leal	(%r10,%r10,2), %r11d
	movzbl	10(%r8), %r10d
	leal	2(%r11,%r10), %r10d
	sarl	$2, %r10d
	cmpl	$11, %ecx
	movb	%r10b, 10(%rax)
	je	.L104
	movzbl	11(%rdx), %r10d
	leal	(%r10,%r10,2), %r11d
	movzbl	11(%r8), %r10d
	leal	2(%r11,%r10), %r10d
	sarl	$2, %r10d
	cmpl	$12, %ecx
	movb	%r10b, 11(%rax)
	je	.L105
	movzbl	12(%rdx), %r10d
	leal	(%r10,%r10,2), %r11d
	movzbl	12(%r8), %r10d
	leal	2(%r11,%r10), %r10d
	sarl	$2, %r10d
	cmpl	$13, %ecx
	movb	%r10b, 12(%rax)
	je	.L106
	movzbl	13(%rdx), %r10d
	leal	(%r10,%r10,2), %r11d
	movzbl	13(%r8), %r10d
	leal	2(%r11,%r10), %r10d
	sarl	$2, %r10d
	cmpl	$14, %ecx
	movb	%r10b, 13(%rax)
	je	.L107
	movzbl	14(%rdx), %r10d
	movl	$15, %esi
	leal	(%r10,%r10,2), %r11d
	movzbl	14(%r8), %r10d
	leal	2(%r11,%r10), %r10d
	sarl	$2, %r10d
	movb	%r10b, 14(%rax)
.L81:
	movl	%r9d, %edi
	leal	-1(%r9), %r10d
	movl	%ecx, %r13d
	subl	%ecx, %edi
	leal	-16(%rdi), %ebx
	subl	%ecx, %r10d
	shrl	$4, %ebx
	leal	1(%rbx), %ebp
	movl	%ebp, %r12d
	sall	$4, %r12d
	cmpl	$14, %r10d
	jbe	.L83
	subl	$4, %ebx
	leaq	(%rdx,%r13), %r10
	leaq	(%r8,%r13), %r11
	cmpl	$-6, %ebx
	leaq	(%rax,%r13), %rcx
	ja	.L108
	pxor	%xmm5, %xmm5
	shrl	$2, %ebx
	pxor	%xmm4, %xmm4
	movdqa	.LC0(%rip), %xmm1
	leal	4(,%rbx,4), %r13d
	xorl	%ebx, %ebx
	movdqa	.LC1(%rip), %xmm2
	movdqa	.LC2(%rip), %xmm6
.L85:
	movdqa	%xmm1, %xmm3
	prefetcht0	96(%r10)
	prefetcht0	96(%r11)
	movdqa	(%r10), %xmm8
	addl	$4, %ebx
	prefetcht0	96(%rcx)
	addq	$64, %r10
	addq	$64, %r11
	addq	$64, %rcx
	movdqa	%xmm8, %xmm7
	movdqu	-64(%r11), %xmm9
	punpckhbw	%xmm5, %xmm8
	punpcklbw	%xmm5, %xmm7
	movdqa	%xmm9, %xmm10
	punpckhbw	%xmm5, %xmm9
	punpcklbw	%xmm5, %xmm10
	pmullw	%xmm7, %xmm3
	pmulhw	%xmm1, %xmm7
	movdqa	%xmm3, %xmm0
	punpckhwd	%xmm7, %xmm3
	punpcklwd	%xmm7, %xmm0
	movdqa	%xmm10, %xmm11
	movdqa	%xmm3, %xmm7
	movdqa	%xmm10, %xmm3
	punpcklwd	%xmm4, %xmm11
	movdqa	%xmm9, %xmm10
	punpckhwd	%xmm4, %xmm3
	punpcklwd	%xmm4, %xmm10
	paddd	%xmm11, %xmm0
	paddd	%xmm2, %xmm0
	psrad	$2, %xmm0
	paddd	%xmm7, %xmm3
	movdqa	%xmm0, %xmm7
	paddd	%xmm2, %xmm3
	psrad	$2, %xmm3
	punpcklwd	%xmm3, %xmm0
	punpckhwd	%xmm3, %xmm7
	movdqa	%xmm0, %xmm3
	punpcklwd	%xmm7, %xmm0
	punpckhwd	%xmm7, %xmm3
	movdqa	%xmm1, %xmm7
	pmullw	%xmm8, %xmm7
	pmulhw	%xmm1, %xmm8
	punpcklwd	%xmm3, %xmm0
	movdqa	%xmm7, %xmm3
	punpckhwd	%xmm8, %xmm7
	punpcklwd	%xmm8, %xmm3
	movdqa	%xmm7, %xmm8
	movdqa	%xmm9, %xmm7
	pand	%xmm6, %xmm0
	punpckhwd	%xmm4, %xmm7
	paddd	%xmm10, %xmm3
	paddd	%xmm2, %xmm3
	psrad	$2, %xmm3
	paddd	%xmm8, %xmm7
	movdqa	%xmm3, %xmm8
	paddd	%xmm2, %xmm7
	psrad	$2, %xmm7
	punpcklwd	%xmm7, %xmm3
	punpckhwd	%xmm7, %xmm8
	movdqa	%xmm3, %xmm7
	punpcklwd	%xmm8, %xmm3
	punpckhwd	%xmm8, %xmm7
	punpcklwd	%xmm7, %xmm3
	pand	%xmm6, %xmm3
	packuswb	%xmm3, %xmm0
	movdqa	%xmm1, %xmm3
	movups	%xmm0, -64(%rcx)
	movdqa	-48(%r10), %xmm8
	movdqa	%xmm8, %xmm7
	movdqu	-48(%r11), %xmm9
	punpckhbw	%xmm5, %xmm8
	punpcklbw	%xmm5, %xmm7
	movdqa	%xmm9, %xmm10
	punpckhbw	%xmm5, %xmm9
	punpcklbw	%xmm5, %xmm10
	pmullw	%xmm7, %xmm3
	pmulhw	%xmm1, %xmm7
	movdqa	%xmm3, %xmm0
	punpckhwd	%xmm7, %xmm3
	punpcklwd	%xmm7, %xmm0
	movdqa	%xmm10, %xmm11
	movdqa	%xmm3, %xmm7
	movdqa	%xmm10, %xmm3
	punpcklwd	%xmm4, %xmm11
	movdqa	%xmm9, %xmm10
	punpckhwd	%xmm4, %xmm3
	punpcklwd	%xmm4, %xmm10
	paddd	%xmm11, %xmm0
	paddd	%xmm2, %xmm0
	psrad	$2, %xmm0
	paddd	%xmm7, %xmm3
	movdqa	%xmm0, %xmm7
	paddd	%xmm2, %xmm3
	psrad	$2, %xmm3
	punpcklwd	%xmm3, %xmm0
	punpckhwd	%xmm3, %xmm7
	movdqa	%xmm0, %xmm3
	punpcklwd	%xmm7, %xmm0
	punpckhwd	%xmm7, %xmm3
	movdqa	%xmm1, %xmm7
	pmullw	%xmm8, %xmm7
	pmulhw	%xmm1, %xmm8
	punpcklwd	%xmm3, %xmm0
	movdqa	%xmm7, %xmm3
	punpckhwd	%xmm8, %xmm7
	punpcklwd	%xmm8, %xmm3
	movdqa	%xmm7, %xmm8
	movdqa	%xmm9, %xmm7
	pand	%xmm6, %xmm0
	punpckhwd	%xmm4, %xmm7
	paddd	%xmm10, %xmm3
	paddd	%xmm2, %xmm3
	psrad	$2, %xmm3
	paddd	%xmm8, %xmm7
	movdqa	%xmm3, %xmm8
	paddd	%xmm2, %xmm7
	psrad	$2, %xmm7
	punpcklwd	%xmm7, %xmm3
	punpckhwd	%xmm7, %xmm8
	movdqa	%xmm3, %xmm7
	punpcklwd	%xmm8, %xmm3
	punpckhwd	%xmm8, %xmm7
	punpcklwd	%xmm7, %xmm3
	pand	%xmm6, %xmm3
	packuswb	%xmm3, %xmm0
	movdqa	%xmm1, %xmm3
	movups	%xmm0, -48(%rcx)
	movdqa	-32(%r10), %xmm8
	movdqa	%xmm8, %xmm7
	movdqu	-32(%r11), %xmm9
	punpckhbw	%xmm5, %xmm8
	punpcklbw	%xmm5, %xmm7
	movdqa	%xmm9, %xmm10
	punpckhbw	%xmm5, %xmm9
	punpcklbw	%xmm5, %xmm10
	pmullw	%xmm7, %xmm3
	pmulhw	%xmm1, %xmm7
	movdqa	%xmm3, %xmm0
	punpckhwd	%xmm7, %xmm3
	punpcklwd	%xmm7, %xmm0
	movdqa	%xmm10, %xmm11
	movdqa	%xmm3, %xmm7
	movdqa	%xmm10, %xmm3
	punpcklwd	%xmm4, %xmm11
	movdqa	%xmm9, %xmm10
	punpckhwd	%xmm4, %xmm3
	punpcklwd	%xmm4, %xmm10
	paddd	%xmm11, %xmm0
	paddd	%xmm2, %xmm0
	psrad	$2, %xmm0
	paddd	%xmm7, %xmm3
	movdqa	%xmm0, %xmm7
	paddd	%xmm2, %xmm3
	psrad	$2, %xmm3
	punpcklwd	%xmm3, %xmm0
	punpckhwd	%xmm3, %xmm7
	movdqa	%xmm0, %xmm3
	punpcklwd	%xmm7, %xmm0
	punpckhwd	%xmm7, %xmm3
	movdqa	%xmm1, %xmm7
	pmullw	%xmm8, %xmm7
	pmulhw	%xmm1, %xmm8
	punpcklwd	%xmm3, %xmm0
	movdqa	%xmm7, %xmm3
	punpckhwd	%xmm8, %xmm7
	punpcklwd	%xmm8, %xmm3
	movdqa	%xmm7, %xmm8
	movdqa	%xmm9, %xmm7
	pand	%xmm6, %xmm0
	punpckhwd	%xmm4, %xmm7
	paddd	%xmm10, %xmm3
	paddd	%xmm2, %xmm3
	psrad	$2, %xmm3
	paddd	%xmm8, %xmm7
	movdqa	%xmm3, %xmm8
	paddd	%xmm2, %xmm7
	psrad	$2, %xmm7
	punpcklwd	%xmm7, %xmm3
	punpckhwd	%xmm7, %xmm8
	movdqa	%xmm3, %xmm7
	punpcklwd	%xmm8, %xmm3
	punpckhwd	%xmm8, %xmm7
	punpcklwd	%xmm7, %xmm3
	pand	%xmm6, %xmm3
	packuswb	%xmm3, %xmm0
	movdqa	%xmm1, %xmm3
	movups	%xmm0, -32(%rcx)
	movdqa	-16(%r10), %xmm9
	movdqa	%xmm9, %xmm7
	movdqu	-16(%r11), %xmm8
	punpckhbw	%xmm5, %xmm9
	punpcklbw	%xmm5, %xmm7
	movdqa	%xmm8, %xmm10
	punpckhbw	%xmm5, %xmm8
	punpcklbw	%xmm5, %xmm10
	pmullw	%xmm7, %xmm3
	pmulhw	%xmm1, %xmm7
	movdqa	%xmm3, %xmm0
	punpckhwd	%xmm7, %xmm3
	punpcklwd	%xmm7, %xmm0
	movdqa	%xmm10, %xmm11
	movdqa	%xmm3, %xmm7
	movdqa	%xmm10, %xmm3
	punpcklwd	%xmm4, %xmm11
	movdqa	%xmm8, %xmm10
	punpckhwd	%xmm4, %xmm3
	punpckhwd	%xmm4, %xmm8
	paddd	%xmm11, %xmm0
	paddd	%xmm2, %xmm0
	psrad	$2, %xmm0
	paddd	%xmm7, %xmm3
	movdqa	%xmm0, %xmm7
	paddd	%xmm2, %xmm3
	psrad	$2, %xmm3
	punpcklwd	%xmm3, %xmm0
	punpckhwd	%xmm3, %xmm7
	punpcklwd	%xmm4, %xmm10
	movdqa	%xmm0, %xmm3
	punpcklwd	%xmm7, %xmm0
	punpckhwd	%xmm7, %xmm3
	movdqa	%xmm1, %xmm7
	pmullw	%xmm9, %xmm7
	pmulhw	%xmm1, %xmm9
	punpcklwd	%xmm3, %xmm0
	movdqa	%xmm7, %xmm3
	punpckhwd	%xmm9, %xmm7
	punpcklwd	%xmm9, %xmm3
	paddd	%xmm8, %xmm7
	paddd	%xmm2, %xmm7
	psrad	$2, %xmm7
	pand	%xmm6, %xmm0
	paddd	%xmm10, %xmm3
	paddd	%xmm2, %xmm3
	psrad	$2, %xmm3
	movdqa	%xmm3, %xmm8
	punpcklwd	%xmm7, %xmm3
	punpckhwd	%xmm7, %xmm8
	movdqa	%xmm3, %xmm7
	punpcklwd	%xmm8, %xmm3
	punpckhwd	%xmm8, %xmm7
	punpcklwd	%xmm7, %xmm3
	pand	%xmm6, %xmm3
	packuswb	%xmm3, %xmm0
	movups	%xmm0, -16(%rcx)
	cmpl	%ebx, %r13d
	jne	.L85
.L84:
	pxor	%xmm7, %xmm7
	xorl	%ebx, %ebx
	pxor	%xmm5, %xmm5
.L90:
	movdqa	(%r10,%rbx), %xmm9
	movdqa	%xmm1, %xmm0
	incl	%r13d
	movdqu	(%r11,%rbx), %xmm8
	movdqa	%xmm9, %xmm4
	punpckhbw	%xmm7, %xmm9
	movdqa	%xmm8, %xmm10
	punpcklbw	%xmm7, %xmm4
	punpckhbw	%xmm7, %xmm8
	punpcklbw	%xmm7, %xmm10
	pmullw	%xmm4, %xmm0
	movdqa	%xmm0, %xmm3
	pmulhw	%xmm1, %xmm4
	punpckhwd	%xmm4, %xmm0
	movdqa	%xmm10, %xmm11
	punpcklwd	%xmm4, %xmm3
	punpckhwd	%xmm5, %xmm10
	punpcklwd	%xmm5, %xmm11
	paddd	%xmm10, %xmm0
	paddd	%xmm2, %xmm0
	psrad	$2, %xmm0
	paddd	%xmm11, %xmm3
	paddd	%xmm2, %xmm3
	psrad	$2, %xmm3
	movdqa	%xmm3, %xmm4
	punpcklwd	%xmm0, %xmm3
	movdqa	%xmm8, %xmm10
	punpckhwd	%xmm0, %xmm4
	punpckhwd	%xmm5, %xmm8
	movdqa	%xmm3, %xmm0
	punpcklwd	%xmm5, %xmm10
	punpcklwd	%xmm4, %xmm3
	punpckhwd	%xmm4, %xmm0
	movdqa	%xmm1, %xmm4
	pmullw	%xmm9, %xmm4
	pmulhw	%xmm1, %xmm9
	punpcklwd	%xmm0, %xmm3
	movdqa	%xmm4, %xmm0
	punpckhwd	%xmm9, %xmm4
	punpcklwd	%xmm9, %xmm0
	paddd	%xmm8, %xmm4
	paddd	%xmm2, %xmm4
	psrad	$2, %xmm4
	pand	%xmm6, %xmm3
	paddd	%xmm10, %xmm0
	paddd	%xmm2, %xmm0
	psrad	$2, %xmm0
	movdqa	%xmm0, %xmm8
	punpcklwd	%xmm4, %xmm0
	punpckhwd	%xmm4, %xmm8
	movdqa	%xmm0, %xmm4
	punpcklwd	%xmm8, %xmm0
	punpckhwd	%xmm8, %xmm4
	punpcklwd	%xmm4, %xmm0
	pand	%xmm6, %xmm0
	packuswb	%xmm0, %xmm3
	movups	%xmm3, (%rcx,%rbx)
	addq	$16, %rbx
	cmpl	%ebp, %r13d
	jb	.L90
	addl	%r12d, %esi
	cmpl	%r12d, %edi
	je	.L111
.L83:
	movslq	%esi, %rcx
	movzbl	(%rdx,%rcx), %r10d
	leal	(%r10,%r10,2), %r11d
	movzbl	(%r8,%rcx), %r10d
	leal	2(%r11,%r10), %r10d
	sarl	$2, %r10d
	movb	%r10b, (%rax,%rcx)
	leal	1(%rsi), %ecx
	cmpl	%ecx, %r9d
	jle	.L111
	movslq	%ecx, %rcx
	movzbl	(%rdx,%rcx), %r10d
	leal	(%r10,%r10,2), %r11d
	movzbl	(%r8,%rcx), %r10d
	leal	2(%r11,%r10), %r10d
	sarl	$2, %r10d
	movb	%r10b, (%rax,%rcx)
	leal	2(%rsi), %ecx
	cmpl	%ecx, %r9d
	jle	.L111
	movslq	%ecx, %rcx
	movzbl	(%rdx,%rcx), %r10d
	leal	(%r10,%r10,2), %r11d
	movzbl	(%r8,%rcx), %r10d
	leal	2(%r11,%r10), %r10d
	sarl	$2, %r10d
	movb	%r10b, (%rax,%rcx)
	leal	3(%rsi), %ecx
	cmpl	%ecx, %r9d
	jle	.L111
	movslq	%ecx, %rcx
	movzbl	(%rdx,%rcx), %r10d
	leal	(%r10,%r10,2), %r11d
	movzbl	(%r8,%rcx), %r10d
	leal	2(%r11,%r10), %r10d
	sarl	$2, %r10d
	movb	%r10b, (%rax,%rcx)
	leal	4(%rsi), %ecx
	cmpl	%ecx, %r9d
	jle	.L111
	movslq	%ecx, %rcx
	movzbl	(%rdx,%rcx), %r10d
	leal	(%r10,%r10,2), %r11d
	movzbl	(%r8,%rcx), %r10d
	leal	2(%r11,%r10), %r10d
	sarl	$2, %r10d
	movb	%r10b, (%rax,%rcx)
	leal	5(%rsi), %ecx
	cmpl	%ecx, %r9d
	jle	.L111
	movslq	%ecx, %rcx
	movzbl	(%rdx,%rcx), %r10d
	leal	(%r10,%r10,2), %r11d
	movzbl	(%r8,%rcx), %r10d
	leal	2(%r11,%r10), %r10d
	sarl	$2, %r10d
	movb	%r10b, (%rax,%rcx)
	leal	6(%rsi), %ecx
	cmpl	%ecx, %r9d
	jle	.L111
	movslq	%ecx, %rcx
	movzbl	(%rdx,%rcx), %r10d
	leal	(%r10,%r10,2), %r11d
	movzbl	(%r8,%rcx), %r10d
	leal	2(%r11,%r10), %r10d
	sarl	$2, %r10d
	movb	%r10b, (%rax,%rcx)
	leal	7(%rsi), %ecx
	cmpl	%ecx, %r9d
	jle	.L111
	movslq	%ecx, %rcx
	movzbl	(%rdx,%rcx), %r10d
	leal	(%r10,%r10,2), %r11d
	movzbl	(%r8,%rcx), %r10d
	leal	2(%r11,%r10), %r10d
	sarl	$2, %r10d
	movb	%r10b, (%rax,%rcx)
	leal	8(%rsi), %ecx
	cmpl	%ecx, %r9d
	jle	.L111
	movslq	%ecx, %rcx
	movzbl	(%rdx,%rcx), %r10d
	leal	(%r10,%r10,2), %r11d
	movzbl	(%r8,%rcx), %r10d
	leal	2(%r11,%r10), %r10d
	sarl	$2, %r10d
	movb	%r10b, (%rax,%rcx)
	leal	9(%rsi), %ecx
	cmpl	%ecx, %r9d
	jle	.L111
	movslq	%ecx, %rcx
	movzbl	(%rdx,%rcx), %r10d
	leal	(%r10,%r10,2), %r11d
	movzbl	(%r8,%rcx), %r10d
	leal	2(%r11,%r10), %r10d
	sarl	$2, %r10d
	movb	%r10b, (%rax,%rcx)
	leal	10(%rsi), %ecx
	cmpl	%ecx, %r9d
	jle	.L111
	movslq	%ecx, %rcx
	movzbl	(%rdx,%rcx), %r10d
	leal	(%r10,%r10,2), %r11d
	movzbl	(%r8,%rcx), %r10d
	leal	2(%r11,%r10), %r10d
	sarl	$2, %r10d
	movb	%r10b, (%rax,%rcx)
	leal	11(%rsi), %ecx
	cmpl	%ecx, %r9d
	jle	.L111
	movslq	%ecx, %rcx
	movzbl	(%rdx,%rcx), %r10d
	leal	(%r10,%r10,2), %r11d
	movzbl	(%r8,%rcx), %r10d
	leal	2(%r11,%r10), %r10d
	sarl	$2, %r10d
	movb	%r10b, (%rax,%rcx)
	leal	12(%rsi), %ecx
	cmpl	%ecx, %r9d
	jle	.L111
	movslq	%ecx, %rcx
	movzbl	(%rdx,%rcx), %r10d
	leal	(%r10,%r10,2), %r11d
	movzbl	(%r8,%rcx), %r10d
	leal	2(%r11,%r10), %r10d
	sarl	$2, %r10d
	movb	%r10b, (%rax,%rcx)
	leal	13(%rsi), %ecx
	cmpl	%ecx, %r9d
	jle	.L111
	movslq	%ecx, %rcx
	addl	$14, %esi
	movzbl	(%rdx,%rcx), %r10d
	leal	(%r10,%r10,2), %r11d
	movzbl	(%r8,%rcx), %r10d
	leal	2(%r11,%r10), %r10d
	sarl	$2, %r10d
	cmpl	%esi, %r9d
	movb	%r10b, (%rax,%rcx)
	jle	.L111
	movslq	%esi, %rsi
	movzbl	(%rdx,%rsi), %edx
	leal	(%rdx,%rdx,2), %ecx
	movzbl	(%r8,%rsi), %edx
	leal	2(%rcx,%rdx), %edx
	sarl	$2, %edx
	movb	%dl, (%rax,%rsi)
.L111:
	movaps	(%rsp), %xmm6
	movaps	16(%rsp), %xmm7
	movaps	32(%rsp), %xmm8
	movaps	48(%rsp), %xmm9
	movaps	64(%rsp), %xmm10
	movaps	80(%rsp), %xmm11
	addq	$104, %rsp
	popq	%rbx
	popq	%rsi
	popq	%rdi
	popq	%rbp
	popq	%r12
	popq	%r13
	ret
	.p2align 4,,7
.L80:
	xorl	%ecx, %ecx
	.p2align 4,,7
.L92:
	movzbl	(%rdx,%rcx), %r10d
	leal	(%r10,%r10,2), %r11d
	movzbl	(%r8,%rcx), %r10d
	leal	2(%r11,%r10), %r10d
	sarl	$2, %r10d
	movb	%r10b, (%rax,%rcx)
	incq	%rcx
	cmpl	%ecx, %r9d
	jg	.L92
	jmp	.L111
	.p2align 4,,7
.L107:
	movl	$14, %esi
	jmp	.L81
	.p2align 4,,7
.L94:
	movl	$1, %esi
	jmp	.L81
	.p2align 4,,7
.L95:
	movl	$2, %esi
	jmp	.L81
	.p2align 4,,7
.L96:
	movl	$3, %esi
	jmp	.L81
	.p2align 4,,7
.L97:
	movl	$4, %esi
	jmp	.L81
	.p2align 4,,7
.L98:
	movl	$5, %esi
	jmp	.L81
	.p2align 4,,7
.L99:
	movl	$6, %esi
	jmp	.L81
	.p2align 4,,7
.L100:
	movl	$7, %esi
	jmp	.L81
	.p2align 4,,7
.L101:
	movl	$8, %esi
	jmp	.L81
	.p2align 4,,7
.L102:
	movl	$9, %esi
	jmp	.L81
	.p2align 4,,7
.L103:
	movl	$10, %esi
	jmp	.L81
	.p2align 4,,7
.L104:
	movl	$11, %esi
	jmp	.L81
	.p2align 4,,7
.L105:
	movl	$12, %esi
	jmp	.L81
	.p2align 4,,7
.L106:
	movl	$13, %esi
	jmp	.L81
	.p2align 4,,7
.L108:
	xorl	%r13d, %r13d
	movdqa	.LC0(%rip), %xmm1
	movdqa	.LC1(%rip), %xmm2
	movdqa	.LC2(%rip), %xmm6
	jmp	.L84
	.seh_endproc
	.p2align 4,,15
	.def	_ZL23stbi__resample_row_hv_2PhS_S_ii;	.scl	3;	.type	32;	.endef
	.seh_proc	_ZL23stbi__resample_row_hv_2PhS_S_ii
_ZL23stbi__resample_row_hv_2PhS_S_ii:
.LFB648:
	pushq	%rdi
	.seh_pushreg	%rdi
	pushq	%rsi
	.seh_pushreg	%rsi
	pushq	%rbx
	.seh_pushreg	%rbx
	.seh_endprologue
	cmpl	$1, %r9d
	movq	%rcx, %rax
	je	.L125
	movzbl	(%rdx), %ecx
	leal	(%rcx,%rcx,2), %ebx
	movzbl	(%r8), %ecx
	addl	%ecx, %ebx
	leal	2(%rbx), %ecx
	sarl	$2, %ecx
	cmpl	$1, %r9d
	movl	%ecx, %r10d
	movb	%cl, (%rax)
	jle	.L122
	leal	-2(%r9), %edi
	xorl	%r10d, %r10d
	incq	%rdi
	.p2align 4,,7
.L123:
	movzbl	1(%rdx,%r10), %r11d
	leal	(%r11,%r11,2), %ecx
	movzbl	1(%r8,%r10), %r11d
	addl	%ecx, %r11d
	leal	(%rbx,%rbx,2), %ecx
	leal	8(%r11,%rcx), %esi
	leal	(%r11,%r11,2), %ecx
	leal	8(%rbx,%rcx), %ebx
	sarl	$4, %esi
	movb	%sil, 1(%rax,%r10,2)
	sarl	$4, %ebx
	movb	%bl, 2(%rax,%r10,2)
	incq	%r10
	movl	%r11d, %ebx
	cmpq	%r10, %rdi
	jne	.L123
	leal	2(%r11), %r10d
	shrl	$2, %r10d
.L122:
	addl	%r9d, %r9d
	movslq	%r9d, %r9
	movb	%r10b, -1(%rax,%r9)
	popq	%rbx
	popq	%rsi
	popq	%rdi
	ret
	.p2align 4,,7
.L125:
	movzbl	(%rdx), %edx
	leal	(%rdx,%rdx,2), %ecx
	movzbl	(%r8), %edx
	leal	2(%rcx,%rdx), %edx
	sarl	$2, %edx
	movb	%dl, 1(%rax)
	movb	%dl, (%rax)
	popq	%rbx
	popq	%rsi
	popq	%rdi
	ret
	.seh_endproc
	.p2align 4,,15
	.def	_ZL26stbi__resample_row_genericPhS_S_ii;	.scl	3;	.type	32;	.endef
	.seh_proc	_ZL26stbi__resample_row_genericPhS_S_ii
_ZL26stbi__resample_row_genericPhS_S_ii:
.LFB650:
	pushq	%r15
	.seh_pushreg	%r15
	pushq	%r14
	.seh_pushreg	%r14
	pushq	%r13
	.seh_pushreg	%r13
	pushq	%r12
	.seh_pushreg	%r12
	pushq	%rbp
	.seh_pushreg	%rbp
	pushq	%rdi
	.seh_pushreg	%rdi
	pushq	%rsi
	.seh_pushreg	%rsi
	pushq	%rbx
	.seh_pushreg	%rbx
	subq	$56, %rsp
	.seh_stackalloc	56
	.seh_endprologue
	movl	160(%rsp), %r10d
	testl	%r9d, %r9d
	movq	%rcx, %rax
	jle	.L162
	movslq	%r10d, %rsi
	movl	%ecx, %r12d
	leal	-1(%r9), %ecx
	movq	%rsi, 24(%rsp)
	negl	%esi
	leal	-1(%r10), %ebx
	movl	%esi, 20(%rsp)
	leaq	1(%rdx,%rcx), %rsi
	negl	%r12d
	movq	%rax, %r8
	xorl	%edi, %edi
	movl	%ebx, 44(%rsp)
	movq	%rsi, 8(%rsp)
	movl	%r10d, %esi
	.p2align 4,,7
.L130:
	testl	%r10d, %r10d
	jle	.L171
	leaq	(%rsi,%r8), %rcx
	movq	%r8, %r11
	leaq	1(%rdx), %rbp
	subq	%rax, %r11
	cmpq	%rcx, %rdx
	movq	%r11, (%rsp)
	setnb	%r9b
	cmpq	%rbp, %r8
	setnb	%cl
	orb	%cl, %r9b
	je	.L131
	cmpl	$20, %r10d
	jbe	.L131
	movl	%r12d, %ecx
	andl	$15, %ecx
	cmpl	%r10d, %ecx
	cmova	%r10d, %ecx
	xorl	%r9d, %r9d
	testl	%ecx, %ecx
	je	.L132
	movzbl	(%rdx), %r9d
	cmpl	$1, %ecx
	movb	%r9b, (%r8)
	je	.L145
	movzbl	(%rdx), %r9d
	cmpl	$2, %ecx
	movb	%r9b, 1(%r8)
	je	.L146
	movzbl	(%rdx), %r9d
	cmpl	$3, %ecx
	movb	%r9b, 2(%r8)
	je	.L147
	movzbl	(%rdx), %r9d
	cmpl	$4, %ecx
	movb	%r9b, 3(%r8)
	je	.L148
	movzbl	(%rdx), %r9d
	cmpl	$5, %ecx
	movb	%r9b, 4(%r8)
	je	.L149
	movzbl	(%rdx), %r9d
	cmpl	$6, %ecx
	movb	%r9b, 5(%r8)
	je	.L150
	movzbl	(%rdx), %r9d
	cmpl	$7, %ecx
	movb	%r9b, 6(%r8)
	je	.L151
	movzbl	(%rdx), %r9d
	cmpl	$8, %ecx
	movb	%r9b, 7(%r8)
	je	.L152
	movzbl	(%rdx), %r9d
	cmpl	$9, %ecx
	movb	%r9b, 8(%r8)
	je	.L153
	movzbl	(%rdx), %r9d
	cmpl	$10, %ecx
	movb	%r9b, 9(%r8)
	je	.L154
	movzbl	(%rdx), %r9d
	cmpl	$11, %ecx
	movb	%r9b, 10(%r8)
	je	.L155
	movzbl	(%rdx), %r9d
	cmpl	$12, %ecx
	movb	%r9b, 11(%r8)
	je	.L156
	movzbl	(%rdx), %r9d
	cmpl	$13, %ecx
	movb	%r9b, 12(%r8)
	je	.L157
	movzbl	(%rdx), %r9d
	cmpl	$14, %ecx
	movb	%r9b, 13(%r8)
	je	.L158
	movzbl	(%rdx), %r9d
	movb	%r9b, 14(%r8)
	movl	$15, %r9d
.L132:
	movl	%r10d, %r13d
	movl	%ecx, %ebx
	movl	44(%rsp), %r11d
	subl	%ecx, %r13d
	movq	%rbx, 32(%rsp)
	leal	-16(%r13), %ebx
	subl	%ecx, %r11d
	shrl	$4, %ebx
	leal	1(%rbx), %r14d
	movl	%r14d, %r15d
	sall	$4, %r15d
	cmpl	$14, %r11d
	jbe	.L134
	movzbl	(%rdx), %ecx
	movq	(%rsp), %r11
	subl	$4, %ebx
	addq	32(%rsp), %r11
	movl	%ecx, 40(%rsp)
	movd	40(%rsp), %xmm0
	addq	%rax, %r11
	cmpl	$-6, %ebx
	punpcklbw	%xmm0, %xmm0
	punpcklwd	%xmm0, %xmm0
	pshufd	$0, %xmm0, %xmm0
	ja	.L159
	shrl	$2, %ebx
	xorl	%ecx, %ecx
	leal	4(,%rbx,4), %ebx
.L136:
	addl	$4, %ecx
	prefetcht0	640(%r11)
	addq	$64, %r11
	movaps	%xmm0, -64(%r11)
	movaps	%xmm0, -48(%r11)
	movaps	%xmm0, -32(%r11)
	movaps	%xmm0, -16(%r11)
	cmpl	%ebx, %ecx
	jne	.L136
.L141:
	incl	%ebx
	addq	$16, %r11
	movaps	%xmm0, -16(%r11)
	cmpl	%r14d, %ebx
	jb	.L141
	addl	%r15d, %r9d
	cmpl	%r15d, %r13d
	je	.L139
	.p2align 4,,7
.L134:
	movzbl	(%rdx), %r11d
	leal	(%rdi,%r9), %ecx
	movslq	%ecx, %rcx
	movb	%r11b, (%rax,%rcx)
	leal	1(%r9), %ecx
	cmpl	%ecx, %r10d
	jle	.L139
	movzbl	(%rdx), %r11d
	addl	%edi, %ecx
	movslq	%ecx, %rcx
	movb	%r11b, (%rax,%rcx)
	leal	2(%r9), %ecx
	cmpl	%ecx, %r10d
	jle	.L139
	movzbl	(%rdx), %r11d
	addl	%edi, %ecx
	movslq	%ecx, %rcx
	movb	%r11b, (%rax,%rcx)
	leal	3(%r9), %ecx
	cmpl	%ecx, %r10d
	jle	.L139
	movzbl	(%rdx), %r11d
	addl	%edi, %ecx
	movslq	%ecx, %rcx
	movb	%r11b, (%rax,%rcx)
	leal	4(%r9), %ecx
	cmpl	%ecx, %r10d
	jle	.L139
	movzbl	(%rdx), %r11d
	addl	%edi, %ecx
	movslq	%ecx, %rcx
	movb	%r11b, (%rax,%rcx)
	leal	5(%r9), %ecx
	cmpl	%ecx, %r10d
	jle	.L139
	movzbl	(%rdx), %r11d
	addl	%edi, %ecx
	movslq	%ecx, %rcx
	movb	%r11b, (%rax,%rcx)
	leal	6(%r9), %ecx
	cmpl	%ecx, %r10d
	jle	.L139
	movzbl	(%rdx), %r11d
	addl	%edi, %ecx
	movslq	%ecx, %rcx
	movb	%r11b, (%rax,%rcx)
	leal	7(%r9), %ecx
	cmpl	%ecx, %r10d
	jle	.L139
	movzbl	(%rdx), %r11d
	addl	%edi, %ecx
	movslq	%ecx, %rcx
	movb	%r11b, (%rax,%rcx)
	leal	8(%r9), %ecx
	cmpl	%ecx, %r10d
	jle	.L139
	movzbl	(%rdx), %r11d
	addl	%edi, %ecx
	movslq	%ecx, %rcx
	movb	%r11b, (%rax,%rcx)
	leal	9(%r9), %ecx
	cmpl	%ecx, %r10d
	jle	.L139
	movzbl	(%rdx), %r11d
	addl	%edi, %ecx
	movslq	%ecx, %rcx
	movb	%r11b, (%rax,%rcx)
	leal	10(%r9), %ecx
	cmpl	%ecx, %r10d
	jle	.L139
	movzbl	(%rdx), %r11d
	addl	%edi, %ecx
	movslq	%ecx, %rcx
	movb	%r11b, (%rax,%rcx)
	leal	11(%r9), %ecx
	cmpl	%ecx, %r10d
	jle	.L139
	movzbl	(%rdx), %r11d
	addl	%edi, %ecx
	movslq	%ecx, %rcx
	movb	%r11b, (%rax,%rcx)
	leal	12(%r9), %ecx
	cmpl	%ecx, %r10d
	jle	.L139
	movzbl	(%rdx), %r11d
	addl	%edi, %ecx
	movslq	%ecx, %rcx
	movb	%r11b, (%rax,%rcx)
	leal	13(%r9), %ecx
	cmpl	%ecx, %r10d
	jle	.L139
	movzbl	(%rdx), %r11d
	addl	%edi, %ecx
	addl	$14, %r9d
	movslq	%ecx, %rcx
	cmpl	%r9d, %r10d
	movb	%r11b, (%rax,%rcx)
	jle	.L139
	movzbl	(%rdx), %edx
	addl	%edi, %r9d
	movslq	%r9d, %r9
	movb	%dl, (%rax,%r9)
.L139:
	addq	24(%rsp), %r8
	addl	20(%rsp), %r12d
	addl	%r10d, %edi
	cmpq	8(%rsp), %rbp
	movq	%rbp, %rdx
	jne	.L130
.L162:
	addq	$56, %rsp
	popq	%rbx
	popq	%rsi
	popq	%rdi
	popq	%rbp
	popq	%r12
	popq	%r13
	popq	%r14
	popq	%r15
	ret
	.p2align 4,,7
.L131:
	xorl	%ecx, %ecx
	.p2align 4,,7
.L143:
	movzbl	(%rdx), %r9d
	movb	%r9b, (%r8,%rcx)
	incq	%rcx
	cmpl	%ecx, %r10d
	jg	.L143
	jmp	.L139
	.p2align 4,,7
.L171:
	leaq	1(%rdx), %rbp
	jmp	.L139
	.p2align 4,,7
.L158:
	movl	$14, %r9d
	jmp	.L132
	.p2align 4,,7
.L157:
	movl	$13, %r9d
	jmp	.L132
	.p2align 4,,7
.L156:
	movl	$12, %r9d
	jmp	.L132
	.p2align 4,,7
.L155:
	movl	$11, %r9d
	jmp	.L132
	.p2align 4,,7
.L154:
	movl	$10, %r9d
	jmp	.L132
	.p2align 4,,7
.L153:
	movl	$9, %r9d
	jmp	.L132
	.p2align 4,,7
.L152:
	movl	$8, %r9d
	jmp	.L132
	.p2align 4,,7
.L151:
	movl	$7, %r9d
	jmp	.L132
	.p2align 4,,7
.L150:
	movl	$6, %r9d
	jmp	.L132
	.p2align 4,,7
.L149:
	movl	$5, %r9d
	jmp	.L132
	.p2align 4,,7
.L148:
	movl	$4, %r9d
	jmp	.L132
	.p2align 4,,7
.L147:
	movl	$3, %r9d
	jmp	.L132
	.p2align 4,,7
.L146:
	movl	$2, %r9d
	jmp	.L132
	.p2align 4,,7
.L145:
	movl	$1, %r9d
	jmp	.L132
	.p2align 4,,7
.L159:
	xorl	%ebx, %ebx
	jmp	.L141
	.seh_endproc
	.p2align 4,,15
	.def	_ZL22stbi__YCbCr_to_RGB_rowPhPKhS1_S1_ii;	.scl	3;	.type	32;	.endef
	.seh_proc	_ZL22stbi__YCbCr_to_RGB_rowPhPKhS1_S1_ii
_ZL22stbi__YCbCr_to_RGB_rowPhPKhS1_S1_ii:
.LFB651:
	pushq	%r12
	.seh_pushreg	%r12
	pushq	%rbp
	.seh_pushreg	%rbp
	pushq	%rdi
	.seh_pushreg	%rdi
	pushq	%rsi
	.seh_pushreg	%rsi
	pushq	%rbx
	.seh_pushreg	%rbx
	.seh_endprologue
	movl	80(%rsp), %ebx
	xorl	%r11d, %r11d
	movslq	88(%rsp), %rsi
	testl	%ebx, %ebx
	jle	.L172
	.p2align 4,,7
.L182:
	movzbl	(%r9,%r11), %r10d
	movzbl	(%rdx,%r11), %eax
	movzbl	(%r8,%r11), %r12d
	addl	$-128, %r10d
	sall	$20, %eax
	imull	$1470208, %r10d, %edi
	addl	$524288, %eax
	addl	$-128, %r12d
	imull	$-748800, %r10d, %r10d
	addl	%eax, %edi
	leal	(%r10,%rax), %ebp
	sarl	$20, %edi
	imull	$-360960, %r12d, %r10d
	imull	$1858048, %r12d, %r12d
	xorw	%r10w, %r10w
	addl	%ebp, %r10d
	addl	%r12d, %eax
	sarl	$20, %r10d
	sarl	$20, %eax
	cmpl	$255, %edi
	jbe	.L175
	notl	%edi
	sarl	$31, %edi
.L175:
	cmpl	$255, %r10d
	jbe	.L177
	notl	%r10d
	sarl	$31, %r10d
.L177:
	cmpl	$255, %eax
	jbe	.L179
	notl	%eax
	sarl	$31, %eax
.L179:
	incq	%r11
	movb	%dil, (%rcx)
	movb	%r10b, 1(%rcx)
	movb	%al, 2(%rcx)
	movb	$-1, 3(%rcx)
	addq	%rsi, %rcx
	cmpl	%r11d, %ebx
	jg	.L182
.L172:
	popq	%rbx
	popq	%rsi
	popq	%rdi
	popq	%rbp
	popq	%r12
	ret
	.seh_endproc
	.p2align 4,,15
	.def	_ZL14stbi__high_bitj;	.scl	3;	.type	32;	.endef
	.seh_proc	_ZL14stbi__high_bitj
_ZL14stbi__high_bitj:
.LFB701:
	.seh_endprologue
	testl	%ecx, %ecx
	je	.L189
	cmpl	$65535, %ecx
	ja	.L192
	movl	$8, %eax
	xorl	%edx, %edx
.L185:
	cmpl	$255, %ecx
	jbe	.L186
	shrl	$8, %ecx
	movl	%eax, %edx
.L186:
	cmpl	$15, %ecx
	jbe	.L187
	addl	$4, %edx
	shrl	$4, %ecx
.L187:
	cmpl	$3, %ecx
	jbe	.L188
	addl	$2, %edx
	shrl	$2, %ecx
.L188:
	xorl	%eax, %eax
	decl	%ecx
	setne	%al
	addl	%edx, %eax
	ret
	.p2align 4,,7
.L192:
	shrl	$16, %ecx
	movl	$24, %eax
	movl	$16, %edx
	jmp	.L185
	.p2align 4,,7
.L189:
	movl	$-1, %eax
	ret
	.seh_endproc
	.p2align 4,,15
	.def	_ZL18stbi__out_gif_codeP9stbi__gift;	.scl	3;	.type	32;	.endef
	.seh_proc	_ZL18stbi__out_gif_codeP9stbi__gift
_ZL18stbi__out_gif_codeP9stbi__gift:
.LFB726:
	pushq	%rsi
	.seh_pushreg	%rsi
	pushq	%rbx
	.seh_pushreg	%rbx
	subq	$40, %rsp
	.seh_stackalloc	40
	.seh_endprologue
	movzwl	%dx, %edx
	movq	%rcx, %rbx
	leaq	(%rcx,%rdx,4), %rsi
	movswl	2096(%rsi), %edx
	testw	%dx, %dx
	js	.L194
	call	_ZL18stbi__out_gif_codeP9stbi__gift
.L194:
	movl	18520(%rbx), %ecx
	cmpl	18512(%rbx), %ecx
	jge	.L193
	movzbl	2099(%rsi), %eax
	movl	18516(%rbx), %edx
	sall	$2, %eax
	cltq
	addq	18480(%rbx), %rax
	cmpb	$0, 3(%rax)
	js	.L201
.L196:
	leal	4(%rdx), %eax
	cmpl	18508(%rbx), %eax
	movl	%eax, 18516(%rbx)
	jl	.L193
	movl	18500(%rbx), %eax
	movl	18512(%rbx), %r8d
	movl	%eax, 18516(%rbx)
	movl	18492(%rbx), %eax
	addl	18520(%rbx), %eax
	cmpl	%r8d, %eax
	movl	%eax, 18520(%rbx)
	jl	.L193
	movl	18488(%rbx), %ecx
	testl	%ecx, %ecx
	jle	.L193
	movl	18524(%rbx), %r10d
	movl	18504(%rbx), %r9d
	jmp	.L198
	.p2align 4,,7
.L199:
	testl	%ecx, %ecx
	je	.L202
.L198:
	movl	%r10d, %edx
	sall	%cl, %edx
	decl	%ecx
	movl	%edx, %eax
	sarl	%eax
	addl	%r9d, %eax
	cmpl	%r8d, %eax
	jge	.L199
	movl	%edx, 18492(%rbx)
	movl	%eax, 18520(%rbx)
	movl	%ecx, 18488(%rbx)
.L193:
	addq	$40, %rsp
	popq	%rbx
	popq	%rsi
	ret
	.p2align 4,,7
.L201:
	addl	%ecx, %edx
	movzbl	2(%rax), %ecx
	movslq	%edx, %rdx
	addq	8(%rbx), %rdx
	movb	%cl, (%rdx)
	movzbl	1(%rax), %ecx
	movb	%cl, 1(%rdx)
	movzbl	(%rax), %ecx
	movb	%cl, 2(%rdx)
	movzbl	3(%rax), %eax
	movb	%al, 3(%rdx)
	movl	18516(%rbx), %edx
	jmp	.L196
	.p2align 4,,7
.L202:
	movl	%edx, 18492(%rbx)
	movl	%eax, 18520(%rbx)
	movl	$0, 18488(%rbx)
	addq	$40, %rsp
	popq	%rbx
	popq	%rsi
	ret
	.seh_endproc
	.p2align 4,,15
	.def	_ZL16stbi__stdio_skipPvi;	.scl	3;	.type	32;	.endef
	.seh_proc	_ZL16stbi__stdio_skipPvi
_ZL16stbi__stdio_skipPvi:
.LFB563:
	.seh_endprologue
	movl	$1, %r8d
	jmp	fseek
	.seh_endproc
	.p2align 4,,15
	.def	_ZL15stbi__stdio_eofPv;	.scl	3;	.type	32;	.endef
	.seh_proc	_ZL15stbi__stdio_eofPv
_ZL15stbi__stdio_eofPv:
.LFB564:
	.seh_endprologue
	jmp	feof
	.seh_endproc
	.p2align 4,,15
	.def	_ZL16stbi__stdio_readPvPci;	.scl	3;	.type	32;	.endef
	.seh_proc	_ZL16stbi__stdio_readPvPci
_ZL16stbi__stdio_readPvPci:
.LFB562:
	subq	$40, %rsp
	.seh_stackalloc	40
	.seh_endprologue
	movq	%rcx, %r9
	movslq	%r8d, %r8
	movq	%rdx, %rcx
	movl	$1, %edx
	call	fread
	addq	$40, %rsp
	ret
	.seh_endproc
	.section .rdata,"dr"
	.align 8
.LC3:
	.ascii "C:/libraries/include/stb/stb_image.h\0"
	.align 8
.LC4:
	.ascii "z->code_buffer < (1U << z->num_bits)\0"
	.text
	.p2align 4,,15
	.def	_ZL15stbi__fill_bitsP10stbi__zbuf;	.scl	3;	.type	32;	.endef
	.seh_proc	_ZL15stbi__fill_bitsP10stbi__zbuf
_ZL15stbi__fill_bitsP10stbi__zbuf:
.LFB665:
	pushq	%rbx
	.seh_pushreg	%rbx
	subq	$32, %rsp
	.seh_stackalloc	32
	.seh_endprologue
	movl	20(%rcx), %eax
	movq	%rcx, %rbx
	movl	16(%rcx), %ecx
	jmp	.L209
	.p2align 4,,7
.L207:
	movq	(%rbx), %r8
	xorl	%edx, %edx
	cmpq	%r8, 8(%rbx)
	jbe	.L208
	leaq	1(%r8), %rdx
	movq	%rdx, (%rbx)
	movzbl	(%r8), %edx
	sall	%cl, %edx
.L208:
	addl	$8, %ecx
	orl	%edx, %eax
	cmpl	$24, %ecx
	movl	%eax, 20(%rbx)
	movl	%ecx, 16(%rbx)
	jg	.L215
.L209:
	movl	%eax, %edx
	shrl	%cl, %edx
	testl	%edx, %edx
	je	.L207
	leaq	.LC4(%rip), %rcx
	leaq	.LC3(%rip), %rdx
	movl	$3848, %r8d
	call	_assert
	movl	16(%rbx), %ecx
	movl	20(%rbx), %eax
	jmp	.L207
	.p2align 4,,7
.L215:
	addq	$32, %rsp
	popq	%rbx
	ret
	.seh_endproc
	.section .rdata,"dr"
.LC5:
	.ascii "bad code lengths\0"
	.text
	.p2align 4,,15
	.def	_ZL19stbi__build_huffmanP13stbi__huffmanPi;	.scl	3;	.type	32;	.endef
	.seh_proc	_ZL19stbi__build_huffmanP13stbi__huffmanPi
_ZL19stbi__build_huffmanP13stbi__huffmanPi:
.LFB621:
	pushq	%rbp
	.seh_pushreg	%rbp
	pushq	%rdi
	.seh_pushreg	%rdi
	pushq	%rsi
	.seh_pushreg	%rsi
	pushq	%rbx
	.seh_pushreg	%rbx
	.seh_endprologue
	xorl	%r10d, %r10d
	movl	$1, %ebx
	movq	%rdx, %r9
	movq	%rcx, %r8
	movl	(%r9), %eax
	testl	%eax, %eax
	jle	.L233
	.p2align 4,,7
.L242:
	movl	%ebx, %r11d
	movslq	%r10d, %rax
	.p2align 4,,7
.L218:
	leal	1(%rax), %edx
	movb	%r11b, 1280(%r8,%rax)
	movslq	%edx, %rax
	movl	%eax, %ecx
	subl	%r10d, %ecx
	cmpl	%ecx, (%r9)
	jg	.L218
	incl	%ebx
	addq	$4, %r9
	cmpl	$17, %ebx
	je	.L241
.L234:
	movl	(%r9), %eax
	movl	%edx, %r10d
	testl	%eax, %eax
	jg	.L242
.L233:
	incl	%ebx
	addq	$4, %r9
	movl	%r10d, %edx
	cmpl	$17, %ebx
	jne	.L234
.L241:
	movslq	%edx, %rdx
	leaq	1616(%r8), %rsi
	xorl	%eax, %eax
	movb	$0, 1280(%r8,%rdx)
	xorl	%r11d, %r11d
	movl	$1, %ebx
	movzbl	1280(%r8), %r10d
	movl	$1, %ebp
	movl	$16, %edi
	jmp	.L223
.L220:
	movl	%edi, %ecx
	movl	%eax, %edx
	addq	$4, %rsi
	subl	%ebx, %ecx
	incl	%ebx
	addl	%eax, %eax
	sall	%cl, %edx
	movl	%edx, -76(%rsi)
	cmpl	$17, %ebx
	je	.L243
.L223:
	movl	%r11d, %edx
	subl	%eax, %edx
	cmpl	%r10d, %ebx
	movl	%edx, (%rsi)
	jne	.L220
	movl	%eax, %r9d
	movslq	%r11d, %rdx
	.p2align 4,,7
.L221:
	incl	%r11d
	movw	%r9w, 512(%r8,%rdx,2)
	leal	1(%r9), %eax
	movslq	%r11d, %rcx
	movslq	%r11d, %rdx
	movzbl	1280(%r8,%rcx), %r10d
	movl	%eax, %r9d
	cmpl	%r10d, %ebx
	je	.L221
	movl	%ebp, %edx
	movl	%ebx, %ecx
	sall	%cl, %edx
	cmpl	%edx, %eax
	jle	.L220
	leaq	.LC5(%rip), %rax
	movq	%rax, _ZL22stbi__g_failure_reason(%rip)
	xorl	%eax, %eax
	popq	%rbx
	popq	%rsi
	popq	%rdi
	popq	%rbp
	ret
	.p2align 4,,7
.L243:
	leaq	8(%r8), %rdi
	movq	%r8, %rcx
	movq	$-1, %rax
	movl	$-1, 1608(%r8)
	movq	%rax, (%r8)
	andq	$-8, %rdi
	movq	%rax, 504(%r8)
	subq	%rdi, %rcx
	addl	$512, %ecx
	shrl	$3, %ecx
	testl	%r11d, %r11d
	rep stosq
	je	.L226
	leal	-1(%r11), %r10d
	xorl	%r9d, %r9d
	movl	$9, %esi
	movl	$1, %ebx
	movabsq	$72340172838076673, %r11
	incq	%r10
	jmp	.L227
	.p2align 4,,7
.L246:
	testb	$4, %bpl
	jne	.L244
	testl	%ebp, %ebp
	je	.L232
	testb	$2, %bpl
	movb	%al, (%rdx)
	jne	.L245
	.p2align 4,,7
.L232:
	incq	%r9
	cmpq	%r9, %r10
	je	.L226
.L227:
	movzbl	1280(%r8,%r9), %eax
	cmpl	$9, %eax
	jg	.L232
	movl	%esi, %ecx
	subl	%eax, %ecx
	movl	%ebx, %eax
	sall	%cl, %eax
	leal	-1(%rax), %ebp
	movzwl	512(%r8,%r9,2), %eax
	incq	%rbp
	sall	%cl, %eax
	movslq	%eax, %rdx
	movzbl	%r9b, %eax
	addq	%r8, %rdx
	imulq	%r11, %rax
	cmpl	$8, %ebp
	jb	.L246
	leaq	8(%rdx), %rdi
	movl	%ebp, %ecx
	movq	%rax, (%rdx)
	movq	%rax, -8(%rdx,%rcx)
	incq	%r9
	andq	$-8, %rdi
	subq	%rdi, %rdx
	leal	0(%rbp,%rdx), %ecx
	shrl	$3, %ecx
	cmpq	%r9, %r10
	rep stosq
	jne	.L227
.L226:
	movl	$1, %eax
	popq	%rbx
	popq	%rsi
	popq	%rdi
	popq	%rbp
	ret
.L244:
	movl	%ebp, %ecx
	movl	%eax, (%rdx)
	movl	%eax, -4(%rdx,%rcx)
	jmp	.L232
.L245:
	movl	%ebp, %ecx
	movw	%ax, -2(%rdx,%rcx)
	jmp	.L232
	.seh_endproc
	.p2align 4,,15
	.def	_ZL17stbi__malloc_mad2iii;	.scl	3;	.type	32;	.endef
	.seh_proc	_ZL17stbi__malloc_mad2iii
_ZL17stbi__malloc_mad2iii:
.LFB575:
	.seh_endprologue
	movl	%ecx, %eax
	movl	%edx, %r9d
	shrl	$31, %eax
	jne	.L248
	movl	%edx, %eax
	shrl	$31, %eax
	jne	.L248
	testl	%edx, %edx
	jne	.L257
.L249:
	testl	%r8d, %r8d
	js	.L248
	imull	%ecx, %r9d
	movl	$2147483647, %eax
	subl	%r8d, %eax
	cmpl	%eax, %r9d
	jg	.L248
	leal	(%r8,%r9), %ecx
	movslq	%ecx, %rcx
	jmp	malloc
	.p2align 4,,7
.L257:
	movl	$2147483647, %eax
	cltd
	idivl	%r9d
	cmpl	%eax, %ecx
	jle	.L249
.L248:
	xorl	%eax, %eax
	ret
	.seh_endproc
	.section .rdata,"dr"
	.align 8
.LC6:
	.ascii "req_comp >= 1 && req_comp <= 4\0"
.LC7:
	.ascii "outofmem\0"
.LC8:
	.ascii "0\0"
	.text
	.p2align 4,,15
	.def	_ZL22stbi__convert_format16Ptiijj;	.scl	3;	.type	32;	.endef
	.seh_proc	_ZL22stbi__convert_format16Ptiijj
_ZL22stbi__convert_format16Ptiijj:
.LFB618:
	pushq	%r15
	.seh_pushreg	%r15
	pushq	%r14
	.seh_pushreg	%r14
	pushq	%r13
	.seh_pushreg	%r13
	pushq	%r12
	.seh_pushreg	%r12
	pushq	%rbp
	.seh_pushreg	%rbp
	pushq	%rdi
	.seh_pushreg	%rdi
	pushq	%rsi
	.seh_pushreg	%rsi
	pushq	%rbx
	.seh_pushreg	%rbx
	subq	$296, %rsp
	.seh_stackalloc	296
	movaps	%xmm6, 144(%rsp)
	.seh_savexmm	%xmm6, 144
	movaps	%xmm7, 160(%rsp)
	.seh_savexmm	%xmm7, 160
	movaps	%xmm8, 176(%rsp)
	.seh_savexmm	%xmm8, 176
	movaps	%xmm9, 192(%rsp)
	.seh_savexmm	%xmm9, 192
	movaps	%xmm10, 208(%rsp)
	.seh_savexmm	%xmm10, 208
	movaps	%xmm11, 224(%rsp)
	.seh_savexmm	%xmm11, 224
	movaps	%xmm12, 240(%rsp)
	.seh_savexmm	%xmm12, 240
	movaps	%xmm13, 256(%rsp)
	.seh_savexmm	%xmm13, 256
	movaps	%xmm14, 272(%rsp)
	.seh_savexmm	%xmm14, 272
	.seh_endprologue
	cmpl	%edx, %r8d
	movq	%rcx, %r15
	movl	%edx, %r12d
	movl	%r8d, %ebp
	movl	%r9d, %ebx
	je	.L334
	leal	-1(%r8), %eax
	cmpl	$3, %eax
	ja	.L525
.L260:
	movl	400(%rsp), %eax
	leal	(%rax,%rax), %ecx
	imull	%ebx, %ecx
	imull	%ebp, %ecx
	call	malloc
	testq	%rax, %rax
	movq	%rax, %r14
	je	.L261
	movl	400(%rsp), %esi
	testl	%esi, %esi
	jle	.L332
	movl	%ebp, %eax
	movl	%r12d, %r10d
	movl	$1, %r9d
	imull	%ebx, %eax
	leal	-1(%rbx), %r13d
	leal	-10(%rbp,%r12,8), %ebp
	imull	%ebx, %r10d
	pcmpeqd	%xmm6, %xmm6
	leaq	.L265(%rip), %r12
	movl	%eax, 32(%rsp)
	leal	-2(%rbx), %eax
	cmpl	$-1, %eax
	cmovge	%ebx, %r9d
	leal	-8(%r9), %edx
	movl	%r9d, 36(%rsp)
	shrl	$3, %edx
	cmpl	$-1, %eax
	leal	1(%rdx), %ebx
	leal	-4(%rdx), %edi
	setl	%cl
	cmpl	$6, %r13d
	leal	0(,%rbx,8), %esi
	movl	%ebx, 72(%rsp)
	leal	-2(%rdx), %ebx
	movl	%edi, %edx
	setbe	%r8b
	movl	%edi, 108(%rsp)
	shrl	$2, %edx
	movl	%esi, 40(%rsp)
	orl	%ecx, %r8d
	leal	4(,%rdx,4), %edi
	movl	%esi, %edx
	movb	%r8b, 77(%rsp)
	movl	%ebx, 104(%rsp)
	movl	%edi, 44(%rsp)
	movl	%r13d, %edi
	subl	%esi, %edi
	movl	%edi, 88(%rsp)
	leaq	(%rdx,%rdx), %rdi
	movq	%rdi, 80(%rsp)
	leaq	0(,%rdx,4), %rdi
	movq	%rdi, 56(%rsp)
	leaq	0(,%rdx,8), %rdi
	leal	-9(%r9), %edx
	shrl	$3, %edx
	movq	%rdi, 64(%rsp)
	cmpl	$7, %r13d
	leal	1(%rdx), %esi
	setbe	%r8b
	orl	%ecx, %r8d
	movl	%ebx, %ecx
	leal	0(,%rsi,8), %edi
	movl	%esi, 116(%rsp)
	leal	-4(%rdx), %esi
	shrl	%ecx
	movb	%r8b, 79(%rsp)
	movl	%esi, %edx
	movl	%esi, 112(%rsp)
	leal	2(%rcx,%rcx), %ebx
	shrl	$2, %edx
	movl	%edi, 92(%rsp)
	leal	4(,%rdx,4), %esi
	movl	%edi, %edx
	movl	%ebx, 52(%rsp)
	movl	%esi, 48(%rsp)
	movl	%r13d, %esi
	subl	%edi, %esi
	cmpl	$8, %eax
	leaq	0(,%rdx,4), %rdi
	setg	%cl
	incl	%eax
	movl	%esi, 124(%rsp)
	setge	%al
	leaq	(%rdx,%rdx), %rsi
	movq	%rdi, 128(%rsp)
	andl	%eax, %ecx
	leaq	0(,%rdx,8), %rax
	xorl	%edi, %edi
	movq	%rsi, 96(%rsp)
	movb	%cl, 78(%rsp)
	xorl	%esi, %esi
	movq	%rax, 136(%rsp)
	xorl	%ebx, %ebx
	.p2align 4,,7
.L333:
	movl	%esi, %eax
	movl	%edi, %edx
	cmpl	$25, %ebp
	leaq	(%r15,%rax,2), %rax
	leaq	(%r14,%rdx,2), %rdx
	ja	.L263
	movl	%ebp, %ecx
	movslq	(%r12,%rcx,4), %rcx
	addq	%r12, %rcx
	jmp	*%rcx
	.section .rdata,"dr"
	.align 4
.L265:
	.long	.L264-.L265
	.long	.L266-.L265
	.long	.L267-.L265
	.long	.L263-.L265
	.long	.L263-.L265
	.long	.L263-.L265
	.long	.L263-.L265
	.long	.L268-.L265
	.long	.L263-.L265
	.long	.L269-.L265
	.long	.L270-.L265
	.long	.L263-.L265
	.long	.L263-.L265
	.long	.L263-.L265
	.long	.L263-.L265
	.long	.L271-.L265
	.long	.L272-.L265
	.long	.L263-.L265
	.long	.L273-.L265
	.long	.L263-.L265
	.long	.L263-.L265
	.long	.L263-.L265
	.long	.L263-.L265
	.long	.L274-.L265
	.long	.L275-.L265
	.long	.L276-.L265
	.text
	.p2align 4,,7
.L276:
	testl	%r13d, %r13d
	js	.L278
	movl	%r13d, %ecx
	.p2align 4,,7
.L331:
	movzwl	(%rax), %r8d
	decl	%ecx
	addq	$8, %rax
	addq	$6, %rdx
	movw	%r8w, -6(%rdx)
	movzwl	-6(%rax), %r8d
	movw	%r8w, -4(%rdx)
	movzwl	-4(%rax), %r8d
	movw	%r8w, -2(%rdx)
	cmpl	$-1, %ecx
	jne	.L331
	.p2align 4,,7
.L278:
	incl	%ebx
	addl	%r10d, %esi
	addl	32(%rsp), %edi
	cmpl	400(%rsp), %ebx
	jne	.L333
.L332:
	movq	%r15, %rcx
	call	free
	movq	%r14, %rax
.L259:
	movaps	144(%rsp), %xmm6
	movaps	160(%rsp), %xmm7
	movaps	176(%rsp), %xmm8
	movaps	192(%rsp), %xmm9
	movaps	208(%rsp), %xmm10
	movaps	224(%rsp), %xmm11
	movaps	240(%rsp), %xmm12
	movaps	256(%rsp), %xmm13
	movaps	272(%rsp), %xmm14
	addq	$296, %rsp
	popq	%rbx
	popq	%rsi
	popq	%rdi
	popq	%rbp
	popq	%r12
	popq	%r13
	popq	%r14
	popq	%r15
	ret
	.p2align 4,,7
.L275:
	testl	%r13d, %r13d
	js	.L278
	cmpb	$0, 77(%rsp)
	jne	.L347
	cmpl	$-4, 104(%rsp)
	ja	.L348
	pxor	%xmm3, %xmm3
	xorl	%r9d, %r9d
	movq	%rdx, %r8
	movq	%rax, %rcx
.L326:
	movdqu	(%rcx), %xmm5
	prefetcht0	368(%rcx)
	prefetcht0	432(%rcx)
	prefetcht0	176(%r8)
	subq	$-128, %rcx
	addq	$64, %r8
	movdqu	-112(%rcx), %xmm4
	movdqa	%xmm5, %xmm0
	movdqa	%xmm5, %xmm2
	addl	$2, %r9d
	punpcklwd	%xmm4, %xmm0
	punpckhwd	%xmm4, %xmm2
	movdqu	-96(%rcx), %xmm1
	punpcklwd	%xmm4, %xmm5
	movdqa	%xmm0, %xmm8
	movdqu	-80(%rcx), %xmm7
	punpcklwd	%xmm2, %xmm0
	punpckhwd	%xmm2, %xmm8
	movdqa	%xmm1, %xmm4
	punpcklwd	%xmm2, %xmm5
	movdqa	%xmm1, %xmm2
	punpckhwd	%xmm7, %xmm4
	punpcklwd	%xmm8, %xmm0
	punpcklwd	%xmm7, %xmm2
	punpckhwd	%xmm8, %xmm5
	punpcklwd	%xmm7, %xmm1
	movdqa	%xmm2, %xmm8
	punpcklwd	%xmm4, %xmm2
	punpckhwd	%xmm4, %xmm8
	punpcklwd	%xmm4, %xmm1
	movdqa	%xmm0, %xmm4
	punpcklwd	%xmm8, %xmm2
	punpckhwd	%xmm8, %xmm1
	movdqa	%xmm0, %xmm8
	punpcklwd	%xmm2, %xmm8
	punpckhwd	%xmm2, %xmm4
	punpcklwd	%xmm2, %xmm0
	movdqa	%xmm5, %xmm2
	movdqa	%xmm8, %xmm7
	punpcklwd	%xmm4, %xmm8
	punpckhwd	%xmm4, %xmm7
	punpcklwd	%xmm4, %xmm0
	punpckhwd	%xmm1, %xmm2
	punpcklwd	%xmm7, %xmm8
	punpckhwd	%xmm7, %xmm0
	movdqa	%xmm5, %xmm7
	punpcklwd	%xmm1, %xmm5
	punpcklwd	%xmm1, %xmm7
	punpcklwd	%xmm2, %xmm5
	movdqa	%xmm7, %xmm4
	punpcklwd	%xmm2, %xmm7
	punpckhwd	%xmm2, %xmm4
	movdqa	%xmm8, %xmm2
	punpckhwd	%xmm3, %xmm8
	punpcklwd	%xmm3, %xmm2
	punpckhwd	%xmm4, %xmm5
	punpcklwd	%xmm4, %xmm7
	movdqa	%xmm2, %xmm4
	pslld	$2, %xmm4
	movdqa	%xmm4, %xmm1
	pslld	$2, %xmm1
	psubd	%xmm4, %xmm1
	psubd	%xmm2, %xmm1
	movdqa	%xmm7, %xmm2
	movdqa	%xmm1, %xmm4
	punpckhwd	%xmm3, %xmm7
	punpcklwd	%xmm3, %xmm2
	pslld	$3, %xmm4
	psubd	%xmm1, %xmm4
	pslld	$1, %xmm7
	pslld	$1, %xmm2
	movdqa	%xmm2, %xmm1
	pslld	$2, %xmm1
	paddd	%xmm1, %xmm2
	movdqa	%xmm2, %xmm1
	pslld	$4, %xmm1
	psubd	%xmm2, %xmm1
	paddd	%xmm1, %xmm4
	movdqa	%xmm0, %xmm1
	punpckhwd	%xmm3, %xmm0
	punpcklwd	%xmm3, %xmm1
	movdqa	%xmm1, %xmm9
	pslld	$2, %xmm9
	movdqa	%xmm9, %xmm2
	pslld	$3, %xmm2
	psubd	%xmm9, %xmm2
	paddd	%xmm2, %xmm1
	paddd	%xmm1, %xmm4
	movdqa	%xmm8, %xmm1
	psrad	$8, %xmm4
	pslld	$2, %xmm1
	movdqa	%xmm1, %xmm2
	pslld	$2, %xmm2
	psubd	%xmm1, %xmm2
	psubd	%xmm8, %xmm2
	movdqa	%xmm2, %xmm1
	pslld	$3, %xmm1
	psubd	%xmm2, %xmm1
	movdqa	%xmm1, %xmm2
	movdqa	%xmm7, %xmm1
	pslld	$2, %xmm1
	paddd	%xmm1, %xmm7
	movdqa	%xmm7, %xmm1
	pslld	$4, %xmm1
	psubd	%xmm7, %xmm1
	movdqa	%xmm0, %xmm7
	paddd	%xmm2, %xmm1
	pslld	$2, %xmm7
	movdqa	%xmm7, %xmm2
	pslld	$3, %xmm2
	psubd	%xmm7, %xmm2
	paddd	%xmm2, %xmm0
	paddd	%xmm1, %xmm0
	movdqa	%xmm4, %xmm1
	psrad	$8, %xmm0
	punpcklwd	%xmm0, %xmm4
	movdqu	-16(%rcx), %xmm7
	punpckhwd	%xmm0, %xmm1
	movdqa	%xmm4, %xmm0
	punpcklwd	%xmm1, %xmm4
	punpckhwd	%xmm1, %xmm0
	movdqu	-32(%rcx), %xmm1
	punpcklwd	%xmm0, %xmm4
	movdqa	%xmm4, %xmm0
	punpckhwd	%xmm5, %xmm4
	punpcklwd	%xmm5, %xmm0
	movdqu	-64(%rcx), %xmm5
	movups	%xmm4, -48(%r8)
	movdqa	%xmm5, %xmm2
	movups	%xmm0, -64(%r8)
	movdqa	%xmm5, %xmm0
	movdqu	-48(%rcx), %xmm4
	punpcklwd	%xmm4, %xmm0
	punpckhwd	%xmm4, %xmm2
	punpcklwd	%xmm4, %xmm5
	movdqa	%xmm1, %xmm4
	movdqa	%xmm0, %xmm8
	punpcklwd	%xmm2, %xmm0
	punpckhwd	%xmm2, %xmm8
	punpcklwd	%xmm2, %xmm5
	movdqa	%xmm1, %xmm2
	punpckhwd	%xmm7, %xmm4
	punpcklwd	%xmm7, %xmm2
	punpcklwd	%xmm8, %xmm0
	punpckhwd	%xmm8, %xmm5
	punpcklwd	%xmm7, %xmm1
	movdqa	%xmm2, %xmm8
	punpcklwd	%xmm4, %xmm2
	punpckhwd	%xmm4, %xmm8
	punpcklwd	%xmm4, %xmm1
	movdqa	%xmm0, %xmm4
	punpcklwd	%xmm8, %xmm2
	punpckhwd	%xmm8, %xmm1
	movdqa	%xmm0, %xmm8
	punpcklwd	%xmm2, %xmm8
	punpckhwd	%xmm2, %xmm4
	punpcklwd	%xmm2, %xmm0
	movdqa	%xmm5, %xmm2
	movdqa	%xmm8, %xmm7
	punpcklwd	%xmm4, %xmm8
	punpckhwd	%xmm4, %xmm7
	punpcklwd	%xmm4, %xmm0
	punpckhwd	%xmm1, %xmm2
	punpcklwd	%xmm7, %xmm8
	punpckhwd	%xmm7, %xmm0
	movdqa	%xmm5, %xmm7
	punpcklwd	%xmm1, %xmm5
	punpcklwd	%xmm1, %xmm7
	punpcklwd	%xmm2, %xmm5
	movdqa	%xmm7, %xmm4
	punpcklwd	%xmm2, %xmm7
	punpckhwd	%xmm2, %xmm4
	movdqa	%xmm8, %xmm2
	punpckhwd	%xmm3, %xmm8
	punpcklwd	%xmm3, %xmm2
	punpcklwd	%xmm4, %xmm7
	punpckhwd	%xmm4, %xmm5
	movdqa	%xmm2, %xmm4
	pslld	$2, %xmm4
	movdqa	%xmm4, %xmm1
	pslld	$2, %xmm1
	psubd	%xmm4, %xmm1
	psubd	%xmm2, %xmm1
	movdqa	%xmm7, %xmm2
	movdqa	%xmm1, %xmm4
	punpckhwd	%xmm3, %xmm7
	punpcklwd	%xmm3, %xmm2
	pslld	$3, %xmm4
	psubd	%xmm1, %xmm4
	pslld	$1, %xmm7
	pslld	$1, %xmm2
	movdqa	%xmm2, %xmm1
	pslld	$2, %xmm1
	paddd	%xmm1, %xmm2
	movdqa	%xmm2, %xmm1
	pslld	$4, %xmm1
	psubd	%xmm2, %xmm1
	paddd	%xmm1, %xmm4
	movdqa	%xmm0, %xmm1
	punpckhwd	%xmm3, %xmm0
	punpcklwd	%xmm3, %xmm1
	movdqa	%xmm1, %xmm9
	pslld	$2, %xmm9
	movdqa	%xmm9, %xmm2
	pslld	$3, %xmm2
	psubd	%xmm9, %xmm2
	paddd	%xmm2, %xmm1
	paddd	%xmm1, %xmm4
	movdqa	%xmm8, %xmm1
	psrad	$8, %xmm4
	pslld	$2, %xmm1
	movdqa	%xmm1, %xmm2
	pslld	$2, %xmm2
	psubd	%xmm1, %xmm2
	psubd	%xmm8, %xmm2
	movdqa	%xmm2, %xmm1
	pslld	$3, %xmm1
	psubd	%xmm2, %xmm1
	movdqa	%xmm1, %xmm2
	movdqa	%xmm7, %xmm1
	pslld	$2, %xmm1
	paddd	%xmm1, %xmm7
	movdqa	%xmm7, %xmm1
	pslld	$4, %xmm1
	psubd	%xmm7, %xmm1
	movdqa	%xmm0, %xmm7
	paddd	%xmm2, %xmm1
	pslld	$2, %xmm7
	movdqa	%xmm7, %xmm2
	pslld	$3, %xmm2
	psubd	%xmm7, %xmm2
	paddd	%xmm2, %xmm0
	paddd	%xmm1, %xmm0
	movdqa	%xmm4, %xmm1
	psrad	$8, %xmm0
	punpcklwd	%xmm0, %xmm4
	punpckhwd	%xmm0, %xmm1
	movdqa	%xmm4, %xmm0
	punpcklwd	%xmm1, %xmm4
	punpckhwd	%xmm1, %xmm0
	punpcklwd	%xmm0, %xmm4
	movdqa	%xmm4, %xmm0
	punpckhwd	%xmm5, %xmm4
	punpcklwd	%xmm5, %xmm0
	movups	%xmm4, -16(%r8)
	movups	%xmm0, -32(%r8)
	cmpl	%r9d, 52(%rsp)
	jne	.L326
.L325:
	pxor	%xmm5, %xmm5
.L330:
	movdqu	(%rcx), %xmm4
	addq	$32, %r8
	addq	$64, %rcx
	incl	%r9d
	movdqu	-48(%rcx), %xmm3
	movdqa	%xmm4, %xmm0
	movdqa	%xmm4, %xmm2
	punpcklwd	%xmm3, %xmm0
	movdqu	-32(%rcx), %xmm1
	punpckhwd	%xmm3, %xmm2
	punpcklwd	%xmm3, %xmm4
	movdqu	-16(%rcx), %xmm7
	movdqa	%xmm0, %xmm8
	punpcklwd	%xmm2, %xmm0
	movdqa	%xmm1, %xmm3
	punpckhwd	%xmm2, %xmm8
	punpcklwd	%xmm2, %xmm4
	movdqa	%xmm1, %xmm2
	punpckhwd	%xmm7, %xmm3
	punpcklwd	%xmm7, %xmm2
	punpcklwd	%xmm8, %xmm0
	punpckhwd	%xmm8, %xmm4
	punpcklwd	%xmm7, %xmm1
	movdqa	%xmm2, %xmm8
	punpcklwd	%xmm3, %xmm2
	punpckhwd	%xmm3, %xmm8
	punpcklwd	%xmm3, %xmm1
	movdqa	%xmm0, %xmm3
	punpcklwd	%xmm8, %xmm2
	punpckhwd	%xmm8, %xmm1
	movdqa	%xmm0, %xmm8
	punpcklwd	%xmm2, %xmm8
	punpckhwd	%xmm2, %xmm3
	punpcklwd	%xmm2, %xmm0
	movdqa	%xmm4, %xmm2
	movdqa	%xmm8, %xmm7
	punpcklwd	%xmm3, %xmm8
	punpckhwd	%xmm3, %xmm7
	punpcklwd	%xmm3, %xmm0
	punpckhwd	%xmm1, %xmm2
	punpcklwd	%xmm7, %xmm8
	punpckhwd	%xmm7, %xmm0
	movdqa	%xmm4, %xmm7
	punpcklwd	%xmm1, %xmm4
	punpcklwd	%xmm1, %xmm7
	punpcklwd	%xmm2, %xmm4
	movdqa	%xmm7, %xmm3
	punpcklwd	%xmm2, %xmm7
	punpckhwd	%xmm2, %xmm3
	movdqa	%xmm8, %xmm2
	punpckhwd	%xmm5, %xmm8
	punpcklwd	%xmm5, %xmm2
	punpcklwd	%xmm3, %xmm7
	punpckhwd	%xmm3, %xmm4
	movdqa	%xmm2, %xmm3
	pslld	$2, %xmm3
	movdqa	%xmm3, %xmm1
	pslld	$2, %xmm1
	psubd	%xmm3, %xmm1
	psubd	%xmm2, %xmm1
	movdqa	%xmm7, %xmm2
	movdqa	%xmm1, %xmm3
	punpckhwd	%xmm5, %xmm7
	punpcklwd	%xmm5, %xmm2
	pslld	$3, %xmm3
	psubd	%xmm1, %xmm3
	pslld	$1, %xmm7
	pslld	$1, %xmm2
	movdqa	%xmm2, %xmm1
	pslld	$2, %xmm1
	paddd	%xmm1, %xmm2
	movdqa	%xmm2, %xmm1
	pslld	$4, %xmm1
	psubd	%xmm2, %xmm1
	paddd	%xmm1, %xmm3
	movdqa	%xmm0, %xmm1
	punpckhwd	%xmm5, %xmm0
	punpcklwd	%xmm5, %xmm1
	movdqa	%xmm1, %xmm9
	pslld	$2, %xmm9
	movdqa	%xmm9, %xmm2
	pslld	$3, %xmm2
	psubd	%xmm9, %xmm2
	paddd	%xmm2, %xmm1
	paddd	%xmm1, %xmm3
	movdqa	%xmm8, %xmm1
	psrad	$8, %xmm3
	pslld	$2, %xmm1
	movdqa	%xmm1, %xmm2
	pslld	$2, %xmm2
	psubd	%xmm1, %xmm2
	psubd	%xmm8, %xmm2
	movdqa	%xmm2, %xmm1
	pslld	$3, %xmm1
	psubd	%xmm2, %xmm1
	movdqa	%xmm1, %xmm2
	movdqa	%xmm7, %xmm1
	pslld	$2, %xmm1
	paddd	%xmm1, %xmm7
	movdqa	%xmm7, %xmm1
	pslld	$4, %xmm1
	psubd	%xmm7, %xmm1
	movdqa	%xmm0, %xmm7
	paddd	%xmm2, %xmm1
	pslld	$2, %xmm7
	movdqa	%xmm7, %xmm2
	pslld	$3, %xmm2
	psubd	%xmm7, %xmm2
	paddd	%xmm2, %xmm0
	paddd	%xmm1, %xmm0
	movdqa	%xmm3, %xmm1
	psrad	$8, %xmm0
	punpcklwd	%xmm0, %xmm3
	punpckhwd	%xmm0, %xmm1
	movdqa	%xmm3, %xmm0
	punpcklwd	%xmm1, %xmm3
	punpckhwd	%xmm1, %xmm0
	punpcklwd	%xmm0, %xmm3
	movdqa	%xmm3, %xmm0
	punpckhwd	%xmm4, %xmm3
	punpcklwd	%xmm4, %xmm0
	movups	%xmm3, -16(%r8)
	movups	%xmm0, -32(%r8)
	cmpl	%r9d, 72(%rsp)
	ja	.L330
	addq	64(%rsp), %rax
	addq	56(%rsp), %rdx
	movl	36(%rsp), %r9d
	cmpl	%r9d, 40(%rsp)
	je	.L278
	movl	88(%rsp), %r8d
	jmp	.L324
	.p2align 4,,7
.L274:
	testl	%r13d, %r13d
	js	.L278
	cmpb	$0, 79(%rsp)
	jne	.L345
	cmpl	$-6, 112(%rsp)
	ja	.L346
	pxor	%xmm4, %xmm4
	xorl	%r9d, %r9d
	movq	%rdx, %r8
	movq	%rax, %rcx
.L319:
	movdqu	(%rcx), %xmm5
	prefetcht0	432(%rcx)
	prefetcht0	496(%rcx)
	prefetcht0	560(%rcx)
	prefetcht0	624(%rcx)
	prefetcht0	96(%r8)
	movdqu	16(%rcx), %xmm10
	addq	$64, %r8
	movdqa	%xmm5, %xmm0
	addq	$256, %rcx
	movdqu	-224(%rcx), %xmm1
	addl	$4, %r9d
	punpcklwd	%xmm10, %xmm0
	movdqu	-208(%rcx), %xmm8
	movdqa	%xmm5, %xmm9
	movdqa	%xmm1, %xmm2
	punpckhwd	%xmm10, %xmm9
	movdqa	%xmm1, %xmm3
	punpcklwd	%xmm8, %xmm2
	movdqa	%xmm0, %xmm13
	punpckhwd	%xmm8, %xmm3
	punpcklwd	%xmm9, %xmm0
	punpckhwd	%xmm9, %xmm13
	movdqa	%xmm2, %xmm12
	punpcklwd	%xmm10, %xmm5
	punpckhwd	%xmm3, %xmm12
	movdqu	-176(%rcx), %xmm10
	punpcklwd	%xmm3, %xmm2
	punpcklwd	%xmm8, %xmm1
	punpcklwd	%xmm13, %xmm0
	punpcklwd	%xmm12, %xmm2
	punpcklwd	%xmm9, %xmm5
	punpcklwd	%xmm3, %xmm1
	movdqa	%xmm0, %xmm7
	movdqa	%xmm0, %xmm11
	punpcklwd	%xmm2, %xmm7
	punpckhwd	%xmm12, %xmm1
	punpckhwd	%xmm13, %xmm5
	punpckhwd	%xmm2, %xmm11
	movdqa	%xmm7, %xmm14
	punpcklwd	%xmm2, %xmm0
	movdqa	%xmm5, %xmm2
	punpcklwd	%xmm1, %xmm5
	punpckhwd	%xmm11, %xmm14
	punpckhwd	%xmm1, %xmm2
	punpcklwd	%xmm11, %xmm7
	movdqa	%xmm5, %xmm1
	punpcklwd	%xmm11, %xmm0
	punpckhwd	%xmm2, %xmm1
	punpcklwd	%xmm14, %xmm7
	punpcklwd	%xmm2, %xmm5
	punpckhwd	%xmm14, %xmm0
	punpcklwd	%xmm1, %xmm5
	movdqa	%xmm7, %xmm1
	punpckhwd	%xmm4, %xmm7
	punpcklwd	%xmm4, %xmm1
	movdqa	%xmm1, %xmm3
	pslld	$2, %xmm3
	movdqa	%xmm3, %xmm2
	pslld	$2, %xmm2
	psubd	%xmm3, %xmm2
	movdqa	%xmm5, %xmm3
	psubd	%xmm1, %xmm2
	movdqa	%xmm2, %xmm1
	punpckhwd	%xmm4, %xmm5
	punpcklwd	%xmm4, %xmm3
	pslld	$3, %xmm1
	psubd	%xmm2, %xmm1
	movdqa	%xmm1, %xmm2
	pslld	$1, %xmm5
	pslld	$1, %xmm3
	movdqa	%xmm3, %xmm1
	pslld	$2, %xmm1
	paddd	%xmm1, %xmm3
	movdqa	%xmm3, %xmm1
	pslld	$4, %xmm1
	psubd	%xmm3, %xmm1
	paddd	%xmm2, %xmm1
	movdqa	%xmm0, %xmm2
	punpckhwd	%xmm4, %xmm0
	punpcklwd	%xmm4, %xmm2
	movdqa	%xmm2, %xmm8
	pslld	$2, %xmm8
	movdqa	%xmm8, %xmm3
	pslld	$3, %xmm3
	psubd	%xmm8, %xmm3
	paddd	%xmm3, %xmm2
	paddd	%xmm2, %xmm1
	movdqa	%xmm7, %xmm2
	psrad	$8, %xmm1
	movdqu	-144(%rcx), %xmm8
	pslld	$2, %xmm2
	movdqa	%xmm2, %xmm3
	pslld	$2, %xmm3
	psubd	%xmm2, %xmm3
	psubd	%xmm7, %xmm3
	movdqa	%xmm3, %xmm2
	pslld	$3, %xmm2
	psubd	%xmm3, %xmm2
	movdqa	%xmm2, %xmm3
	movdqa	%xmm5, %xmm2
	pslld	$2, %xmm2
	paddd	%xmm2, %xmm5
	movdqa	%xmm5, %xmm2
	pslld	$4, %xmm2
	psubd	%xmm5, %xmm2
	movdqa	%xmm0, %xmm5
	paddd	%xmm3, %xmm2
	pslld	$2, %xmm5
	movdqa	%xmm5, %xmm3
	pslld	$3, %xmm3
	psubd	%xmm5, %xmm3
	paddd	%xmm3, %xmm0
	paddd	%xmm2, %xmm0
	movdqa	%xmm1, %xmm2
	psrad	$8, %xmm0
	punpcklwd	%xmm0, %xmm1
	movdqu	-192(%rcx), %xmm5
	punpckhwd	%xmm0, %xmm2
	movdqa	%xmm5, %xmm9
	movdqa	%xmm1, %xmm0
	punpcklwd	%xmm2, %xmm1
	punpckhwd	%xmm2, %xmm0
	punpckhwd	%xmm10, %xmm9
	punpcklwd	%xmm0, %xmm1
	movdqa	%xmm5, %xmm0
	punpcklwd	%xmm10, %xmm5
	movups	%xmm1, -64(%r8)
	punpcklwd	%xmm10, %xmm0
	punpcklwd	%xmm9, %xmm5
	movdqu	-160(%rcx), %xmm1
	movdqa	%xmm0, %xmm13
	punpcklwd	%xmm9, %xmm0
	movdqa	%xmm1, %xmm2
	movdqa	%xmm1, %xmm3
	punpckhwd	%xmm9, %xmm13
	punpcklwd	%xmm8, %xmm2
	punpckhwd	%xmm8, %xmm3
	movdqu	-112(%rcx), %xmm10
	punpcklwd	%xmm8, %xmm1
	movdqa	%xmm2, %xmm12
	punpcklwd	%xmm13, %xmm0
	punpcklwd	%xmm3, %xmm2
	punpckhwd	%xmm3, %xmm12
	punpcklwd	%xmm3, %xmm1
	movdqa	%xmm0, %xmm7
	punpckhwd	%xmm13, %xmm5
	punpcklwd	%xmm12, %xmm2
	movdqa	%xmm0, %xmm11
	punpckhwd	%xmm12, %xmm1
	punpcklwd	%xmm2, %xmm7
	punpckhwd	%xmm2, %xmm11
	punpcklwd	%xmm2, %xmm0
	movdqa	%xmm5, %xmm2
	movdqa	%xmm7, %xmm14
	punpcklwd	%xmm1, %xmm5
	punpckhwd	%xmm11, %xmm14
	punpckhwd	%xmm1, %xmm2
	punpcklwd	%xmm11, %xmm7
	movdqa	%xmm5, %xmm1
	punpcklwd	%xmm11, %xmm0
	punpckhwd	%xmm2, %xmm1
	punpcklwd	%xmm14, %xmm7
	punpcklwd	%xmm2, %xmm5
	punpckhwd	%xmm14, %xmm0
	punpcklwd	%xmm1, %xmm5
	movdqa	%xmm7, %xmm1
	punpckhwd	%xmm4, %xmm7
	punpcklwd	%xmm4, %xmm1
	movdqa	%xmm1, %xmm3
	pslld	$2, %xmm3
	movdqa	%xmm3, %xmm2
	pslld	$2, %xmm2
	psubd	%xmm3, %xmm2
	movdqa	%xmm5, %xmm3
	psubd	%xmm1, %xmm2
	movdqa	%xmm2, %xmm1
	punpckhwd	%xmm4, %xmm5
	punpcklwd	%xmm4, %xmm3
	pslld	$3, %xmm1
	psubd	%xmm2, %xmm1
	movdqa	%xmm1, %xmm2
	pslld	$1, %xmm5
	pslld	$1, %xmm3
	movdqa	%xmm3, %xmm1
	pslld	$2, %xmm1
	paddd	%xmm1, %xmm3
	movdqa	%xmm3, %xmm1
	pslld	$4, %xmm1
	psubd	%xmm3, %xmm1
	paddd	%xmm2, %xmm1
	movdqa	%xmm0, %xmm2
	punpckhwd	%xmm4, %xmm0
	punpcklwd	%xmm4, %xmm2
	movdqa	%xmm2, %xmm8
	pslld	$2, %xmm8
	movdqa	%xmm8, %xmm3
	pslld	$3, %xmm3
	psubd	%xmm8, %xmm3
	paddd	%xmm3, %xmm2
	paddd	%xmm2, %xmm1
	movdqa	%xmm7, %xmm2
	psrad	$8, %xmm1
	movdqu	-80(%rcx), %xmm8
	pslld	$2, %xmm2
	movdqa	%xmm2, %xmm3
	pslld	$2, %xmm3
	psubd	%xmm2, %xmm3
	psubd	%xmm7, %xmm3
	movdqa	%xmm3, %xmm2
	pslld	$3, %xmm2
	psubd	%xmm3, %xmm2
	movdqa	%xmm2, %xmm3
	movdqa	%xmm5, %xmm2
	pslld	$2, %xmm2
	paddd	%xmm2, %xmm5
	movdqa	%xmm5, %xmm2
	pslld	$4, %xmm2
	psubd	%xmm5, %xmm2
	movdqa	%xmm0, %xmm5
	paddd	%xmm3, %xmm2
	pslld	$2, %xmm5
	movdqa	%xmm5, %xmm3
	pslld	$3, %xmm3
	psubd	%xmm5, %xmm3
	paddd	%xmm3, %xmm0
	paddd	%xmm2, %xmm0
	movdqa	%xmm1, %xmm2
	psrad	$8, %xmm0
	punpcklwd	%xmm0, %xmm1
	movdqu	-128(%rcx), %xmm5
	punpckhwd	%xmm0, %xmm2
	movdqa	%xmm5, %xmm9
	movdqa	%xmm1, %xmm0
	punpcklwd	%xmm2, %xmm1
	punpckhwd	%xmm2, %xmm0
	punpckhwd	%xmm10, %xmm9
	punpcklwd	%xmm0, %xmm1
	movdqa	%xmm5, %xmm0
	punpcklwd	%xmm10, %xmm5
	movups	%xmm1, -48(%r8)
	punpcklwd	%xmm10, %xmm0
	punpcklwd	%xmm9, %xmm5
	movdqu	-96(%rcx), %xmm1
	movdqa	%xmm0, %xmm13
	punpcklwd	%xmm9, %xmm0
	movdqa	%xmm1, %xmm2
	movdqa	%xmm1, %xmm3
	punpckhwd	%xmm9, %xmm13
	punpcklwd	%xmm8, %xmm2
	punpckhwd	%xmm8, %xmm3
	movdqu	-48(%rcx), %xmm10
	punpcklwd	%xmm8, %xmm1
	movdqa	%xmm2, %xmm12
	punpcklwd	%xmm13, %xmm0
	punpcklwd	%xmm3, %xmm2
	punpckhwd	%xmm3, %xmm12
	punpcklwd	%xmm3, %xmm1
	movdqa	%xmm0, %xmm7
	punpckhwd	%xmm13, %xmm5
	punpcklwd	%xmm12, %xmm2
	movdqa	%xmm0, %xmm11
	punpckhwd	%xmm12, %xmm1
	punpcklwd	%xmm2, %xmm7
	punpckhwd	%xmm2, %xmm11
	punpcklwd	%xmm2, %xmm0
	movdqa	%xmm5, %xmm2
	movdqa	%xmm7, %xmm14
	punpcklwd	%xmm1, %xmm5
	punpckhwd	%xmm11, %xmm14
	punpckhwd	%xmm1, %xmm2
	punpcklwd	%xmm11, %xmm7
	movdqa	%xmm5, %xmm1
	punpcklwd	%xmm11, %xmm0
	punpckhwd	%xmm2, %xmm1
	punpcklwd	%xmm14, %xmm7
	punpcklwd	%xmm2, %xmm5
	punpckhwd	%xmm14, %xmm0
	punpcklwd	%xmm1, %xmm5
	movdqa	%xmm7, %xmm1
	punpckhwd	%xmm4, %xmm7
	punpcklwd	%xmm4, %xmm1
	movdqa	%xmm1, %xmm3
	pslld	$2, %xmm3
	movdqa	%xmm3, %xmm2
	pslld	$2, %xmm2
	psubd	%xmm3, %xmm2
	movdqa	%xmm5, %xmm3
	psubd	%xmm1, %xmm2
	movdqa	%xmm2, %xmm1
	punpckhwd	%xmm4, %xmm5
	punpcklwd	%xmm4, %xmm3
	pslld	$3, %xmm1
	psubd	%xmm2, %xmm1
	movdqa	%xmm1, %xmm2
	pslld	$1, %xmm5
	pslld	$1, %xmm3
	movdqa	%xmm3, %xmm1
	pslld	$2, %xmm1
	paddd	%xmm1, %xmm3
	movdqa	%xmm3, %xmm1
	pslld	$4, %xmm1
	psubd	%xmm3, %xmm1
	paddd	%xmm2, %xmm1
	movdqa	%xmm0, %xmm2
	punpckhwd	%xmm4, %xmm0
	punpcklwd	%xmm4, %xmm2
	movdqa	%xmm2, %xmm8
	pslld	$2, %xmm8
	movdqa	%xmm8, %xmm3
	pslld	$3, %xmm3
	psubd	%xmm8, %xmm3
	paddd	%xmm3, %xmm2
	paddd	%xmm2, %xmm1
	movdqa	%xmm7, %xmm2
	psrad	$8, %xmm1
	movdqu	-16(%rcx), %xmm8
	pslld	$2, %xmm2
	movdqa	%xmm2, %xmm3
	pslld	$2, %xmm3
	psubd	%xmm2, %xmm3
	psubd	%xmm7, %xmm3
	movdqa	%xmm3, %xmm2
	pslld	$3, %xmm2
	psubd	%xmm3, %xmm2
	movdqa	%xmm2, %xmm3
	movdqa	%xmm5, %xmm2
	pslld	$2, %xmm2
	paddd	%xmm2, %xmm5
	movdqa	%xmm5, %xmm2
	pslld	$4, %xmm2
	psubd	%xmm5, %xmm2
	movdqa	%xmm0, %xmm5
	paddd	%xmm3, %xmm2
	pslld	$2, %xmm5
	movdqa	%xmm5, %xmm3
	pslld	$3, %xmm3
	psubd	%xmm5, %xmm3
	paddd	%xmm3, %xmm0
	paddd	%xmm2, %xmm0
	movdqa	%xmm1, %xmm2
	psrad	$8, %xmm0
	punpcklwd	%xmm0, %xmm1
	movdqu	-64(%rcx), %xmm5
	punpckhwd	%xmm0, %xmm2
	movdqa	%xmm5, %xmm9
	movdqa	%xmm1, %xmm0
	punpcklwd	%xmm2, %xmm1
	punpckhwd	%xmm2, %xmm0
	punpckhwd	%xmm10, %xmm9
	punpcklwd	%xmm0, %xmm1
	movdqa	%xmm5, %xmm0
	punpcklwd	%xmm10, %xmm5
	movups	%xmm1, -32(%r8)
	punpcklwd	%xmm10, %xmm0
	punpcklwd	%xmm9, %xmm5
	movdqu	-32(%rcx), %xmm1
	movdqa	%xmm0, %xmm13
	punpcklwd	%xmm9, %xmm0
	movdqa	%xmm1, %xmm2
	movdqa	%xmm1, %xmm3
	punpckhwd	%xmm9, %xmm13
	punpcklwd	%xmm8, %xmm2
	punpckhwd	%xmm8, %xmm3
	punpcklwd	%xmm8, %xmm1
	movdqa	%xmm2, %xmm12
	punpcklwd	%xmm13, %xmm0
	punpcklwd	%xmm3, %xmm2
	punpckhwd	%xmm3, %xmm12
	punpcklwd	%xmm3, %xmm1
	movdqa	%xmm0, %xmm7
	movdqa	%xmm0, %xmm11
	punpcklwd	%xmm12, %xmm2
	punpckhwd	%xmm12, %xmm1
	punpckhwd	%xmm13, %xmm5
	punpcklwd	%xmm2, %xmm7
	punpckhwd	%xmm2, %xmm11
	punpcklwd	%xmm2, %xmm0
	movdqa	%xmm5, %xmm2
	movdqa	%xmm7, %xmm14
	punpcklwd	%xmm1, %xmm5
	punpckhwd	%xmm1, %xmm2
	punpckhwd	%xmm11, %xmm14
	punpcklwd	%xmm11, %xmm7
	movdqa	%xmm5, %xmm1
	punpcklwd	%xmm2, %xmm5
	punpckhwd	%xmm2, %xmm1
	punpcklwd	%xmm14, %xmm7
	punpcklwd	%xmm11, %xmm0
	punpcklwd	%xmm1, %xmm5
	movdqa	%xmm7, %xmm1
	punpckhwd	%xmm4, %xmm7
	punpckhwd	%xmm14, %xmm0
	punpcklwd	%xmm4, %xmm1
	movdqa	%xmm1, %xmm3
	pslld	$2, %xmm3
	movdqa	%xmm3, %xmm2
	pslld	$2, %xmm2
	psubd	%xmm3, %xmm2
	movdqa	%xmm5, %xmm3
	psubd	%xmm1, %xmm2
	movdqa	%xmm2, %xmm1
	punpckhwd	%xmm4, %xmm5
	punpcklwd	%xmm4, %xmm3
	pslld	$3, %xmm1
	psubd	%xmm2, %xmm1
	movdqa	%xmm1, %xmm2
	pslld	$1, %xmm5
	pslld	$1, %xmm3
	movdqa	%xmm3, %xmm1
	pslld	$2, %xmm1
	paddd	%xmm1, %xmm3
	movdqa	%xmm3, %xmm1
	pslld	$4, %xmm1
	psubd	%xmm3, %xmm1
	paddd	%xmm2, %xmm1
	movdqa	%xmm0, %xmm2
	punpckhwd	%xmm4, %xmm0
	punpcklwd	%xmm4, %xmm2
	movdqa	%xmm2, %xmm8
	pslld	$2, %xmm8
	movdqa	%xmm8, %xmm3
	pslld	$3, %xmm3
	psubd	%xmm8, %xmm3
	paddd	%xmm3, %xmm2
	paddd	%xmm2, %xmm1
	movdqa	%xmm7, %xmm2
	psrad	$8, %xmm1
	pslld	$2, %xmm2
	movdqa	%xmm2, %xmm3
	pslld	$2, %xmm3
	psubd	%xmm2, %xmm3
	psubd	%xmm7, %xmm3
	movdqa	%xmm3, %xmm2
	pslld	$3, %xmm2
	psubd	%xmm3, %xmm2
	movdqa	%xmm2, %xmm3
	movdqa	%xmm5, %xmm2
	pslld	$2, %xmm2
	paddd	%xmm2, %xmm5
	movdqa	%xmm5, %xmm2
	pslld	$4, %xmm2
	psubd	%xmm5, %xmm2
	movdqa	%xmm0, %xmm5
	paddd	%xmm3, %xmm2
	pslld	$2, %xmm5
	movdqa	%xmm5, %xmm3
	pslld	$3, %xmm3
	psubd	%xmm5, %xmm3
	paddd	%xmm3, %xmm0
	paddd	%xmm2, %xmm0
	movdqa	%xmm1, %xmm2
	psrad	$8, %xmm0
	punpcklwd	%xmm0, %xmm1
	punpckhwd	%xmm0, %xmm2
	movdqa	%xmm1, %xmm0
	punpcklwd	%xmm2, %xmm1
	punpckhwd	%xmm2, %xmm0
	punpcklwd	%xmm0, %xmm1
	movups	%xmm1, -16(%r8)
	cmpl	%r9d, 48(%rsp)
	jne	.L319
.L318:
	pxor	%xmm4, %xmm4
.L323:
	movdqu	(%rcx), %xmm5
	addq	$16, %r8
	addq	$64, %rcx
	incl	%r9d
	movdqu	-48(%rcx), %xmm10
	movdqa	%xmm5, %xmm0
	movdqa	%xmm5, %xmm9
	movdqu	-32(%rcx), %xmm1
	punpcklwd	%xmm10, %xmm0
	punpckhwd	%xmm10, %xmm9
	movdqu	-16(%rcx), %xmm8
	movdqa	%xmm1, %xmm2
	movdqa	%xmm1, %xmm3
	punpcklwd	%xmm8, %xmm2
	movdqa	%xmm0, %xmm13
	punpckhwd	%xmm8, %xmm3
	punpckhwd	%xmm9, %xmm13
	movdqa	%xmm2, %xmm12
	punpcklwd	%xmm9, %xmm0
	punpcklwd	%xmm3, %xmm2
	punpckhwd	%xmm3, %xmm12
	punpcklwd	%xmm8, %xmm1
	punpcklwd	%xmm10, %xmm5
	punpcklwd	%xmm13, %xmm0
	punpcklwd	%xmm12, %xmm2
	punpcklwd	%xmm3, %xmm1
	punpcklwd	%xmm9, %xmm5
	movdqa	%xmm0, %xmm7
	movdqa	%xmm0, %xmm11
	punpcklwd	%xmm2, %xmm7
	punpckhwd	%xmm12, %xmm1
	punpckhwd	%xmm13, %xmm5
	punpckhwd	%xmm2, %xmm11
	movdqa	%xmm7, %xmm14
	punpcklwd	%xmm2, %xmm0
	movdqa	%xmm5, %xmm2
	punpcklwd	%xmm1, %xmm5
	punpckhwd	%xmm11, %xmm14
	punpckhwd	%xmm1, %xmm2
	punpcklwd	%xmm11, %xmm7
	movdqa	%xmm5, %xmm1
	punpcklwd	%xmm11, %xmm0
	punpckhwd	%xmm2, %xmm1
	punpcklwd	%xmm14, %xmm7
	punpcklwd	%xmm2, %xmm5
	punpckhwd	%xmm14, %xmm0
	punpcklwd	%xmm1, %xmm5
	movdqa	%xmm7, %xmm1
	punpckhwd	%xmm4, %xmm7
	punpcklwd	%xmm4, %xmm1
	movdqa	%xmm1, %xmm3
	pslld	$2, %xmm3
	movdqa	%xmm3, %xmm2
	pslld	$2, %xmm2
	psubd	%xmm3, %xmm2
	movdqa	%xmm5, %xmm3
	psubd	%xmm1, %xmm2
	movdqa	%xmm2, %xmm1
	punpckhwd	%xmm4, %xmm5
	punpcklwd	%xmm4, %xmm3
	pslld	$3, %xmm1
	psubd	%xmm2, %xmm1
	movdqa	%xmm1, %xmm2
	pslld	$1, %xmm5
	pslld	$1, %xmm3
	movdqa	%xmm3, %xmm1
	pslld	$2, %xmm1
	paddd	%xmm1, %xmm3
	movdqa	%xmm3, %xmm1
	pslld	$4, %xmm1
	psubd	%xmm3, %xmm1
	paddd	%xmm2, %xmm1
	movdqa	%xmm0, %xmm2
	punpckhwd	%xmm4, %xmm0
	punpcklwd	%xmm4, %xmm2
	movdqa	%xmm2, %xmm8
	pslld	$2, %xmm8
	movdqa	%xmm8, %xmm3
	pslld	$3, %xmm3
	psubd	%xmm8, %xmm3
	paddd	%xmm3, %xmm2
	paddd	%xmm2, %xmm1
	movdqa	%xmm7, %xmm2
	psrad	$8, %xmm1
	pslld	$2, %xmm2
	movdqa	%xmm2, %xmm3
	pslld	$2, %xmm3
	psubd	%xmm2, %xmm3
	psubd	%xmm7, %xmm3
	movdqa	%xmm3, %xmm2
	pslld	$3, %xmm2
	psubd	%xmm3, %xmm2
	movdqa	%xmm2, %xmm3
	movdqa	%xmm5, %xmm2
	pslld	$2, %xmm2
	paddd	%xmm2, %xmm5
	movdqa	%xmm5, %xmm2
	pslld	$4, %xmm2
	psubd	%xmm5, %xmm2
	movdqa	%xmm0, %xmm5
	paddd	%xmm3, %xmm2
	pslld	$2, %xmm5
	movdqa	%xmm5, %xmm3
	pslld	$3, %xmm3
	psubd	%xmm5, %xmm3
	paddd	%xmm3, %xmm0
	paddd	%xmm2, %xmm0
	movdqa	%xmm1, %xmm2
	psrad	$8, %xmm0
	punpcklwd	%xmm0, %xmm1
	punpckhwd	%xmm0, %xmm2
	movdqa	%xmm1, %xmm0
	punpcklwd	%xmm2, %xmm1
	punpckhwd	%xmm2, %xmm0
	punpcklwd	%xmm0, %xmm1
	movups	%xmm1, -16(%r8)
	cmpl	%r9d, 116(%rsp)
	ja	.L323
	addq	136(%rsp), %rax
	addq	96(%rsp), %rdx
	movl	92(%rsp), %r9d
	cmpl	%r9d, 36(%rsp)
	je	.L278
	movl	124(%rsp), %ecx
	jmp	.L317
	.p2align 4,,7
.L273:
	testl	%r13d, %r13d
	js	.L278
	movl	%r13d, %ecx
	.p2align 4,,7
.L310:
	movzwl	(%rax), %r8d
	decl	%ecx
	movw	$-1, 6(%rdx)
	addq	$6, %rax
	addq	$8, %rdx
	movw	%r8w, -8(%rdx)
	movzwl	-4(%rax), %r8d
	movw	%r8w, -6(%rdx)
	movzwl	-2(%rax), %r8d
	movw	%r8w, -4(%rdx)
	cmpl	$-1, %ecx
	jne	.L310
	jmp	.L278
	.p2align 4,,7
.L272:
	testl	%r13d, %r13d
	js	.L278
	cmpb	$0, 78(%rsp)
	movl	%r13d, %r9d
	je	.L316
	.p2align 4,,7
.L315:
	movzwl	(%rax), %r8d
	movl	$77, %ecx
	prefetcht0	82(%rax)
	prefetcht0	80(%rax)
	prefetcht0	78(%rax)
	prefetcht0	52(%rdx)
	movw	$-1, 2(%rdx)
	movw	$-1, 6(%rdx)
	prefetcht0	54(%rdx)
	movw	$-1, 10(%rdx)
	movw	$-1, 14(%rdx)
	movl	%r8d, %r11d
	movzwl	2(%rax), %r8d
	movw	$-1, 18(%rdx)
	imull	%ecx, %r11d
	imull	$150, %r8d, %ecx
	leal	(%r11,%rcx), %r8d
	movzwl	4(%rax), %ecx
	movl	$29, %r11d
	imull	%r11d, %ecx
	addl	%r8d, %ecx
	movzwl	6(%rax), %r8d
	sarl	$8, %ecx
	movw	%cx, (%rdx)
	movl	$77, %ecx
	movl	%r8d, %r11d
	movzwl	8(%rax), %r8d
	imull	%ecx, %r11d
	imull	$150, %r8d, %ecx
	leal	(%r11,%rcx), %r8d
	movzwl	10(%rax), %ecx
	movl	$29, %r11d
	imull	%r11d, %ecx
	addl	%r8d, %ecx
	movzwl	12(%rax), %r8d
	sarl	$8, %ecx
	movw	%cx, 4(%rdx)
	movl	$77, %ecx
	movl	%r8d, %r11d
	movzwl	14(%rax), %r8d
	imull	%ecx, %r11d
	imull	$150, %r8d, %ecx
	leal	(%r11,%rcx), %r8d
	movzwl	16(%rax), %ecx
	movl	$29, %r11d
	imull	%r11d, %ecx
	addl	%r8d, %ecx
	movzwl	18(%rax), %r8d
	sarl	$8, %ecx
	movw	%cx, 8(%rdx)
	movl	$77, %ecx
	movl	%r8d, %r11d
	movzwl	20(%rax), %r8d
	imull	%ecx, %r11d
	imull	$150, %r8d, %ecx
	leal	(%r11,%rcx), %r8d
	movzwl	22(%rax), %ecx
	movl	$29, %r11d
	imull	%r11d, %ecx
	addl	%r8d, %ecx
	movzwl	24(%rax), %r8d
	sarl	$8, %ecx
	movw	%cx, 12(%rdx)
	movl	$77, %ecx
	movl	%r8d, %r11d
	movzwl	26(%rax), %r8d
	imull	%ecx, %r11d
	imull	$150, %r8d, %ecx
	leal	(%r11,%rcx), %r8d
	movzwl	28(%rax), %ecx
	movl	$29, %r11d
	imull	%r11d, %ecx
	addl	%r8d, %ecx
	movzwl	30(%rax), %r8d
	sarl	$8, %ecx
	movw	%cx, 16(%rdx)
	movl	$77, %ecx
	movl	%r8d, %r11d
	movzwl	32(%rax), %r8d
	imull	%ecx, %r11d
	imull	$150, %r8d, %ecx
	leal	(%r11,%rcx), %r8d
	movzwl	34(%rax), %ecx
	movl	$29, %r11d
	movw	$-1, 22(%rdx)
	movw	$-1, 26(%rdx)
	movw	$-1, 30(%rdx)
	movw	$-1, 34(%rdx)
	movw	$-1, 38(%rdx)
	imull	%r11d, %ecx
	addl	%r8d, %ecx
	movzwl	36(%rax), %r8d
	sarl	$8, %ecx
	movw	%cx, 20(%rdx)
	movl	$77, %ecx
	movl	%r8d, %r11d
	movzwl	38(%rax), %r8d
	imull	%ecx, %r11d
	imull	$150, %r8d, %ecx
	leal	(%r11,%rcx), %r8d
	movzwl	40(%rax), %ecx
	movl	$29, %r11d
	imull	%r11d, %ecx
	addq	$60, %rax
	addq	$40, %rdx
	addl	%r8d, %ecx
	movzwl	-18(%rax), %r8d
	sarl	$8, %ecx
	movw	%cx, -16(%rdx)
	movl	$77, %ecx
	movl	%r8d, %r11d
	movzwl	-16(%rax), %r8d
	imull	%ecx, %r11d
	imull	$150, %r8d, %ecx
	leal	(%r11,%rcx), %r8d
	movzwl	-14(%rax), %ecx
	movl	$29, %r11d
	imull	%r11d, %ecx
	addl	%r8d, %ecx
	movzwl	-12(%rax), %r8d
	sarl	$8, %ecx
	movw	%cx, -12(%rdx)
	movl	$77, %ecx
	movl	%r8d, %r11d
	movzwl	-10(%rax), %r8d
	imull	%ecx, %r11d
	imull	$150, %r8d, %ecx
	leal	(%r11,%rcx), %r8d
	movzwl	-8(%rax), %ecx
	movl	$29, %r11d
	imull	%r11d, %ecx
	addl	%r8d, %ecx
	movzwl	-6(%rax), %r8d
	sarl	$8, %ecx
	movw	%cx, -8(%rdx)
	movl	$77, %ecx
	movl	%r8d, %r11d
	movzwl	-4(%rax), %r8d
	imull	%ecx, %r11d
	imull	$150, %r8d, %ecx
	leal	(%r11,%rcx), %r8d
	movzwl	-2(%rax), %ecx
	movl	$29, %r11d
	imull	%r11d, %ecx
	addl	%r8d, %ecx
	sarl	$8, %ecx
	movw	%cx, -4(%rdx)
	movl	%r9d, %ecx
	subl	$10, %r9d
	subl	$11, %ecx
	cmpl	$8, %ecx
	jg	.L315
	.p2align 4,,7
.L316:
	movzwl	(%rax), %ecx
	movl	$77, %r11d
	decl	%r9d
	movw	$-1, 2(%rdx)
	addq	$6, %rax
	addq	$4, %rdx
	movl	%ecx, %r8d
	movzwl	-4(%rax), %ecx
	imull	%r11d, %r8d
	movl	$29, %r11d
	imull	$150, %ecx, %ecx
	addl	%r8d, %ecx
	movzwl	-2(%rax), %r8d
	imull	%r11d, %r8d
	addl	%r8d, %ecx
	sarl	$8, %ecx
	movw	%cx, -4(%rdx)
	cmpl	$-1, %r9d
	jne	.L316
	jmp	.L278
	.p2align 4,,7
.L271:
	testl	%r13d, %r13d
	js	.L278
	cmpb	$0, 78(%rsp)
	movl	%r13d, %r9d
	je	.L313
	.p2align 4,,7
.L312:
	movzwl	2(%rax), %r8d
	prefetcht0	88(%rax)
	prefetcht0	86(%rax)
	prefetcht0	84(%rax)
	prefetcht0	28(%rdx)
	imull	$150, %r8d, %r11d
	movzwl	(%rax), %r8d
	movl	%r8d, %ecx
	movl	$77, %r8d
	imull	%r8d, %ecx
	leal	(%r11,%rcx), %r8d
	movzwl	4(%rax), %ecx
	movl	$29, %r11d
	imull	%r11d, %ecx
	addl	%r8d, %ecx
	movzwl	6(%rax), %r8d
	sarl	$8, %ecx
	movw	%cx, (%rdx)
	movl	$77, %ecx
	movl	%r8d, %r11d
	movzwl	8(%rax), %r8d
	imull	%ecx, %r11d
	imull	$150, %r8d, %ecx
	leal	(%r11,%rcx), %r8d
	movzwl	10(%rax), %ecx
	movl	$29, %r11d
	imull	%r11d, %ecx
	addl	%r8d, %ecx
	movzwl	12(%rax), %r8d
	sarl	$8, %ecx
	movw	%cx, 2(%rdx)
	movl	$77, %ecx
	movl	%r8d, %r11d
	movzwl	14(%rax), %r8d
	imull	%ecx, %r11d
	imull	$150, %r8d, %ecx
	leal	(%r11,%rcx), %r8d
	movzwl	16(%rax), %ecx
	movl	$29, %r11d
	imull	%r11d, %ecx
	addl	%r8d, %ecx
	movzwl	18(%rax), %r8d
	sarl	$8, %ecx
	movw	%cx, 4(%rdx)
	movl	$77, %ecx
	movl	%r8d, %r11d
	movzwl	20(%rax), %r8d
	imull	%ecx, %r11d
	imull	$150, %r8d, %ecx
	leal	(%r11,%rcx), %r8d
	movzwl	22(%rax), %ecx
	movl	$29, %r11d
	imull	%r11d, %ecx
	addl	%r8d, %ecx
	movzwl	24(%rax), %r8d
	sarl	$8, %ecx
	movw	%cx, 6(%rdx)
	movl	$77, %ecx
	movl	%r8d, %r11d
	movzwl	26(%rax), %r8d
	imull	%ecx, %r11d
	imull	$150, %r8d, %ecx
	leal	(%r11,%rcx), %r8d
	movzwl	28(%rax), %ecx
	movl	$29, %r11d
	imull	%r11d, %ecx
	addl	%r8d, %ecx
	movzwl	30(%rax), %r8d
	sarl	$8, %ecx
	movw	%cx, 8(%rdx)
	movl	$77, %ecx
	movl	%r8d, %r11d
	movzwl	32(%rax), %r8d
	imull	%ecx, %r11d
	imull	$150, %r8d, %ecx
	leal	(%r11,%rcx), %r8d
	movzwl	34(%rax), %ecx
	movl	$29, %r11d
	imull	%r11d, %ecx
	addl	%r8d, %ecx
	movzwl	36(%rax), %r8d
	sarl	$8, %ecx
	movw	%cx, 10(%rdx)
	movl	$77, %ecx
	movl	%r8d, %r11d
	movzwl	38(%rax), %r8d
	imull	%ecx, %r11d
	imull	$150, %r8d, %ecx
	leal	(%r11,%rcx), %r8d
	movzwl	40(%rax), %ecx
	movl	$29, %r11d
	imull	%r11d, %ecx
	addq	$60, %rax
	addq	$20, %rdx
	addl	%r8d, %ecx
	sarl	$8, %ecx
	movw	%cx, -8(%rdx)
	movzwl	-18(%rax), %r8d
	movl	$77, %ecx
	movl	%r8d, %r11d
	movzwl	-16(%rax), %r8d
	imull	%ecx, %r11d
	imull	$150, %r8d, %ecx
	leal	(%r11,%rcx), %r8d
	movzwl	-14(%rax), %ecx
	movl	$29, %r11d
	imull	%r11d, %ecx
	addl	%r8d, %ecx
	movzwl	-12(%rax), %r8d
	sarl	$8, %ecx
	movw	%cx, -6(%rdx)
	movl	$77, %ecx
	movl	%r8d, %r11d
	movzwl	-10(%rax), %r8d
	imull	%ecx, %r11d
	imull	$150, %r8d, %ecx
	leal	(%r11,%rcx), %r8d
	movzwl	-8(%rax), %ecx
	movl	$29, %r11d
	imull	%r11d, %ecx
	addl	%r8d, %ecx
	movzwl	-6(%rax), %r8d
	sarl	$8, %ecx
	movw	%cx, -4(%rdx)
	movl	$77, %ecx
	movl	%r8d, %r11d
	movzwl	-4(%rax), %r8d
	imull	%ecx, %r11d
	imull	$150, %r8d, %ecx
	leal	(%r11,%rcx), %r8d
	movzwl	-2(%rax), %ecx
	movl	$29, %r11d
	imull	%r11d, %ecx
	addl	%r8d, %ecx
	sarl	$8, %ecx
	movw	%cx, -2(%rdx)
	movl	%r9d, %ecx
	subl	$10, %r9d
	subl	$11, %ecx
	cmpl	$8, %ecx
	jg	.L312
	.p2align 4,,7
.L313:
	movzwl	(%rax), %ecx
	movl	$29, %r11d
	decl	%r9d
	addq	$6, %rax
	addq	$2, %rdx
	movl	%ecx, %r8d
	movl	$77, %ecx
	imull	%ecx, %r8d
	movzwl	-4(%rax), %ecx
	imull	$150, %ecx, %ecx
	addl	%r8d, %ecx
	movzwl	-2(%rax), %r8d
	imull	%r11d, %r8d
	addl	%r8d, %ecx
	sarl	$8, %ecx
	movw	%cx, -2(%rdx)
	cmpl	$-1, %r9d
	jne	.L313
	jmp	.L278
	.p2align 4,,7
.L270:
	testl	%r13d, %r13d
	js	.L278
	cmpb	$0, 77(%rsp)
	.p2align 4,,3
	jne	.L341
	cmpl	$-4, 104(%rsp)
	ja	.L342
	movl	52(%rsp), %r11d
	xorl	%r9d, %r9d
	movq	%rdx, %rcx
	movq	%rax, %r8
.L305:
	movdqu	(%r8), %xmm1
	prefetcht0	272(%r8)
	addl	$2, %r9d
	prefetcht0	560(%rcx)
	prefetcht0	624(%rcx)
	addq	$64, %r8
	movdqu	-48(%r8), %xmm3
	movdqa	%xmm1, %xmm0
	movdqa	%xmm1, %xmm2
	subq	$-128, %rcx
	punpcklwd	%xmm3, %xmm0
	punpckhwd	%xmm3, %xmm2
	punpcklwd	%xmm3, %xmm1
	movdqa	%xmm0, %xmm4
	punpcklwd	%xmm2, %xmm0
	punpckhwd	%xmm2, %xmm4
	punpcklwd	%xmm2, %xmm1
	punpcklwd	%xmm4, %xmm0
	punpckhwd	%xmm4, %xmm1
	movdqa	%xmm0, %xmm3
	movdqa	%xmm0, %xmm4
	movdqa	%xmm0, %xmm2
	punpcklwd	%xmm0, %xmm3
	punpcklwd	%xmm1, %xmm4
	punpckhwd	%xmm0, %xmm2
	punpckhwd	%xmm1, %xmm0
	movdqa	%xmm3, %xmm1
	punpckhwd	%xmm4, %xmm3
	punpcklwd	%xmm4, %xmm1
	movups	%xmm3, -112(%rcx)
	movups	%xmm1, -128(%rcx)
	movdqa	%xmm2, %xmm1
	punpckhwd	%xmm0, %xmm2
	punpcklwd	%xmm0, %xmm1
	movdqu	-16(%r8), %xmm3
	movups	%xmm1, -96(%rcx)
	movups	%xmm2, -80(%rcx)
	movdqu	-32(%r8), %xmm1
	movdqa	%xmm1, %xmm0
	movdqa	%xmm1, %xmm2
	punpcklwd	%xmm3, %xmm1
	punpcklwd	%xmm3, %xmm0
	punpckhwd	%xmm3, %xmm2
	movdqa	%xmm0, %xmm4
	punpcklwd	%xmm2, %xmm0
	punpckhwd	%xmm2, %xmm4
	punpcklwd	%xmm2, %xmm1
	punpcklwd	%xmm4, %xmm0
	punpckhwd	%xmm4, %xmm1
	movdqa	%xmm0, %xmm3
	movdqa	%xmm0, %xmm4
	movdqa	%xmm0, %xmm2
	punpcklwd	%xmm0, %xmm3
	punpcklwd	%xmm1, %xmm4
	punpckhwd	%xmm0, %xmm2
	punpckhwd	%xmm1, %xmm0
	movdqa	%xmm3, %xmm1
	punpckhwd	%xmm4, %xmm3
	punpcklwd	%xmm4, %xmm1
	movups	%xmm3, -48(%rcx)
	movups	%xmm1, -64(%rcx)
	movdqa	%xmm2, %xmm1
	punpckhwd	%xmm0, %xmm2
	punpcklwd	%xmm0, %xmm1
	movups	%xmm2, -16(%rcx)
	movups	%xmm1, -32(%rcx)
	cmpl	%r9d, %r11d
	jne	.L305
	movl	%r11d, %r9d
.L309:
	movdqu	(%r8), %xmm1
	addq	$64, %rcx
	addq	$32, %r8
	incl	%r9d
	movdqu	-16(%r8), %xmm3
	movdqa	%xmm1, %xmm0
	movdqa	%xmm1, %xmm2
	punpcklwd	%xmm3, %xmm0
	punpckhwd	%xmm3, %xmm2
	punpcklwd	%xmm3, %xmm1
	movdqa	%xmm0, %xmm4
	punpcklwd	%xmm2, %xmm0
	punpckhwd	%xmm2, %xmm4
	punpcklwd	%xmm2, %xmm1
	punpcklwd	%xmm4, %xmm0
	punpckhwd	%xmm4, %xmm1
	movdqa	%xmm0, %xmm3
	movdqa	%xmm0, %xmm4
	movdqa	%xmm0, %xmm2
	punpcklwd	%xmm0, %xmm3
	punpcklwd	%xmm1, %xmm4
	punpckhwd	%xmm0, %xmm2
	punpckhwd	%xmm1, %xmm0
	movdqa	%xmm3, %xmm1
	punpckhwd	%xmm4, %xmm3
	punpcklwd	%xmm4, %xmm1
	movups	%xmm3, -48(%rcx)
	movups	%xmm1, -64(%rcx)
	movdqa	%xmm2, %xmm1
	punpckhwd	%xmm0, %xmm2
	punpcklwd	%xmm0, %xmm1
	movups	%xmm2, -16(%rcx)
	movups	%xmm1, -32(%rcx)
	cmpl	%r9d, 72(%rsp)
	ja	.L309
	addq	56(%rsp), %rax
	addq	64(%rsp), %rdx
	movl	36(%rsp), %r9d
	cmpl	%r9d, 40(%rsp)
	je	.L278
	movl	88(%rsp), %ecx
	jmp	.L303
	.p2align 4,,7
.L269:
	testl	%r13d, %r13d
	js	.L278
	movl	%r13d, %r8d
	.p2align 4,,7
.L302:
	movzwl	(%rax), %ecx
	decl	%r8d
	addq	$4, %rax
	addq	$6, %rdx
	movw	%cx, -2(%rdx)
	movw	%cx, -4(%rdx)
	movw	%cx, -6(%rdx)
	cmpl	$-1, %r8d
	jne	.L302
	jmp	.L278
	.p2align 4,,7
.L268:
	testl	%r13d, %r13d
	js	.L278
	cmpb	$0, 79(%rsp)
	.p2align 4,,3
	jne	.L339
	cmpl	$-6, 112(%rsp)
	ja	.L340
	movl	48(%rsp), %r11d
	xorl	%r9d, %r9d
	movq	%rdx, %r8
	movq	%rax, %rcx
.L297:
	movdqu	16(%rcx), %xmm2
	prefetcht0	656(%rcx)
	prefetcht0	720(%rcx)
	addl	$4, %r9d
	prefetcht0	320(%r8)
	subq	$-128, %rcx
	movdqu	-128(%rcx), %xmm0
	addq	$64, %r8
	movdqa	%xmm0, %xmm1
	punpcklwd	%xmm2, %xmm0
	punpckhwd	%xmm2, %xmm1
	movdqa	%xmm0, %xmm2
	punpcklwd	%xmm1, %xmm0
	punpckhwd	%xmm1, %xmm2
	punpcklwd	%xmm2, %xmm0
	movdqu	-80(%rcx), %xmm2
	movups	%xmm0, -64(%r8)
	movdqu	-96(%rcx), %xmm0
	movdqa	%xmm0, %xmm1
	punpcklwd	%xmm2, %xmm0
	punpckhwd	%xmm2, %xmm1
	movdqa	%xmm0, %xmm2
	punpcklwd	%xmm1, %xmm0
	punpckhwd	%xmm1, %xmm2
	punpcklwd	%xmm2, %xmm0
	movdqu	-48(%rcx), %xmm2
	movups	%xmm0, -48(%r8)
	movdqu	-64(%rcx), %xmm0
	movdqa	%xmm0, %xmm1
	punpcklwd	%xmm2, %xmm0
	punpckhwd	%xmm2, %xmm1
	movdqa	%xmm0, %xmm2
	punpcklwd	%xmm1, %xmm0
	punpckhwd	%xmm1, %xmm2
	punpcklwd	%xmm2, %xmm0
	movdqu	-16(%rcx), %xmm2
	movups	%xmm0, -32(%r8)
	movdqu	-32(%rcx), %xmm0
	movdqa	%xmm0, %xmm1
	punpcklwd	%xmm2, %xmm0
	punpckhwd	%xmm2, %xmm1
	movdqa	%xmm0, %xmm2
	punpcklwd	%xmm1, %xmm0
	punpckhwd	%xmm1, %xmm2
	punpcklwd	%xmm2, %xmm0
	movups	%xmm0, -16(%r8)
	cmpl	%r9d, %r11d
	jne	.L297
.L296:
	xorl	%r9d, %r9d
.L301:
	movdqu	16(%rcx,%r9,2), %xmm2
	incl	%r11d
	movdqu	(%rcx,%r9,2), %xmm0
	movdqa	%xmm0, %xmm1
	punpcklwd	%xmm2, %xmm0
	punpckhwd	%xmm2, %xmm1
	movdqa	%xmm0, %xmm2
	punpcklwd	%xmm1, %xmm0
	punpckhwd	%xmm1, %xmm2
	punpcklwd	%xmm2, %xmm0
	movups	%xmm0, (%r8,%r9)
	addq	$16, %r9
	cmpl	116(%rsp), %r11d
	jb	.L301
	addq	128(%rsp), %rax
	addq	96(%rsp), %rdx
	movl	92(%rsp), %r9d
	cmpl	%r9d, 36(%rsp)
	je	.L278
	movl	124(%rsp), %ecx
	jmp	.L295
	.p2align 4,,7
.L267:
	testl	%r13d, %r13d
	js	.L278
	cmpb	$0, 77(%rsp)
	jne	.L337
	cmpl	$-6, 108(%rsp)
	ja	.L338
	xorl	%r9d, %r9d
	movq	%rdx, %rcx
	movq	%rax, %r8
.L290:
	movdqu	(%r8), %xmm0
	prefetcht0	160(%r8)
	prefetcht0	688(%rcx)
	prefetcht0	752(%rcx)
	prefetcht0	816(%rcx)
	prefetcht0	880(%rcx)
	movdqa	%xmm0, %xmm2
	addq	$64, %r8
	movdqa	%xmm0, %xmm3
	addq	$256, %rcx
	punpcklwd	%xmm0, %xmm2
	addl	$4, %r9d
	punpcklwd	%xmm6, %xmm3
	movdqa	%xmm0, %xmm1
	movdqa	%xmm2, %xmm4
	punpckhwd	%xmm0, %xmm1
	punpckhwd	%xmm3, %xmm2
	punpckhwd	%xmm6, %xmm0
	punpcklwd	%xmm3, %xmm4
	movups	%xmm2, -240(%rcx)
	movdqa	%xmm1, %xmm2
	punpckhwd	%xmm0, %xmm1
	punpcklwd	%xmm0, %xmm2
	movdqu	-48(%r8), %xmm0
	movups	%xmm2, -224(%rcx)
	movdqa	%xmm0, %xmm3
	movdqa	%xmm0, %xmm2
	punpcklwd	%xmm6, %xmm3
	punpcklwd	%xmm0, %xmm2
	movups	%xmm1, -208(%rcx)
	movdqa	%xmm0, %xmm1
	movups	%xmm4, -256(%rcx)
	punpckhwd	%xmm0, %xmm1
	movdqa	%xmm2, %xmm4
	punpckhwd	%xmm3, %xmm2
	punpckhwd	%xmm6, %xmm0
	punpcklwd	%xmm3, %xmm4
	movups	%xmm2, -176(%rcx)
	movdqa	%xmm1, %xmm2
	punpckhwd	%xmm0, %xmm1
	punpcklwd	%xmm0, %xmm2
	movdqu	-32(%r8), %xmm0
	movups	%xmm2, -160(%rcx)
	movdqa	%xmm0, %xmm3
	movdqa	%xmm0, %xmm2
	punpcklwd	%xmm6, %xmm3
	punpcklwd	%xmm0, %xmm2
	movups	%xmm1, -144(%rcx)
	movdqa	%xmm0, %xmm1
	movups	%xmm4, -192(%rcx)
	punpckhwd	%xmm0, %xmm1
	movdqa	%xmm2, %xmm4
	punpckhwd	%xmm3, %xmm2
	punpckhwd	%xmm6, %xmm0
	punpcklwd	%xmm3, %xmm4
	movups	%xmm2, -112(%rcx)
	movdqa	%xmm1, %xmm2
	punpckhwd	%xmm0, %xmm1
	punpcklwd	%xmm0, %xmm2
	movdqu	-16(%r8), %xmm0
	movups	%xmm2, -96(%rcx)
	movdqa	%xmm0, %xmm3
	movdqa	%xmm0, %xmm2
	punpcklwd	%xmm6, %xmm3
	punpcklwd	%xmm0, %xmm2
	movups	%xmm1, -80(%rcx)
	movdqa	%xmm0, %xmm1
	movups	%xmm4, -128(%rcx)
	punpckhwd	%xmm0, %xmm1
	movdqa	%xmm2, %xmm4
	punpckhwd	%xmm3, %xmm2
	punpckhwd	%xmm6, %xmm0
	punpcklwd	%xmm3, %xmm4
	movups	%xmm2, -48(%rcx)
	movdqa	%xmm1, %xmm2
	punpckhwd	%xmm0, %xmm1
	punpcklwd	%xmm0, %xmm2
	movups	%xmm4, -64(%rcx)
	movups	%xmm2, -32(%rcx)
	movups	%xmm1, -16(%rcx)
	cmpl	%r9d, 44(%rsp)
	jne	.L290
.L294:
	movdqu	(%r8), %xmm0
	addq	$64, %rcx
	addq	$16, %r8
	incl	%r9d
	movdqa	%xmm0, %xmm2
	movdqa	%xmm0, %xmm3
	movdqa	%xmm0, %xmm1
	punpcklwd	%xmm0, %xmm2
	punpcklwd	%xmm6, %xmm3
	punpckhwd	%xmm0, %xmm1
	movdqa	%xmm2, %xmm4
	punpckhwd	%xmm6, %xmm0
	punpckhwd	%xmm3, %xmm2
	punpcklwd	%xmm3, %xmm4
	movups	%xmm2, -48(%rcx)
	movdqa	%xmm1, %xmm2
	punpckhwd	%xmm0, %xmm1
	punpcklwd	%xmm0, %xmm2
	movups	%xmm4, -64(%rcx)
	movups	%xmm2, -32(%rcx)
	movups	%xmm1, -16(%rcx)
	cmpl	%r9d, 72(%rsp)
	ja	.L294
	addq	80(%rsp), %rax
	addq	64(%rsp), %rdx
	movl	36(%rsp), %r9d
	cmpl	%r9d, 40(%rsp)
	je	.L278
	movl	88(%rsp), %ecx
	jmp	.L288
	.p2align 4,,7
.L266:
	testl	%r13d, %r13d
	js	.L278
	movl	%r13d, %r8d
	.p2align 4,,7
.L287:
	movzwl	(%rax), %ecx
	decl	%r8d
	addq	$2, %rax
	addq	$6, %rdx
	movw	%cx, -2(%rdx)
	movw	%cx, -4(%rdx)
	movw	%cx, -6(%rdx)
	cmpl	$-1, %r8d
	jne	.L287
	jmp	.L278
	.p2align 4,,7
.L264:
	testl	%r13d, %r13d
	js	.L278
	cmpb	$0, 77(%rsp)
	.p2align 4,,3
	jne	.L335
	cmpl	$-6, 108(%rsp)
	ja	.L336
	movl	44(%rsp), %r11d
	xorl	%r9d, %r9d
	movq	%rdx, %rcx
	movq	%rax, %r8
.L281:
	movdqu	(%r8), %xmm0
	prefetcht0	304(%r8)
	addl	$4, %r9d
	prefetcht0	624(%rcx)
	prefetcht0	688(%rcx)
	addq	$64, %r8
	movdqa	%xmm0, %xmm1
	punpckhwd	%xmm6, %xmm0
	subq	$-128, %rcx
	punpcklwd	%xmm6, %xmm1
	movups	%xmm0, -112(%rcx)
	movups	%xmm1, -128(%rcx)
	movdqu	-48(%r8), %xmm0
	movdqa	%xmm0, %xmm1
	punpckhwd	%xmm6, %xmm0
	punpcklwd	%xmm6, %xmm1
	movups	%xmm0, -80(%rcx)
	movups	%xmm1, -96(%rcx)
	movdqu	-32(%r8), %xmm0
	movdqa	%xmm0, %xmm1
	punpckhwd	%xmm6, %xmm0
	punpcklwd	%xmm6, %xmm1
	movups	%xmm0, -48(%rcx)
	movups	%xmm1, -64(%rcx)
	movdqu	-16(%r8), %xmm0
	movdqa	%xmm0, %xmm1
	punpckhwd	%xmm6, %xmm0
	punpcklwd	%xmm6, %xmm1
	movups	%xmm0, -16(%rcx)
	movups	%xmm1, -32(%rcx)
	cmpl	%r9d, %r11d
	jne	.L281
.L280:
	xorl	%r9d, %r9d
.L286:
	movdqu	(%r8,%r9), %xmm0
	incl	%r11d
	movdqa	%xmm0, %xmm1
	punpckhwd	%xmm6, %xmm0
	punpcklwd	%xmm6, %xmm1
	movups	%xmm0, 16(%rcx,%r9,2)
	movups	%xmm1, (%rcx,%r9,2)
	addq	$16, %r9
	cmpl	%r11d, 72(%rsp)
	ja	.L286
	addq	80(%rsp), %rax
	addq	56(%rsp), %rdx
	movl	36(%rsp), %r9d
	cmpl	%r9d, 40(%rsp)
	je	.L278
	movl	88(%rsp), %ecx
	jmp	.L279
	.p2align 4,,7
.L263:
	leaq	.LC3(%rip), %rdx
	leaq	.LC8(%rip), %rcx
	movl	$1555, %r8d
	movl	%r10d, 120(%rsp)
	call	_assert
	movl	120(%rsp), %r10d
	jmp	.L278
	.p2align 4,,7
.L525:
	leaq	.LC3(%rip), %rdx
	leaq	.LC6(%rip), %rcx
	movl	$1526, %r8d
	call	_assert
	jmp	.L260
	.p2align 4,,7
.L347:
	movl	%r13d, %r8d
.L324:
	movzwl	(%rax), %r9d
	movl	$77, %ecx
	movl	%r9d, %r11d
	movzwl	2(%rax), %r9d
	imull	%ecx, %r11d
	imull	$150, %r9d, %ecx
	leal	(%r11,%rcx), %r9d
	movzwl	4(%rax), %ecx
	movl	$29, %r11d
	imull	%r11d, %ecx
	addl	%r9d, %ecx
	sarl	$8, %ecx
	testl	%r8d, %r8d
	movw	%cx, (%rdx)
	movzwl	6(%rax), %ecx
	movw	%cx, 2(%rdx)
	je	.L278
	movzwl	8(%rax), %r9d
	movl	$77, %ecx
	movl	%r9d, %r11d
	movzwl	10(%rax), %r9d
	imull	%ecx, %r11d
	imull	$150, %r9d, %ecx
	leal	(%r11,%rcx), %r9d
	movzwl	12(%rax), %ecx
	movl	$29, %r11d
	imull	%r11d, %ecx
	addl	%r9d, %ecx
	sarl	$8, %ecx
	cmpl	$1, %r8d
	movw	%cx, 4(%rdx)
	movzwl	14(%rax), %ecx
	movw	%cx, 6(%rdx)
	je	.L278
	movzwl	16(%rax), %r9d
	movl	$77, %ecx
	movl	%r9d, %r11d
	movzwl	18(%rax), %r9d
	imull	%ecx, %r11d
	imull	$150, %r9d, %ecx
	leal	(%r11,%rcx), %r9d
	movzwl	20(%rax), %ecx
	movl	$29, %r11d
	imull	%r11d, %ecx
	addl	%r9d, %ecx
	sarl	$8, %ecx
	cmpl	$2, %r8d
	movw	%cx, 8(%rdx)
	movzwl	22(%rax), %ecx
	movw	%cx, 10(%rdx)
	je	.L278
	movzwl	24(%rax), %r9d
	movl	$77, %ecx
	movl	%r9d, %r11d
	movzwl	26(%rax), %r9d
	imull	%ecx, %r11d
	imull	$150, %r9d, %ecx
	leal	(%r11,%rcx), %r9d
	movzwl	28(%rax), %ecx
	movl	$29, %r11d
	imull	%r11d, %ecx
	addl	%r9d, %ecx
	sarl	$8, %ecx
	cmpl	$3, %r8d
	movw	%cx, 12(%rdx)
	movzwl	30(%rax), %ecx
	movw	%cx, 14(%rdx)
	je	.L278
	movzwl	32(%rax), %r9d
	movl	$77, %ecx
	movl	%r9d, %r11d
	movzwl	34(%rax), %r9d
	imull	%ecx, %r11d
	imull	$150, %r9d, %ecx
	leal	(%r11,%rcx), %r9d
	movzwl	36(%rax), %ecx
	movl	$29, %r11d
	imull	%r11d, %ecx
	addl	%r9d, %ecx
	sarl	$8, %ecx
	cmpl	$4, %r8d
	movw	%cx, 16(%rdx)
	movzwl	38(%rax), %ecx
	movw	%cx, 18(%rdx)
	je	.L278
	movzwl	40(%rax), %r9d
	movl	$77, %ecx
	movl	%r9d, %r11d
	movzwl	42(%rax), %r9d
	imull	%ecx, %r11d
	imull	$150, %r9d, %ecx
	leal	(%r11,%rcx), %r9d
	movzwl	44(%rax), %ecx
	movl	$29, %r11d
	imull	%r11d, %ecx
	addl	%r9d, %ecx
	sarl	$8, %ecx
	cmpl	$5, %r8d
	movw	%cx, 20(%rdx)
	movzwl	46(%rax), %ecx
	movw	%cx, 22(%rdx)
	je	.L278
	movzwl	48(%rax), %r8d
	movl	$77, %ecx
	movl	%r8d, %r9d
	movzwl	50(%rax), %r8d
	imull	%ecx, %r9d
	imull	$150, %r8d, %ecx
	leal	(%r9,%rcx), %r8d
	movzwl	52(%rax), %ecx
	movl	$29, %r9d
	imull	%r9d, %ecx
	addl	%r8d, %ecx
	sarl	$8, %ecx
	movw	%cx, 24(%rdx)
	movzwl	54(%rax), %eax
	movw	%ax, 26(%rdx)
	jmp	.L278
	.p2align 4,,7
.L335:
	movl	%r13d, %ecx
.L279:
	movzwl	(%rax), %r8d
	testl	%ecx, %ecx
	movw	$-1, 2(%rdx)
	movw	%r8w, (%rdx)
	je	.L278
	movzwl	2(%rax), %r8d
	cmpl	$1, %ecx
	movw	$-1, 6(%rdx)
	movw	%r8w, 4(%rdx)
	je	.L278
	movzwl	4(%rax), %r8d
	cmpl	$2, %ecx
	movw	$-1, 10(%rdx)
	movw	%r8w, 8(%rdx)
	je	.L278
	movzwl	6(%rax), %r8d
	cmpl	$3, %ecx
	movw	$-1, 14(%rdx)
	movw	%r8w, 12(%rdx)
	je	.L278
	movzwl	8(%rax), %r8d
	cmpl	$4, %ecx
	movw	$-1, 18(%rdx)
	movw	%r8w, 16(%rdx)
	je	.L278
	movzwl	10(%rax), %r8d
	cmpl	$5, %ecx
	movw	$-1, 22(%rdx)
	movw	%r8w, 20(%rdx)
	je	.L278
	movzwl	12(%rax), %eax
	movw	$-1, 26(%rdx)
	movw	%ax, 24(%rdx)
	jmp	.L278
	.p2align 4,,7
.L345:
	movl	%r13d, %ecx
.L317:
	movzwl	(%rax), %r9d
	movl	$77, %r8d
	movl	%r9d, %r11d
	movzwl	2(%rax), %r9d
	imull	%r8d, %r11d
	imull	$150, %r9d, %r8d
	leal	(%r11,%r8), %r9d
	movzwl	4(%rax), %r8d
	movl	$29, %r11d
	imull	%r11d, %r8d
	addl	%r9d, %r8d
	sarl	$8, %r8d
	testl	%ecx, %ecx
	movw	%r8w, (%rdx)
	je	.L278
	movzwl	8(%rax), %r9d
	movl	$77, %r8d
	movl	%r9d, %r11d
	movzwl	10(%rax), %r9d
	imull	%r8d, %r11d
	imull	$150, %r9d, %r8d
	leal	(%r11,%r8), %r9d
	movzwl	12(%rax), %r8d
	movl	$29, %r11d
	imull	%r11d, %r8d
	addl	%r9d, %r8d
	sarl	$8, %r8d
	cmpl	$1, %ecx
	movw	%r8w, 2(%rdx)
	je	.L278
	movzwl	16(%rax), %r9d
	movl	$77, %r8d
	movl	%r9d, %r11d
	movzwl	18(%rax), %r9d
	imull	%r8d, %r11d
	imull	$150, %r9d, %r8d
	leal	(%r11,%r8), %r9d
	movzwl	20(%rax), %r8d
	movl	$29, %r11d
	imull	%r11d, %r8d
	addl	%r9d, %r8d
	sarl	$8, %r8d
	cmpl	$2, %ecx
	movw	%r8w, 4(%rdx)
	je	.L278
	movzwl	24(%rax), %r9d
	movl	$77, %r8d
	movl	%r9d, %r11d
	movzwl	26(%rax), %r9d
	imull	%r8d, %r11d
	imull	$150, %r9d, %r8d
	leal	(%r11,%r8), %r9d
	movzwl	28(%rax), %r8d
	movl	$29, %r11d
	imull	%r11d, %r8d
	addl	%r9d, %r8d
	sarl	$8, %r8d
	cmpl	$3, %ecx
	movw	%r8w, 6(%rdx)
	je	.L278
	movzwl	32(%rax), %r9d
	movl	$77, %r8d
	movl	%r9d, %r11d
	movzwl	34(%rax), %r9d
	imull	%r8d, %r11d
	imull	$150, %r9d, %r8d
	leal	(%r11,%r8), %r9d
	movzwl	36(%rax), %r8d
	movl	$29, %r11d
	imull	%r11d, %r8d
	addl	%r9d, %r8d
	sarl	$8, %r8d
	cmpl	$4, %ecx
	movw	%r8w, 8(%rdx)
	je	.L278
	movzwl	40(%rax), %r9d
	movl	$77, %r8d
	movl	%r9d, %r11d
	movzwl	42(%rax), %r9d
	imull	%r8d, %r11d
	imull	$150, %r9d, %r8d
	leal	(%r11,%r8), %r9d
	movzwl	44(%rax), %r8d
	movl	$29, %r11d
	imull	%r11d, %r8d
	addl	%r9d, %r8d
	sarl	$8, %r8d
	cmpl	$5, %ecx
	movw	%r8w, 10(%rdx)
	je	.L278
	movzwl	48(%rax), %r9d
	movl	$77, %r8d
	movl	%r9d, %r11d
	movzwl	50(%rax), %r9d
	imull	%r8d, %r11d
	imull	$150, %r9d, %r8d
	leal	(%r11,%r8), %r9d
	movzwl	52(%rax), %r8d
	movl	$29, %r11d
	imull	%r11d, %r8d
	addl	%r9d, %r8d
	sarl	$8, %r8d
	cmpl	$6, %ecx
	movw	%r8w, 12(%rdx)
	je	.L278
	movzwl	56(%rax), %r9d
	movl	$77, %r8d
	movl	%r9d, %r11d
	movzwl	58(%rax), %r9d
	imull	%r8d, %r11d
	imull	$150, %r9d, %r8d
	leal	(%r11,%r8), %r9d
	movzwl	60(%rax), %r8d
	movl	$29, %r11d
	imull	%r11d, %r8d
	addl	%r9d, %r8d
	sarl	$8, %r8d
	cmpl	$7, %ecx
	movw	%r8w, 14(%rdx)
	je	.L278
	movzwl	64(%rax), %r9d
	movl	$77, %r8d
	movl	%r9d, %r11d
	movzwl	66(%rax), %r9d
	imull	%r8d, %r11d
	imull	$150, %r9d, %r8d
	leal	(%r11,%r8), %r9d
	movzwl	68(%rax), %r8d
	movl	$29, %r11d
	imull	%r11d, %r8d
	addl	%r9d, %r8d
	sarl	$8, %r8d
	cmpl	$8, %ecx
	movw	%r8w, 16(%rdx)
	je	.L278
	movzwl	72(%rax), %r9d
	movl	$77, %r8d
	movl	%r9d, %r11d
	movzwl	74(%rax), %r9d
	imull	%r8d, %r11d
	imull	$150, %r9d, %r8d
	leal	(%r11,%r8), %r9d
	movzwl	76(%rax), %r8d
	movl	$29, %r11d
	imull	%r11d, %r8d
	addl	%r9d, %r8d
	sarl	$8, %r8d
	cmpl	$9, %ecx
	movw	%r8w, 18(%rdx)
	je	.L278
	movzwl	80(%rax), %r9d
	movl	$77, %r8d
	movl	%r9d, %r11d
	movzwl	82(%rax), %r9d
	imull	%r8d, %r11d
	imull	$150, %r9d, %r8d
	leal	(%r11,%r8), %r9d
	movzwl	84(%rax), %r8d
	movl	$29, %r11d
	imull	%r11d, %r8d
	addl	%r9d, %r8d
	sarl	$8, %r8d
	cmpl	$10, %ecx
	movw	%r8w, 20(%rdx)
	je	.L278
	movzwl	88(%rax), %r9d
	movl	$77, %r8d
	movl	%r9d, %r11d
	movzwl	90(%rax), %r9d
	imull	%r8d, %r11d
	imull	$150, %r9d, %r8d
	leal	(%r11,%r8), %r9d
	movzwl	92(%rax), %r8d
	movl	$29, %r11d
	imull	%r11d, %r8d
	addl	%r9d, %r8d
	sarl	$8, %r8d
	cmpl	$11, %ecx
	movw	%r8w, 22(%rdx)
	je	.L278
	movzwl	96(%rax), %r9d
	movl	$77, %r8d
	movl	%r9d, %r11d
	movzwl	98(%rax), %r9d
	imull	%r8d, %r11d
	imull	$150, %r9d, %r8d
	leal	(%r11,%r8), %r9d
	movzwl	100(%rax), %r8d
	movl	$29, %r11d
	imull	%r11d, %r8d
	addl	%r9d, %r8d
	sarl	$8, %r8d
	cmpl	$12, %ecx
	movw	%r8w, 24(%rdx)
	je	.L278
	movzwl	104(%rax), %r9d
	movl	$77, %r8d
	movl	%r9d, %r11d
	movzwl	106(%rax), %r9d
	imull	%r8d, %r11d
	imull	$150, %r9d, %r8d
	leal	(%r11,%r8), %r9d
	movzwl	108(%rax), %r8d
	movl	$29, %r11d
	imull	%r11d, %r8d
	addl	%r9d, %r8d
	sarl	$8, %r8d
	cmpl	$13, %ecx
	movw	%r8w, 26(%rdx)
	je	.L278
	movzwl	112(%rax), %r8d
	movl	$77, %ecx
	movl	$29, %r9d
	imull	%ecx, %r8d
	movzwl	114(%rax), %ecx
	imull	$150, %ecx, %ecx
	addl	%ecx, %r8d
	movzwl	116(%rax), %ecx
	imull	%r9d, %ecx
	addl	%r8d, %ecx
	sarl	$8, %ecx
	movw	%cx, 28(%rdx)
	jmp	.L278
	.p2align 4,,7
.L341:
	movl	%r13d, %ecx
.L303:
	movzwl	(%rax), %r8d
	testl	%ecx, %ecx
	movw	%r8w, 4(%rdx)
	movw	%r8w, 2(%rdx)
	movw	%r8w, (%rdx)
	movzwl	2(%rax), %r8d
	movw	%r8w, 6(%rdx)
	je	.L278
	movzwl	4(%rax), %r8d
	cmpl	$1, %ecx
	movw	%r8w, 12(%rdx)
	movw	%r8w, 10(%rdx)
	movw	%r8w, 8(%rdx)
	movzwl	6(%rax), %r8d
	movw	%r8w, 14(%rdx)
	je	.L278
	movzwl	8(%rax), %r8d
	cmpl	$2, %ecx
	movw	%r8w, 20(%rdx)
	movw	%r8w, 18(%rdx)
	movw	%r8w, 16(%rdx)
	movzwl	10(%rax), %r8d
	movw	%r8w, 22(%rdx)
	je	.L278
	movzwl	12(%rax), %r8d
	cmpl	$3, %ecx
	movw	%r8w, 28(%rdx)
	movw	%r8w, 26(%rdx)
	movw	%r8w, 24(%rdx)
	movzwl	14(%rax), %r8d
	movw	%r8w, 30(%rdx)
	je	.L278
	movzwl	16(%rax), %r8d
	cmpl	$4, %ecx
	movw	%r8w, 36(%rdx)
	movw	%r8w, 34(%rdx)
	movw	%r8w, 32(%rdx)
	movzwl	18(%rax), %r8d
	movw	%r8w, 38(%rdx)
	je	.L278
	movzwl	20(%rax), %r8d
	cmpl	$5, %ecx
	movw	%r8w, 44(%rdx)
	movw	%r8w, 42(%rdx)
	movw	%r8w, 40(%rdx)
	movzwl	22(%rax), %r8d
	movw	%r8w, 46(%rdx)
	je	.L278
	movzwl	24(%rax), %ecx
	movw	%cx, 52(%rdx)
	movw	%cx, 50(%rdx)
	movw	%cx, 48(%rdx)
	movzwl	26(%rax), %eax
	movw	%ax, 54(%rdx)
	jmp	.L278
	.p2align 4,,7
.L339:
	movl	%r13d, %ecx
.L295:
	movzwl	(%rax), %r8d
	testl	%ecx, %ecx
	movw	%r8w, (%rdx)
	je	.L278
	movzwl	4(%rax), %r8d
	cmpl	$1, %ecx
	movw	%r8w, 2(%rdx)
	je	.L278
	movzwl	8(%rax), %r8d
	cmpl	$2, %ecx
	movw	%r8w, 4(%rdx)
	je	.L278
	movzwl	12(%rax), %r8d
	cmpl	$3, %ecx
	movw	%r8w, 6(%rdx)
	je	.L278
	movzwl	16(%rax), %r8d
	cmpl	$4, %ecx
	movw	%r8w, 8(%rdx)
	je	.L278
	movzwl	20(%rax), %r8d
	cmpl	$5, %ecx
	movw	%r8w, 10(%rdx)
	je	.L278
	movzwl	24(%rax), %r8d
	cmpl	$6, %ecx
	movw	%r8w, 12(%rdx)
	je	.L278
	movzwl	28(%rax), %r8d
	cmpl	$7, %ecx
	movw	%r8w, 14(%rdx)
	je	.L278
	movzwl	32(%rax), %r8d
	cmpl	$8, %ecx
	movw	%r8w, 16(%rdx)
	je	.L278
	movzwl	36(%rax), %r8d
	cmpl	$9, %ecx
	movw	%r8w, 18(%rdx)
	je	.L278
	movzwl	40(%rax), %r8d
	cmpl	$10, %ecx
	movw	%r8w, 20(%rdx)
	je	.L278
	movzwl	44(%rax), %r8d
	cmpl	$11, %ecx
	movw	%r8w, 22(%rdx)
	je	.L278
	movzwl	48(%rax), %r8d
	cmpl	$12, %ecx
	movw	%r8w, 24(%rdx)
	je	.L278
	movzwl	52(%rax), %r8d
	cmpl	$13, %ecx
	movw	%r8w, 26(%rdx)
	je	.L278
	movzwl	56(%rax), %eax
	movw	%ax, 28(%rdx)
	jmp	.L278
	.p2align 4,,7
.L337:
	movl	%r13d, %ecx
.L288:
	movzwl	(%rax), %r8d
	testl	%ecx, %ecx
	movw	$-1, 6(%rdx)
	movw	%r8w, 4(%rdx)
	movw	%r8w, 2(%rdx)
	movw	%r8w, (%rdx)
	je	.L278
	movzwl	2(%rax), %r8d
	cmpl	$1, %ecx
	movw	$-1, 14(%rdx)
	movw	%r8w, 12(%rdx)
	movw	%r8w, 10(%rdx)
	movw	%r8w, 8(%rdx)
	je	.L278
	movzwl	4(%rax), %r8d
	cmpl	$2, %ecx
	movw	$-1, 22(%rdx)
	movw	%r8w, 20(%rdx)
	movw	%r8w, 18(%rdx)
	movw	%r8w, 16(%rdx)
	je	.L278
	movzwl	6(%rax), %r8d
	cmpl	$3, %ecx
	movw	$-1, 30(%rdx)
	movw	%r8w, 28(%rdx)
	movw	%r8w, 26(%rdx)
	movw	%r8w, 24(%rdx)
	je	.L278
	movzwl	8(%rax), %r8d
	cmpl	$4, %ecx
	movw	$-1, 38(%rdx)
	movw	%r8w, 36(%rdx)
	movw	%r8w, 34(%rdx)
	movw	%r8w, 32(%rdx)
	je	.L278
	movzwl	10(%rax), %r8d
	cmpl	$5, %ecx
	movw	$-1, 46(%rdx)
	movw	%r8w, 44(%rdx)
	movw	%r8w, 42(%rdx)
	movw	%r8w, 40(%rdx)
	je	.L278
	movzwl	12(%rax), %eax
	movw	$-1, 54(%rdx)
	movw	%ax, 52(%rdx)
	movw	%ax, 50(%rdx)
	movw	%ax, 48(%rdx)
	jmp	.L278
	.p2align 4,,7
.L334:
	movq	%rcx, %rax
	jmp	.L259
.L348:
	movq	%rdx, %r8
	movq	%rax, %rcx
	xorl	%r9d, %r9d
	jmp	.L325
.L340:
	movq	%rdx, %r8
	movq	%rax, %rcx
	xorl	%r11d, %r11d
	jmp	.L296
.L336:
	movq	%rdx, %rcx
	movq	%rax, %r8
	xorl	%r11d, %r11d
	jmp	.L280
.L342:
	movq	%rdx, %rcx
	movq	%rax, %r8
	xorl	%r9d, %r9d
	jmp	.L309
.L346:
	movq	%rdx, %r8
	movq	%rax, %rcx
	xorl	%r9d, %r9d
	jmp	.L318
.L338:
	movq	%rdx, %rcx
	movq	%rax, %r8
	xorl	%r9d, %r9d
	jmp	.L294
.L261:
	movq	%r15, %rcx
	call	free
	leaq	.LC7(%rip), %rax
	movq	%rax, _ZL22stbi__g_failure_reason(%rip)
	xorl	%eax, %eax
	jmp	.L259
	.seh_endproc
	.p2align 4,,15
	.def	_ZL28stbi__resample_row_hv_2_simdPhS_S_ii;	.scl	3;	.type	32;	.endef
	.seh_proc	_ZL28stbi__resample_row_hv_2_simdPhS_S_ii
_ZL28stbi__resample_row_hv_2_simdPhS_S_ii:
.LFB649:
	pushq	%rbp
	.seh_pushreg	%rbp
	pushq	%rdi
	.seh_pushreg	%rdi
	pushq	%rsi
	.seh_pushreg	%rsi
	pushq	%rbx
	.seh_pushreg	%rbx
	.seh_endprologue
	cmpl	$1, %r9d
	movq	%rcx, %rax
	je	.L537
	movzbl	(%rdx), %ecx
	leal	-1(%r9), %edi
	movl	%edi, %esi
	leal	(%rcx,%rcx,2), %r10d
	movzbl	(%r8), %ecx
	addl	%r10d, %ecx
	andl	$-8, %esi
	jle	.L533
	pxor	%xmm4, %xmm4
	movdqa	.LC9(%rip), %xmm5
	movq	%rax, %rbx
	xorl	%r10d, %r10d
	.p2align 4,,7
.L530:
	movq	(%rdx,%r10), %xmm1
	addq	$16, %rbx
	movq	(%r8,%r10), %xmm3
	punpcklbw	%xmm4, %xmm1
	punpcklbw	%xmm4, %xmm3
	movdqa	%xmm1, %xmm0
	psubw	%xmm1, %xmm3
	psllw	$2, %xmm0
	paddw	%xmm0, %xmm3
	movdqa	%xmm3, %xmm0
	movdqa	%xmm3, %xmm2
	movdqa	%xmm3, %xmm1
	pslldq	$2, %xmm0
	pinsrw	$0, %ecx, %xmm0
	movzbl	8(%rdx,%r10), %ecx
	psrldq	$2, %xmm2
	psllw	$2, %xmm1
	paddw	%xmm5, %xmm1
	psubw	%xmm3, %xmm0
	paddw	%xmm1, %xmm0
	leal	(%rcx,%rcx,2), %r11d
	movzbl	8(%r8,%r10), %ecx
	addl	%ecx, %r11d
	pinsrw	$7, %r11d, %xmm2
	psubw	%xmm3, %xmm2
	paddw	%xmm1, %xmm2
	movdqa	%xmm0, %xmm1
	punpckhwd	%xmm2, %xmm0
	punpcklwd	%xmm2, %xmm1
	psrlw	$4, %xmm0
	psrlw	$4, %xmm1
	movdqa	%xmm1, %xmm2
	packuswb	%xmm0, %xmm2
	movups	%xmm2, -16(%rbx)
	movzbl	7(%rdx,%r10), %ecx
	leal	(%rcx,%rcx,2), %r11d
	movzbl	7(%r8,%r10), %ecx
	addq	$8, %r10
	addl	%r11d, %ecx
	cmpl	%r10d, %esi
	jg	.L530
	decl	%esi
	shrl	$3, %esi
	leal	1(%rsi), %r10d
	leal	0(,%r10,8), %esi
	sall	$4, %r10d
	movslq	%r10d, %r10
	movslq	%esi, %rbx
	incl	%esi
.L529:
	movzbl	(%rdx,%rbx), %r11d
	leal	(%r11,%r11,2), %ebp
	movzbl	(%r8,%rbx), %r11d
	addl	%r11d, %ebp
	leal	0(%rbp,%rbp,2), %r11d
	leal	8(%rcx,%r11), %ecx
	sarl	$4, %ecx
	cmpl	%esi, %r9d
	movb	%cl, (%rax,%r10)
	jle	.L534
	leal	(%rsi,%rsi), %ebx
	subl	%esi, %edi
	movslq	%esi, %rsi
	addq	%rsi, %rdx
	incq	%rdi
	xorl	%r11d, %r11d
	movslq	%ebx, %rbx
	addq	%r8, %rsi
	addq	%rax, %rbx
	.p2align 4,,7
.L532:
	movzbl	(%rdx,%r11), %ecx
	leal	(%rcx,%rcx,2), %r10d
	movzbl	(%rsi,%r11), %ecx
	addl	%ecx, %r10d
	leal	0(%rbp,%rbp,2), %ecx
	leal	8(%r10,%rcx), %r8d
	leal	(%r10,%r10,2), %ecx
	sarl	$4, %r8d
	movb	%r8b, -1(%rbx,%r11,2)
	leal	8(%rbp,%rcx), %r8d
	movl	%r10d, %ebp
	sarl	$4, %r8d
	movb	%r8b, (%rbx,%r11,2)
	incq	%r11
	cmpq	%r11, %rdi
	jne	.L532
.L531:
	addl	%r9d, %r9d
	addl	$2, %r10d
	movslq	%r9d, %r9
	sarl	$2, %r10d
	movb	%r10b, -1(%rax,%r9)
	popq	%rbx
	popq	%rsi
	popq	%rdi
	popq	%rbp
	ret
	.p2align 4,,7
.L537:
	movzbl	(%rdx), %edx
	leal	(%rdx,%rdx,2), %ecx
	movzbl	(%r8), %edx
	leal	2(%rcx,%rdx), %edx
	sarl	$2, %edx
	movb	%dl, 1(%rax)
	movb	%dl, (%rax)
	popq	%rbx
	popq	%rsi
	popq	%rdi
	popq	%rbp
	ret
.L534:
	movl	%ebp, %r10d
	jmp	.L531
.L533:
	movl	$1, %esi
	xorl	%r10d, %r10d
	xorl	%ebx, %ebx
	jmp	.L529
	.seh_endproc
	.p2align 4,,15
	.def	_ZL23stbi__YCbCr_to_RGB_simdPhPKhS1_S1_ii;	.scl	3;	.type	32;	.endef
	.seh_proc	_ZL23stbi__YCbCr_to_RGB_simdPhPKhS1_S1_ii
_ZL23stbi__YCbCr_to_RGB_simdPhPKhS1_S1_ii:
.LFB652:
	pushq	%r12
	.seh_pushreg	%r12
	pushq	%rbp
	.seh_pushreg	%rbp
	pushq	%rdi
	.seh_pushreg	%rdi
	pushq	%rsi
	.seh_pushreg	%rsi
	pushq	%rbx
	.seh_pushreg	%rbx
	subq	$112, %rsp
	.seh_stackalloc	112
	movaps	%xmm6, (%rsp)
	.seh_savexmm	%xmm6, 0
	movaps	%xmm7, 16(%rsp)
	.seh_savexmm	%xmm7, 16
	movaps	%xmm8, 32(%rsp)
	.seh_savexmm	%xmm8, 32
	movaps	%xmm9, 48(%rsp)
	.seh_savexmm	%xmm9, 48
	movaps	%xmm10, 64(%rsp)
	.seh_savexmm	%xmm10, 64
	movaps	%xmm11, 80(%rsp)
	.seh_savexmm	%xmm11, 80
	movaps	%xmm12, 96(%rsp)
	.seh_savexmm	%xmm12, 96
	.seh_endprologue
	xorl	%eax, %eax
	movslq	200(%rsp), %rsi
	movl	192(%rsp), %ebx
	cmpl	$4, %esi
	je	.L553
.L539:
	cmpl	%eax, %ebx
	jle	.L538
	decl	%ebx
	xorl	%r11d, %r11d
	subl	%eax, %ebx
	cltq
	incq	%rbx
	addq	%rax, %rdx
	addq	%rax, %r9
	addq	%rax, %r8
	.p2align 4,,7
.L550:
	movzbl	(%r9,%r11), %r10d
	movzbl	(%rdx,%r11), %eax
	movzbl	(%r8,%r11), %r12d
	addl	$-128, %r10d
	sall	$20, %eax
	imull	$1470208, %r10d, %edi
	addl	$524288, %eax
	addl	$-128, %r12d
	imull	$-748800, %r10d, %r10d
	addl	%eax, %edi
	leal	(%r10,%rax), %ebp
	sarl	$20, %edi
	imull	$-360960, %r12d, %r10d
	imull	$1858048, %r12d, %r12d
	xorw	%r10w, %r10w
	addl	%ebp, %r10d
	addl	%r12d, %eax
	sarl	$20, %r10d
	sarl	$20, %eax
	cmpl	$255, %edi
	jbe	.L544
	notl	%edi
	sarl	$31, %edi
.L544:
	cmpl	$255, %r10d
	jbe	.L546
	notl	%r10d
	sarl	$31, %r10d
.L546:
	cmpl	$255, %eax
	jbe	.L548
	notl	%eax
	sarl	$31, %eax
.L548:
	incq	%r11
	movb	%dil, (%rcx)
	movb	%r10b, 1(%rcx)
	movb	%al, 2(%rcx)
	movb	$-1, 3(%rcx)
	addq	%rsi, %rcx
	cmpq	%r11, %rbx
	jne	.L550
.L538:
	movaps	(%rsp), %xmm6
	movaps	16(%rsp), %xmm7
	movaps	32(%rsp), %xmm8
	movaps	48(%rsp), %xmm9
	movaps	64(%rsp), %xmm10
	movaps	80(%rsp), %xmm11
	movaps	96(%rsp), %xmm12
	addq	$112, %rsp
	popq	%rbx
	popq	%rsi
	popq	%rdi
	popq	%rbp
	popq	%r12
	ret
	.p2align 4,,7
.L553:
	cmpl	$7, %ebx
	jle	.L539
	leal	-8(%rbx), %ebp
	pxor	%xmm3, %xmm3
	movdqa	.LC10(%rip), %xmm10
	movq	%rcx, %r10
	shrl	$3, %ebp
	xorl	%eax, %eax
	movl	%ebp, %edi
	movdqa	.LC11(%rip), %xmm4
	incq	%rdi
	leaq	0(,%rdi,8), %r11
	movdqa	.LC12(%rip), %xmm9
	movdqa	.LC13(%rip), %xmm8
	movdqa	.LC14(%rip), %xmm7
	movdqa	.LC15(%rip), %xmm6
	movdqa	.LC2(%rip), %xmm5
	.p2align 4,,7
.L542:
	movdqa	%xmm10, %xmm12
	movdqa	%xmm9, %xmm11
	movq	(%r9,%rax), %xmm1
	addq	$32, %r10
	movq	(%rdx,%rax), %xmm0
	pxor	%xmm4, %xmm1
	punpcklbw	%xmm0, %xmm12
	movdqa	%xmm3, %xmm0
	movq	(%r8,%rax), %xmm2
	addq	$8, %rax
	punpcklbw	%xmm1, %xmm0
	pxor	%xmm4, %xmm2
	psrlw	$4, %xmm12
	movdqa	%xmm0, %xmm1
	movdqa	%xmm3, %xmm0
	pmulhw	%xmm1, %xmm11
	pmulhw	%xmm6, %xmm1
	paddw	%xmm12, %xmm11
	punpcklbw	%xmm2, %xmm0
	psraw	$4, %xmm11
	movdqa	%xmm0, %xmm2
	movdqa	%xmm8, %xmm0
	pmulhw	%xmm2, %xmm0
	paddw	%xmm12, %xmm0
	paddw	%xmm1, %xmm0
	movdqa	%xmm11, %xmm1
	pmulhw	%xmm7, %xmm2
	paddw	%xmm12, %xmm2
	psraw	$4, %xmm2
	psraw	$4, %xmm0
	packuswb	%xmm5, %xmm0
	packuswb	%xmm2, %xmm1
	movdqa	%xmm1, %xmm2
	punpckhbw	%xmm0, %xmm1
	punpcklbw	%xmm0, %xmm2
	movdqa	%xmm1, %xmm0
	movdqa	%xmm2, %xmm1
	punpckhwd	%xmm0, %xmm2
	punpcklwd	%xmm0, %xmm1
	movups	%xmm2, -16(%r10)
	movups	%xmm1, -32(%r10)
	cmpq	%r11, %rax
	jne	.L542
	salq	$5, %rdi
	leal	8(,%rbp,8), %eax
	addq	%rdi, %rcx
	jmp	.L539
	.seh_endproc
	.p2align 4,,15
	.def	_ZL15stbi__idct_simdPhiPs;	.scl	3;	.type	32;	.endef
	.seh_proc	_ZL15stbi__idct_simdPhiPs
_ZL15stbi__idct_simdPhiPs:
.LFB633:
	subq	$280, %rsp
	.seh_stackalloc	280
	movaps	%xmm6, 112(%rsp)
	.seh_savexmm	%xmm6, 112
	movaps	%xmm7, 128(%rsp)
	.seh_savexmm	%xmm7, 128
	movaps	%xmm8, 144(%rsp)
	.seh_savexmm	%xmm8, 144
	movaps	%xmm9, 160(%rsp)
	.seh_savexmm	%xmm9, 160
	movaps	%xmm10, 176(%rsp)
	.seh_savexmm	%xmm10, 176
	movaps	%xmm11, 192(%rsp)
	.seh_savexmm	%xmm11, 192
	movaps	%xmm12, 208(%rsp)
	.seh_savexmm	%xmm12, 208
	movaps	%xmm13, 224(%rsp)
	.seh_savexmm	%xmm13, 224
	movaps	%xmm14, 240(%rsp)
	.seh_savexmm	%xmm14, 240
	movaps	%xmm15, 256(%rsp)
	.seh_savexmm	%xmm15, 256
	.seh_endprologue
	movslq	%edx, %rdx
	movdqa	96(%r8), %xmm5
	movdqa	32(%r8), %xmm1
	movdqa	%xmm1, %xmm3
	punpckhwd	%xmm5, %xmm1
	movdqa	80(%r8), %xmm0
	punpcklwd	%xmm5, %xmm3
	movdqa	16(%r8), %xmm2
	movdqa	%xmm1, %xmm5
	movdqa	%xmm3, %xmm7
	movdqa	%xmm3, %xmm13
	pmaddwd	.LC16(%rip), %xmm5
	movdqa	%xmm1, %xmm3
	movaps	%xmm5, 16(%rsp)
	pmaddwd	.LC16(%rip), %xmm7
	pmaddwd	.LC17(%rip), %xmm13
	pmaddwd	.LC17(%rip), %xmm3
	movaps	%xmm3, 48(%rsp)
	movaps	%xmm7, (%rsp)
	movaps	%xmm13, 32(%rsp)
	movdqa	(%r8), %xmm5
	movdqa	64(%r8), %xmm3
	movdqa	%xmm5, %xmm1
	psubw	%xmm3, %xmm5
	movdqa	112(%r8), %xmm6
	paddw	%xmm3, %xmm1
	movdqa	%xmm1, %xmm7
	pxor	%xmm1, %xmm1
	movdqa	48(%r8), %xmm4
	movdqa	%xmm6, %xmm12
	movdqa	%xmm1, %xmm14
	movdqa	%xmm1, %xmm3
	movdqa	%xmm1, %xmm9
	punpckhwd	%xmm5, %xmm14
	movdqa	%xmm1, %xmm8
	punpcklwd	%xmm5, %xmm3
	punpckhwd	%xmm7, %xmm9
	movdqa	%xmm14, %xmm5
	movdqa	%xmm0, %xmm14
	punpckhwd	%xmm4, %xmm12
	psrad	$4, %xmm3
	punpcklwd	%xmm2, %xmm14
	movdqa	%xmm9, %xmm11
	psrad	$4, %xmm5
	movdqa	%xmm6, %xmm9
	punpcklwd	%xmm7, %xmm8
	psrad	$4, %xmm11
	movdqa	%xmm12, %xmm7
	movdqa	%xmm14, %xmm10
	movdqa	%xmm0, %xmm14
	punpcklwd	%xmm4, %xmm9
	paddw	%xmm0, %xmm4
	movaps	%xmm11, 80(%rsp)
	pmaddwd	.LC19(%rip), %xmm7
	punpckhwd	%xmm2, %xmm14
	paddw	%xmm6, %xmm2
	movdqa	%xmm2, %xmm0
	movdqa	%xmm8, %xmm15
	movdqa	%xmm12, %xmm11
	punpcklwd	%xmm4, %xmm0
	movdqa	%xmm9, %xmm8
	psrad	$4, %xmm15
	movdqa	%xmm10, %xmm12
	pmaddwd	.LC18(%rip), %xmm11
	pmaddwd	.LC19(%rip), %xmm9
	movdqa	%xmm14, %xmm13
	punpckhwd	%xmm4, %xmm2
	pmaddwd	.LC18(%rip), %xmm8
	movaps	%xmm15, 64(%rsp)
	pmaddwd	.LC20(%rip), %xmm12
	movdqa	%xmm0, %xmm6
	pmaddwd	.LC20(%rip), %xmm13
	pmaddwd	.LC23(%rip), %xmm0
	movdqa	%xmm2, %xmm4
	paddd	%xmm0, %xmm9
	pmaddwd	.LC23(%rip), %xmm2
	paddd	%xmm2, %xmm13
	paddd	%xmm7, %xmm2
	pmaddwd	.LC21(%rip), %xmm10
	movdqa	.LC22(%rip), %xmm15
	pmaddwd	.LC21(%rip), %xmm14
	paddd	%xmm0, %xmm12
	pmaddwd	%xmm15, %xmm6
	movdqa	64(%rsp), %xmm7
	paddd	%xmm6, %xmm8
	pmaddwd	%xmm15, %xmm4
	paddd	%xmm6, %xmm10
	paddd	%xmm4, %xmm11
	movaps	%xmm8, 96(%rsp)
	paddd	%xmm4, %xmm14
	paddd	32(%rsp), %xmm7
	movdqa	%xmm9, %xmm8
	movdqa	.LC24(%rip), %xmm9
	movdqa	80(%rsp), %xmm6
	paddd	%xmm9, %xmm7
	movdqa	%xmm7, %xmm4
	psubd	%xmm10, %xmm7
	psrad	$10, %xmm7
	paddd	48(%rsp), %xmm6
	paddd	%xmm9, %xmm6
	movdqa	%xmm6, %xmm0
	paddd	%xmm10, %xmm4
	movdqa	16(%rsp), %xmm10
	psubd	%xmm14, %xmm6
	paddd	%xmm14, %xmm0
	psrad	$10, %xmm4
	psrad	$10, %xmm0
	paddd	%xmm5, %xmm10
	packssdw	%xmm0, %xmm4
	paddd	%xmm9, %xmm10
	movdqa	(%rsp), %xmm0
	movdqa	%xmm10, %xmm14
	psubd	16(%rsp), %xmm5
	psrad	$10, %xmm6
	paddd	%xmm9, %xmm5
	packssdw	%xmm6, %xmm7
	paddd	%xmm3, %xmm0
	paddd	%xmm2, %xmm14
	paddd	%xmm9, %xmm0
	psubd	%xmm2, %xmm10
	movdqa	%xmm0, %xmm6
	psubd	(%rsp), %xmm3
	movdqa	%xmm5, %xmm2
	paddd	%xmm9, %xmm3
	psrad	$10, %xmm10
	paddd	%xmm8, %xmm6
	psubd	%xmm8, %xmm0
	psrad	$10, %xmm0
	paddd	%xmm13, %xmm2
	packssdw	%xmm10, %xmm0
	psubd	%xmm13, %xmm5
	movdqa	%xmm2, %xmm8
	movdqa	%xmm3, %xmm10
	psrad	$10, %xmm5
	movdqa	%xmm3, %xmm2
	psrad	$10, %xmm14
	psrad	$10, %xmm6
	movdqa	64(%rsp), %xmm3
	psubd	%xmm12, %xmm10
	psrad	$10, %xmm10
	paddd	%xmm12, %xmm2
	packssdw	%xmm5, %xmm10
	psrad	$10, %xmm8
	movdqa	96(%rsp), %xmm12
	psubd	32(%rsp), %xmm3
	psrad	$10, %xmm2
	paddd	%xmm9, %xmm3
	packssdw	%xmm8, %xmm2
	movdqa	80(%rsp), %xmm5
	movdqa	%xmm12, %xmm8
	packssdw	%xmm14, %xmm6
	psubd	48(%rsp), %xmm5
	paddd	%xmm5, %xmm9
	movdqa	%xmm9, %xmm5
	paddd	%xmm3, %xmm8
	psubd	%xmm12, %xmm3
	psrad	$10, %xmm8
	paddd	%xmm11, %xmm5
	psrad	$10, %xmm5
	packssdw	%xmm5, %xmm8
	movdqa	%xmm3, %xmm5
	psubd	%xmm11, %xmm9
	psrad	$10, %xmm9
	movdqa	%xmm4, %xmm3
	psrad	$10, %xmm5
	packssdw	%xmm9, %xmm5
	movdqa	%xmm6, %xmm9
	punpckhwd	%xmm10, %xmm6
	punpcklwd	%xmm10, %xmm9
	movdqa	%xmm2, %xmm10
	punpcklwd	%xmm5, %xmm3
	punpckhwd	%xmm5, %xmm4
	movdqa	%xmm8, %xmm5
	punpcklwd	%xmm0, %xmm10
	punpcklwd	%xmm7, %xmm5
	punpckhwd	%xmm0, %xmm2
	movdqa	%xmm3, %xmm0
	punpckhwd	%xmm7, %xmm8
	movdqa	%xmm9, %xmm7
	punpckhwd	%xmm10, %xmm3
	punpckhwd	%xmm5, %xmm9
	punpcklwd	%xmm5, %xmm7
	movdqa	%xmm4, %xmm5
	punpckhwd	%xmm2, %xmm4
	punpcklwd	%xmm2, %xmm5
	movdqa	%xmm3, %xmm2
	punpcklwd	%xmm10, %xmm0
	movdqa	%xmm6, %xmm10
	punpckhwd	%xmm8, %xmm6
	punpckhwd	%xmm9, %xmm3
	punpcklwd	%xmm9, %xmm2
	movdqa	%xmm4, %xmm9
	punpckhwd	%xmm6, %xmm4
	punpcklwd	%xmm6, %xmm9
	movdqa	%xmm2, %xmm6
	punpcklwd	%xmm8, %xmm10
	movdqa	%xmm0, %xmm8
	punpcklwd	%xmm9, %xmm6
	punpckhwd	%xmm9, %xmm2
	movdqa	%xmm1, %xmm9
	punpckhwd	%xmm7, %xmm0
	punpcklwd	%xmm7, %xmm8
	movdqa	%xmm5, %xmm7
	movdqa	%xmm6, %xmm11
	movdqa	%xmm2, %xmm12
	movdqa	%xmm6, %xmm13
	movdqa	%xmm2, %xmm6
	pmaddwd	.LC16(%rip), %xmm11
	punpcklwd	%xmm10, %xmm7
	pmaddwd	.LC16(%rip), %xmm12
	movdqa	%xmm8, %xmm2
	movaps	%xmm11, (%rsp)
	punpckhwd	%xmm10, %xmm5
	movaps	%xmm12, 16(%rsp)
	pmaddwd	.LC17(%rip), %xmm13
	pmaddwd	.LC17(%rip), %xmm6
	paddw	%xmm7, %xmm2
	punpckhwd	%xmm2, %xmm9
	psubw	%xmm7, %xmm8
	movaps	%xmm6, 48(%rsp)
	movdqa	%xmm1, %xmm6
	movdqa	%xmm4, %xmm7
	movdqa	%xmm4, %xmm10
	psrad	$4, %xmm9
	punpcklwd	%xmm2, %xmm6
	movdqa	%xmm1, %xmm2
	punpckhwd	%xmm8, %xmm1
	punpcklwd	%xmm3, %xmm7
	punpcklwd	%xmm8, %xmm2
	movdqa	%xmm5, %xmm8
	punpckhwd	%xmm3, %xmm10
	psrad	$4, %xmm1
	punpcklwd	%xmm0, %xmm8
	movdqa	%xmm6, %xmm14
	movdqa	%xmm7, %xmm12
	psrad	$4, %xmm2
	movdqa	%xmm10, %xmm6
	psrad	$4, %xmm14
	movdqa	%xmm7, %xmm10
	movaps	%xmm14, 64(%rsp)
	pmaddwd	.LC19(%rip), %xmm12
	movdqa	%xmm5, %xmm14
	paddw	%xmm3, %xmm5
	pmaddwd	.LC18(%rip), %xmm10
	movdqa	%xmm8, %xmm7
	movdqa	%xmm6, %xmm11
	pmaddwd	.LC19(%rip), %xmm6
	movaps	%xmm12, 80(%rsp)
	pmaddwd	.LC21(%rip), %xmm8
	punpckhwd	%xmm0, %xmm14
	pmaddwd	.LC20(%rip), %xmm7
	paddw	%xmm4, %xmm0
	movdqa	%xmm7, %xmm12
	movdqa	%xmm0, %xmm7
	pmaddwd	.LC18(%rip), %xmm11
	punpckhwd	%xmm5, %xmm0
	punpcklwd	%xmm5, %xmm7
	movdqa	%xmm15, %xmm4
	movaps	%xmm13, 32(%rsp)
	movdqa	%xmm14, %xmm13
	pmaddwd	%xmm0, %xmm4
	pmaddwd	.LC23(%rip), %xmm0
	movdqa	%xmm7, %xmm3
	paddd	%xmm4, %xmm11
	pmaddwd	.LC21(%rip), %xmm14
	pmaddwd	.LC20(%rip), %xmm13
	paddd	%xmm0, %xmm13
	paddd	%xmm6, %xmm0
	pmaddwd	%xmm15, %xmm3
	movdqa	64(%rsp), %xmm6
	paddd	%xmm4, %xmm14
	movdqa	%xmm3, %xmm5
	movdqa	%xmm7, %xmm3
	movdqa	80(%rsp), %xmm7
	paddd	32(%rsp), %xmm6
	pmaddwd	.LC23(%rip), %xmm3
	paddd	%xmm5, %xmm10
	paddd	%xmm3, %xmm12
	paddd	%xmm3, %xmm7
	paddd	%xmm5, %xmm8
	movdqa	.LC25(%rip), %xmm3
	movdqa	%xmm14, %xmm15
	movdqa	%xmm8, %xmm4
	movdqa	48(%rsp), %xmm5
	paddd	%xmm3, %xmm6
	paddd	%xmm6, %xmm4
	psubd	%xmm8, %xmm6
	psrad	$17, %xmm4
	movdqa	16(%rsp), %xmm8
	paddd	%xmm9, %xmm5
	paddd	%xmm3, %xmm5
	paddd	%xmm5, %xmm15
	psrad	$17, %xmm15
	packssdw	%xmm15, %xmm4
	movdqa	%xmm0, %xmm15
	psubd	%xmm14, %xmm5
	paddd	%xmm1, %xmm8
	psrad	$17, %xmm5
	paddd	%xmm3, %xmm8
	psubd	16(%rsp), %xmm1
	paddd	%xmm8, %xmm15
	paddd	%xmm3, %xmm1
	movdqa	%xmm7, %xmm14
	psubd	%xmm0, %xmm8
	psrad	$17, %xmm6
	movdqa	%xmm1, %xmm0
	packssdw	%xmm5, %xmm6
	movdqa	(%rsp), %xmm5
	psubd	%xmm13, %xmm1
	paddd	%xmm13, %xmm0
	psrad	$17, %xmm1
	psubd	48(%rsp), %xmm9
	paddd	%xmm2, %xmm5
	psubd	(%rsp), %xmm2
	paddd	%xmm3, %xmm5
	paddd	%xmm3, %xmm2
	paddd	%xmm5, %xmm14
	psubd	%xmm7, %xmm5
	movdqa	%xmm0, %xmm7
	psrad	$17, %xmm8
	psrad	$17, %xmm5
	movdqa	%xmm2, %xmm0
	packssdw	%xmm8, %xmm5
	psrad	$17, %xmm15
	psrad	$17, %xmm7
	psrad	$17, %xmm14
	packssdw	%xmm15, %xmm14
	paddd	%xmm12, %xmm0
	psrad	$17, %xmm0
	packssdw	%xmm7, %xmm0
	movdqa	%xmm1, %xmm7
	movdqa	%xmm2, %xmm1
	movdqa	64(%rsp), %xmm2
	psubd	%xmm12, %xmm1
	psrad	$17, %xmm1
	packssdw	%xmm7, %xmm1
	psubd	32(%rsp), %xmm2
	paddd	%xmm3, %xmm2
	paddd	%xmm9, %xmm3
	movdqa	%xmm2, %xmm7
	psubd	%xmm10, %xmm2
	psrad	$17, %xmm2
	movdqa	%xmm3, %xmm8
	psubd	%xmm11, %xmm3
	psrad	$17, %xmm3
	paddd	%xmm10, %xmm7
	psrad	$17, %xmm7
	packssdw	%xmm3, %xmm2
	paddd	%xmm11, %xmm8
	psrad	$17, %xmm8
	packssdw	%xmm8, %xmm7
	packuswb	%xmm14, %xmm4
	packuswb	%xmm1, %xmm2
	packuswb	%xmm7, %xmm0
	packuswb	%xmm6, %xmm5
	movdqa	%xmm4, %xmm1
	punpckhbw	%xmm2, %xmm4
	movdqa	%xmm0, %xmm6
	punpcklbw	%xmm2, %xmm1
	punpckhbw	%xmm5, %xmm0
	punpcklbw	%xmm5, %xmm6
	movdqa	%xmm1, %xmm2
	movdqa	%xmm0, %xmm3
	punpckhbw	%xmm6, %xmm1
	punpcklbw	%xmm6, %xmm2
	movdqa	%xmm1, %xmm0
	movdqa	%xmm4, %xmm1
	punpckhbw	%xmm3, %xmm4
	punpcklbw	%xmm3, %xmm1
	movdqa	%xmm2, %xmm3
	punpcklbw	%xmm1, %xmm3
	punpckhbw	%xmm1, %xmm2
	movq	%xmm3, (%rsp)
	pshufd	$78, %xmm3, %xmm3
	movq	(%rsp), %rax
	movdqa	%xmm2, %xmm1
	movdqa	%xmm0, %xmm2
	movq	%xmm3, (%rsp)
	punpckhbw	%xmm4, %xmm0
	movq	%rax, (%rcx)
	leaq	(%rcx,%rdx), %rax
	movq	(%rsp), %rcx
	movq	%xmm1, (%rsp)
	pshufd	$78, %xmm1, %xmm1
	punpcklbw	%xmm4, %xmm2
	movq	%rcx, (%rax)
	addq	%rdx, %rax
	movq	(%rsp), %rcx
	movq	%xmm1, (%rsp)
	movq	%rcx, (%rax)
	movq	(%rsp), %rcx
	addq	%rdx, %rax
	movq	%xmm2, (%rsp)
	pshufd	$78, %xmm2, %xmm2
	movq	%rcx, (%rax)
	addq	%rdx, %rax
	movq	(%rsp), %rcx
	movq	%xmm2, (%rsp)
	movq	%rcx, (%rax)
	movq	(%rsp), %rcx
	addq	%rdx, %rax
	movq	%xmm0, (%rsp)
	pshufd	$78, %xmm0, %xmm0
	movq	%rcx, (%rax)
	movq	(%rsp), %rcx
	movq	%xmm0, (%rsp)
	movq	%rcx, (%rax,%rdx)
	movq	(%rsp), %rcx
	movq	%rcx, (%rax,%rdx,2)
	movaps	112(%rsp), %xmm6
	movaps	128(%rsp), %xmm7
	movaps	144(%rsp), %xmm8
	movaps	160(%rsp), %xmm9
	movaps	176(%rsp), %xmm10
	movaps	192(%rsp), %xmm11
	movaps	208(%rsp), %xmm12
	movaps	224(%rsp), %xmm13
	movaps	240(%rsp), %xmm14
	movaps	256(%rsp), %xmm15
	addq	$280, %rsp
	ret
	.seh_endproc
	.p2align 4,,15
	.def	_ZL10stbi__getnP13stbi__contextPhi;	.scl	3;	.type	32;	.endef
	.seh_proc	_ZL10stbi__getnP13stbi__contextPhi
_ZL10stbi__getnP13stbi__contextPhi:
.LFB610:
	pushq	%rbp
	.seh_pushreg	%rbp
	pushq	%rdi
	.seh_pushreg	%rdi
	pushq	%rsi
	.seh_pushreg	%rsi
	pushq	%rbx
	.seh_pushreg	%rbx
	subq	$40, %rsp
	.seh_stackalloc	40
	.seh_endprologue
	cmpq	$0, 16(%rcx)
	movq	%rcx, %rsi
	movq	%rdx, %r9
	movslq	%r8d, %rbx
	movq	192(%rcx), %rcx
	movq	184(%rsi), %rdx
	je	.L557
	movq	%rcx, %rdi
	subq	%rdx, %rdi
	cmpl	%ebx, %edi
	jl	.L560
.L557:
	leaq	(%rdx,%rbx), %r8
	xorl	%eax, %eax
	cmpq	%r8, %rcx
	jb	.L558
	movq	%rbx, %r8
	movq	%r9, %rcx
	call	memcpy
	addq	%rbx, 184(%rsi)
	movl	$1, %eax
.L558:
	addq	$40, %rsp
	popq	%rbx
	popq	%rsi
	popq	%rdi
	popq	%rbp
	ret
	.p2align 4,,7
.L560:
	movslq	%edi, %rbp
	movq	%r9, %rcx
	subl	%edi, %ebx
	movq	%rbp, %r8
	call	memcpy
	movq	40(%rsi), %rcx
	leaq	(%rax,%rbp), %rdx
	movl	%ebx, %r8d
	call	*16(%rsi)
	cmpl	%eax, %ebx
	movq	192(%rsi), %rax
	movq	%rax, 184(%rsi)
	sete	%al
	movzbl	%al, %eax
	addq	$40, %rsp
	popq	%rbx
	popq	%rsi
	popq	%rdi
	popq	%rbp
	ret
	.seh_endproc
	.p2align 4,,15
	.def	_ZL17stbi__hdr_convertPfPhi;	.scl	3;	.type	32;	.endef
	.seh_proc	_ZL17stbi__hdr_convertPfPhi
_ZL17stbi__hdr_convertPfPhi:
.LFB735:
	pushq	%rbx
	.seh_pushreg	%rbx
	subq	$48, %rsp
	.seh_stackalloc	48
	.seh_endprologue
	movq	%rdx, %rbx
	movzbl	3(%rdx), %edx
	testb	%dl, %dl
	jne	.L578
	cmpl	$2, %r8d
	je	.L567
	jle	.L579
	cmpl	$3, %r8d
	.p2align 4,,3
	je	.L570
	cmpl	$4, %r8d
	.p2align 4,,3
	jne	.L561
	movl	$0x3f800000, 12(%rcx)
.L570:
	movl	$0x00000000, 8(%rcx)
	movl	$0x00000000, 4(%rcx)
	movl	$0x00000000, (%rcx)
	addq	$48, %rsp
	popq	%rbx
	ret
	.p2align 4,,7
.L579:
	decl	%r8d
	jne	.L561
.L569:
	movl	$0x00000000, (%rcx)
.L561:
	addq	$48, %rsp
	popq	%rbx
	ret
	.p2align 4,,7
.L578:
	movlpd	.LC26(%rip), %xmm0
	subl	$136, %edx
	movl	%r8d, 44(%rsp)
	movq	%rcx, 32(%rsp)
	call	ldexp
	cvtsd2ss	%xmm0, %xmm0
	movl	44(%rsp), %r8d
	movq	32(%rsp), %rcx
	cmpl	$2, %r8d
	jg	.L563
	movzbl	1(%rbx), %eax
	movzbl	(%rbx), %edx
	addl	%eax, %edx
	movzbl	2(%rbx), %eax
	addl	%edx, %eax
	cmpl	$2, %r8d
	cvtsi2ss	%eax, %xmm1
	mulss	%xmm1, %xmm0
	divss	.LC27(%rip), %xmm0
	movss	%xmm0, (%rcx)
	jne	.L561
	movl	$0x3f800000, 4(%rcx)
	jmp	.L561
	.p2align 4,,7
.L563:
	movzbl	(%rbx), %eax
	cmpl	$4, %r8d
	cvtsi2ss	%eax, %xmm1
	mulss	%xmm0, %xmm1
	movss	%xmm1, (%rcx)
	movzbl	1(%rbx), %eax
	cvtsi2ss	%eax, %xmm1
	mulss	%xmm0, %xmm1
	movss	%xmm1, 4(%rcx)
	movzbl	2(%rbx), %eax
	cvtsi2ss	%eax, %xmm1
	mulss	%xmm1, %xmm0
	movss	%xmm0, 8(%rcx)
	jne	.L561
	movl	$0x3f800000, 12(%rcx)
	jmp	.L561
	.p2align 4,,7
.L567:
	movl	$0x3f800000, 4(%rcx)
	jmp	.L569
	.seh_endproc
	.p2align 4,,15
	.def	_ZL17stbi__stdio_writePvS_i;	.scl	3;	.type	32;	.endef
	.seh_proc	_ZL17stbi__stdio_writePvS_i
_ZL17stbi__stdio_writePvS_i:
.LFB754:
	.seh_endprologue
	movq	%rcx, %r9
	movslq	%r8d, %r8
	movq	%rdx, %rcx
	movl	$1, %edx
	jmp	fwrite
	.seh_endproc
	.section .rdata,"dr"
.LC30:
	.ascii "Error %d: %s\12\0"
	.text
	.p2align 4,,15
	.def	_ZL14error_callbackiPKc;	.scl	3;	.type	32;	.endef
	.seh_proc	_ZL14error_callbackiPKc
_ZL14error_callbackiPKc:
.LFB7457:
	pushq	%rsi
	.seh_pushreg	%rsi
	pushq	%rbx
	.seh_pushreg	%rbx
	subq	$40, %rsp
	.seh_stackalloc	40
	.seh_endprologue
	movl	%ecx, %ebx
	movq	%rdx, %rsi
	call	*__imp___iob_func(%rip)
	leaq	.LC30(%rip), %rdx
	leaq	96(%rax), %rcx
	movq	%rsi, %r9
	movl	%ebx, %r8d
	addq	$40, %rsp
	popq	%rbx
	popq	%rsi
	jmp	fprintf
	.seh_endproc
	.p2align 4,,15
	.def	__tcf_3;	.scl	3;	.type	32;	.endef
	.seh_proc	__tcf_3
__tcf_3:
.LFB7850:
	.seh_endprologue
	movq	_ZL11current_dir(%rip), %rcx
	leaq	16+_ZL11current_dir(%rip), %rax
	cmpq	%rax, %rcx
	je	.L582
	jmp	_ZdlPv
	.p2align 4,,7
.L582:
	rep ret
	.seh_endproc
	.p2align 4,,15
	.def	__tcf_0;	.scl	3;	.type	32;	.endef
	.seh_proc	__tcf_0
__tcf_0:
.LFB7452:
	.seh_endprologue
	movq	264+_ZZ2fsRNSt7__cxx1112basic_stringIcSt11char_traitsIcESaIcEEEPKcE6filter(%rip), %rcx
	testq	%rcx, %rcx
	je	.L584
	jmp	_ZN5ImGui7MemFreeEPv
	.p2align 4,,7
.L584:
	rep ret
	.def	__gxx_personality_seh0;	.scl	2;	.type	32;	.endef
	.seh_handler	__gxx_personality_seh0, @unwind, @except
	.seh_handlerdata
.LLSDA7452:
	.byte	0xff
	.byte	0xff
	.byte	0x1
	.uleb128 .LLSDACSE7452-.LLSDACSB7452
.LLSDACSB7452:
.LLSDACSE7452:
	.text
	.seh_endproc
	.p2align 4,,15
	.def	__tcf_2;	.scl	3;	.type	32;	.endef
	.seh_proc	__tcf_2
__tcf_2:
.LFB7849:
	.seh_endprologue
	leaq	_ZStL8__ioinit(%rip), %rcx
	jmp	_ZNSt8ios_base4InitD1Ev
	.seh_endproc
	.p2align 4,,15
	.def	_ZL10stbi__get8P13stbi__context;	.scl	3;	.type	32;	.endef
	.seh_proc	_ZL10stbi__get8P13stbi__context
_ZL10stbi__get8P13stbi__context:
.LFB607:
	pushq	%rdi
	.seh_pushreg	%rdi
	pushq	%rsi
	.seh_pushreg	%rsi
	pushq	%rbx
	.seh_pushreg	%rbx
	subq	$32, %rsp
	.seh_stackalloc	32
	.seh_endprologue
	movq	184(%rcx), %rax
	cmpq	192(%rcx), %rax
	movq	%rcx, %rbx
	jb	.L593
	movl	48(%rcx), %eax
	xorl	%esi, %esi
	testl	%eax, %eax
	jne	.L594
	movl	%esi, %eax
	addq	$32, %rsp
	popq	%rbx
	popq	%rsi
	popq	%rdi
	ret
	.p2align 4,,7
.L594:
	leaq	56(%rcx), %rdi
	movl	52(%rbx), %r8d
	movq	40(%rcx), %rcx
	movq	%rdi, %rdx
	call	*16(%rbx)
	testl	%eax, %eax
	je	.L595
	movzbl	56(%rbx), %esi
	cltq
	leaq	57(%rbx), %rdx
	addq	%rdi, %rax
.L591:
	movq	%rax, 192(%rbx)
	movl	%esi, %eax
	movq	%rdx, 184(%rbx)
	addq	$32, %rsp
	popq	%rbx
	popq	%rsi
	popq	%rdi
	ret
	.p2align 4,,7
.L593:
	leaq	1(%rax), %rdx
	movq	%rdx, 184(%rcx)
	movzbl	(%rax), %esi
	movl	%esi, %eax
	addq	$32, %rsp
	popq	%rbx
	popq	%rsi
	popq	%rdi
	ret
	.p2align 4,,7
.L595:
	leaq	57(%rbx), %rax
	movl	$0, 48(%rbx)
	movb	$0, 56(%rbx)
	movq	%rax, %rdx
	jmp	.L591
	.seh_endproc
	.p2align 4,,15
	.def	_ZL22stbi__resample_row_h_2PhS_S_ii;	.scl	3;	.type	32;	.endef
	.seh_proc	_ZL22stbi__resample_row_h_2PhS_S_ii
_ZL22stbi__resample_row_h_2PhS_S_ii:
.LFB647:
	pushq	%r13
	.seh_pushreg	%r13
	pushq	%r12
	.seh_pushreg	%r12
	pushq	%rbp
	.seh_pushreg	%rbp
	pushq	%rdi
	.seh_pushreg	%rdi
	pushq	%rsi
	.seh_pushreg	%rsi
	pushq	%rbx
	.seh_pushreg	%rbx
	subq	$120, %rsp
	.seh_stackalloc	120
	movaps	%xmm6, (%rsp)
	.seh_savexmm	%xmm6, 0
	movaps	%xmm7, 16(%rsp)
	.seh_savexmm	%xmm7, 16
	movaps	%xmm8, 32(%rsp)
	.seh_savexmm	%xmm8, 32
	movaps	%xmm9, 48(%rsp)
	.seh_savexmm	%xmm9, 48
	movaps	%xmm10, 64(%rsp)
	.seh_savexmm	%xmm10, 64
	movaps	%xmm11, 80(%rsp)
	.seh_savexmm	%xmm11, 80
	movaps	%xmm12, 96(%rsp)
	.seh_savexmm	%xmm12, 96
	.seh_endprologue
	cmpl	$1, %r9d
	movq	%rcx, %rax
	je	.L619
	movzbl	(%rdx), %ecx
	movb	%cl, (%rax)
	movzbl	(%rdx), %ecx
	leal	(%rcx,%rcx,2), %r8d
	movzbl	1(%rdx), %ecx
	leal	2(%r8,%rcx), %ecx
	sarl	$2, %ecx
	movb	%cl, 1(%rax)
	leal	-1(%r9), %ecx
	cmpl	$1, %ecx
	jle	.L609
	leal	-2(%r9), %r8d
	leaq	2(%rax), %r10
	leaq	2(%rax,%r8,2), %r11
	movq	%r8, %rbx
	leaq	2(%rdx,%r8), %r8
	cmpq	%r11, %rdx
	setnb	%r11b
	cmpq	%r8, %r10
	setnb	%r8b
	orb	%r8b, %r11b
	je	.L600
	cmpl	$15, %ebx
	jbe	.L600
	leal	-18(%r9), %r11d
	leaq	1(%rdx), %r8
	leaq	2(%rdx), %rbp
	shrl	$4, %r11d
	leal	1(%r11), %esi
	subl	$2, %r11d
	movl	%esi, %edi
	sall	$4, %edi
	cmpl	$-4, %r11d
	ja	.L610
	pxor	%xmm3, %xmm3
	shrl	%r11d
	pxor	%xmm1, %xmm1
	movdqa	.LC0(%rip), %xmm4
	leal	2(%r11,%r11), %r12d
	xorl	%r11d, %r11d
	movdqa	.LC1(%rip), %xmm5
	movdqa	.LC2(%rip), %xmm6
.L602:
	movdqa	%xmm4, %xmm10
	movdqa	%xmm4, %xmm9
	prefetcht0	64(%r8)
	movdqu	(%r8), %xmm7
	prefetcht0	63(%r8)
	prefetcht0	65(%r8)
	addl	$2, %r11d
	addq	$32, %r8
	prefetcht0	144(%r10)
	movdqa	%xmm7, %xmm2
	punpckhbw	%xmm3, %xmm7
	movdqu	-33(%r8), %xmm11
	addq	$64, %r10
	punpcklbw	%xmm3, %xmm2
	pmullw	%xmm7, %xmm9
	pmulhw	%xmm4, %xmm7
	pmullw	%xmm2, %xmm10
	movdqa	%xmm10, %xmm0
	pmulhw	%xmm4, %xmm2
	punpckhwd	%xmm2, %xmm10
	punpcklwd	%xmm2, %xmm0
	movdqa	%xmm9, %xmm2
	punpckhwd	%xmm7, %xmm9
	punpcklwd	%xmm7, %xmm2
	movdqa	%xmm11, %xmm7
	paddd	%xmm5, %xmm10
	paddd	%xmm5, %xmm0
	punpckhbw	%xmm3, %xmm11
	punpcklbw	%xmm3, %xmm7
	paddd	%xmm5, %xmm9
	paddd	%xmm5, %xmm2
	movdqa	%xmm7, %xmm8
	punpckhwd	%xmm1, %xmm7
	punpcklwd	%xmm1, %xmm8
	paddd	%xmm10, %xmm7
	psrad	$2, %xmm7
	paddd	%xmm0, %xmm8
	psrad	$2, %xmm8
	movdqa	%xmm8, %xmm12
	punpcklwd	%xmm7, %xmm8
	punpckhwd	%xmm7, %xmm12
	movdqa	%xmm8, %xmm7
	punpcklwd	%xmm12, %xmm8
	punpckhwd	%xmm12, %xmm7
	punpcklwd	%xmm7, %xmm8
	movdqa	%xmm11, %xmm7
	punpckhwd	%xmm1, %xmm11
	punpcklwd	%xmm1, %xmm7
	paddd	%xmm9, %xmm11
	psrad	$2, %xmm11
	pand	%xmm6, %xmm8
	paddd	%xmm2, %xmm7
	psrad	$2, %xmm7
	movdqa	%xmm7, %xmm12
	punpcklwd	%xmm11, %xmm7
	punpckhwd	%xmm11, %xmm12
	movdqa	%xmm7, %xmm11
	punpcklwd	%xmm12, %xmm7
	punpckhwd	%xmm12, %xmm11
	punpcklwd	%xmm11, %xmm7
	movdqu	-31(%r8), %xmm11
	pand	%xmm6, %xmm7
	packuswb	%xmm7, %xmm8
	movdqa	%xmm11, %xmm7
	punpckhbw	%xmm3, %xmm11
	punpcklbw	%xmm3, %xmm7
	movdqa	%xmm7, %xmm12
	punpckhwd	%xmm1, %xmm7
	punpcklwd	%xmm1, %xmm12
	paddd	%xmm7, %xmm10
	psrad	$2, %xmm10
	paddd	%xmm12, %xmm0
	psrad	$2, %xmm0
	movdqa	%xmm0, %xmm7
	punpcklwd	%xmm10, %xmm0
	punpckhwd	%xmm10, %xmm7
	movdqa	%xmm0, %xmm10
	punpcklwd	%xmm7, %xmm0
	punpckhwd	%xmm7, %xmm10
	movdqa	%xmm11, %xmm7
	punpckhwd	%xmm1, %xmm11
	punpcklwd	%xmm1, %xmm7
	punpcklwd	%xmm10, %xmm0
	movdqa	%xmm4, %xmm10
	paddd	%xmm11, %xmm9
	psrad	$2, %xmm9
	paddd	%xmm7, %xmm2
	psrad	$2, %xmm2
	movdqa	%xmm2, %xmm7
	punpcklwd	%xmm9, %xmm2
	punpckhwd	%xmm9, %xmm7
	pand	%xmm6, %xmm0
	movdqa	%xmm2, %xmm9
	punpcklwd	%xmm7, %xmm2
	punpckhwd	%xmm7, %xmm9
	punpcklwd	%xmm9, %xmm2
	movdqa	%xmm4, %xmm9
	pand	%xmm6, %xmm2
	packuswb	%xmm2, %xmm0
	movdqa	%xmm8, %xmm2
	punpckhbw	%xmm0, %xmm8
	punpcklbw	%xmm0, %xmm2
	movups	%xmm8, -48(%r10)
	movups	%xmm2, -64(%r10)
	movdqu	-16(%r8), %xmm2
	movdqa	%xmm2, %xmm0
	punpckhbw	%xmm3, %xmm2
	movdqu	-17(%r8), %xmm11
	punpcklbw	%xmm3, %xmm0
	pmullw	%xmm2, %xmm9
	pmulhw	%xmm4, %xmm2
	pmullw	%xmm0, %xmm10
	movdqa	%xmm10, %xmm7
	pmulhw	%xmm4, %xmm0
	punpckhwd	%xmm0, %xmm10
	punpcklwd	%xmm0, %xmm7
	movdqa	%xmm9, %xmm0
	punpckhwd	%xmm2, %xmm9
	punpcklwd	%xmm2, %xmm0
	movdqa	%xmm11, %xmm2
	paddd	%xmm5, %xmm10
	paddd	%xmm5, %xmm7
	punpckhbw	%xmm3, %xmm11
	punpcklbw	%xmm3, %xmm2
	paddd	%xmm5, %xmm9
	paddd	%xmm5, %xmm0
	movdqa	%xmm2, %xmm8
	punpckhwd	%xmm1, %xmm2
	punpcklwd	%xmm1, %xmm8
	paddd	%xmm10, %xmm2
	psrad	$2, %xmm2
	paddd	%xmm7, %xmm8
	psrad	$2, %xmm8
	movdqa	%xmm8, %xmm12
	punpcklwd	%xmm2, %xmm8
	punpckhwd	%xmm2, %xmm12
	movdqa	%xmm8, %xmm2
	punpcklwd	%xmm12, %xmm8
	punpckhwd	%xmm12, %xmm2
	punpcklwd	%xmm2, %xmm8
	movdqa	%xmm11, %xmm2
	punpckhwd	%xmm1, %xmm11
	punpcklwd	%xmm1, %xmm2
	paddd	%xmm9, %xmm11
	psrad	$2, %xmm11
	pand	%xmm6, %xmm8
	paddd	%xmm0, %xmm2
	psrad	$2, %xmm2
	movdqa	%xmm2, %xmm12
	punpcklwd	%xmm11, %xmm2
	punpckhwd	%xmm11, %xmm12
	movdqa	%xmm2, %xmm11
	punpcklwd	%xmm12, %xmm2
	punpckhwd	%xmm12, %xmm11
	punpcklwd	%xmm11, %xmm2
	movdqu	-15(%r8), %xmm11
	leaq	-1(%r8), %r13
	leaq	1(%r8), %rbp
	pand	%xmm6, %xmm2
	packuswb	%xmm2, %xmm8
	movdqa	%xmm11, %xmm2
	punpckhbw	%xmm3, %xmm11
	punpcklbw	%xmm3, %xmm2
	movdqa	%xmm2, %xmm12
	punpckhwd	%xmm1, %xmm2
	punpcklwd	%xmm1, %xmm12
	paddd	%xmm2, %xmm10
	psrad	$2, %xmm10
	paddd	%xmm12, %xmm7
	psrad	$2, %xmm7
	movdqa	%xmm7, %xmm2
	punpcklwd	%xmm10, %xmm7
	punpckhwd	%xmm10, %xmm2
	movdqa	%xmm7, %xmm10
	punpcklwd	%xmm2, %xmm7
	punpckhwd	%xmm2, %xmm10
	movdqa	%xmm11, %xmm2
	punpckhwd	%xmm1, %xmm11
	punpcklwd	%xmm1, %xmm2
	punpcklwd	%xmm10, %xmm7
	paddd	%xmm11, %xmm9
	psrad	$2, %xmm9
	paddd	%xmm2, %xmm0
	psrad	$2, %xmm0
	movdqa	%xmm0, %xmm2
	punpcklwd	%xmm9, %xmm0
	punpckhwd	%xmm9, %xmm2
	pand	%xmm6, %xmm7
	movdqa	%xmm0, %xmm9
	punpcklwd	%xmm2, %xmm0
	punpckhwd	%xmm2, %xmm9
	punpcklwd	%xmm9, %xmm0
	pand	%xmm6, %xmm0
	packuswb	%xmm0, %xmm7
	movdqa	%xmm8, %xmm0
	punpckhbw	%xmm7, %xmm8
	punpcklbw	%xmm7, %xmm0
	movups	%xmm8, -16(%r10)
	movups	%xmm0, -32(%r10)
	cmpl	%r11d, %r12d
	jne	.L602
.L601:
	pxor	%xmm7, %xmm7
	xorl	%r11d, %r11d
	pxor	%xmm3, %xmm3
.L606:
	movdqu	(%r8,%r11), %xmm2
	movdqa	%xmm4, %xmm10
	movdqa	%xmm4, %xmm9
	incl	%r12d
	movdqa	%xmm2, %xmm1
	punpckhbw	%xmm7, %xmm2
	movdqu	0(%r13,%r11), %xmm11
	punpcklbw	%xmm7, %xmm1
	pmullw	%xmm2, %xmm9
	pmulhw	%xmm4, %xmm2
	pmullw	%xmm1, %xmm10
	movdqa	%xmm10, %xmm0
	pmulhw	%xmm4, %xmm1
	punpckhwd	%xmm1, %xmm10
	punpcklwd	%xmm1, %xmm0
	movdqa	%xmm9, %xmm1
	punpckhwd	%xmm2, %xmm9
	punpcklwd	%xmm2, %xmm1
	movdqa	%xmm11, %xmm2
	paddd	%xmm5, %xmm10
	paddd	%xmm5, %xmm0
	punpckhbw	%xmm7, %xmm11
	punpcklbw	%xmm7, %xmm2
	paddd	%xmm5, %xmm9
	paddd	%xmm5, %xmm1
	movdqa	%xmm2, %xmm8
	punpckhwd	%xmm3, %xmm2
	punpcklwd	%xmm3, %xmm8
	paddd	%xmm10, %xmm2
	psrad	$2, %xmm2
	paddd	%xmm0, %xmm8
	psrad	$2, %xmm8
	movdqa	%xmm8, %xmm12
	punpcklwd	%xmm2, %xmm8
	punpckhwd	%xmm2, %xmm12
	movdqa	%xmm8, %xmm2
	punpcklwd	%xmm12, %xmm8
	punpckhwd	%xmm12, %xmm2
	punpcklwd	%xmm2, %xmm8
	movdqa	%xmm11, %xmm2
	punpckhwd	%xmm3, %xmm11
	punpcklwd	%xmm3, %xmm2
	paddd	%xmm9, %xmm11
	psrad	$2, %xmm11
	pand	%xmm6, %xmm8
	paddd	%xmm1, %xmm2
	psrad	$2, %xmm2
	movdqa	%xmm2, %xmm12
	punpcklwd	%xmm11, %xmm2
	punpckhwd	%xmm11, %xmm12
	movdqa	%xmm2, %xmm11
	punpcklwd	%xmm12, %xmm2
	punpckhwd	%xmm12, %xmm11
	punpcklwd	%xmm11, %xmm2
	movdqu	0(%rbp,%r11), %xmm11
	pand	%xmm6, %xmm2
	packuswb	%xmm2, %xmm8
	movdqa	%xmm11, %xmm2
	punpckhbw	%xmm7, %xmm11
	punpcklbw	%xmm7, %xmm2
	movdqa	%xmm2, %xmm12
	punpckhwd	%xmm3, %xmm2
	punpcklwd	%xmm3, %xmm12
	paddd	%xmm2, %xmm10
	psrad	$2, %xmm10
	paddd	%xmm12, %xmm0
	psrad	$2, %xmm0
	movdqa	%xmm0, %xmm2
	punpcklwd	%xmm10, %xmm0
	punpckhwd	%xmm10, %xmm2
	movdqa	%xmm0, %xmm10
	punpcklwd	%xmm2, %xmm0
	punpckhwd	%xmm2, %xmm10
	movdqa	%xmm11, %xmm2
	punpckhwd	%xmm3, %xmm11
	punpcklwd	%xmm3, %xmm2
	punpcklwd	%xmm10, %xmm0
	paddd	%xmm11, %xmm9
	psrad	$2, %xmm9
	paddd	%xmm2, %xmm1
	psrad	$2, %xmm1
	movdqa	%xmm1, %xmm2
	punpcklwd	%xmm9, %xmm1
	punpckhwd	%xmm9, %xmm2
	pand	%xmm6, %xmm0
	movdqa	%xmm1, %xmm9
	punpcklwd	%xmm2, %xmm1
	punpckhwd	%xmm2, %xmm9
	punpcklwd	%xmm9, %xmm1
	pand	%xmm6, %xmm1
	packuswb	%xmm1, %xmm0
	movdqa	%xmm8, %xmm1
	punpckhbw	%xmm0, %xmm8
	punpcklbw	%xmm0, %xmm1
	movups	%xmm8, 16(%r10,%r11,2)
	movups	%xmm1, (%r10,%r11,2)
	addq	$16, %r11
	cmpl	%r12d, %esi
	ja	.L606
	cmpl	%edi, %ebx
	leal	1(%rdi), %esi
	je	.L607
	leal	(%rsi,%rsi), %ebx
	movslq	%esi, %r11
	addq	%rdx, %r11
	movslq	%ebx, %rbx
	addq	%rax, %rbx
	.p2align 4,,7
.L604:
	movzbl	(%r11), %r8d
	movzbl	-1(%r11), %r10d
	incl	%esi
	incq	%r11
	addq	$2, %rbx
	leal	2(%r8,%r8,2), %r8d
	addl	%r8d, %r10d
	sarl	$2, %r10d
	movb	%r10b, -2(%rbx)
	movzbl	(%r11), %r10d
	addl	%r10d, %r8d
	sarl	$2, %r8d
	movb	%r8b, -1(%rbx)
	cmpl	%esi, %ecx
	jg	.L604
.L607:
	addl	%ecx, %ecx
	movslq	%ecx, %rcx
	leaq	1(%rcx), %r10
.L599:
	movslq	%r9d, %r9
	leaq	-1(%rdx,%r9), %r8
	movzbl	-2(%rdx,%r9), %edx
	leal	(%rdx,%rdx,2), %r9d
	movzbl	(%r8), %edx
	leal	2(%r9,%rdx), %edx
	sarl	$2, %edx
	movb	%dl, (%rax,%rcx)
	movzbl	(%r8), %edx
	movb	%dl, (%rax,%r10)
.L598:
	movaps	(%rsp), %xmm6
	movaps	16(%rsp), %xmm7
	movaps	32(%rsp), %xmm8
	movaps	48(%rsp), %xmm9
	movaps	64(%rsp), %xmm10
	movaps	80(%rsp), %xmm11
	movaps	96(%rsp), %xmm12
	addq	$120, %rsp
	popq	%rbx
	popq	%rsi
	popq	%rdi
	popq	%rbp
	popq	%r12
	popq	%r13
	ret
	.p2align 4,,7
.L619:
	movzbl	(%rdx), %edx
	movb	%dl, 1(%rcx)
	movb	%dl, (%rcx)
	jmp	.L598
	.p2align 4,,7
.L600:
	leal	-3(%r9), %ebx
	xorl	%r8d, %r8d
	incq	%rbx
	.p2align 4,,7
.L608:
	movzbl	1(%rdx,%r8), %r10d
	movzbl	(%rdx,%r8), %r11d
	leal	2(%r10,%r10,2), %r10d
	addl	%r10d, %r11d
	sarl	$2, %r11d
	movb	%r11b, 2(%rax,%r8,2)
	movzbl	2(%rdx,%r8), %r11d
	addl	%r11d, %r10d
	sarl	$2, %r10d
	movb	%r10b, 3(%rax,%r8,2)
	incq	%r8
	cmpq	%r8, %rbx
	jne	.L608
	jmp	.L607
	.p2align 4,,7
.L609:
	movl	$3, %r10d
	movl	$2, %ecx
	jmp	.L599
	.p2align 4,,7
.L610:
	movq	%rdx, %r13
	xorl	%r12d, %r12d
	movdqa	.LC0(%rip), %xmm4
	movdqa	.LC1(%rip), %xmm5
	movdqa	.LC2(%rip), %xmm6
	jmp	.L601
	.seh_endproc
	.section .rdata,"dr"
	.align 8
.LC31:
	.ascii "basic_string::_M_construct null not valid\0"
	.text
	.align 2
	.p2align 4,,15
	.def	_ZNSt7__cxx1112basic_stringIcSt11char_traitsIcESaIcEE12_M_constructIPcEEvT_S7_St20forward_iterator_tag.isra.78;	.scl	3;	.type	32;	.endef
	.seh_proc	_ZNSt7__cxx1112basic_stringIcSt11char_traitsIcESaIcEE12_M_constructIPcEEvT_S7_St20forward_iterator_tag.isra.78
_ZNSt7__cxx1112basic_stringIcSt11char_traitsIcESaIcEE12_M_constructIPcEEvT_S7_St20forward_iterator_tag.isra.78:
.LFB7930:
	pushq	%rdi
	.seh_pushreg	%rdi
	pushq	%rsi
	.seh_pushreg	%rsi
	pushq	%rbx
	.seh_pushreg	%rbx
	subq	$48, %rsp
	.seh_stackalloc	48
	.seh_endprologue
	testq	%rdx, %rdx
	movq	%rcx, %rsi
	movq	%rdx, %rdi
	jne	.L623
	testq	%r8, %r8
	je	.L623
	leaq	.LC31(%rip), %rcx
	call	_ZSt19__throw_logic_errorPKc
	.p2align 4,,7
.L623:
	movq	%r8, %rbx
	subq	%rdi, %rbx
	cmpq	$15, %rbx
	movq	%rbx, 40(%rsp)
	ja	.L638
	cmpq	$1, %rbx
	movq	(%rsi), %rcx
	je	.L639
	testq	%rbx, %rbx
	jne	.L624
	movq	%rbx, 8(%rsi)
	movb	$0, (%rcx,%rbx)
	addq	$48, %rsp
	popq	%rbx
	popq	%rsi
	popq	%rdi
	ret
	.p2align 4,,7
.L638:
	leaq	40(%rsp), %rdx
	movq	%rsi, %rcx
	xorl	%r8d, %r8d
	call	_ZNSt7__cxx1112basic_stringIcSt11char_traitsIcESaIcEE9_M_createERyy
	movq	40(%rsp), %rdx
	movq	%rax, (%rsi)
	movq	%rax, %rcx
	movq	%rdx, 16(%rsi)
.L624:
	movq	%rbx, %r8
	movq	%rdi, %rdx
	call	memcpy
	movq	40(%rsp), %rbx
	movq	(%rsi), %rcx
	movq	%rbx, 8(%rsi)
	movb	$0, (%rcx,%rbx)
	addq	$48, %rsp
	popq	%rbx
	popq	%rsi
	popq	%rdi
	ret
	.p2align 4,,7
.L639:
	movzbl	(%rdi), %eax
	movb	%al, (%rcx)
	movq	40(%rsp), %rbx
	movq	(%rsi), %rcx
	movq	%rbx, 8(%rsi)
	movb	$0, (%rcx,%rbx)
	addq	$48, %rsp
	popq	%rbx
	popq	%rsi
	popq	%rdi
	ret
	.seh_endproc
	.def	_ZNSt7__cxx1112basic_stringIcSt11char_traitsIcESaIcEE12_M_constructIPKcEEvT_S8_St20forward_iterator_tag.isra.68;	.scl	3;	.type	32;	.endef
	.set	_ZNSt7__cxx1112basic_stringIcSt11char_traitsIcESaIcEE12_M_constructIPKcEEvT_S8_St20forward_iterator_tag.isra.68,_ZNSt7__cxx1112basic_stringIcSt11char_traitsIcESaIcEE12_M_constructIPcEEvT_S7_St20forward_iterator_tag.isra.78
	.section .rdata,"dr"
	.align 8
.LC32:
	.ascii "C:/libraries/include/stb/stb_image_write.h\0"
.LC33:
	.ascii "p\0"
	.text
	.p2align 4,,15
	.def	_ZL14stbiw__sbgrowfPPvii.constprop.102;	.scl	3;	.type	32;	.endef
	.seh_proc	_ZL14stbiw__sbgrowfPPvii.constprop.102
_ZL14stbiw__sbgrowfPPvii.constprop.102:
.LFB7960:
	pushq	%rsi
	.seh_pushreg	%rsi
	pushq	%rbx
	.seh_pushreg	%rbx
	subq	$40, %rsp
	.seh_stackalloc	40
	.seh_endprologue
	movq	%rcx, %rbx
	movq	(%rcx), %rcx
	testq	%rcx, %rcx
	je	.L641
	movl	-8(%rcx), %eax
	subq	$8, %rcx
	leal	1(%rax,%rax), %esi
	imull	%esi, %edx
	movslq	%edx, %rdx
	addq	$8, %rdx
.L644:
	call	realloc
	testq	%rax, %rax
	je	.L649
	cmpq	$0, (%rbx)
	je	.L650
.L646:
	leaq	8(%rax), %rdx
	movq	%rdx, (%rbx)
	movl	%esi, (%rax)
	movq	%rdx, %rax
.L647:
	addq	$40, %rsp
	popq	%rbx
	popq	%rsi
	ret
	.p2align 4,,7
.L641:
	addl	%edx, %edx
	movl	$2, %esi
	xorl	%ecx, %ecx
	movslq	%edx, %rdx
	addq	$8, %rdx
	jmp	.L644
	.p2align 4,,7
.L650:
	movl	$0, 4(%rax)
	jmp	.L646
	.p2align 4,,7
.L649:
	leaq	.LC32(%rip), %rdx
	leaq	.LC33(%rip), %rcx
	movl	$666, %r8d
	call	_assert
	movq	(%rbx), %rax
	jmp	.L647
	.seh_endproc
	.p2align 4,,15
	.def	_ZL14stbiw__outfileP19stbi__write_contextiiiiiiPviiPKcz.constprop.103;	.scl	3;	.type	32;	.endef
	.seh_proc	_ZL14stbiw__outfileP19stbi__write_contextiiiiiiPviiPKcz.constprop.103
_ZL14stbiw__outfileP19stbi__write_contextiiiiiiPviiPKcz.constprop.103:
.LFB7959:
	pushq	%r15
	.seh_pushreg	%r15
	pushq	%r14
	.seh_pushreg	%r14
	pushq	%r13
	.seh_pushreg	%r13
	pushq	%r12
	.seh_pushreg	%r12
	pushq	%rbp
	.seh_pushreg	%rbp
	pushq	%rdi
	.seh_pushreg	%rdi
	pushq	%rsi
	.seh_pushreg	%rsi
	pushq	%rbx
	.seh_pushreg	%rbx
	subq	$120, %rsp
	.seh_stackalloc	120
	.seh_endprologue
	movl	224(%rsp), %ebx
	movl	232(%rsp), %r13d
	movq	%rcx, %r15
	movl	%r9d, 216(%rsp)
	movl	256(%rsp), %r12d
	movq	272(%rsp), %rbp
	movl	%ebx, %eax
	shrl	$31, %eax
	jne	.L676
	movl	%r9d, %eax
	shrl	$31, %eax
	jne	.L676
	leaq	280(%rsp), %rdx
	leaq	96(%rsp), %rsi
	movq	%rdx, 104(%rsp)
.L653:
	movzbl	0(%rbp), %eax
	testb	%al, %al
	je	.L655
.L696:
	incq	%rbp
	cmpb	$49, %al
	je	.L657
	jle	.L695
	cmpb	$50, %al
	.p2align 4,,4
	je	.L659
	cmpb	$52, %al
	.p2align 4,,7
	jne	.L656
	movl	(%rdx), %eax
	leaq	8(%rdx), %rdi
	movq	8(%r15), %rcx
	movl	$4, %r8d
	movl	%eax, %edx
	movb	%al, 96(%rsp)
	shrl	$8, %edx
	movb	%dl, 97(%rsp)
	movl	%eax, %edx
	shrl	$24, %eax
	shrl	$16, %edx
	movb	%al, 99(%rsp)
	movb	%dl, 98(%rsp)
	movq	%rsi, %rdx
	call	*(%r15)
	movzbl	0(%rbp), %eax
	movq	%rdi, %rdx
	testb	%al, %al
	jne	.L696
	.p2align 4,,7
.L655:
	testl	%ebx, %ebx
	je	.L675
	leal	-1(%rbx), %eax
	movslq	%r13d, %rsi
	movl	$0, 96(%rsp)
	movl	%eax, %edi
	movl	%eax, 44(%rsp)
	movl	216(%rsp), %eax
	negl	%eax
	imull	%r13d, %eax
	cltq
	movq	%rax, 56(%rsp)
	movl	216(%rsp), %eax
	imull	%edi, %eax
	imull	%r13d, %eax
	cltq
	leaq	-1(%rsi,%rax), %rax
	addq	248(%rsp), %rax
	movq	%rax, 48(%rsp)
	leaq	96(%rsp), %rax
	movq	%rax, 64(%rsp)
	movl	$1, %eax
	subq	%rsi, %rax
	movq	%rax, 72(%rsp)
	leaq	80(%rsp), %rax
	movq	%rax, 32(%rsp)
	.p2align 4,,7
.L664:
	movl	216(%rsp), %edx
	testl	%edx, %edx
	je	.L673
	movq	48(%rsp), %rax
	movq	72(%rsp), %r14
	xorl	%edi, %edi
	movq	%r15, 192(%rsp)
	addq	%rax, %r14
	leaq	4(%rax,%rsi), %rbx
	movq	%rax, %rbp
	movq	%r14, %r15
	movq	192(%rsp), %r14
	jmp	.L674
	.p2align 4,,7
.L699:
	cmpl	$1, %r13d
	jl	.L666
	movl	240(%rsp), %eax
	testl	%eax, %eax
	je	.L671
	movzbl	(%r15), %edx
	movb	%dl, 80(%rsp)
	movb	%dl, 81(%rsp)
.L694:
	movb	%dl, 82(%rsp)
	movl	$3, %r8d
	movq	8(%r14), %rcx
	movq	32(%rsp), %rdx
	call	*(%r14)
.L666:
	testl	%r12d, %r12d
	jle	.L672
	movq	8(%r14), %rcx
	movl	$1, %r8d
	movq	%rbp, %rdx
	call	*(%r14)
.L672:
	incl	%edi
	addq	%rsi, %rbp
	addq	%rsi, %r15
	addq	%rsi, %rbx
	cmpl	%edi, 216(%rsp)
	je	.L697
.L674:
	testl	%r12d, %r12d
	js	.L698
.L665:
	cmpl	$3, %r13d
	je	.L667
	.p2align 4,,4
	jle	.L699
	cmpl	$4, %r13d
	.p2align 4,,3
	jne	.L666
	testl	%r12d, %r12d
	.p2align 4,,4
	jne	.L667
	movzbl	(%r15), %r8d
	movzbl	3(%r15), %ecx
	prefetcht0	(%rbx)
	subl	$255, %r8d
	imull	%ecx, %r8d
	movslq	%r8d, %rdx
	imulq	$-2139062143, %rdx, %rdx
	shrq	$32, %rdx
	addl	%r8d, %edx
	sarl	$31, %r8d
	sarl	$7, %edx
	subl	%r8d, %edx
	movzbl	1(%r15), %r8d
	decl	%edx
	movb	%dl, 82(%rsp)
	movq	32(%rsp), %rdx
	movl	%r8d, %r10d
	imull	%ecx, %r10d
	movslq	%r10d, %r8
	imulq	$-2139062143, %r8, %r8
	shrq	$32, %r8
	addl	%r10d, %r8d
	movzbl	2(%r15), %r10d
	sarl	$7, %r8d
	movb	%r8b, 81(%rsp)
	movl	$3, %r8d
	subl	$255, %r10d
	imull	%ecx, %r10d
	movslq	%r10d, %rcx
	imulq	$-2139062143, %rcx, %rcx
	shrq	$32, %rcx
	addl	%r10d, %ecx
	sarl	$31, %r10d
	sarl	$7, %ecx
	subl	%r10d, %ecx
	decl	%ecx
	movb	%cl, 80(%rsp)
	movq	8(%r14), %rcx
	call	*(%r14)
	jmp	.L672
	.p2align 4,,7
.L676:
	xorl	%eax, %eax
.L652:
	addq	$120, %rsp
	popq	%rbx
	popq	%rsi
	popq	%rdi
	popq	%rbp
	popq	%r12
	popq	%r13
	popq	%r14
	popq	%r15
	ret
	.p2align 4,,7
.L667:
	movzbl	1(%r15), %ecx
	movzbl	2(%r15), %r8d
	prefetcht0	-3(%rbx)
	prefetcht0	-2(%rbx)
	prefetcht0	-1(%rbx)
	movzbl	(%r15), %edx
	movb	%r8b, 80(%rsp)
	movb	%cl, 81(%rsp)
	jmp	.L694
	.p2align 4,,7
.L698:
	movq	8(%r14), %rcx
	movl	$1, %r8d
	movq	%rbp, %rdx
	call	*(%r14)
	jmp	.L665
	.p2align 4,,7
.L671:
	movq	8(%r14), %rcx
	movl	$1, %r8d
	movq	%r15, %rdx
	call	*(%r14)
	jmp	.L666
	.p2align 4,,7
.L697:
	movq	%r14, %r15
.L673:
	movq	8(%r15), %rcx
	movl	264(%rsp), %r8d
	movq	64(%rsp), %rdx
	call	*(%r15)
	decl	44(%rsp)
	movq	56(%rsp), %rbx
	movl	44(%rsp), %eax
	addq	%rbx, 48(%rsp)
	incl	%eax
	jne	.L664
.L675:
	movl	$1, %eax
	jmp	.L652
	.p2align 4,,7
.L695:
	cmpb	$32, %al
	je	.L653
.L656:
	leaq	.LC32(%rip), %rdx
	leaq	.LC8(%rip), %rcx
	movl	$266, %r8d
	call	_assert
	jmp	.L655
	.p2align 4,,7
.L657:
	movl	(%rdx), %eax
	leaq	8(%rdx), %rdi
	movq	8(%r15), %rcx
	movq	%rsi, %rdx
	movl	$1, %r8d
	movb	%al, 96(%rsp)
	call	*(%r15)
	movq	%rdi, %rdx
	jmp	.L653
	.p2align 4,,7
.L659:
	movl	(%rdx), %eax
	leaq	8(%rdx), %rdi
	movq	8(%r15), %rcx
	movq	%rsi, %rdx
	movl	$2, %r8d
	movb	%al, 96(%rsp)
	sarl	$8, %eax
	movb	%al, 97(%rsp)
	call	*(%r15)
	movq	%rdi, %rdx
	jmp	.L653
	.seh_endproc
	.p2align 4,,15
	.def	_ZL26stbi__free_jpeg_componentsP10stbi__jpegii.constprop.117;	.scl	3;	.type	32;	.endef
	.seh_proc	_ZL26stbi__free_jpeg_componentsP10stbi__jpegii.constprop.117
_ZL26stbi__free_jpeg_componentsP10stbi__jpegii.constprop.117:
.LFB7945:
	pushq	%rsi
	.seh_pushreg	%rsi
	pushq	%rbx
	.seh_pushreg	%rbx
	subq	$40, %rsp
	.seh_stackalloc	40
	.seh_endprologue
	testl	%edx, %edx
	jle	.L710
	leal	-1(%rdx), %eax
	leaq	18136(%rcx), %rbx
	movq	%rax, %rdx
	salq	$7, %rax
	salq	$5, %rdx
	subq	%rdx, %rax
	leaq	18232(%rcx,%rax), %rsi
.L706:
	movq	(%rbx), %rcx
	testq	%rcx, %rcx
	je	.L702
	call	free
	movq	$0, (%rbx)
	movq	$0, -8(%rbx)
.L702:
	movq	8(%rbx), %rcx
	testq	%rcx, %rcx
	je	.L703
	call	free
	movq	$0, 8(%rbx)
	movq	$0, 24(%rbx)
.L703:
	movq	16(%rbx), %rcx
	testq	%rcx, %rcx
	je	.L704
	call	free
	movq	$0, 16(%rbx)
.L704:
	addq	$96, %rbx
	cmpq	%rsi, %rbx
	jne	.L706
.L710:
	xorl	%eax, %eax
	addq	$40, %rsp
	popq	%rbx
	popq	%rsi
	ret
	.seh_endproc
	.p2align 4,,15
	.def	__tcf_1;	.scl	3;	.type	32;	.endef
	.seh_proc	__tcf_1
__tcf_1:
.LFB7454:
	pushq	%rsi
	.seh_pushreg	%rsi
	pushq	%rbx
	.seh_pushreg	%rbx
	subq	$40, %rsp
	.seh_stackalloc	40
	.seh_endprologue
	movq	8+_ZZ12image_selectB5cxx11iE8selected(%rip), %rsi
	movq	_ZZ12image_selectB5cxx11iE8selected(%rip), %rbx
	cmpq	%rbx, %rsi
	je	.L718
	.p2align 4,,7
.L720:
	movq	(%rbx), %rcx
	leaq	16(%rbx), %rax
	cmpq	%rax, %rcx
	je	.L719
	call	_ZdlPv
.L719:
	addq	$32, %rbx
	cmpq	%rbx, %rsi
	jne	.L720
	movq	_ZZ12image_selectB5cxx11iE8selected(%rip), %rsi
.L718:
	testq	%rsi, %rsi
	je	.L717
	movq	%rsi, %rcx
	addq	$40, %rsp
	popq	%rbx
	popq	%rsi
	jmp	_ZdlPv
	.p2align 4,,7
.L717:
	addq	$40, %rsp
	popq	%rbx
	popq	%rsi
	ret
	.seh_endproc
	.section .rdata,"dr"
.LC34:
	.ascii "bad sizes\0"
.LC35:
	.ascii "bad codelengths\0"
	.text
	.p2align 4,,15
	.def	_ZL20stbi__zbuild_huffmanP14stbi__zhuffmanPKhi;	.scl	3;	.type	32;	.endef
	.seh_proc	_ZL20stbi__zbuild_huffmanP14stbi__zhuffmanPKhi
_ZL20stbi__zbuild_huffmanP14stbi__zhuffmanPKhi:
.LFB663:
	pushq	%r15
	.seh_pushreg	%r15
	pushq	%r14
	.seh_pushreg	%r14
	pushq	%r13
	.seh_pushreg	%r13
	pushq	%r12
	.seh_pushreg	%r12
	pushq	%rbp
	.seh_pushreg	%rbp
	pushq	%rdi
	.seh_pushreg	%rdi
	pushq	%rsi
	.seh_pushreg	%rsi
	pushq	%rbx
	.seh_pushreg	%rbx
	subq	$184, %rsp
	.seh_stackalloc	184
	.seh_endprologue
	xorl	%eax, %eax
	leaq	96(%rsp), %r10
	movq	%rcx, %r9
	movl	$8, %ecx
	movq	%r10, %rdi
	rep stosq
	movq	%r9, %rcx
	movl	$0, (%rdi)
	leaq	8(%r9), %rdi
	movq	$0, (%r9)
	movq	$0, 1016(%r9)
	andq	$-8, %rdi
	subq	%rdi, %rcx
	addl	$1024, %ecx
	shrl	$3, %ecx
	testl	%r8d, %r8d
	rep stosq
	jle	.L724
	leal	-1(%r8), %ecx
	movq	%rdx, %rax
	leaq	1(%rdx,%rcx), %r10
	.p2align 4,,7
.L725:
	movzbl	(%rax), %ecx
	incq	%rax
	incl	96(%rsp,%rcx,4)
	cmpq	%r10, %rax
	jne	.L725
.L724:
	movl	100(%rsp), %r11d
	movl	$0, 96(%rsp)
	cmpl	$2, %r11d
	jg	.L726
	movl	104(%rsp), %ecx
	cmpl	$4, %ecx
	jg	.L726
	movl	108(%rsp), %edi
	cmpl	$8, %edi
	jg	.L726
	movl	112(%rsp), %ebp
	cmpl	$16, %ebp
	jg	.L726
	movl	116(%rsp), %r12d
	cmpl	$32, %r12d
	jg	.L726
	movl	120(%rsp), %r13d
	cmpl	$64, %r13d
	jg	.L726
	movl	124(%rsp), %r14d
	cmpl	$128, %r14d
	jg	.L726
	movl	128(%rsp), %r10d
	cmpl	$256, %r10d
	jg	.L726
	movl	132(%rsp), %ebx
	cmpl	$512, %ebx
	jg	.L726
	movl	136(%rsp), %esi
	cmpl	$1024, %esi
	jg	.L726
	movl	140(%rsp), %eax
	cmpl	$2048, %eax
	movl	%eax, 12(%rsp)
	jg	.L726
	movl	144(%rsp), %eax
	cmpl	$4096, %eax
	movl	%eax, 16(%rsp)
	jg	.L726
	movl	148(%rsp), %eax
	cmpl	$8192, %eax
	movl	%eax, 20(%rsp)
	jg	.L726
	movl	152(%rsp), %eax
	cmpl	$16384, %eax
	movl	%eax, 24(%rsp)
	jg	.L726
	movl	156(%rsp), %eax
	cmpl	$32768, %eax
	movl	%eax, 28(%rsp)
	jg	.L726
	movl	%r11d, %eax
	movl	$0, 36(%rsp)
	movw	$0, 1026(%r9)
	sall	$15, %eax
	movw	$0, 1126(%r9)
	movw	%r11w, 1128(%r9)
	movl	%eax, 1060(%r9)
	leal	(%r11,%r11), %eax
	movl	%eax, 40(%rsp)
	movw	%ax, 1028(%r9)
	addl	%ecx, %eax
	testl	%ecx, %ecx
	je	.L729
	cmpl	$4, %eax
	jg	.L730
.L729:
	movl	%eax, %r15d
	addl	%eax, %eax
	addl	%r11d, %ecx
	sall	$14, %r15d
	movl	%eax, 44(%rsp)
	movw	%ax, 1030(%r9)
	addl	%edi, %eax
	testl	%edi, %edi
	movl	%r15d, 1064(%r9)
	movw	%cx, 1130(%r9)
	je	.L731
	cmpl	$8, %eax
	jg	.L730
.L731:
	movl	%eax, %r11d
	addl	%eax, %eax
	addl	%edi, %ecx
	sall	$13, %r11d
	movl	%eax, 48(%rsp)
	movw	%ax, 1032(%r9)
	addl	%ebp, %eax
	testl	%ebp, %ebp
	movl	%r11d, 1068(%r9)
	movw	%cx, 1132(%r9)
	je	.L732
	cmpl	$16, %eax
	jg	.L730
.L732:
	movl	%eax, %r11d
	addl	%eax, %eax
	addl	%ebp, %ecx
	sall	$12, %r11d
	movl	%eax, 52(%rsp)
	movw	%ax, 1034(%r9)
	addl	%r12d, %eax
	testl	%r12d, %r12d
	movl	%r11d, 1072(%r9)
	movw	%cx, 1134(%r9)
	je	.L733
	cmpl	$32, %eax
	jg	.L730
.L733:
	movl	%eax, %r11d
	addl	%eax, %eax
	addl	%r12d, %ecx
	sall	$11, %r11d
	movl	%eax, 56(%rsp)
	movw	%ax, 1036(%r9)
	addl	%r13d, %eax
	testl	%r13d, %r13d
	movl	%r11d, 1076(%r9)
	movw	%cx, 1136(%r9)
	je	.L734
	cmpl	$64, %eax
	jg	.L730
.L734:
	movl	%eax, %r11d
	addl	%eax, %eax
	addl	%r13d, %ecx
	sall	$10, %r11d
	movl	%eax, 60(%rsp)
	movw	%ax, 1038(%r9)
	addl	%r14d, %eax
	testl	%r14d, %r14d
	movl	%r11d, 1080(%r9)
	movw	%cx, 1138(%r9)
	je	.L735
	cmpl	$128, %eax
	jg	.L730
.L735:
	movl	%eax, %r11d
	addl	%eax, %eax
	addl	%r14d, %ecx
	sall	$9, %r11d
	movl	%eax, 64(%rsp)
	movw	%ax, 1040(%r9)
	addl	%r10d, %eax
	testl	%r10d, %r10d
	movl	%r11d, 1084(%r9)
	movw	%cx, 1140(%r9)
	jne	.L799
.L736:
	movl	%eax, %r11d
	addl	%eax, %eax
	addl	%ecx, %r10d
	sall	$8, %r11d
	movl	%eax, 68(%rsp)
	movw	%ax, 1042(%r9)
	addl	%ebx, %eax
	testl	%ebx, %ebx
	movl	%r11d, 1088(%r9)
	movw	%r10w, 1142(%r9)
	je	.L737
	cmpl	$512, %eax
	jg	.L730
.L737:
	movl	%eax, %ecx
	addl	%eax, %eax
	addl	%ebx, %r10d
	sall	$7, %ecx
	movl	%eax, 72(%rsp)
	movw	%ax, 1044(%r9)
	addl	%esi, %eax
	testl	%esi, %esi
	movl	%ecx, 1092(%r9)
	movw	%r10w, 1144(%r9)
	je	.L738
	cmpl	$1024, %eax
	jg	.L730
.L738:
	movl	12(%rsp), %ebx
	movl	%eax, %ecx
	addl	%eax, %eax
	sall	$6, %ecx
	addl	%esi, %r10d
	movl	%eax, 76(%rsp)
	movw	%ax, 1046(%r9)
	movl	%ecx, 1096(%r9)
	addl	%ebx, %eax
	testl	%ebx, %ebx
	movw	%r10w, 1146(%r9)
	je	.L739
	cmpl	$2048, %eax
	jg	.L730
.L739:
	addl	12(%rsp), %r10d
	movl	16(%rsp), %esi
	movl	%eax, %ecx
	addl	%eax, %eax
	sall	$5, %ecx
	movl	%eax, 80(%rsp)
	movw	%ax, 1048(%r9)
	addl	%esi, %eax
	testl	%esi, %esi
	movl	%ecx, 1100(%r9)
	movw	%r10w, 1148(%r9)
	je	.L740
	cmpl	$4096, %eax
	jg	.L730
.L740:
	addl	16(%rsp), %r10d
	movl	20(%rsp), %esi
	movl	%eax, %ecx
	addl	%eax, %eax
	sall	$4, %ecx
	movl	%eax, 84(%rsp)
	movw	%ax, 1050(%r9)
	addl	%esi, %eax
	testl	%esi, %esi
	movl	%ecx, 1104(%r9)
	movw	%r10w, 1150(%r9)
	je	.L741
	cmpl	$8192, %eax
	jg	.L730
.L741:
	addl	20(%rsp), %r10d
	movl	24(%rsp), %esi
	leal	0(,%rax,8), %ecx
	addl	%eax, %eax
	movl	%eax, 88(%rsp)
	movw	%ax, 1052(%r9)
	addl	%esi, %eax
	testl	%esi, %esi
	movl	%ecx, 1108(%r9)
	movw	%r10w, 1152(%r9)
	je	.L742
	cmpl	$16384, %eax
	jg	.L730
.L742:
	addl	24(%rsp), %r10d
	movl	28(%rsp), %esi
	leal	0(,%rax,4), %ecx
	addl	%eax, %eax
	movl	%eax, 92(%rsp)
	movw	%ax, 1054(%r9)
	addl	%esi, %eax
	testl	%esi, %esi
	movl	%ecx, 1112(%r9)
	movw	%r10w, 1154(%r9)
	je	.L743
	cmpl	$32768, %eax
	jg	.L730
.L743:
	addl	%eax, %eax
	xorl	%ebx, %ebx
	testl	%r8d, %r8d
	movl	%eax, 1116(%r9)
	movl	$65536, 1120(%r9)
	movl	$16, %r13d
	movl	$1, %r12d
	jg	.L797
	jmp	.L749
	.p2align 4,,7
.L747:
	incl	%r11d
	movl	%r11d, 32(%rsp,%rsi,4)
.L745:
	incq	%rbx
	cmpl	%ebx, %r8d
	jle	.L749
.L797:
	movzbl	(%rdx,%rbx), %edi
	testl	%edi, %edi
	je	.L745
	movzbl	%dil, %eax
	movslq	%edi, %rsi
	leaq	(%r9,%rax,2), %rcx
	movl	32(%rsp,%rsi,4), %r11d
	movzwl	1024(%rcx), %eax
	movl	%r11d, %r10d
	subl	%eax, %r10d
	movzwl	1124(%rcx), %eax
	addl	%r10d, %eax
	cmpl	$9, %edi
	cltq
	movb	%dil, 1156(%r9,%rax)
	movw	%bx, 1444(%r9,%rax,2)
	jg	.L747
	movl	%r11d, %r10d
	movl	%r11d, %eax
	movl	%r12d, %r15d
	andl	$43690, %r10d
	andl	$21845, %eax
	addl	%eax, %eax
	sarl	%r10d
	orl	%eax, %r10d
	movl	%r10d, %eax
	andl	$13107, %r10d
	andl	$52428, %eax
	sall	$2, %r10d
	sarl	$2, %eax
	orl	%r10d, %eax
	movl	%eax, %ecx
	andl	$3855, %eax
	andl	$61680, %ecx
	sall	$4, %eax
	sarl	$4, %ecx
	orl	%eax, %ecx
	movl	%ecx, %eax
	sall	$8, %ecx
	movzwl	%cx, %ecx
	shrl	$8, %eax
	orl	%ecx, %eax
	movl	%r13d, %ecx
	subl	%edi, %ecx
	sarl	%cl, %eax
	movl	%edi, %ecx
	sall	$9, %edi
	sall	%cl, %r15d
	movl	%edi, %ecx
	movl	%r15d, %ebp
	orl	%ebx, %ecx
	.p2align 4,,7
.L748:
	movslq	%eax, %r10
	addl	%ebp, %eax
	cmpl	$511, %eax
	movw	%cx, (%r9,%r10,2)
	jle	.L748
	jmp	.L747
	.p2align 4,,7
.L799:
	cmpl	$256, %eax
	jle	.L736
	.p2align 4,,7
.L730:
	leaq	.LC35(%rip), %rax
	movq	%rax, _ZL22stbi__g_failure_reason(%rip)
	xorl	%eax, %eax
	jmp	.L728
	.p2align 4,,7
.L749:
	movl	$1, %eax
.L728:
	addq	$184, %rsp
	popq	%rbx
	popq	%rsi
	popq	%rdi
	popq	%rbp
	popq	%r12
	popq	%r13
	popq	%r14
	popq	%r15
	ret
	.p2align 4,,7
.L726:
	leaq	.LC34(%rip), %rax
	movq	%rax, _ZL22stbi__g_failure_reason(%rip)
	xorl	%eax, %eax
	jmp	.L728
	.seh_endproc
	.section .rdata,"dr"
.LC36:
	.ascii "#?RADIANCE\12\0"
.LC37:
	.ascii "#?RGBE\12\0"
	.text
	.p2align 4,,15
	.def	_ZL14stbi__hdr_testP13stbi__context;	.scl	3;	.type	32;	.endef
	.seh_proc	_ZL14stbi__hdr_testP13stbi__context
_ZL14stbi__hdr_testP13stbi__context:
.LFB733:
	pushq	%rdi
	.seh_pushreg	%rdi
	pushq	%rsi
	.seh_pushreg	%rsi
	pushq	%rbx
	.seh_pushreg	%rbx
	subq	$32, %rsp
	.seh_stackalloc	32
	.seh_endprologue
	leaq	.LC36(%rip), %rsi
	movq	184(%rcx), %rdx
	movq	192(%rcx), %rax
	movq	%rcx, %rbx
	leaq	56(%rcx), %rdi
	jmp	.L806
	.p2align 4,,7
.L801:
	movl	48(%rbx), %ecx
	testl	%ecx, %ecx
	jne	.L824
.L802:
	movsbl	(%rsi), %r8d
	cmpl	%ecx, %r8d
	jne	.L805
.L826:
	incq	%rsi
	cmpb	$0, (%rsi)
	je	.L825
.L806:
	cmpq	%rax, %rdx
	jnb	.L801
	leaq	1(%rdx), %r8
	movq	%r8, 184(%rbx)
	movzbl	(%rdx), %ecx
	movq	%r8, %rdx
	movsbl	(%rsi), %r8d
	cmpl	%ecx, %r8d
	je	.L826
.L805:
	movq	200(%rbx), %rax
	movq	208(%rbx), %rcx
	leaq	.LC37(%rip), %rsi
	leaq	56(%rbx), %rdi
	movq	%rax, 184(%rbx)
	movq	%rcx, 192(%rbx)
	jmp	.L813
	.p2align 4,,7
.L808:
	movl	48(%rbx), %edx
	testl	%edx, %edx
	jne	.L827
.L809:
	movsbl	(%rsi), %r8d
	cmpl	%edx, %r8d
	jne	.L814
.L829:
	incq	%rsi
	cmpb	$0, (%rsi)
	je	.L828
.L813:
	cmpq	%rax, %rcx
	jbe	.L808
	leaq	1(%rax), %r8
	movq	%r8, 184(%rbx)
	movzbl	(%rax), %edx
	movq	%r8, %rax
	movsbl	(%rsi), %r8d
	cmpl	%edx, %r8d
	je	.L829
.L814:
	xorl	%eax, %eax
.L812:
	movdqu	200(%rbx), %xmm0
	movups	%xmm0, 184(%rbx)
	addq	$32, %rsp
	popq	%rbx
	popq	%rsi
	popq	%rdi
	ret
	.p2align 4,,7
.L824:
	movq	40(%rbx), %rcx
	movl	52(%rbx), %r8d
	movq	%rdi, %rdx
	call	*16(%rbx)
	testl	%eax, %eax
	jne	.L803
	leaq	57(%rbx), %rax
	movl	$0, 48(%rbx)
	movb	$0, 56(%rbx)
	xorl	%ecx, %ecx
	movq	%rax, %rdx
.L804:
	movq	%rax, 192(%rbx)
	movq	%rdx, 184(%rbx)
	jmp	.L802
	.p2align 4,,7
.L803:
	cltq
	leaq	57(%rbx), %rdx
	movzbl	56(%rbx), %ecx
	addq	%rdi, %rax
	jmp	.L804
	.p2align 4,,7
.L825:
	movdqu	200(%rbx), %xmm0
	movl	$1, %eax
	movups	%xmm0, 184(%rbx)
	addq	$32, %rsp
	popq	%rbx
	popq	%rsi
	popq	%rdi
	ret
	.p2align 4,,7
.L827:
	movq	40(%rbx), %rcx
	movl	52(%rbx), %r8d
	movq	%rdi, %rdx
	call	*16(%rbx)
	testl	%eax, %eax
	jne	.L810
	leaq	57(%rbx), %rcx
	movl	$0, 48(%rbx)
	movb	$0, 56(%rbx)
	xorl	%edx, %edx
	movq	%rcx, %rax
.L811:
	movq	%rcx, 192(%rbx)
	movq	%rax, 184(%rbx)
	jmp	.L809
	.p2align 4,,7
.L810:
	cltq
	movzbl	56(%rbx), %edx
	leaq	(%rdi,%rax), %rcx
	leaq	57(%rbx), %rax
	jmp	.L811
	.p2align 4,,7
.L828:
	movl	$1, %eax
	jmp	.L812
	.seh_endproc
	.p2align 4,,15
	.def	_ZL26stbi__gif_parse_colortableP13stbi__contextPA4_hii;	.scl	3;	.type	32;	.endef
	.seh_proc	_ZL26stbi__gif_parse_colortableP13stbi__contextPA4_hii
_ZL26stbi__gif_parse_colortableP13stbi__contextPA4_hii:
.LFB723:
	pushq	%r14
	.seh_pushreg	%r14
	pushq	%r13
	.seh_pushreg	%r13
	pushq	%r12
	.seh_pushreg	%r12
	pushq	%rbp
	.seh_pushreg	%rbp
	pushq	%rdi
	.seh_pushreg	%rdi
	pushq	%rsi
	.seh_pushreg	%rsi
	pushq	%rbx
	.seh_pushreg	%rbx
	subq	$32, %rsp
	.seh_stackalloc	32
	.seh_endprologue
	xorl	%edi, %edi
	testl	%r8d, %r8d
	movq	%rcx, %rbx
	movl	%r8d, %ebp
	movl	%r9d, %r13d
	movq	%rdx, %rsi
	leaq	56(%rcx), %r12
	jg	.L849
	jmp	.L830
	.p2align 4,,7
.L832:
	movl	48(%rbx), %ecx
	xorl	%r14d, %r14d
	testl	%ecx, %ecx
	jne	.L850
.L833:
	movb	%r14b, 2(%rsi)
	movq	184(%rbx), %rax
	cmpq	192(%rbx), %rax
	jb	.L851
	movl	48(%rbx), %edx
	xorl	%r14d, %r14d
	testl	%edx, %edx
	jne	.L852
.L837:
	movb	%r14b, 1(%rsi)
	movq	184(%rbx), %rax
	cmpq	192(%rbx), %rax
	jb	.L853
	movl	48(%rbx), %eax
	xorl	%r14d, %r14d
	testl	%eax, %eax
	jne	.L854
.L841:
	cmpl	%edi, %r13d
	movb	%r14b, (%rsi)
	setne	%al
	incl	%edi
	addq	$4, %rsi
	negl	%eax
	movb	%al, -1(%rsi)
	cmpl	%edi, %ebp
	je	.L830
.L849:
	movq	184(%rbx), %rax
	cmpq	192(%rbx), %rax
	jnb	.L832
	leaq	1(%rax), %rdx
	movq	%rdx, 184(%rbx)
	movzbl	(%rax), %r14d
	jmp	.L833
	.p2align 4,,7
.L853:
	leaq	1(%rax), %rdx
	movq	%rdx, 184(%rbx)
	movzbl	(%rax), %r14d
	jmp	.L841
	.p2align 4,,7
.L851:
	leaq	1(%rax), %rdx
	movq	%rdx, 184(%rbx)
	movzbl	(%rax), %r14d
	jmp	.L837
	.p2align 4,,7
.L852:
	movq	40(%rbx), %rcx
	movl	52(%rbx), %r8d
	movq	%r12, %rdx
	call	*16(%rbx)
	testl	%eax, %eax
	jne	.L838
	leaq	57(%rbx), %rax
	movl	$0, 48(%rbx)
	movb	$0, 56(%rbx)
	movq	%rax, %rdx
.L839:
	movq	%rax, 192(%rbx)
	movq	%rdx, 184(%rbx)
	jmp	.L837
	.p2align 4,,7
.L850:
	movq	40(%rbx), %rcx
	movl	52(%rbx), %r8d
	movq	%r12, %rdx
	call	*16(%rbx)
	testl	%eax, %eax
	jne	.L834
	leaq	57(%rbx), %rax
	movl	$0, 48(%rbx)
	movb	$0, 56(%rbx)
	movq	%rax, %rdx
.L835:
	movq	%rax, 192(%rbx)
	movq	%rdx, 184(%rbx)
	jmp	.L833
	.p2align 4,,7
.L854:
	movq	40(%rbx), %rcx
	movl	52(%rbx), %r8d
	movq	%r12, %rdx
	call	*16(%rbx)
	testl	%eax, %eax
	jne	.L842
	leaq	57(%rbx), %rax
	movl	$0, 48(%rbx)
	movb	$0, 56(%rbx)
	movq	%rax, %rdx
.L843:
	movq	%rax, 192(%rbx)
	movq	%rdx, 184(%rbx)
	jmp	.L841
	.p2align 4,,7
.L838:
	cltq
	leaq	57(%rbx), %rdx
	movzbl	56(%rbx), %r14d
	addq	%r12, %rax
	jmp	.L839
	.p2align 4,,7
.L842:
	cltq
	leaq	57(%rbx), %rdx
	movzbl	56(%rbx), %r14d
	addq	%r12, %rax
	jmp	.L843
	.p2align 4,,7
.L834:
	cltq
	leaq	57(%rbx), %rdx
	movzbl	56(%rbx), %r14d
	addq	%r12, %rax
	jmp	.L835
	.p2align 4,,7
.L830:
	addq	$32, %rsp
	popq	%rbx
	popq	%rsi
	popq	%rdi
	popq	%rbp
	popq	%r12
	popq	%r13
	popq	%r14
	ret
	.seh_endproc
	.p2align 4,,15
	.def	_ZL20stbi__pnm_getintegerP13stbi__contextPc;	.scl	3;	.type	32;	.endef
	.seh_proc	_ZL20stbi__pnm_getintegerP13stbi__contextPc
_ZL20stbi__pnm_getintegerP13stbi__contextPc:
.LFB746:
	pushq	%r12
	.seh_pushreg	%r12
	pushq	%rbp
	.seh_pushreg	%rbp
	pushq	%rdi
	.seh_pushreg	%rdi
	pushq	%rsi
	.seh_pushreg	%rsi
	pushq	%rbx
	.seh_pushreg	%rbx
	subq	$32, %rsp
	.seh_stackalloc	32
	.seh_endprologue
	xorl	%esi, %esi
	movq	%rcx, %rbx
	movq	%rdx, %rdi
	leaq	56(%rcx), %rbp
	cmpq	$0, 16(%rbx)
	je	.L862
	.p2align 4,,7
.L856:
	movq	40(%rbx), %rcx
	call	*32(%rbx)
	testl	%eax, %eax
	jne	.L859
	movsbl	(%rdi), %eax
	leal	-48(%rax), %edx
	cmpb	$9, %dl
	jbe	.L860
.L872:
	movl	%esi, %eax
	addq	$32, %rsp
	popq	%rbx
	popq	%rsi
	popq	%rdi
	popq	%rbp
	popq	%r12
	ret
	.p2align 4,,7
.L860:
	leal	0(,%rsi,8), %edx
	leal	(%rdx,%rsi,2), %edx
	leal	-48(%rdx,%rax), %esi
	movq	184(%rbx), %rax
	cmpq	192(%rbx), %rax
	jb	.L868
	movl	48(%rbx), %eax
	xorl	%r12d, %r12d
	testl	%eax, %eax
	jne	.L875
.L864:
	movb	%r12b, (%rdi)
	cmpq	$0, 16(%rbx)
	jne	.L856
.L862:
	movq	184(%rbx), %rax
	cmpq	192(%rbx), %rax
	jnb	.L872
	movsbl	(%rdi), %edx
	leal	-48(%rdx), %ecx
	cmpb	$9, %cl
	ja	.L872
	leal	0(,%rsi,8), %ecx
	leal	(%rcx,%rsi,2), %ecx
	leal	-48(%rcx,%rdx), %esi
.L868:
	leaq	1(%rax), %rdx
	movq	%rdx, 184(%rbx)
	movzbl	(%rax), %r12d
	jmp	.L864
	.p2align 4,,7
.L859:
	movl	48(%rbx), %edx
	testl	%edx, %edx
	jne	.L862
	movl	%esi, %eax
	addq	$32, %rsp
	popq	%rbx
	popq	%rsi
	popq	%rdi
	popq	%rbp
	popq	%r12
	ret
	.p2align 4,,7
.L875:
	movq	40(%rbx), %rcx
	movl	52(%rbx), %r8d
	movq	%rbp, %rdx
	call	*16(%rbx)
	testl	%eax, %eax
	jne	.L865
	leaq	57(%rbx), %rax
	movl	$0, 48(%rbx)
	movb	$0, 56(%rbx)
	movq	%rax, %rdx
.L866:
	movq	%rax, 192(%rbx)
	movq	%rdx, 184(%rbx)
	jmp	.L864
	.p2align 4,,7
.L865:
	cltq
	leaq	57(%rbx), %rdx
	movzbl	56(%rbx), %r12d
	addq	%rbp, %rax
	jmp	.L866
	.seh_endproc
	.p2align 4,,15
	.def	_ZL24stbi__grow_buffer_unsafeP10stbi__jpeg;	.scl	3;	.type	32;	.endef
	.seh_proc	_ZL24stbi__grow_buffer_unsafeP10stbi__jpeg
_ZL24stbi__grow_buffer_unsafeP10stbi__jpeg:
.LFB623:
	pushq	%r12
	.seh_pushreg	%r12
	pushq	%rbp
	.seh_pushreg	%rbp
	pushq	%rdi
	.seh_pushreg	%rdi
	pushq	%rsi
	.seh_pushreg	%rsi
	pushq	%rbx
	.seh_pushreg	%rbx
	subq	$32, %rsp
	.seh_stackalloc	32
	.seh_endprologue
	movl	$24, %ebp
	movq	%rcx, %rsi
	jmp	.L895
	.p2align 4,,7
.L877:
	movl	18468(%rsi), %eax
	movl	%ebp, %ecx
	subl	%eax, %ecx
	addl	$8, %eax
	sall	%cl, %edi
	orl	%edi, 18464(%rsi)
	cmpl	$24, %eax
	movl	%eax, 18468(%rsi)
	jg	.L876
.L895:
	movl	18476(%rsi), %eax
	xorl	%edi, %edi
	testl	%eax, %eax
	jne	.L877
	movq	(%rsi), %rbx
	movq	184(%rbx), %rdx
	cmpq	192(%rbx), %rdx
	jb	.L911
	movl	48(%rbx), %edx
	movl	%eax, %edi
	testl	%edx, %edx
	je	.L877
	leaq	56(%rbx), %rdi
	movq	40(%rbx), %rcx
	movl	52(%rbx), %r8d
	movq	%rdi, %rdx
	call	*16(%rbx)
	testl	%eax, %eax
	jne	.L880
	leaq	57(%rbx), %rax
	movl	$0, 48(%rbx)
	movb	$0, 56(%rbx)
	xorl	%edi, %edi
	movq	%rax, %rdx
.L881:
	movq	%rax, 192(%rbx)
	movq	%rdx, 184(%rbx)
.L879:
	cmpl	$255, %edi
	jne	.L877
	.p2align 4,,7
.L910:
	movq	(%rsi), %rbx
	movq	184(%rbx), %rax
	cmpq	192(%rbx), %rax
	jb	.L912
	movl	48(%rbx), %eax
	testl	%eax, %eax
	je	.L877
	leaq	56(%rbx), %r12
	movq	40(%rbx), %rcx
	movl	52(%rbx), %r8d
	movq	%r12, %rdx
	call	*16(%rbx)
	testl	%eax, %eax
	jne	.L885
	leaq	57(%rbx), %rdx
	movl	$0, 48(%rbx)
	movb	$0, 56(%rbx)
	movq	%rdx, %rcx
.L886:
	movq	%rdx, 192(%rbx)
	movq	%rcx, 184(%rbx)
.L883:
	cmpl	$255, %eax
	je	.L910
	testl	%eax, %eax
	je	.L877
	movb	%al, 18472(%rsi)
	movl	$1, 18476(%rsi)
.L876:
	addq	$32, %rsp
	popq	%rbx
	popq	%rsi
	popq	%rdi
	popq	%rbp
	popq	%r12
	ret
	.p2align 4,,7
.L912:
	leaq	1(%rax), %rdx
	movq	%rdx, 184(%rbx)
	movzbl	(%rax), %eax
	jmp	.L883
	.p2align 4,,7
.L885:
	cltq
	leaq	57(%rbx), %rcx
	leaq	(%r12,%rax), %rdx
	movzbl	56(%rbx), %eax
	jmp	.L886
	.p2align 4,,7
.L911:
	leaq	1(%rdx), %rax
	movq	%rax, 184(%rbx)
	movzbl	(%rdx), %edi
	jmp	.L879
	.p2align 4,,7
.L880:
	cltq
	leaq	57(%rbx), %rdx
	addq	%rdi, %rax
	movzbl	56(%rbx), %edi
	jmp	.L881
	.seh_endproc
	.section .rdata,"dr"
	.align 8
.LC38:
	.ascii "(((j->code_buffer) >> (32 - h->size[c])) & stbi__bmask[h->size[c]]) == h->code[c]\0"
	.text
	.p2align 4,,15
	.def	_ZL22stbi__jpeg_huff_decodeP10stbi__jpegP13stbi__huffman;	.scl	3;	.type	32;	.endef
	.seh_proc	_ZL22stbi__jpeg_huff_decodeP10stbi__jpegP13stbi__huffman
_ZL22stbi__jpeg_huff_decodeP10stbi__jpegP13stbi__huffman:
.LFB624:
	pushq	%rbp
	.seh_pushreg	%rbp
	pushq	%rdi
	.seh_pushreg	%rdi
	pushq	%rsi
	.seh_pushreg	%rsi
	pushq	%rbx
	.seh_pushreg	%rbx
	subq	$40, %rsp
	.seh_stackalloc	40
	.seh_endprologue
	movl	18468(%rcx), %eax
	movq	%rcx, %rsi
	movq	%rdx, %rbx
	cmpl	$15, %eax
	jle	.L930
.L914:
	movl	18464(%rsi), %edx
	movl	%edx, %ecx
	shrl	$23, %ecx
	movslq	%ecx, %rcx
	movzbl	(%rbx,%rcx), %ecx
	cmpl	$255, %ecx
	je	.L915
	movslq	%ecx, %r8
	movzbl	1280(%rbx,%r8), %ecx
	cmpl	%eax, %ecx
	jg	.L928
	subl	%ecx, %eax
	sall	%cl, %edx
	movl	%edx, 18464(%rsi)
	movl	%eax, 18468(%rsi)
	movzbl	1024(%rbx,%r8), %eax
.L929:
	addq	$40, %rsp
	popq	%rbx
	popq	%rsi
	popq	%rdi
	popq	%rbp
	ret
	.p2align 4,,7
.L915:
	movl	%edx, %ecx
	shrl	$16, %ecx
	cmpl	1580(%rbx), %ecx
	jb	.L921
	cmpl	1584(%rbx), %ecx
	jb	.L922
	cmpl	1588(%rbx), %ecx
	jb	.L923
	cmpl	1592(%rbx), %ecx
	jb	.L924
	cmpl	1596(%rbx), %ecx
	jb	.L925
	cmpl	1600(%rbx), %ecx
	jb	.L926
	cmpl	1604(%rbx), %ecx
	jb	.L927
	subl	$16, %eax
	movl	%eax, 18468(%rsi)
	movl	$-1, %eax
	addq	$40, %rsp
	popq	%rbx
	popq	%rsi
	popq	%rdi
	popq	%rbp
	ret
	.p2align 4,,7
.L930:
	call	_ZL24stbi__grow_buffer_unsafeP10stbi__jpeg
	movl	18468(%rsi), %eax
	jmp	.L914
	.p2align 4,,7
.L921:
	movl	$10, %ebp
	.p2align 4,,7
.L917:
	cmpl	%eax, %ebp
	jg	.L928
	movl	$32, %r9d
	leaq	_ZL11stbi__bmask(%rip), %r10
	movl	%edx, %edi
	movl	%r9d, %ecx
	movl	%edx, %r11d
	subl	%ebp, %ecx
	shrl	%cl, %edi
	movslq	%ebp, %rcx
	andl	(%r10,%rcx,4), %edi
	addl	1612(%rbx,%rcx,4), %edi
	movl	%r9d, %ecx
	movslq	%edi, %rdi
	movzbl	1280(%rbx,%rdi), %r8d
	subl	%r8d, %ecx
	shrl	%cl, %r11d
	movl	(%r10,%r8,4), %ecx
	movzwl	512(%rbx,%rdi,2), %r8d
	andl	%r11d, %ecx
	cmpl	%r8d, %ecx
	je	.L919
	leaq	.LC3(%rip), %rdx
	leaq	.LC38(%rip), %rcx
	movl	$1837, %r8d
	call	_assert
	movl	18468(%rsi), %eax
	movl	18464(%rsi), %edx
.L919:
	movl	%ebp, %ecx
	subl	%ebp, %eax
	sall	%cl, %edx
	movl	%eax, 18468(%rsi)
	movl	%edx, 18464(%rsi)
	movzbl	1024(%rbx,%rdi), %eax
	addq	$40, %rsp
	popq	%rbx
	popq	%rsi
	popq	%rdi
	popq	%rbp
	ret
	.p2align 4,,7
.L926:
	movl	$15, %ebp
	jmp	.L917
	.p2align 4,,7
.L925:
	movl	$14, %ebp
	jmp	.L917
	.p2align 4,,7
.L927:
	movl	$16, %ebp
	jmp	.L917
	.p2align 4,,7
.L922:
	movl	$11, %ebp
	jmp	.L917
	.p2align 4,,7
.L924:
	movl	$13, %ebp
	jmp	.L917
	.p2align 4,,7
.L923:
	movl	$12, %ebp
	jmp	.L917
	.p2align 4,,7
.L928:
	movl	$-1, %eax
	jmp	.L929
	.seh_endproc
	.p2align 4,,15
	.def	_ZL13stbi__get16beP13stbi__context;	.scl	3;	.type	32;	.endef
	.seh_proc	_ZL13stbi__get16beP13stbi__context
_ZL13stbi__get16beP13stbi__context:
.LFB611:
	pushq	%rdi
	.seh_pushreg	%rdi
	pushq	%rsi
	.seh_pushreg	%rsi
	pushq	%rbx
	.seh_pushreg	%rbx
	subq	$32, %rsp
	.seh_stackalloc	32
	.seh_endprologue
	movq	184(%rcx), %rax
	movq	192(%rcx), %rdx
	movq	%rcx, %rbx
	cmpq	%rdx, %rax
	jb	.L943
	movl	48(%rcx), %eax
	xorl	%esi, %esi
	testl	%eax, %eax
	jne	.L944
.L934:
	addl	%esi, %eax
	addq	$32, %rsp
	popq	%rbx
	popq	%rsi
	popq	%rdi
	ret
	.p2align 4,,7
.L944:
	leaq	56(%rcx), %rdi
	movl	52(%rbx), %r8d
	movq	40(%rcx), %rcx
	movq	%rdi, %rdx
	call	*16(%rbx)
	testl	%eax, %eax
	je	.L945
	movzbl	56(%rbx), %esi
	cltq
	leaq	57(%rbx), %rcx
	leaq	(%rdi,%rax), %rdx
	sall	$8, %esi
.L936:
	cmpq	%rdx, %rcx
	movq	%rdx, 192(%rbx)
	movq	%rcx, 184(%rbx)
	jb	.L937
.L947:
	movl	48(%rbx), %eax
	testl	%eax, %eax
	je	.L934
	leaq	56(%rbx), %rdi
	movq	40(%rbx), %rcx
	movl	52(%rbx), %r8d
	movq	%rdi, %rdx
	call	*16(%rbx)
	testl	%eax, %eax
	je	.L946
	cltq
	leaq	57(%rbx), %rcx
	leaq	(%rdi,%rax), %rdx
	movzbl	56(%rbx), %eax
.L940:
	addl	%esi, %eax
	movq	%rdx, 192(%rbx)
	movq	%rcx, 184(%rbx)
	addq	$32, %rsp
	popq	%rbx
	popq	%rsi
	popq	%rdi
	ret
	.p2align 4,,7
.L943:
	leaq	1(%rax), %rcx
	movq	%rcx, 184(%rbx)
	movzbl	(%rax), %esi
	sall	$8, %esi
	cmpq	%rdx, %rcx
	jnb	.L947
.L937:
	leaq	1(%rcx), %rax
	movq	%rax, 184(%rbx)
	movzbl	(%rcx), %eax
	addl	%esi, %eax
	addq	$32, %rsp
	popq	%rbx
	popq	%rsi
	popq	%rdi
	ret
	.p2align 4,,7
.L946:
	leaq	57(%rbx), %rdx
	movl	$0, 48(%rbx)
	movb	$0, 56(%rbx)
	movq	%rdx, %rcx
	jmp	.L940
	.p2align 4,,7
.L945:
	leaq	57(%rbx), %rdx
	movl	$0, 48(%rbx)
	movb	$0, 56(%rbx)
	movq	%rdx, %rcx
	jmp	.L936
	.seh_endproc
	.p2align 4,,15
	.def	_ZL13stbi__get32beP13stbi__context;	.scl	3;	.type	32;	.endef
	.seh_proc	_ZL13stbi__get32beP13stbi__context
_ZL13stbi__get32beP13stbi__context:
.LFB612:
	pushq	%rsi
	.seh_pushreg	%rsi
	pushq	%rbx
	.seh_pushreg	%rbx
	subq	$40, %rsp
	.seh_stackalloc	40
	.seh_endprologue
	movq	%rcx, %rsi
	call	_ZL13stbi__get16beP13stbi__context
	movl	%eax, %ebx
	movq	%rsi, %rcx
	sall	$16, %ebx
	call	_ZL13stbi__get16beP13stbi__context
	addl	%ebx, %eax
	addq	$40, %rsp
	popq	%rbx
	popq	%rsi
	ret
	.seh_endproc
	.p2align 4,,15
	.def	_ZL13stbi__get16leP13stbi__context;	.scl	3;	.type	32;	.endef
	.seh_proc	_ZL13stbi__get16leP13stbi__context
_ZL13stbi__get16leP13stbi__context:
.LFB613:
	pushq	%rdi
	.seh_pushreg	%rdi
	pushq	%rsi
	.seh_pushreg	%rsi
	pushq	%rbx
	.seh_pushreg	%rbx
	subq	$32, %rsp
	.seh_stackalloc	32
	.seh_endprologue
	movq	%rcx, %rbx
	movq	184(%rcx), %rcx
	movq	192(%rbx), %rdx
	cmpq	%rdx, %rcx
	jb	.L961
	movl	48(%rbx), %eax
	xorl	%esi, %esi
	testl	%eax, %eax
	jne	.L962
.L952:
	addl	%esi, %eax
	addq	$32, %rsp
	popq	%rbx
	popq	%rsi
	popq	%rdi
	ret
	.p2align 4,,7
.L962:
	leaq	56(%rbx), %rsi
	movq	40(%rbx), %rcx
	movl	52(%rbx), %r8d
	movq	%rsi, %rdx
	call	*16(%rbx)
	testl	%eax, %eax
	je	.L963
	cltq
	leaq	(%rsi,%rax), %rdx
	movzbl	56(%rbx), %esi
	leaq	57(%rbx), %rax
.L954:
	cmpq	%rdx, %rax
	movq	%rdx, 192(%rbx)
	movq	%rax, 184(%rbx)
	jb	.L955
.L965:
	movl	48(%rbx), %eax
	testl	%eax, %eax
	je	.L952
	leaq	56(%rbx), %rdi
	movq	40(%rbx), %rcx
	movl	52(%rbx), %r8d
	movq	%rdi, %rdx
	call	*16(%rbx)
	testl	%eax, %eax
	je	.L964
	cltq
	leaq	57(%rbx), %rcx
	leaq	(%rdi,%rax), %rdx
	movzbl	56(%rbx), %eax
	sall	$8, %eax
.L958:
	addl	%esi, %eax
	movq	%rdx, 192(%rbx)
	movq	%rcx, 184(%rbx)
	addq	$32, %rsp
	popq	%rbx
	popq	%rsi
	popq	%rdi
	ret
	.p2align 4,,7
.L961:
	leaq	1(%rcx), %rax
	cmpq	%rdx, %rax
	movq	%rax, 184(%rbx)
	movzbl	(%rcx), %esi
	jnb	.L965
.L955:
	leaq	1(%rax), %rdx
	movq	%rdx, 184(%rbx)
	movzbl	(%rax), %eax
	sall	$8, %eax
	addl	%esi, %eax
	addq	$32, %rsp
	popq	%rbx
	popq	%rsi
	popq	%rdi
	ret
	.p2align 4,,7
.L964:
	leaq	57(%rbx), %rdx
	movl	$0, 48(%rbx)
	movb	$0, 56(%rbx)
	movq	%rdx, %rcx
	jmp	.L958
	.p2align 4,,7
.L963:
	leaq	57(%rbx), %rdx
	movl	$0, 48(%rbx)
	movb	$0, 56(%rbx)
	xorl	%esi, %esi
	movq	%rdx, %rax
	jmp	.L954
	.seh_endproc
	.p2align 4,,15
	.def	_ZL13stbi__get32leP13stbi__context;	.scl	3;	.type	32;	.endef
	.seh_proc	_ZL13stbi__get32leP13stbi__context
_ZL13stbi__get32leP13stbi__context:
.LFB614:
	pushq	%rsi
	.seh_pushreg	%rsi
	pushq	%rbx
	.seh_pushreg	%rbx
	subq	$40, %rsp
	.seh_stackalloc	40
	.seh_endprologue
	movq	%rcx, %rsi
	call	_ZL13stbi__get16leP13stbi__context
	movq	%rsi, %rcx
	movl	%eax, %ebx
	call	_ZL13stbi__get16leP13stbi__context
	sall	$16, %eax
	addl	%ebx, %eax
	addq	$40, %rsp
	popq	%rbx
	popq	%rsi
	ret
	.seh_endproc
	.p2align 4,,15
	.def	_ZL25stbi__pnm_skip_whitespaceP13stbi__contextPc;	.scl	3;	.type	32;	.endef
	.seh_proc	_ZL25stbi__pnm_skip_whitespaceP13stbi__contextPc
_ZL25stbi__pnm_skip_whitespaceP13stbi__contextPc:
.LFB744:
	pushq	%rbp
	.seh_pushreg	%rbp
	pushq	%rdi
	.seh_pushreg	%rdi
	pushq	%rsi
	.seh_pushreg	%rsi
	pushq	%rbx
	.seh_pushreg	%rbx
	subq	$40, %rsp
	.seh_stackalloc	40
	.seh_endprologue
	leaq	56(%rcx), %rbp
	movq	%rcx, %rbx
	movq	%rdx, %rsi
	.p2align 4,,7
.L968:
	cmpq	$0, 16(%rbx)
	je	.L1026
	movq	40(%rbx), %rcx
	call	*32(%rbx)
	testl	%eax, %eax
	je	.L973
	movl	48(%rbx), %r9d
	testl	%r9d, %r9d
	je	.L977
	movq	184(%rbx), %rax
	cmpq	192(%rbx), %rax
	jb	.L1027
	cmpq	$0, 16(%rbx)
	je	.L967
.L984:
	movq	40(%rbx), %rcx
	call	*32(%rbx)
	testl	%eax, %eax
	je	.L986
	movl	48(%rbx), %ecx
	testl	%ecx, %ecx
	jne	.L990
.L967:
	addq	$40, %rsp
	popq	%rbx
	popq	%rsi
	popq	%rdi
	popq	%rbp
	ret
	.p2align 4,,7
.L1026:
	movq	184(%rbx), %rax
	cmpq	%rax, 192(%rbx)
	jbe	.L967
.L973:
	movzbl	(%rsi), %eax
	leal	-9(%rax), %edx
	cmpb	$4, %dl
	jbe	.L975
	cmpb	$32, %al
	je	.L975
.L977:
	cmpq	$0, 16(%rbx)
	jne	.L984
.L990:
	movq	192(%rbx), %rax
	cmpq	%rax, 184(%rbx)
	jnb	.L967
.L986:
	cmpb	$35, (%rsi)
	je	.L988
	jmp	.L967
	.p2align 4,,7
.L994:
	movl	48(%rbx), %edx
	testl	%edx, %edx
	.p2align 4,,3
	je	.L968
.L998:
	movq	184(%rbx), %rax
	cmpq	192(%rbx), %rax
	jnb	.L968
	movzbl	(%rsi), %edx
	cmpb	$10, %dl
	je	.L968
	cmpb	$13, %dl
	je	.L968
.L1006:
	leaq	1(%rax), %rdx
	movq	%rdx, 184(%rbx)
	movzbl	(%rax), %edi
.L1000:
	movb	%dil, (%rsi)
.L988:
	cmpq	$0, 16(%rbx)
	je	.L998
	movq	40(%rbx), %rcx
	call	*32(%rbx)
	testl	%eax, %eax
	jne	.L994
	movzbl	(%rsi), %eax
	cmpb	$13, %al
	je	.L968
	cmpb	$10, %al
	.p2align 4,,2
	je	.L968
	movq	184(%rbx), %rax
	cmpq	192(%rbx), %rax
	jb	.L1006
	movl	48(%rbx), %eax
	xorl	%edi, %edi
	testl	%eax, %eax
	je	.L1000
	movq	40(%rbx), %rcx
	movl	52(%rbx), %r8d
	movq	%rbp, %rdx
	call	*16(%rbx)
	testl	%eax, %eax
	jne	.L1001
	leaq	57(%rbx), %rax
	movl	$0, 48(%rbx)
	movb	$0, 56(%rbx)
	movq	%rax, %rdx
.L1002:
	movq	%rax, 192(%rbx)
	movq	%rdx, 184(%rbx)
	jmp	.L1000
	.p2align 4,,7
.L1001:
	cltq
	leaq	57(%rbx), %rdx
	movzbl	56(%rbx), %edi
	addq	%rbp, %rax
	jmp	.L1002
	.p2align 4,,7
.L975:
	movq	184(%rbx), %rax
	cmpq	192(%rbx), %rax
	jb	.L1004
	movl	48(%rbx), %r8d
	xorl	%edi, %edi
	testl	%r8d, %r8d
	jne	.L1028
.L980:
	movb	%dil, (%rsi)
	jmp	.L968
.L1027:
	movzbl	(%rsi), %edx
	leal	-9(%rdx), %ecx
	cmpb	$4, %cl
	jbe	.L1004
	cmpb	$32, %dl
	jne	.L977
	.p2align 4,,7
.L1004:
	leaq	1(%rax), %rdx
	movq	%rdx, 184(%rbx)
	movzbl	(%rax), %edi
	jmp	.L980
.L1028:
	movq	40(%rbx), %rcx
	movl	52(%rbx), %r8d
	movq	%rbp, %rdx
	call	*16(%rbx)
	testl	%eax, %eax
	jne	.L981
	leaq	57(%rbx), %rax
	movl	$0, 48(%rbx)
	movb	$0, 56(%rbx)
	movq	%rax, %rdx
.L982:
	movq	%rax, 192(%rbx)
	movq	%rdx, 184(%rbx)
	jmp	.L980
.L981:
	cltq
	leaq	57(%rbx), %rdx
	movzbl	56(%rbx), %edi
	addq	%rbp, %rax
	jmp	.L982
	.seh_endproc
	.section .rdata,"dr"
.LC39:
	.ascii "bad file\0"
	.text
	.p2align 4,,15
	.def	_ZL13stbi__readvalP13stbi__contextiPh;	.scl	3;	.type	32;	.endef
	.seh_proc	_ZL13stbi__readvalP13stbi__contextiPh
_ZL13stbi__readvalP13stbi__contextiPh:
.LFB716:
	pushq	%r15
	.seh_pushreg	%r15
	pushq	%r14
	.seh_pushreg	%r14
	pushq	%r13
	.seh_pushreg	%r13
	pushq	%r12
	.seh_pushreg	%r12
	pushq	%rbp
	.seh_pushreg	%rbp
	pushq	%rdi
	.seh_pushreg	%rdi
	pushq	%rsi
	.seh_pushreg	%rsi
	pushq	%rbx
	.seh_pushreg	%rbx
	subq	$40, %rsp
	.seh_stackalloc	40
	.seh_endprologue
	movl	$128, %edi
	leaq	4(%r8), %r13
	leaq	56(%rcx), %r14
	movq	%rcx, %rbx
	movl	%edx, %r12d
	movq	%r8, %rbp
	movq	%r8, %rsi
.L1041:
	testl	%edi, %r12d
	je	.L1030
	cmpq	$0, 16(%rbx)
	je	.L1035
	movq	40(%rbx), %rcx
	call	*32(%rbx)
	testl	%eax, %eax
	je	.L1034
	movl	48(%rbx), %edx
	testl	%edx, %edx
	je	.L1032
.L1035:
	movq	184(%rbx), %rax
	cmpq	192(%rbx), %rax
	jnb	.L1032
.L1033:
	leaq	1(%rax), %rdx
	movq	%rdx, 184(%rbx)
	movzbl	(%rax), %r15d
.L1038:
	movb	%r15b, (%rsi)
.L1030:
	incq	%rsi
	sarl	%edi
	cmpq	%r13, %rsi
	jne	.L1041
	movq	%rbp, %rax
.L1036:
	addq	$40, %rsp
	popq	%rbx
	popq	%rsi
	popq	%rdi
	popq	%rbp
	popq	%r12
	popq	%r13
	popq	%r14
	popq	%r15
	ret
	.p2align 4,,7
.L1034:
	movq	184(%rbx), %rax
	cmpq	192(%rbx), %rax
	jb	.L1033
	movl	48(%rbx), %eax
	xorl	%r15d, %r15d
	testl	%eax, %eax
	je	.L1038
	movq	40(%rbx), %rcx
	movl	52(%rbx), %r8d
	movq	%r14, %rdx
	call	*16(%rbx)
	testl	%eax, %eax
	jne	.L1039
	leaq	57(%rbx), %rax
	movl	$0, 48(%rbx)
	movb	$0, 56(%rbx)
	movq	%rax, %rdx
.L1040:
	movq	%rax, 192(%rbx)
	movq	%rdx, 184(%rbx)
	jmp	.L1038
	.p2align 4,,7
.L1039:
	cltq
	leaq	57(%rbx), %rdx
	movzbl	56(%rbx), %r15d
	addq	%r14, %rax
	jmp	.L1040
	.p2align 4,,7
.L1032:
	leaq	.LC39(%rip), %rax
	movq	%rax, _ZL22stbi__g_failure_reason(%rip)
	xorl	%eax, %eax
	jmp	.L1036
	.seh_endproc
	.p2align 4,,15
	.def	_ZL16stbi__get_markerP10stbi__jpeg.isra.1.part.2;	.scl	3;	.type	32;	.endef
	.seh_proc	_ZL16stbi__get_markerP10stbi__jpeg.isra.1.part.2
_ZL16stbi__get_markerP10stbi__jpeg.isra.1.part.2:
.LFB7854:
	pushq	%rdi
	.seh_pushreg	%rdi
	pushq	%rsi
	.seh_pushreg	%rsi
	pushq	%rbx
	.seh_pushreg	%rbx
	subq	$32, %rsp
	.seh_stackalloc	32
	.seh_endprologue
	movq	(%rcx), %rbx
	movq	%rcx, %rsi
	movq	184(%rbx), %rax
	cmpq	192(%rbx), %rax
	jb	.L1061
	movl	48(%rbx), %edx
	testl	%edx, %edx
	jne	.L1062
.L1050:
	movl	$-1, %eax
.L1054:
	addq	$32, %rsp
	popq	%rbx
	popq	%rsi
	popq	%rdi
	ret
	.p2align 4,,7
.L1062:
	leaq	56(%rbx), %rdi
	movq	40(%rbx), %rcx
	movl	52(%rbx), %r8d
	movq	%rdi, %rdx
	call	*16(%rbx)
	testl	%eax, %eax
	je	.L1063
	movzbl	56(%rbx), %edx
	cltq
	leaq	57(%rbx), %rcx
	addq	%rdi, %rax
.L1052:
	incb	%dl
	movq	%rax, 192(%rbx)
	movq	%rcx, 184(%rbx)
	jne	.L1050
	.p2align 4,,7
.L1053:
	movq	(%rsi), %rbx
	movq	184(%rbx), %rax
	cmpq	192(%rbx), %rax
	jb	.L1064
	movl	48(%rbx), %eax
	testl	%eax, %eax
	jne	.L1065
	xorl	%eax, %eax
	addq	$32, %rsp
	popq	%rbx
	popq	%rsi
	popq	%rdi
	ret
	.p2align 4,,7
.L1061:
	leaq	1(%rax), %rdx
	movq	%rdx, 184(%rbx)
	movzbl	(%rax), %edx
	incb	%dl
	jne	.L1050
	jmp	.L1053
	.p2align 4,,7
.L1064:
	leaq	1(%rax), %rdx
	movq	%rdx, 184(%rbx)
	movzbl	(%rax), %eax
.L1056:
	cmpb	$-1, %al
	je	.L1053
	jmp	.L1054
	.p2align 4,,7
.L1065:
	leaq	56(%rbx), %rdi
	movq	40(%rbx), %rcx
	movl	52(%rbx), %r8d
	movq	%rdi, %rdx
	call	*16(%rbx)
	testl	%eax, %eax
	je	.L1066
	cltq
	leaq	57(%rbx), %rcx
	leaq	(%rdi,%rax), %rdx
	movzbl	56(%rbx), %eax
.L1058:
	movq	%rdx, 192(%rbx)
	movq	%rcx, 184(%rbx)
	jmp	.L1056
	.p2align 4,,7
.L1066:
	leaq	57(%rbx), %rdx
	movl	$0, 48(%rbx)
	movb	$0, 56(%rbx)
	movq	%rdx, %rcx
	jmp	.L1058
	.p2align 4,,7
.L1063:
	leaq	57(%rbx), %rax
	movl	$0, 48(%rbx)
	movb	$0, 56(%rbx)
	xorl	%edx, %edx
	movq	%rax, %rcx
	jmp	.L1052
	.seh_endproc
	.section .rdata,"dr"
.LC40:
	.ascii "not GIF\0"
.LC41:
	.ascii "\0"
	.text
	.p2align 4,,15
	.def	_ZL16stbi__gif_headerP13stbi__contextP9stbi__gifPii;	.scl	3;	.type	32;	.endef
	.seh_proc	_ZL16stbi__gif_headerP13stbi__contextP9stbi__gifPii
_ZL16stbi__gif_headerP13stbi__contextP9stbi__gifPii:
.LFB724:
	pushq	%r12
	.seh_pushreg	%r12
	pushq	%rbp
	.seh_pushreg	%rbp
	pushq	%rdi
	.seh_pushreg	%rdi
	pushq	%rsi
	.seh_pushreg	%rsi
	pushq	%rbx
	.seh_pushreg	%rbx
	subq	$48, %rsp
	.seh_stackalloc	48
	.seh_endprologue
	movq	184(%rcx), %rax
	cmpq	192(%rcx), %rax
	movq	%rcx, %rbx
	movq	%rdx, %rsi
	movq	%r8, %rdi
	movl	%r9d, %ebp
	jb	.L1085
	movl	48(%rcx), %eax
	testl	%eax, %eax
	jne	.L1086
.L1076:
	leaq	.LC40(%rip), %rax
	movq	%rax, _ZL22stbi__g_failure_reason(%rip)
	xorl	%eax, %eax
.L1075:
	addq	$48, %rsp
	popq	%rbx
	popq	%rsi
	popq	%rdi
	popq	%rbp
	popq	%r12
	ret
	.p2align 4,,7
.L1086:
	leaq	56(%rcx), %r12
	movl	52(%rbx), %r8d
	movq	40(%rcx), %rcx
	movq	%r12, %rdx
	call	*16(%rbx)
	testl	%eax, %eax
	je	.L1087
	movzbl	56(%rbx), %edx
	cltq
	leaq	57(%rbx), %rcx
	addq	%r12, %rax
.L1072:
	cmpb	$71, %dl
	movq	%rax, 192(%rbx)
	movq	%rcx, 184(%rbx)
	jne	.L1076
.L1088:
	movq	%rbx, %rcx
	call	_ZL10stbi__get8P13stbi__context
	cmpb	$73, %al
	jne	.L1076
	movq	%rbx, %rcx
	call	_ZL10stbi__get8P13stbi__context
	cmpb	$70, %al
	jne	.L1076
	movq	%rbx, %rcx
	call	_ZL10stbi__get8P13stbi__context
	cmpb	$56, %al
	jne	.L1076
	movq	%rbx, %rcx
	call	_ZL10stbi__get8P13stbi__context
	subl	$55, %eax
	testb	$-3, %al
	jne	.L1076
	movq	%rbx, %rcx
	call	_ZL10stbi__get8P13stbi__context
	cmpb	$97, %al
	jne	.L1076
	leaq	.LC41(%rip), %rax
	movq	%rbx, %rcx
	movq	%rax, _ZL22stbi__g_failure_reason(%rip)
	call	_ZL13stbi__get16leP13stbi__context
	movq	%rbx, %rcx
	movl	%eax, (%rsi)
	call	_ZL13stbi__get16leP13stbi__context
	movq	%rbx, %rcx
	movl	%eax, 4(%rsi)
	call	_ZL10stbi__get8P13stbi__context
	movzbl	%al, %eax
	movq	%rbx, %rcx
	movl	%eax, 24(%rsi)
	call	_ZL10stbi__get8P13stbi__context
	movzbl	%al, %eax
	movq	%rbx, %rcx
	movl	%eax, 28(%rsi)
	call	_ZL10stbi__get8P13stbi__context
	testq	%rdi, %rdi
	movzbl	%al, %eax
	movl	$-1, 36(%rsi)
	movl	%eax, 32(%rsi)
	je	.L1077
	movl	$4, (%rdi)
.L1077:
	testl	%ebp, %ebp
	movl	$1, %eax
	jne	.L1075
	movl	24(%rsi), %ecx
	testb	$-128, %cl
	je	.L1075
	andl	$7, %ecx
	leaq	48(%rsi), %rdx
	movl	$2, %r8d
	sall	%cl, %r8d
	movl	$-1, %r9d
	movq	%rbx, %rcx
	movl	%eax, 44(%rsp)
	call	_ZL26stbi__gif_parse_colortableP13stbi__contextPA4_hii
	movl	44(%rsp), %eax
	jmp	.L1075
	.p2align 4,,7
.L1085:
	leaq	1(%rax), %rdx
	movq	%rdx, 184(%rcx)
	movzbl	(%rax), %edx
	cmpb	$71, %dl
	jne	.L1076
	jmp	.L1088
	.p2align 4,,7
.L1087:
	leaq	57(%rbx), %rax
	movl	$0, 48(%rbx)
	movb	$0, 56(%rbx)
	xorl	%edx, %edx
	movq	%rax, %rcx
	jmp	.L1072
	.seh_endproc
	.section .rdata,"dr"
.LC42:
	.ascii "111 221 2222 11\0"
	.text
	.p2align 4,,15
	.def	_ZL13stbiw__writefP19stbi__write_contextPKcz.constprop.107;	.scl	3;	.type	32;	.endef
	.seh_proc	_ZL13stbiw__writefP19stbi__write_contextPKcz.constprop.107
_ZL13stbiw__writefP19stbi__write_contextPKcz.constprop.107:
.LFB7955:
	pushq	%rbp
	.seh_pushreg	%rbp
	pushq	%rdi
	.seh_pushreg	%rdi
	pushq	%rsi
	.seh_pushreg	%rsi
	pushq	%rbx
	.seh_pushreg	%rbx
	subq	$56, %rsp
	.seh_stackalloc	56
	.seh_endprologue
	leaq	.LC42(%rip), %rbx
	leaq	112(%rsp), %rdx
	leaq	32(%rsp), %rdi
	movq	%rcx, %rsi
	movq	%r8, 112(%rsp)
	movq	%r9, 120(%rsp)
	movq	%rdx, 40(%rsp)
.L1090:
	movzbl	(%rbx), %eax
	testb	%al, %al
	je	.L1089
.L1105:
	incq	%rbx
	cmpb	$49, %al
	je	.L1094
	jle	.L1104
	cmpb	$50, %al
	.p2align 4,,4
	je	.L1096
	cmpb	$52, %al
	.p2align 4,,7
	jne	.L1093
	movl	(%rdx), %eax
	leaq	8(%rdx), %rbp
	movq	8(%rsi), %rcx
	movl	$4, %r8d
	movl	%eax, %edx
	movb	%al, 32(%rsp)
	shrl	$8, %edx
	movb	%dl, 33(%rsp)
	movl	%eax, %edx
	shrl	$24, %eax
	shrl	$16, %edx
	movb	%al, 35(%rsp)
	movb	%dl, 34(%rsp)
	movq	%rdi, %rdx
	call	*(%rsi)
	movzbl	(%rbx), %eax
	movq	%rbp, %rdx
	testb	%al, %al
	jne	.L1105
.L1089:
	addq	$56, %rsp
	popq	%rbx
	popq	%rsi
	popq	%rdi
	popq	%rbp
	ret
	.p2align 4,,7
.L1104:
	cmpb	$32, %al
	je	.L1090
.L1093:
	leaq	.LC32(%rip), %rdx
	leaq	.LC8(%rip), %rcx
	movl	$266, %r8d
	call	_assert
	nop
	addq	$56, %rsp
	popq	%rbx
	popq	%rsi
	popq	%rdi
	popq	%rbp
	ret
	.p2align 4,,7
.L1094:
	movl	(%rdx), %eax
	leaq	8(%rdx), %rbp
	movq	8(%rsi), %rcx
	movq	%rdi, %rdx
	movl	$1, %r8d
	movb	%al, 32(%rsp)
	call	*(%rsi)
	movq	%rbp, %rdx
	jmp	.L1090
	.p2align 4,,7
.L1096:
	movl	(%rdx), %eax
	leaq	8(%rdx), %rbp
	movq	8(%rsi), %rcx
	movq	%rdi, %rdx
	movl	$2, %r8d
	movb	%al, 32(%rsp)
	sarl	$8, %eax
	movb	%al, 33(%rsp)
	call	*(%rsi)
	movq	%rbp, %rdx
	jmp	.L1090
	.seh_endproc
	.p2align 4,,15
	.def	_ZL19stbi_write_tga_coreP19stbi__write_contextiiiPv;	.scl	3;	.type	32;	.endef
	.seh_proc	_ZL19stbi_write_tga_coreP19stbi__write_contextiiiPv
_ZL19stbi_write_tga_coreP19stbi__write_contextiiiPv:
.LFB766:
	pushq	%r15
	.seh_pushreg	%r15
	pushq	%r14
	.seh_pushreg	%r14
	pushq	%r13
	.seh_pushreg	%r13
	pushq	%r12
	.seh_pushreg	%r12
	pushq	%rbp
	.seh_pushreg	%rbp
	pushq	%rdi
	.seh_pushreg	%rdi
	pushq	%rsi
	.seh_pushreg	%rsi
	pushq	%rbx
	.seh_pushreg	%rbx
	subq	$296, %rsp
	.seh_stackalloc	296
	.seh_endprologue
	leal	-2(%r9), %r15d
	movl	%edx, 376(%rsp)
	movl	%r9d, %edx
	movq	%rcx, %r12
	movl	%r8d, %edi
	movl	%r8d, %ebx
	andl	$-3, %r15d
	movl	%r9d, %r14d
	cmpl	$1, %r15d
	sbbl	$0, %edx
	cmpl	$1, %edx
	setle	%al
	movzbl	%al, %ecx
	movzbl	%al, %eax
	addl	$10, %ecx
	addl	$2, %eax
	shrl	$31, %edi
	jne	.L1143
	movl	376(%rsp), %edi
	shrl	$31, %edi
	jne	.L1143
	movl	stbi_write_tga_with_rle(%rip), %r9d
	xorl	%r8d, %r8d
	testl	%r15d, %r15d
	sete	%r8b
	testl	%r9d, %r9d
	je	.L1172
	leal	0(,%r8,8), %eax
	movl	%ecx, 32(%rsp)
	xorl	%r9d, %r9d
	movl	%ebx, 88(%rsp)
	movl	$0, 72(%rsp)
	movq	%r12, %rcx
	movl	%eax, 104(%rsp)
	leal	(%rdx,%r8), %eax
	leaq	.LC42(%rip), %rdx
	xorl	%r8d, %r8d
	movl	$0, 64(%rsp)
	movl	$0, 56(%rsp)
	sall	$3, %eax
	movl	$0, 48(%rsp)
	movl	$0, 40(%rsp)
	movl	%eax, 96(%rsp)
	movl	376(%rsp), %eax
	movl	%eax, 80(%rsp)
	call	_ZL13stbiw__writefP19stbi__write_contextPKcz.constprop.107
	leal	-1(%rbx), %eax
	movl	%eax, 244(%rsp)
	incl	%eax
	je	.L1113
	movl	376(%rsp), %eax
	movslq	%r14d, %rdi
	negl	%eax
	imull	%r14d, %eax
	cltq
	movq	%rax, 248(%rsp)
	movl	244(%rsp), %eax
	imull	376(%rsp), %eax
	imull	%r14d, %eax
	cltq
	addq	400(%rsp), %rax
	movq	%rax, 208(%rsp)
	leaq	(%rdi,%rdi), %rax
	movq	%rax, 232(%rsp)
	movl	376(%rsp), %eax
	decl	%eax
	movl	%eax, 240(%rsp)
	leaq	271(%rsp), %rax
	movq	%rax, 216(%rsp)
	leaq	-1(%rdi), %rax
	movq	%rax, 192(%rsp)
	leaq	272(%rsp), %rax
	movq	%rax, 200(%rsp)
	.p2align 4,,7
.L1114:
	movl	376(%rsp), %eax
	xorl	%ebx, %ebx
	testl	%eax, %eax
	je	.L1138
	.p2align 4,,7
.L1139:
	movl	%r14d, %ebp
	movq	208(%rsp), %r13
	imull	%ebx, %ebp
	movslq	%ebp, %rsi
	addq	%r13, %rsi
	cmpl	240(%rsp), %ebx
	jge	.L1115
	addl	%r14d, %ebp
	movq	%rdi, %r8
	movq	%rsi, %rcx
	movslq	%ebp, %rdx
	addq	%r13, %rdx
	call	memcmp
	testl	%eax, %eax
	leal	2(%rbx), %eax
	je	.L1116
	cmpl	%eax, 376(%rsp)
	jle	.L1144
	addl	%r14d, %ebp
	movq	%rsi, 224(%rsp)
	movq	%r12, 368(%rsp)
	movslq	%ebp, %rbp
	movq	%rdi, %r12
	movq	%rsi, %rdi
	addq	%r13, %rbp
	movl	376(%rsp), %esi
	movl	$2, %r13d
	movq	%rbp, %rax
	movq	%rax, %rbp
	jmp	.L1119
	.p2align 4,,7
.L1173:
	incl	%r13d
	addq	%r12, %rdi
	addq	%r12, %rbp
	leal	(%rbx,%r13), %eax
	cmpl	%eax, %esi
	jle	.L1146
	cmpl	$127, %r13d
	jg	.L1146
.L1119:
	movq	%r12, %r8
	movq	%rbp, %rdx
	movq	%rdi, %rcx
	call	memcmp
	testl	%eax, %eax
	jne	.L1173
	decl	%r13d
	movq	%r12, %rdi
	movq	368(%rsp), %r12
	leal	0(%r13,%rbx), %eax
	leal	-1(%r13), %edx
	movq	224(%rsp), %rsi
	movl	%eax, 224(%rsp)
	.p2align 4,,7
.L1117:
	movb	%dl, 271(%rsp)
	movq	8(%r12), %rcx
	movl	$1, %r8d
	movq	216(%rsp), %rdx
	xorl	%ebx, %ebx
	call	*(%r12)
	movq	232(%rsp), %rax
	movq	%r12, 368(%rsp)
	leaq	(%rsi,%rax), %rbp
	movq	%rbp, %r12
	movq	368(%rsp), %rbp
	jmp	.L1131
	.p2align 4,,7
.L1175:
	cmpl	$1, %r14d
	jl	.L1125
	movq	8(%rbp), %rcx
	movl	$1, %r8d
	movq	%rsi, %rdx
	call	*0(%rbp)
.L1125:
	testl	%r15d, %r15d
	jne	.L1130
	movq	192(%rsp), %rax
	movq	8(%rbp), %rcx
	movl	$1, %r8d
	leaq	(%rax,%rsi), %rdx
	call	*0(%rbp)
.L1130:
	incl	%ebx
	addq	%rdi, %r12
	addq	%rdi, %rsi
	cmpl	%r13d, %ebx
	je	.L1174
.L1131:
	cmpl	$3, %r14d
	je	.L1126
	jle	.L1175
	cmpl	$4, %r14d
	.p2align 4,,3
	jne	.L1125
	testl	%r15d, %r15d
	.p2align 4,,4
	je	.L1126
	movzbl	(%rsi), %r8d
	movzbl	3(%rsi), %ecx
	incl	%ebx
	prefetcht0	3(%r12)
	addq	%rdi, %r12
	subl	$255, %r8d
	imull	%ecx, %r8d
	movslq	%r8d, %rdx
	imulq	$-2139062143, %rdx, %rdx
	shrq	$32, %rdx
	addl	%r8d, %edx
	sarl	$31, %r8d
	sarl	$7, %edx
	subl	%r8d, %edx
	movzbl	1(%rsi), %r8d
	decl	%edx
	movb	%dl, 274(%rsp)
	movq	200(%rsp), %rdx
	movl	%r8d, %r9d
	imull	%ecx, %r9d
	movslq	%r9d, %r8
	imulq	$-2139062143, %r8, %r8
	shrq	$32, %r8
	addl	%r9d, %r8d
	movzbl	2(%rsi), %r9d
	addq	%rdi, %rsi
	sarl	$7, %r8d
	movb	%r8b, 273(%rsp)
	movl	$3, %r8d
	subl	$255, %r9d
	imull	%ecx, %r9d
	movslq	%r9d, %rcx
	imulq	$-2139062143, %rcx, %rcx
	shrq	$32, %rcx
	addl	%r9d, %ecx
	sarl	$31, %r9d
	sarl	$7, %ecx
	subl	%r9d, %ecx
	decl	%ecx
	movb	%cl, 272(%rsp)
	movq	8(%rbp), %rcx
	call	*0(%rbp)
	cmpl	%r13d, %ebx
	jne	.L1131
	.p2align 4,,7
.L1174:
	movl	224(%rsp), %ebx
	movq	%rbp, %r12
.L1132:
	cmpl	%ebx, 376(%rsp)
	jg	.L1139
.L1138:
	decl	244(%rsp)
	movq	248(%rsp), %rsi
	movl	244(%rsp), %eax
	addq	%rsi, 208(%rsp)
	incl	%eax
	jne	.L1114
.L1113:
	movl	$1, %eax
	jmp	.L1168
.L1172:
	movl	%eax, 104(%rsp)
	leaq	.LC42(%rip), %rax
	movl	376(%rsp), %edi
	leal	0(,%r8,8), %ecx
	addl	%r8d, %edx
	movl	%r8d, 64(%rsp)
	movq	%rax, 80(%rsp)
	movq	400(%rsp), %rax
	sall	$3, %edx
	movl	$-1, %r8d
	movl	%ecx, 176(%rsp)
	movl	%edx, 168(%rsp)
	movl	$0, 112(%rsp)
	movl	$0, 96(%rsp)
	movl	%edi, %r9d
	movl	$0, 88(%rsp)
	movl	$0, 72(%rsp)
	movl	%r8d, %edx
	movq	%rax, 56(%rsp)
	movl	$0, 48(%rsp)
	movq	%r12, %rcx
	movl	%r14d, 40(%rsp)
	movl	%ebx, 32(%rsp)
	movl	%ebx, 160(%rsp)
	movl	%edi, 152(%rsp)
	movl	$0, 144(%rsp)
	movl	$0, 136(%rsp)
	movl	$0, 128(%rsp)
	movl	$0, 120(%rsp)
	call	_ZL14stbiw__outfileP19stbi__write_contextiiiiiiPviiPKcz.constprop.103
.L1168:
	addq	$296, %rsp
	popq	%rbx
	popq	%rsi
	popq	%rdi
	popq	%rbp
	popq	%r12
	popq	%r13
	popq	%r14
	popq	%r15
	ret
	.p2align 4,,7
.L1126:
	movzbl	(%rsi), %edx
	movzbl	1(%rsi), %ecx
	prefetcht0	(%r12)
	movzbl	2(%rsi), %r8d
	prefetcht0	1(%r12)
	prefetcht0	2(%r12)
	movb	%cl, 273(%rsp)
	movb	%dl, 274(%rsp)
	movb	%r8b, 272(%rsp)
	movq	8(%rbp), %rcx
	movl	$3, %r8d
	movq	200(%rsp), %rdx
	call	*0(%rbp)
	jmp	.L1125
	.p2align 4,,7
.L1115:
	leal	1(%rbx), %eax
	xorl	%edx, %edx
	movl	$1, %r13d
	movl	%eax, 224(%rsp)
	jmp	.L1117
	.p2align 4,,7
.L1116:
	cmpl	%eax, 376(%rsp)
	jle	.L1145
	addl	%r14d, %ebp
	movq	%r12, 368(%rsp)
	movl	$2, %r13d
	movslq	%ebp, %rbp
	addq	208(%rsp), %rbp
	movq	%rbp, %r12
	movl	376(%rsp), %ebp
	jmp	.L1123
	.p2align 4,,7
.L1122:
	incl	%r13d
	addq	%rdi, %r12
	leal	0(%r13,%rbx), %eax
	cmpl	%eax, %ebp
	jle	.L1147
	cmpl	$127, %r13d
	jg	.L1147
.L1123:
	movq	%rdi, %r8
	movq	%r12, %rdx
	movq	%rsi, %rcx
	call	memcmp
	testl	%eax, %eax
	je	.L1122
	movq	368(%rsp), %r12
	leal	127(%r13), %edx
	addl	%r13d, %ebx
.L1121:
	movb	%dl, 271(%rsp)
	movq	8(%r12), %rcx
	movl	$1, %r8d
	movq	216(%rsp), %rdx
	call	*(%r12)
	cmpl	$3, %r14d
	je	.L1136
	jg	.L1140
	cmpl	$1, %r14d
	.p2align 4,,3
	jl	.L1134
	movq	8(%r12), %rcx
	movl	$1, %r8d
	movq	%rsi, %rdx
	call	*(%r12)
.L1134:
	testl	%r15d, %r15d
	jne	.L1132
	movq	192(%rsp), %rax
	movq	8(%r12), %rcx
	movl	$1, %r8d
	leaq	(%rsi,%rax), %rdx
	call	*(%r12)
	jmp	.L1132
	.p2align 4,,7
.L1140:
	cmpl	$4, %r14d
	jne	.L1134
	testl	%r15d, %r15d
	.p2align 4,,4
	je	.L1136
	movzbl	(%rsi), %ecx
	movzbl	3(%rsi), %edx
	subl	$255, %ecx
	imull	%edx, %ecx
	movslq	%ecx, %rax
	imulq	$-2139062143, %rax, %rax
	shrq	$32, %rax
	addl	%ecx, %eax
	sarl	$31, %ecx
	sarl	$7, %eax
	subl	%ecx, %eax
	movzbl	1(%rsi), %ecx
	decl	%eax
	movb	%al, 274(%rsp)
	imull	%edx, %ecx
	movslq	%ecx, %r8
	imulq	$-2139062143, %r8, %rcx
	shrq	$32, %rcx
	addl	%r8d, %ecx
	movzbl	2(%rsi), %r8d
	sarl	$7, %ecx
	movb	%cl, 273(%rsp)
	movq	8(%r12), %rcx
	subl	$255, %r8d
	imull	%edx, %r8d
	movslq	%r8d, %rdx
	imulq	$-2139062143, %rdx, %rdx
	shrq	$32, %rdx
	addl	%r8d, %edx
	sarl	$31, %r8d
	sarl	$7, %edx
	subl	%r8d, %edx
	movl	$3, %r8d
	decl	%edx
	movb	%dl, 272(%rsp)
	movq	200(%rsp), %rdx
	call	*(%r12)
	jmp	.L1132
	.p2align 4,,7
.L1136:
	movzbl	1(%rsi), %edx
	movzbl	2(%rsi), %ecx
	movl	$3, %r8d
	movzbl	(%rsi), %eax
	movb	%cl, 272(%rsp)
	movb	%dl, 273(%rsp)
	movb	%al, 274(%rsp)
	movq	8(%r12), %rcx
	movq	200(%rsp), %rdx
	call	*(%r12)
	jmp	.L1134
	.p2align 4,,7
.L1146:
	movq	224(%rsp), %rsi
	movq	%r12, %rdi
	leal	-1(%r13), %edx
	movq	368(%rsp), %r12
	movl	%eax, 224(%rsp)
	jmp	.L1117
	.p2align 4,,7
.L1147:
	movq	368(%rsp), %r12
	leal	127(%r13), %edx
	movl	%eax, %ebx
	jmp	.L1121
.L1144:
	movl	%eax, 224(%rsp)
	movl	$1, %edx
	movl	$2, %r13d
	jmp	.L1117
.L1145:
	movl	%eax, %ebx
	movl	$-127, %edx
	jmp	.L1121
.L1143:
	xorl	%eax, %eax
	jmp	.L1168
	.seh_endproc
	.p2align 4,,15
	.def	_ZL18stbiw__zlib_flushfPhPjPi;	.scl	3;	.type	32;	.endef
	.seh_proc	_ZL18stbiw__zlib_flushfPhPjPi
_ZL18stbiw__zlib_flushfPhPjPi:
.LFB777:
	pushq	%rbp
	.seh_pushreg	%rbp
	pushq	%rdi
	.seh_pushreg	%rdi
	pushq	%rsi
	.seh_pushreg	%rsi
	pushq	%rbx
	.seh_pushreg	%rbx
	subq	$40, %rsp
	.seh_stackalloc	40
	.seh_endprologue
	cmpl	$7, (%r8)
	movq	%rcx, %rbx
	movq	%rdx, %rsi
	movq	%r8, %rdi
	jle	.L1184
	.p2align 4,,7
.L1181:
	testq	%rbx, %rbx
	je	.L1178
	movslq	-4(%rbx), %rax
	movl	-8(%rbx), %ecx
	leal	1(%rax), %edx
	cmpl	%ecx, %edx
	jl	.L1179
	leal	1(%rcx,%rcx), %ebp
	leaq	-8(%rbx), %rcx
	movslq	%ebp, %rdx
	addq	$8, %rdx
	call	realloc
	testq	%rax, %rax
	je	.L1183
.L1180:
	leaq	8(%rax), %rbx
	movl	%ebp, (%rax)
	movslq	4(%rax), %rax
	leal	1(%rax), %edx
.L1179:
	movl	%edx, -4(%rbx)
	movl	(%rsi), %edx
	movb	%dl, (%rbx,%rax)
	shrl	$8, (%rsi)
	movl	(%rdi), %eax
	subl	$8, %eax
	cmpl	$7, %eax
	movl	%eax, (%rdi)
	jg	.L1181
.L1184:
	movq	%rbx, %rax
	addq	$40, %rsp
	popq	%rbx
	popq	%rsi
	popq	%rdi
	popq	%rbp
	ret
	.p2align 4,,7
.L1178:
	xorl	%ecx, %ecx
	movl	$10, %edx
	call	realloc
	testq	%rax, %rax
	je	.L1183
	movl	$0, 4(%rax)
	movl	$2, %ebp
	jmp	.L1180
	.p2align 4,,7
.L1183:
	leaq	.LC32(%rip), %rdx
	leaq	.LC33(%rip), %rcx
	movl	$666, %r8d
	call	_assert
	movslq	-4(%rbx), %rax
	leal	1(%rax), %edx
	jmp	.L1179
	.seh_endproc
	.section .rdata,"dr"
	.align 8
.LC43:
	.ascii "n >= 0 && n < (int) (sizeof(stbi__bmask)/sizeof(*stbi__bmask))\0"
.LC44:
	.ascii "bad huffman code\0"
	.text
	.p2align 4,,15
	.def	_ZL23stbi__jpeg_decode_blockP10stbi__jpegPsP13stbi__huffmanS3_S1_iPt;	.scl	3;	.type	32;	.endef
	.seh_proc	_ZL23stbi__jpeg_decode_blockP10stbi__jpegPsP13stbi__huffmanS3_S1_iPt
_ZL23stbi__jpeg_decode_blockP10stbi__jpegPsP13stbi__huffmanS3_S1_iPt:
.LFB628:
	pushq	%r15
	.seh_pushreg	%r15
	pushq	%r14
	.seh_pushreg	%r14
	pushq	%r13
	.seh_pushreg	%r13
	pushq	%r12
	.seh_pushreg	%r12
	pushq	%rbp
	.seh_pushreg	%rbp
	pushq	%rdi
	.seh_pushreg	%rdi
	pushq	%rsi
	.seh_pushreg	%rsi
	pushq	%rbx
	.seh_pushreg	%rbx
	subq	$56, %rsp
	.seh_stackalloc	56
	.seh_endprologue
	movl	18468(%rcx), %eax
	movq	160(%rsp), %rbx
	movq	%rcx, %r12
	movq	%rdx, %rsi
	movq	%r8, %rdi
	movq	%r9, %r13
	movq	176(%rsp), %rbp
	cmpl	$15, %eax
	jle	.L1237
.L1187:
	movl	18464(%r12), %edx
	movl	%edx, %ecx
	shrl	$23, %ecx
	movslq	%ecx, %rcx
	movzbl	(%rdi,%rcx), %ecx
	cmpl	$255, %ecx
	je	.L1188
	movslq	%ecx, %r8
	movzbl	1280(%rdi,%r8), %ecx
	cmpl	%eax, %ecx
	jg	.L1193
	sall	%cl, %edx
	subl	%ecx, %eax
	movl	%edx, 18464(%r12)
	movl	%eax, 18468(%r12)
	movzbl	1024(%rdi,%r8), %r14d
.L1190:
	xorl	%eax, %eax
	movl	$16, %ecx
	movq	%rsi, %rdi
	testl	%r14d, %r14d
	rep stosq
	jne	.L1211
	movl	18468(%r12), %edx
.L1212:
	movslq	168(%rsp), %rax
	movl	$1, %edi
	movq	%rax, %r8
	salq	$7, %rax
	salq	$5, %r8
	subq	%r8, %rax
	addq	%r12, %rax
	addl	18104(%rax), %ecx
	movl	%ecx, 18104(%rax)
	imulw	0(%rbp), %cx
	movw	%cx, (%rsi)
	jmp	.L1210
	.p2align 4,,7
.L1197:
	movl	18464(%r12), %r8d
	movl	%r8d, %eax
	shrl	$23, %eax
	movl	%eax, %ecx
	movswl	(%rbx,%rcx,2), %r9d
	testl	%r9d, %r9d
	movl	%r9d, %ecx
	je	.L1200
.L1216:
	movl	%r9d, %eax
	andl	$15, %ecx
	sarl	$8, %r9d
	sarl	$4, %eax
	sall	%cl, %r8d
	subl	%ecx, %edx
	andl	$15, %eax
	leaq	_ZL19stbi__jpeg_dezigzag(%rip), %rcx
	movl	%r8d, 18464(%r12)
	addl	%edi, %eax
	movl	%edx, 18468(%r12)
	leal	1(%rax), %edi
	cltq
	movzbl	(%rcx,%rax), %eax
	imulw	0(%rbp,%rax,2), %r9w
	movw	%r9w, (%rsi,%rax,2)
.L1199:
	cmpl	$63, %edi
	jg	.L1209
.L1210:
	cmpl	$15, %edx
	jg	.L1197
	movq	%r12, %rcx
	call	_ZL24stbi__grow_buffer_unsafeP10stbi__jpeg
	movl	18464(%r12), %r8d
	movl	18468(%r12), %edx
	movl	%r8d, %eax
	shrl	$23, %eax
	movl	%eax, %ecx
	movswl	(%rbx,%rcx,2), %r9d
	testl	%r9d, %r9d
	movl	%r9d, %ecx
	jne	.L1216
	cmpl	$15, %edx
	jg	.L1200
	movq	%r12, %rcx
	call	_ZL24stbi__grow_buffer_unsafeP10stbi__jpeg
	movl	18464(%r12), %r8d
	movl	18468(%r12), %edx
	movl	%r8d, %eax
	shrl	$23, %eax
.L1200:
	cltq
	movzbl	0(%r13,%rax), %eax
	cmpl	$255, %eax
	je	.L1201
	movzbl	1280(%r13,%rax), %ecx
	cmpl	%edx, %ecx
	jg	.L1193
	sall	%cl, %r8d
	subl	%ecx, %edx
	movl	%r8d, 18464(%r12)
	movl	%edx, 18468(%r12)
	movzbl	1024(%r13,%rax), %eax
.L1202:
	movl	%eax, %r14d
	andl	$15, %r14d
	jne	.L1238
	cmpl	$240, %eax
	jne	.L1209
	addl	$16, %edi
	cmpl	$63, %edi
	jle	.L1210
	.p2align 4,,7
.L1209:
	movl	$1, %eax
	jmp	.L1232
	.p2align 4,,7
.L1201:
	movl	%r8d, %eax
	shrl	$16, %eax
	cmpl	%eax, 1580(%r13)
	ja	.L1224
	cmpl	1584(%r13), %eax
	jb	.L1225
	cmpl	%eax, 1588(%r13)
	ja	.L1226
	cmpl	1592(%r13), %eax
	jb	.L1227
	cmpl	1596(%r13), %eax
	jb	.L1228
	cmpl	1600(%r13), %eax
	jb	.L1229
	cmpl	1604(%r13), %eax
	jb	.L1239
	subl	$16, %edx
	movl	%edx, 18468(%r12)
.L1193:
	leaq	.LC44(%rip), %rax
	movq	%rax, _ZL22stbi__g_failure_reason(%rip)
	xorl	%eax, %eax
.L1232:
	addq	$56, %rsp
	popq	%rbx
	popq	%rsi
	popq	%rdi
	popq	%rbp
	popq	%r12
	popq	%r13
	popq	%r14
	popq	%r15
	ret
	.p2align 4,,7
.L1188:
	movl	%edx, %ecx
	shrl	$16, %ecx
	cmpl	1580(%rdi), %ecx
	jb	.L1217
	cmpl	1584(%rdi), %ecx
	jb	.L1218
	cmpl	1588(%rdi), %ecx
	jb	.L1219
	cmpl	1592(%rdi), %ecx
	jb	.L1220
	cmpl	1596(%rdi), %ecx
	jb	.L1221
	cmpl	1600(%rdi), %ecx
	jb	.L1222
	cmpl	1604(%rdi), %ecx
	jb	.L1223
	subl	$16, %eax
	movl	%eax, 18468(%r12)
	jmp	.L1193
	.p2align 4,,7
.L1238:
	sarl	$4, %eax
	leaq	_ZL19stbi__jpeg_dezigzag(%rip), %rcx
	addl	%edi, %eax
	cmpl	%edx, %r14d
	leal	1(%rax), %edi
	cltq
	movzbl	(%rcx,%rax), %r9d
	leaq	(%rsi,%r9,2), %r15
	jg	.L1240
.L1208:
	movl	%r8d, %eax
	movl	%r14d, %ecx
	movslq	%r14d, %r10
	roll	%cl, %eax
	sarl	$31, %r8d
	subl	%r14d, %edx
	movl	%eax, %ecx
	leaq	_ZL11stbi__bmask(%rip), %rax
	notl	%r8d
	movl	%edx, 18468(%r12)
	movl	(%rax,%r10,4), %eax
	movl	%eax, %r11d
	andl	%ecx, %eax
	notl	%r11d
	andl	%ecx, %r11d
	movl	%r11d, 18464(%r12)
	leaq	_ZL11stbi__jbias(%rip), %r11
	andl	(%r11,%r10,4), %r8d
	addl	%r8d, %eax
	imulw	0(%rbp,%r9,2), %ax
	movw	%ax, (%r15)
	jmp	.L1199
	.p2align 4,,7
.L1240:
	movq	%r12, %rcx
	movq	%r9, 40(%rsp)
	call	_ZL24stbi__grow_buffer_unsafeP10stbi__jpeg
	movl	18468(%r12), %edx
	movl	18464(%r12), %r8d
	movq	40(%rsp), %r9
	jmp	.L1208
	.p2align 4,,7
.L1237:
	call	_ZL24stbi__grow_buffer_unsafeP10stbi__jpeg
	movl	18468(%r12), %eax
	cmpl	$15, %eax
	jg	.L1187
	movq	%r12, %rcx
	call	_ZL24stbi__grow_buffer_unsafeP10stbi__jpeg
	movl	18468(%r12), %eax
	jmp	.L1187
	.p2align 4,,7
.L1239:
	movl	$65535, %eax
	movl	$16, %ecx
	movl	$16, %r15d
	.p2align 4,,7
.L1203:
	cmpl	%edx, %r15d
	jg	.L1193
	movl	%r8d, %r14d
	movl	%r8d, %r10d
	leaq	_ZL11stbi__bmask(%rip), %r9
	shrl	%cl, %r14d
	movl	$32, %ecx
	andl	%eax, %r14d
	movslq	%r15d, %rax
	addl	1612(%r13,%rax,4), %r14d
	movslq	%r14d, %r14
	movzbl	1280(%r13,%r14), %eax
	subl	%eax, %ecx
	shrl	%cl, %r10d
	movl	%r10d, %ecx
	andl	(%r9,%rax,4), %ecx
	movl	%ecx, %eax
	movzwl	512(%r13,%r14,2), %ecx
	cmpl	%ecx, %eax
	je	.L1205
	leaq	.LC3(%rip), %rdx
	leaq	.LC38(%rip), %rcx
	movl	$1837, %r8d
	call	_assert
	movl	18468(%r12), %edx
	movl	18464(%r12), %r8d
.L1205:
	movl	%r15d, %ecx
	subl	%r15d, %edx
	sall	%cl, %r8d
	movl	%edx, 18468(%r12)
	movl	%r8d, 18464(%r12)
	movzbl	1024(%r13,%r14), %eax
	jmp	.L1202
	.p2align 4,,7
.L1229:
	movl	$32767, %eax
	movl	$17, %ecx
	movl	$15, %r15d
	jmp	.L1203
	.p2align 4,,7
.L1228:
	movl	$16383, %eax
	movl	$18, %ecx
	movl	$14, %r15d
	jmp	.L1203
	.p2align 4,,7
.L1227:
	movl	$8191, %eax
	movl	$19, %ecx
	movl	$13, %r15d
	jmp	.L1203
	.p2align 4,,7
.L1226:
	movl	$4095, %eax
	movl	$20, %ecx
	movl	$12, %r15d
	jmp	.L1203
	.p2align 4,,7
.L1225:
	movl	$2047, %eax
	movl	$21, %ecx
	movl	$11, %r15d
	jmp	.L1203
	.p2align 4,,7
.L1224:
	movl	$1023, %eax
	movl	$22, %ecx
	movl	$10, %r15d
	jmp	.L1203
.L1217:
	movl	$10, %r15d
	.p2align 4,,7
.L1191:
	cmpl	%eax, %r15d
	jg	.L1193
	movl	$32, %r8d
	leaq	_ZL11stbi__bmask(%rip), %r9
	movl	%edx, %r14d
	movl	%r8d, %ecx
	movl	%edx, %r11d
	subl	%r15d, %ecx
	shrl	%cl, %r14d
	movslq	%r15d, %rcx
	andl	(%r9,%rcx,4), %r14d
	addl	1612(%rdi,%rcx,4), %r14d
	movl	%r8d, %ecx
	movslq	%r14d, %r14
	movzbl	1280(%rdi,%r14), %r10d
	movzwl	512(%rdi,%r14,2), %r8d
	subl	%r10d, %ecx
	shrl	%cl, %r11d
	movl	(%r9,%r10,4), %ecx
	andl	%r11d, %ecx
	cmpl	%r8d, %ecx
	je	.L1194
	leaq	.LC3(%rip), %rdx
	leaq	.LC38(%rip), %rcx
	movl	$1837, %r8d
	call	_assert
	movl	18468(%r12), %eax
	movl	18464(%r12), %edx
.L1194:
	movl	%r15d, %ecx
	subl	%r15d, %eax
	sall	%cl, %edx
	movl	%eax, 18468(%r12)
	movl	%edx, 18464(%r12)
	movzbl	1024(%rdi,%r14), %r14d
	jmp	.L1190
	.p2align 4,,7
.L1211:
	cmpl	%r14d, 18468(%r12)
	jl	.L1241
.L1195:
	movl	18464(%r12), %eax
	movl	%r14d, %ecx
	movl	%eax, %edi
	roll	%cl, %eax
	sarl	$31, %edi
	cmpl	$16, %r14d
	movl	%eax, %r15d
	jle	.L1196
	leaq	.LC3(%rip), %rdx
	leaq	.LC43(%rip), %rcx
	movl	$1858, %r8d
	call	_assert
.L1196:
	leaq	_ZL11stbi__bmask(%rip), %rax
	movslq	%r14d, %rcx
	leaq	_ZL11stbi__jbias(%rip), %r8
	notl	%edi
	movl	(%rax,%rcx,4), %eax
	andl	(%r8,%rcx,4), %edi
	movl	%eax, %edx
	andl	%r15d, %eax
	notl	%edx
	leal	(%rdi,%rax), %ecx
	andl	%r15d, %edx
	movl	%edx, 18464(%r12)
	movl	18468(%r12), %edx
	subl	%r14d, %edx
	movl	%edx, 18468(%r12)
	jmp	.L1212
.L1222:
	movl	$15, %r15d
	jmp	.L1191
.L1221:
	movl	$14, %r15d
	jmp	.L1191
.L1223:
	movl	$16, %r15d
	jmp	.L1191
.L1218:
	movl	$11, %r15d
	jmp	.L1191
.L1220:
	movl	$13, %r15d
	jmp	.L1191
.L1219:
	movl	$12, %r15d
	jmp	.L1191
.L1241:
	movq	%r12, %rcx
	call	_ZL24stbi__grow_buffer_unsafeP10stbi__jpeg
	jmp	.L1195
	.seh_endproc
	.section .rdata,"dr"
.LC45:
	.ascii "z->size[b] == s\0"
	.text
	.p2align 4,,15
	.def	_ZL27stbi__compute_huffman_codesP10stbi__zbuf;	.scl	3;	.type	32;	.endef
	.seh_proc	_ZL27stbi__compute_huffman_codesP10stbi__zbuf
_ZL27stbi__compute_huffman_codesP10stbi__zbuf:
.LFB671:
	pushq	%r15
	.seh_pushreg	%r15
	pushq	%r14
	.seh_pushreg	%r14
	pushq	%r13
	.seh_pushreg	%r13
	pushq	%r12
	.seh_pushreg	%r12
	pushq	%rbp
	.seh_pushreg	%rbp
	pushq	%rdi
	.seh_pushreg	%rdi
	pushq	%rsi
	.seh_pushreg	%rsi
	pushq	%rbx
	.seh_pushreg	%rbx
	subq	$2680, %rsp
	.seh_stackalloc	2680
	.seh_endprologue
	movl	16(%rcx), %edx
	movq	%rcx, %r14
	cmpl	$4, %edx
	jle	.L1383
.L1243:
	movl	20(%r14), %eax
	subl	$5, %edx
	movl	%edx, 16(%r14)
	movl	%eax, %ebp
	movl	%eax, 52(%rsp)
	shrl	$5, %ebp
	cmpl	$4, %edx
	movl	%ebp, 20(%r14)
	jle	.L1384
.L1244:
	subl	$5, %edx
	movl	%ebp, %ebx
	shrl	$5, %ebx
	cmpl	$3, %edx
	movl	%edx, 16(%r14)
	movl	%ebx, 20(%r14)
	jle	.L1385
.L1245:
	movl	%ebx, %r8d
	subl	$4, %edx
	andl	$15, %ebx
	shrl	$4, %r8d
	movl	%edx, 16(%r14)
	addl	$4, %ebx
	movl	%r8d, 20(%r14)
	movq	$0, 80(%rsp)
	xorl	%edi, %edi
	movq	$0, 88(%rsp)
	movw	$0, 96(%rsp)
	leaq	_ZZL27stbi__compute_huffman_codesP10stbi__zbufE15length_dezigzag(%rip), %rsi
	movb	$0, 98(%rsp)
	movl	%edx, %ecx
	jmp	.L1250
	.p2align 4,,7
.L1246:
	movzbl	(%rsi,%rdi), %eax
	movl	%r8d, %edx
	incq	%rdi
	andl	$7, %edx
	shrl	$3, %r8d
	subl	$3, %ecx
	cmpl	%edi, %ebx
	movl	%r8d, 20(%r14)
	movl	%ecx, 16(%r14)
	movb	%dl, 80(%rsp,%rax)
	jle	.L1386
.L1250:
	cmpl	$2, %ecx
	jg	.L1246
	jmp	.L1249
	.p2align 4,,7
.L1387:
	leaq	.LC4(%rip), %rcx
	leaq	.LC3(%rip), %rdx
	movl	$3848, %r8d
	call	_assert
	movl	16(%r14), %ecx
	movl	20(%r14), %r8d
.L1247:
	movq	(%r14), %rdx
	xorl	%eax, %eax
	cmpq	%rdx, 8(%r14)
	jbe	.L1248
	leaq	1(%rdx), %rax
	movq	%rax, (%r14)
	movzbl	(%rdx), %eax
	sall	%cl, %eax
.L1248:
	addl	$8, %ecx
	orl	%eax, %r8d
	cmpl	$24, %ecx
	movl	%r8d, 20(%r14)
	movl	%ecx, 16(%r14)
	jg	.L1246
.L1249:
	movl	%r8d, %eax
	shrl	%cl, %eax
	testl	%eax, %eax
	je	.L1247
	jmp	.L1387
	.p2align 4,,7
.L1386:
	leaq	176(%rsp), %rsi
	xorl	%eax, %eax
	movl	%ecx, %edx
	movl	$8, %ecx
	leaq	640(%rsp), %r9
	movq	%rsi, %rdi
	rep stosq
	movl	$128, %ecx
	movl	$0, (%rdi)
	movq	%r9, %rdi
	leaq	80(%rsp), %r9
	rep stosq
	leaq	19(%r9), %r10
	movq	%r9, %rax
	.p2align 4,,7
.L1251:
	movzbl	(%rax), %ecx
	incq	%rax
	incl	176(%rsp,%rcx,4)
	cmpq	%rax, %r10
	jne	.L1251
	movl	180(%rsp), %ecx
	movl	$0, 176(%rsp)
	cmpl	$2, %ecx
	jg	.L1252
	movl	184(%rsp), %r10d
	cmpl	$4, %r10d
	jg	.L1252
	movl	188(%rsp), %ebx
	cmpl	$8, %ebx
	jg	.L1252
	movl	192(%rsp), %r11d
	cmpl	$16, %r11d
	jg	.L1252
	movl	196(%rsp), %r12d
	cmpl	$32, %r12d
	jg	.L1252
	movl	200(%rsp), %r13d
	cmpl	$64, %r13d
	jg	.L1252
	movl	204(%rsp), %edi
	cmpl	$128, %edi
	jg	.L1252
	movl	208(%rsp), %eax
	cmpl	$256, %eax
	movl	%eax, 48(%rsp)
	jg	.L1252
	movl	212(%rsp), %eax
	cmpl	$512, %eax
	movl	%eax, 44(%rsp)
	jg	.L1252
	movl	216(%rsp), %eax
	cmpl	$1024, %eax
	movl	%eax, 56(%rsp)
	jg	.L1252
	movl	220(%rsp), %eax
	cmpl	$2048, %eax
	movl	%eax, 60(%rsp)
	jg	.L1252
	movl	224(%rsp), %eax
	cmpl	$4096, %eax
	movl	%eax, 68(%rsp)
	jg	.L1252
	movl	228(%rsp), %eax
	cmpl	$8192, %eax
	movl	%eax, 64(%rsp)
	jg	.L1252
	movl	232(%rsp), %eax
	cmpl	$16384, %eax
	movl	%eax, 72(%rsp)
	jg	.L1252
	movl	236(%rsp), %eax
	cmpl	$32768, %eax
	movl	%eax, 76(%rsp)
	jg	.L1252
	movl	%ecx, %eax
	movl	$0, 116(%rsp)
	movw	$0, 1666(%rsp)
	sall	$15, %eax
	movw	$0, 1766(%rsp)
	movw	%cx, 1768(%rsp)
	movl	%eax, 1700(%rsp)
	leal	(%rcx,%rcx), %eax
	movl	%eax, 120(%rsp)
	movw	%ax, 1668(%rsp)
	addl	%r10d, %eax
	testl	%r10d, %r10d
	je	.L1255
	cmpl	$4, %eax
	jg	.L1256
.L1255:
	movl	%eax, %r15d
	addl	%eax, %eax
	addl	%r10d, %ecx
	sall	$14, %r15d
	movl	%eax, 124(%rsp)
	movw	%ax, 1670(%rsp)
	addl	%ebx, %eax
	testl	%ebx, %ebx
	movl	%r15d, 1704(%rsp)
	movw	%cx, 1770(%rsp)
	je	.L1257
	cmpl	$8, %eax
	jg	.L1256
.L1257:
	movl	%eax, %r10d
	addl	%eax, %eax
	addl	%ebx, %ecx
	sall	$13, %r10d
	movl	%eax, 128(%rsp)
	movw	%ax, 1672(%rsp)
	addl	%r11d, %eax
	testl	%r11d, %r11d
	movl	%r10d, 1708(%rsp)
	movw	%cx, 1772(%rsp)
	je	.L1258
	cmpl	$16, %eax
	jg	.L1256
.L1258:
	movl	%eax, %r10d
	addl	%eax, %eax
	addl	%r11d, %ecx
	sall	$12, %r10d
	movl	%eax, 132(%rsp)
	movw	%ax, 1674(%rsp)
	addl	%r12d, %eax
	testl	%r12d, %r12d
	movl	%r10d, 1712(%rsp)
	movw	%cx, 1774(%rsp)
	je	.L1259
	cmpl	$32, %eax
	jg	.L1256
.L1259:
	movl	%eax, %r10d
	addl	%eax, %eax
	addl	%r12d, %ecx
	sall	$11, %r10d
	movl	%eax, 136(%rsp)
	movw	%ax, 1676(%rsp)
	addl	%r13d, %eax
	testl	%r13d, %r13d
	movl	%r10d, 1716(%rsp)
	movw	%cx, 1776(%rsp)
	je	.L1260
	cmpl	$64, %eax
	jg	.L1256
.L1260:
	movl	%eax, %r10d
	addl	%eax, %eax
	addl	%r13d, %ecx
	sall	$10, %r10d
	movl	%eax, 140(%rsp)
	movw	%ax, 1678(%rsp)
	addl	%edi, %eax
	testl	%edi, %edi
	movl	%r10d, 1720(%rsp)
	movw	%cx, 1778(%rsp)
	je	.L1261
	cmpl	$128, %eax
	jg	.L1256
.L1261:
	movl	48(%rsp), %ebx
	movl	%eax, %r10d
	addl	%eax, %eax
	sall	$9, %r10d
	addl	%edi, %ecx
	movl	%eax, 144(%rsp)
	movw	%ax, 1680(%rsp)
	movl	%r10d, 1724(%rsp)
	addl	%ebx, %eax
	testl	%ebx, %ebx
	movw	%cx, 1780(%rsp)
	je	.L1262
	cmpl	$256, %eax
	jg	.L1256
.L1262:
	addl	48(%rsp), %ecx
	movl	44(%rsp), %ebx
	movl	%eax, %r10d
	addl	%eax, %eax
	sall	$8, %r10d
	movl	%eax, 148(%rsp)
	movw	%ax, 1682(%rsp)
	addl	%ebx, %eax
	testl	%ebx, %ebx
	movl	%r10d, 1728(%rsp)
	movw	%cx, 1782(%rsp)
	jne	.L1388
.L1263:
	addl	44(%rsp), %ecx
	movl	56(%rsp), %ebx
	movl	%eax, %r10d
	addl	%eax, %eax
	sall	$7, %r10d
	movl	%eax, 152(%rsp)
	movw	%ax, 1684(%rsp)
	addl	%ebx, %eax
	testl	%ebx, %ebx
	movl	%r10d, 1732(%rsp)
	movw	%cx, 1784(%rsp)
	je	.L1264
	cmpl	$1024, %eax
	jg	.L1256
.L1264:
	addl	56(%rsp), %ecx
	movl	60(%rsp), %ebx
	movl	%eax, %r10d
	addl	%eax, %eax
	sall	$6, %r10d
	movl	%eax, 156(%rsp)
	movw	%ax, 1686(%rsp)
	addl	%ebx, %eax
	testl	%ebx, %ebx
	movl	%r10d, 1736(%rsp)
	movw	%cx, 1786(%rsp)
	je	.L1265
	cmpl	$2048, %eax
	jg	.L1256
.L1265:
	addl	60(%rsp), %ecx
	movl	68(%rsp), %ebx
	movl	%eax, %r10d
	addl	%eax, %eax
	sall	$5, %r10d
	movl	%eax, 160(%rsp)
	movw	%ax, 1688(%rsp)
	addl	%ebx, %eax
	testl	%ebx, %ebx
	movl	%r10d, 1740(%rsp)
	movw	%cx, 1788(%rsp)
	je	.L1266
	cmpl	$4096, %eax
	jg	.L1256
.L1266:
	addl	68(%rsp), %ecx
	movl	64(%rsp), %ebx
	movl	%eax, %r10d
	addl	%eax, %eax
	sall	$4, %r10d
	movl	%eax, 164(%rsp)
	movw	%ax, 1690(%rsp)
	addl	%ebx, %eax
	testl	%ebx, %ebx
	movl	%r10d, 1744(%rsp)
	movw	%cx, 1790(%rsp)
	je	.L1267
	cmpl	$8192, %eax
	jg	.L1256
.L1267:
	addl	64(%rsp), %ecx
	movl	72(%rsp), %ebx
	leal	0(,%rax,8), %r10d
	addl	%eax, %eax
	movl	%eax, 168(%rsp)
	movw	%ax, 1692(%rsp)
	addl	%ebx, %eax
	testl	%ebx, %ebx
	movl	%r10d, 1748(%rsp)
	movw	%cx, 1792(%rsp)
	je	.L1268
	cmpl	$16384, %eax
	jg	.L1256
.L1268:
	addl	72(%rsp), %ecx
	movl	76(%rsp), %ebx
	leal	0(,%rax,4), %r10d
	addl	%eax, %eax
	movl	%eax, 172(%rsp)
	movw	%ax, 1694(%rsp)
	addl	%ebx, %eax
	testl	%ebx, %ebx
	movl	%r10d, 1752(%rsp)
	movw	%cx, 1794(%rsp)
	je	.L1269
	cmpl	$32768, %eax
	jg	.L1256
.L1269:
	addl	%eax, %eax
	movl	$65536, 1760(%rsp)
	xorl	%r11d, %r11d
	movl	%eax, 1756(%rsp)
	movl	$1, %r12d
	jmp	.L1275
	.p2align 4,,7
.L1272:
	incl	%ebx
	movl	%ebx, 112(%rsp,%rdi,4)
.L1270:
	incq	%r11
	cmpq	$19, %r11
	je	.L1389
.L1275:
	movzbl	(%r9,%r11), %r10d
	testl	%r10d, %r10d
	je	.L1270
	movslq	%r10d, %rdi
	movzwl	1664(%rsp,%rdi,2), %eax
	movl	112(%rsp,%rdi,4), %ebx
	movl	%ebx, %ecx
	subl	%eax, %ecx
	movzwl	1764(%rsp,%rdi,2), %eax
	addl	%ecx, %eax
	cmpl	$9, %r10d
	cltq
	movb	%r10b, 1796(%rsp,%rax)
	movw	%r11w, 2084(%rsp,%rax,2)
	jg	.L1272
	movl	%ebx, %ecx
	movl	%ebx, %eax
	movl	%r12d, %r13d
	andl	$43690, %ecx
	andl	$21845, %eax
	addl	%eax, %eax
	sarl	%ecx
	orl	%eax, %ecx
	movl	%ecx, %eax
	andl	$13107, %ecx
	andl	$52428, %eax
	sall	$2, %ecx
	sarl	$2, %eax
	orl	%ecx, %eax
	movl	%eax, %ecx
	andl	$3855, %eax
	andl	$61680, %ecx
	sall	$4, %eax
	sarl	$4, %ecx
	orl	%eax, %ecx
	movl	%ecx, %eax
	sall	$8, %ecx
	movzwl	%cx, %ecx
	shrl	$8, %eax
	orl	%ecx, %eax
	movl	$16, %ecx
	subl	%r10d, %ecx
	sarl	%cl, %eax
	movl	%r10d, %ecx
	sall	$9, %r10d
	sall	%cl, %r13d
	orl	%r11d, %r10d
	movl	%r13d, %ecx
	.p2align 4,,7
.L1273:
	movslq	%eax, %r15
	addl	%ecx, %eax
	cmpl	$511, %eax
	movw	%r10w, 640(%rsp,%r15,2)
	jle	.L1273
	jmp	.L1272
.L1388:
	cmpl	$512, %eax
	jle	.L1263
.L1256:
	leaq	.LC35(%rip), %rax
	movq	%rax, _ZL22stbi__g_failure_reason(%rip)
	xorl	%eax, %eax
	jmp	.L1332
.L1389:
	movl	52(%rsp), %r13d
	andl	$31, %ebp
	xorl	%r15d, %r15d
	leal	1(%rbp), %eax
	movabsq	$72340172838076673, %r12
	andl	$31, %r13d
	movl	%eax, 44(%rsp)
	addl	$257, %r13d
	leal	0(%r13,%rax), %ebx
	jmp	.L1300
	.p2align 4,,7
.L1390:
	movslq	%r15d, %rdx
	incl	%r15d
	cmpl	%r15d, %ebx
	movb	%al, 176(%rsp,%rdx)
	jle	.L1276
.L1396:
	movl	16(%r14), %edx
	movl	20(%r14), %r8d
.L1300:
	cmpl	$15, %edx
	jle	.L1280
.L1277:
	movl	%r8d, %eax
	andl	$511, %eax
	movzwl	640(%rsp,%rax,2), %ecx
	testl	%ecx, %ecx
	movl	%ecx, %eax
	je	.L1281
	sarl	$9, %ecx
	andl	$511, %eax
	shrl	%cl, %r8d
	subl	%ecx, %edx
	movl	%r8d, 20(%r14)
	movl	%edx, 16(%r14)
.L1282:
	cmpl	$18, %eax
	jg	.L1284
	cmpl	$15, %eax
	jle	.L1390
	cmpl	$16, %eax
	je	.L1391
	cmpl	$17, %eax
	.p2align 4,,2
	je	.L1392
	cmpl	$6, %edx
	.p2align 4,,2
	jle	.L1393
.L1295:
	movl	%r8d, %eax
	subl	$7, %edx
	andl	$127, %r8d
	shrl	$7, %eax
	movl	%edx, 16(%r14)
	leal	11(%r8), %edx
	movl	%eax, 20(%r14)
	xorl	%eax, %eax
.L1292:
	movl	%ebx, %ecx
	subl	%r15d, %ecx
	cmpl	%ecx, %edx
	jg	.L1284
	movslq	%r15d, %rcx
	addq	%rsi, %rcx
	imulq	%r12, %rax
	cmpl	$8, %edx
	jnb	.L1296
	testb	$4, %dl
	jne	.L1394
	testl	%edx, %edx
	je	.L1297
	testb	$2, %dl
	movb	%al, (%rcx)
	jne	.L1395
.L1297:
	addl	%edx, %r15d
	cmpl	%r15d, %ebx
	jg	.L1396
.L1276:
	jne	.L1284
	leaq	52(%r14), %rcx
	movl	%r13d, %r8d
	movq	%rsi, %rdx
	call	_ZL20stbi__zbuild_huffmanP14stbi__zhuffmanPKhi
	testl	%eax, %eax
	je	.L1332
	movl	44(%rsp), %r8d
	movl	%r13d, %edx
	leaq	2072(%r14), %rcx
	addq	%rsi, %rdx
	call	_ZL20stbi__zbuild_huffmanP14stbi__zhuffmanPKhi
	testl	%eax, %eax
	setne	%al
	movzbl	%al, %eax
	jmp	.L1332
	.p2align 4,,7
.L1397:
	leaq	.LC3(%rip), %rdx
	leaq	.LC4(%rip), %rcx
	movl	$3848, %r8d
	call	_assert
	movl	16(%r14), %edx
	movl	20(%r14), %r8d
.L1278:
	movq	(%r14), %rcx
	xorl	%eax, %eax
	cmpq	%rcx, 8(%r14)
	jbe	.L1279
	leaq	1(%rcx), %rax
	movq	%rax, (%r14)
	movzbl	(%rcx), %eax
	movl	%edx, %ecx
	sall	%cl, %eax
.L1279:
	addl	$8, %edx
	orl	%eax, %r8d
	cmpl	$24, %edx
	movl	%r8d, 20(%r14)
	movl	%edx, 16(%r14)
	jg	.L1277
.L1280:
	movl	%r8d, %eax
	movl	%edx, %ecx
	shrl	%cl, %eax
	testl	%eax, %eax
	je	.L1278
	jmp	.L1397
	.p2align 4,,7
.L1281:
	movl	%r8d, %eax
	movl	%r8d, %ecx
	andl	$43690, %eax
	andl	$21845, %ecx
	addl	%ecx, %ecx
	sarl	%eax
	orl	%ecx, %eax
	movl	%eax, %r9d
	andl	$13107, %eax
	andl	$52428, %r9d
	sall	$2, %eax
	sarl	$2, %r9d
	orl	%eax, %r9d
	movl	%r9d, %ecx
	andl	$3855, %r9d
	andl	$61680, %ecx
	sall	$4, %r9d
	sarl	$4, %ecx
	orl	%r9d, %ecx
	movl	%ecx, %eax
	sall	$8, %ecx
	shrl	$8, %eax
	movzwl	%cx, %ecx
	orl	%ecx, %eax
	cmpl	%eax, 1736(%rsp)
	jg	.L1305
	cmpl	1740(%rsp), %eax
	jl	.L1306
	cmpl	%eax, 1744(%rsp)
	jg	.L1307
	cmpl	%eax, 1748(%rsp)
	jg	.L1308
	cmpl	1752(%rsp), %eax
	jl	.L1309
	cmpl	1756(%rsp), %eax
	jl	.L1398
.L1284:
	leaq	.LC35(%rip), %rax
	movq	%rax, _ZL22stbi__g_failure_reason(%rip)
	xorl	%eax, %eax
.L1332:
	addq	$2680, %rsp
	popq	%rbx
	popq	%rsi
	popq	%rdi
	popq	%rbp
	popq	%r12
	popq	%r13
	popq	%r14
	popq	%r15
	ret
	.p2align 4,,7
.L1296:
	leaq	8(%rcx), %rdi
	movl	%edx, %r8d
	movq	%rax, (%rcx)
	movq	%rax, -8(%rcx,%r8)
	andq	$-8, %rdi
	subq	%rdi, %rcx
	addl	%edx, %ecx
	shrl	$3, %ecx
	rep stosq
	jmp	.L1297
	.p2align 4,,7
.L1391:
	cmpl	$1, %edx
	jle	.L1399
.L1291:
	movl	%r8d, %eax
	subl	$2, %edx
	andl	$3, %r8d
	shrl	$2, %eax
	testl	%r15d, %r15d
	movl	%edx, 16(%r14)
	movl	%eax, 20(%r14)
	leal	3(%r8), %edx
	je	.L1284
	leal	-1(%r15), %eax
	cltq
	movzbl	176(%rsp,%rax), %eax
	jmp	.L1292
	.p2align 4,,7
.L1392:
	cmpl	$2, %edx
	jle	.L1400
.L1294:
	movl	%r8d, %eax
	subl	$3, %edx
	andl	$7, %r8d
	shrl	$3, %eax
	movl	%edx, 16(%r14)
	leal	3(%r8), %edx
	movl	%eax, 20(%r14)
	xorl	%eax, %eax
	jmp	.L1292
	.p2align 4,,7
.L1393:
	movq	%r14, %rcx
	call	_ZL15stbi__fill_bitsP10stbi__zbuf
	movl	16(%r14), %edx
	movl	20(%r14), %r8d
	jmp	.L1295
.L1306:
	movl	$5, %ecx
	movl	$11, %edi
	.p2align 4,,7
.L1283:
	sarl	%cl, %eax
	movslq	%edi, %rcx
	movzwl	1664(%rsp,%rcx,2), %r9d
	movzwl	1764(%rsp,%rcx,2), %ebp
	subl	%r9d, %eax
	addl	%ebp, %eax
	movslq	%eax, %rbp
	movzbl	1796(%rsp,%rbp), %eax
	cmpl	%edi, %eax
	je	.L1301
	leaq	.LC3(%rip), %rdx
	leaq	.LC45(%rip), %rcx
	movl	$3876, %r8d
	call	_assert
	movl	20(%r14), %r8d
	movl	16(%r14), %edx
.L1301:
	movl	%edi, %ecx
	subl	%edi, %edx
	movzwl	2084(%rsp,%rbp,2), %eax
	shrl	%cl, %r8d
	movl	%edx, 16(%r14)
	movl	%r8d, 20(%r14)
	jmp	.L1282
.L1305:
	movl	$6, %ecx
	movl	$10, %edi
	jmp	.L1283
.L1398:
	movl	$1, %ecx
	movl	$15, %edi
	jmp	.L1283
.L1309:
	movl	$2, %ecx
	movl	$14, %edi
	jmp	.L1283
.L1308:
	movl	$3, %ecx
	movl	$13, %edi
	jmp	.L1283
.L1307:
	movl	$4, %ecx
	movl	$12, %edi
	jmp	.L1283
.L1252:
	leaq	.LC34(%rip), %rax
	movq	%rax, _ZL22stbi__g_failure_reason(%rip)
	xorl	%eax, %eax
	jmp	.L1332
.L1400:
	movq	%r14, %rcx
	call	_ZL15stbi__fill_bitsP10stbi__zbuf
	movl	16(%r14), %edx
	movl	20(%r14), %r8d
	jmp	.L1294
.L1385:
	movq	%r14, %rcx
	call	_ZL15stbi__fill_bitsP10stbi__zbuf
	movl	20(%r14), %ebx
	movl	16(%r14), %edx
	jmp	.L1245
.L1384:
	movq	%r14, %rcx
	call	_ZL15stbi__fill_bitsP10stbi__zbuf
	movl	20(%r14), %ebp
	movl	16(%r14), %edx
	jmp	.L1244
.L1383:
	call	_ZL15stbi__fill_bitsP10stbi__zbuf
	movl	16(%r14), %edx
	jmp	.L1243
.L1394:
	movl	%edx, %r8d
	movl	%eax, (%rcx)
	movl	%eax, -4(%rcx,%r8)
	jmp	.L1297
.L1399:
	movq	%r14, %rcx
	call	_ZL15stbi__fill_bitsP10stbi__zbuf
	movl	16(%r14), %edx
	movl	20(%r14), %r8d
	jmp	.L1291
.L1395:
	movl	%edx, %r8d
	movw	%ax, -2(%rcx,%r8)
	jmp	.L1297
	.seh_endproc
	.section .rdata,"dr"
.LC46:
	.ascii "bad zlib header\0"
.LC47:
	.ascii "no preset dict\0"
.LC48:
	.ascii "bad compression\0"
.LC49:
	.ascii "a->num_bits == 0\0"
.LC50:
	.ascii "zlib corrupt\0"
.LC51:
	.ascii "read past buffer\0"
.LC52:
	.ascii "output buffer limit\0"
.LC53:
	.ascii "bad dist\0"
	.text
	.p2align 4,,15
	.def	_ZL16stbi__parse_zlibP10stbi__zbufi;	.scl	3;	.type	32;	.endef
	.seh_proc	_ZL16stbi__parse_zlibP10stbi__zbufi
_ZL16stbi__parse_zlibP10stbi__zbufi:
.LFB674:
	pushq	%r15
	.seh_pushreg	%r15
	pushq	%r14
	.seh_pushreg	%r14
	pushq	%r13
	.seh_pushreg	%r13
	pushq	%r12
	.seh_pushreg	%r12
	pushq	%rbp
	.seh_pushreg	%rbp
	pushq	%rdi
	.seh_pushreg	%rdi
	pushq	%rsi
	.seh_pushreg	%rsi
	pushq	%rbx
	.seh_pushreg	%rbx
	subq	$232, %rsp
	.seh_stackalloc	232
	.seh_endprologue
	testl	%edx, %edx
	movq	%rcx, %rbx
	jne	.L1846
.L1402:
	leaq	144(%rsp), %rdi
	movl	$0, 16(%rbx)
	movl	$0, 20(%rbx)
	xorl	%eax, %eax
	xorl	%ecx, %ecx
	movq	%rdi, 32(%rsp)
	leaq	52(%rbx), %rdi
	movq	%rdi, 56(%rsp)
	leaq	2072(%rbx), %rdi
	movq	%rdi, 64(%rsp)
	.p2align 4,,7
.L1543:
	testl	%ecx, %ecx
	jle	.L1412
.L1409:
	movl	%eax, %edi
	decl	%ecx
	shrl	%eax
	andl	$1, %edi
	cmpl	$1, %ecx
	movl	%eax, 20(%rbx)
	movl	%edi, 40(%rsp)
	movl	%ecx, 16(%rbx)
	jle	.L1416
.L1413:
	movl	%eax, %r8d
	leal	-2(%rcx), %edx
	shrl	$2, %r8d
	andl	$3, %eax
	movl	%r8d, 20(%rbx)
	movl	%edx, 16(%rbx)
	je	.L1847
	cmpl	$3, %eax
	je	.L1486
	decl	%eax
	je	.L1848
	movq	%rbx, %rcx
	call	_ZL27stbi__compute_huffman_codesP10stbi__zbuf
	testl	%eax, %eax
	je	.L1486
	movl	16(%rbx), %edx
	movl	20(%rbx), %r8d
.L1546:
	cmpl	$15, %edx
	movq	24(%rbx), %rdi
	movl	$16, %r12d
	jle	.L1849
	.p2align 4,,7
.L1493:
	movl	%r8d, %eax
	andl	$511, %eax
	movzwl	52(%rbx,%rax,2), %ecx
	testl	%ecx, %ecx
	movl	%ecx, %esi
	je	.L1497
	sarl	$9, %ecx
	andl	$511, %esi
	shrl	%cl, %r8d
	subl	%ecx, %edx
	movl	%r8d, 20(%rbx)
	movl	%edx, 16(%rbx)
.L1498:
	cmpl	$255, %esi
	jg	.L1834
	movq	40(%rbx), %rdx
	cmpq	%rdi, %rdx
	ja	.L1501
	movl	48(%rbx), %r9d
	movq	%rdi, 24(%rbx)
	testl	%r9d, %r9d
	je	.L1527
	movq	32(%rbx), %rcx
	subq	%rcx, %rdi
	subq	%rcx, %rdx
	cmpl	%edx, %edi
	movl	%edi, %eax
	jl	.L1504
	.p2align 4,,7
.L1505:
	addl	%edx, %edx
	cmpl	%edx, %eax
	jge	.L1505
.L1504:
	movslq	%edx, %rbp
	movq	%rbp, %rdx
	call	realloc
	testq	%rax, %rax
	je	.L1530
	movslq	%edi, %rdi
	leaq	(%rax,%rbp), %rdx
	movq	%rax, 32(%rbx)
	addq	%rax, %rdi
	movq	%rdi, 24(%rbx)
	movq	%rdx, 40(%rbx)
.L1501:
	movb	%sil, (%rdi)
	incq	%rdi
.L1507:
	movl	16(%rbx), %edx
	movl	20(%rbx), %r8d
	cmpl	$15, %edx
	jg	.L1493
.L1849:
	movl	%edx, %ecx
	jmp	.L1496
	.p2align 4,,7
.L1494:
	movq	(%rbx), %rdx
	xorl	%eax, %eax
	cmpq	%rdx, 8(%rbx)
	jbe	.L1495
	leaq	1(%rdx), %rax
	movq	%rax, (%rbx)
	movzbl	(%rdx), %eax
	sall	%cl, %eax
.L1495:
	addl	$8, %ecx
	orl	%eax, %r8d
	cmpl	$24, %ecx
	movl	%r8d, 20(%rbx)
	movl	%ecx, 16(%rbx)
	jg	.L1850
.L1496:
	movl	%r8d, %eax
	shrl	%cl, %eax
	testl	%eax, %eax
	je	.L1494
	leaq	.LC4(%rip), %rcx
	leaq	.LC3(%rip), %rdx
	movl	$3848, %r8d
	call	_assert
	movl	16(%rbx), %ecx
	movl	20(%rbx), %r8d
	jmp	.L1494
.L1851:
	leaq	.LC4(%rip), %rcx
	leaq	.LC3(%rip), %rdx
	movl	$3848, %r8d
	call	_assert
	movl	16(%rbx), %ecx
	movl	20(%rbx), %eax
.L1414:
	movq	(%rbx), %r8
	xorl	%edx, %edx
	cmpq	%r8, 8(%rbx)
	jbe	.L1415
	leaq	1(%r8), %rdx
	movq	%rdx, (%rbx)
	movzbl	(%r8), %edx
	sall	%cl, %edx
.L1415:
	addl	$8, %ecx
	orl	%edx, %eax
	cmpl	$24, %ecx
	movl	%eax, 20(%rbx)
	movl	%ecx, 16(%rbx)
	jg	.L1413
.L1416:
	movl	%eax, %edx
	shrl	%cl, %edx
	testl	%edx, %edx
	je	.L1414
	jmp	.L1851
.L1852:
	leaq	.LC4(%rip), %rcx
	leaq	.LC3(%rip), %rdx
	movl	$3848, %r8d
	call	_assert
	movl	16(%rbx), %ecx
	movl	20(%rbx), %eax
.L1410:
	movq	(%rbx), %r8
	xorl	%edx, %edx
	cmpq	%r8, 8(%rbx)
	jbe	.L1411
	leaq	1(%r8), %rdx
	movq	%rdx, (%rbx)
	movzbl	(%r8), %edx
	sall	%cl, %edx
.L1411:
	addl	$8, %ecx
	orl	%edx, %eax
	cmpl	$24, %ecx
	movl	%eax, 20(%rbx)
	movl	%ecx, 16(%rbx)
	jg	.L1409
.L1412:
	movl	%eax, %edx
	shrl	%cl, %edx
	testl	%edx, %edx
	je	.L1410
	jmp	.L1852
	.p2align 4,,7
.L1834:
	cmpl	$256, %esi
	je	.L1853
	subl	$257, %esi
	leaq	_ZL18stbi__zlength_base(%rip), %rax
	movslq	%esi, %rsi
	movl	(%rax,%rsi,4), %ebp
	leaq	_ZL19stbi__zlength_extra(%rip), %rax
	movl	(%rax,%rsi,4), %esi
	testl	%esi, %esi
	jne	.L1854
.L1509:
	cmpl	$15, %edx
	jle	.L1855
.L1514:
	movl	%r8d, %eax
	andl	$511, %eax
	movzwl	2072(%rbx,%rax,2), %ecx
	testl	%ecx, %ecx
	movl	%ecx, %eax
	je	.L1518
	sarl	$9, %ecx
	andl	$511, %eax
	shrl	%cl, %r8d
	subl	%ecx, %edx
	movl	%r8d, 20(%rbx)
	movl	%edx, 16(%rbx)
.L1519:
	leaq	_ZL16stbi__zdist_base(%rip), %rcx
	cltq
	movl	(%rcx,%rax,4), %r13d
	leaq	_ZL17stbi__zdist_extra(%rip), %rcx
	movl	(%rcx,%rax,4), %esi
	testl	%esi, %esi
	jne	.L1856
.L1554:
	movq	32(%rbx), %rcx
	movq	%rdi, %r15
	movslq	%r13d, %r14
	subq	%rcx, %r15
	cmpq	%r14, %r15
	jl	.L1857
	movq	40(%rbx), %rdx
	movslq	%ebp, %rax
	addq	%rdi, %rax
	cmpq	%rax, %rdx
	jnb	.L1526
	movl	48(%rbx), %r8d
	movq	%rdi, 24(%rbx)
	testl	%r8d, %r8d
	je	.L1527
	leal	0(%rbp,%r15), %eax
	subq	%rcx, %rdx
	cmpl	%edx, %eax
	jle	.L1528
	.p2align 4,,7
.L1529:
	addl	%edx, %edx
	cmpl	%edx, %eax
	jg	.L1529
.L1528:
	movslq	%edx, %rsi
	movq	%rsi, %rdx
	call	realloc
	testq	%rax, %rax
	je	.L1530
	movslq	%r15d, %rdi
	leaq	(%rax,%rsi), %rdx
	movq	%rax, 32(%rbx)
	addq	%rax, %rdi
	movq	%rdi, 24(%rbx)
	movq	%rdx, 40(%rbx)
.L1526:
	movq	%rdi, %rax
	subq	%r14, %rax
	decl	%r13d
	je	.L1858
	testl	%ebp, %ebp
	je	.L1507
	movq	%r12, %rdx
	subq	%r14, %rdx
	testq	%rdx, %rdx
	leaq	16(%rdi), %rdx
	setle	%cl
	cmpq	%rdx, %rax
	setnb	%dl
	orb	%dl, %cl
	je	.L1532
	cmpl	$18, %ebp
	jbe	.L1532
	movq	%rax, %r8
	negq	%r8
	andl	$15, %r8d
	cmpl	%ebp, %r8d
	cmova	%ebp, %r8d
	testl	%r8d, %r8d
	je	.L1582
	movzbl	(%rax), %ecx
	leal	-1(%rbp), %r10d
	cmpl	$1, %r8d
	leaq	1(%rdi), %rdx
	leaq	1(%rax), %r9
	movb	%cl, (%rdi)
	movl	%r10d, %ecx
	je	.L1596
	movzbl	1(%rax), %ecx
	cmpl	$2, %r8d
	leaq	2(%rdi), %rdx
	leaq	2(%rax), %r9
	movb	%cl, 1(%rdi)
	leal	-2(%rbp), %ecx
	je	.L1596
	movzbl	2(%rax), %ecx
	cmpl	$3, %r8d
	leaq	3(%rdi), %rdx
	leaq	3(%rax), %r9
	movb	%cl, 2(%rdi)
	leal	-3(%rbp), %ecx
	je	.L1596
	movzbl	3(%rax), %ecx
	cmpl	$4, %r8d
	leaq	4(%rdi), %rdx
	leaq	4(%rax), %r9
	movb	%cl, 3(%rdi)
	leal	-4(%rbp), %ecx
	je	.L1596
	movzbl	4(%rax), %ecx
	cmpl	$5, %r8d
	leaq	5(%rdi), %rdx
	leaq	5(%rax), %r9
	movb	%cl, 4(%rdi)
	leal	-5(%rbp), %ecx
	je	.L1596
	movzbl	5(%rax), %ecx
	cmpl	$6, %r8d
	leaq	6(%rdi), %rdx
	leaq	6(%rax), %r9
	movb	%cl, 5(%rdi)
	leal	-6(%rbp), %ecx
	je	.L1596
	movzbl	6(%rax), %ecx
	cmpl	$7, %r8d
	leaq	7(%rdi), %rdx
	leaq	7(%rax), %r9
	movb	%cl, 6(%rdi)
	leal	-7(%rbp), %ecx
	je	.L1596
	movzbl	7(%rax), %ecx
	cmpl	$8, %r8d
	leaq	8(%rdi), %rdx
	leaq	8(%rax), %r9
	movb	%cl, 7(%rdi)
	leal	-8(%rbp), %ecx
	je	.L1596
	movzbl	8(%rax), %ecx
	cmpl	$9, %r8d
	leaq	9(%rdi), %rdx
	leaq	9(%rax), %r9
	movb	%cl, 8(%rdi)
	leal	-9(%rbp), %ecx
	je	.L1596
	movzbl	9(%rax), %ecx
	cmpl	$10, %r8d
	leaq	10(%rdi), %rdx
	leaq	10(%rax), %r9
	movb	%cl, 9(%rdi)
	leal	-10(%rbp), %ecx
	je	.L1596
	movzbl	10(%rax), %ecx
	cmpl	$11, %r8d
	leaq	11(%rdi), %rdx
	leaq	11(%rax), %r9
	movb	%cl, 10(%rdi)
	leal	-11(%rbp), %ecx
	je	.L1596
	movzbl	11(%rax), %ecx
	cmpl	$12, %r8d
	leaq	12(%rdi), %rdx
	leaq	12(%rax), %r9
	movb	%cl, 11(%rdi)
	leal	-12(%rbp), %ecx
	je	.L1596
	movzbl	12(%rax), %ecx
	cmpl	$13, %r8d
	leaq	13(%rdi), %rdx
	leaq	13(%rax), %r9
	movb	%cl, 12(%rdi)
	leal	-13(%rbp), %ecx
	je	.L1596
	movzbl	13(%rax), %ecx
	cmpl	$15, %r8d
	leaq	14(%rdi), %rdx
	leaq	14(%rax), %r9
	movb	%cl, 13(%rdi)
	leal	-14(%rbp), %ecx
	jne	.L1596
	movzbl	14(%rax), %ecx
	leaq	15(%rdi), %rdx
	addq	$15, %rax
	movb	%cl, 14(%rdi)
	leal	-15(%rbp), %ecx
.L1533:
	subl	%r8d, %ebp
	movl	%r10d, %r15d
	movl	%r8d, %r11d
	leal	-16(%rbp), %r9d
	subl	%r8d, %r15d
	shrl	$4, %r9d
	incl	%r9d
	movl	%r9d, %esi
	sall	$4, %esi
	cmpl	$14, %r15d
	jbe	.L1535
	movq	%r11, %r8
	addq	%rdi, %r11
	subq	%r14, %r8
	xorl	%r14d, %r14d
	leaq	(%rdi,%r8), %r13
	xorl	%r8d, %r8d
.L1536:
	movdqa	0(%r13,%r8), %xmm0
	incl	%r14d
	movups	%xmm0, (%r11,%r8)
	addq	$16, %r8
	cmpl	%r9d, %r14d
	jb	.L1536
	movl	%esi, %r8d
	subl	%esi, %ecx
	addq	%r8, %rdx
	addq	%r8, %rax
	cmpl	%ebp, %esi
	je	.L1541
	.p2align 4,,7
.L1535:
	movzbl	(%rax), %r8d
	cmpl	$1, %ecx
	movb	%r8b, (%rdx)
	je	.L1541
	movzbl	1(%rax), %r8d
	cmpl	$2, %ecx
	movb	%r8b, 1(%rdx)
	je	.L1541
	movzbl	2(%rax), %r8d
	cmpl	$3, %ecx
	movb	%r8b, 2(%rdx)
	je	.L1541
	movzbl	3(%rax), %r8d
	cmpl	$4, %ecx
	movb	%r8b, 3(%rdx)
	je	.L1541
	movzbl	4(%rax), %r8d
	cmpl	$5, %ecx
	movb	%r8b, 4(%rdx)
	je	.L1541
	movzbl	5(%rax), %r8d
	cmpl	$6, %ecx
	movb	%r8b, 5(%rdx)
	je	.L1541
	movzbl	6(%rax), %r8d
	cmpl	$7, %ecx
	movb	%r8b, 6(%rdx)
	je	.L1541
	movzbl	7(%rax), %r8d
	cmpl	$8, %ecx
	movb	%r8b, 7(%rdx)
	je	.L1541
	movzbl	8(%rax), %r8d
	cmpl	$9, %ecx
	movb	%r8b, 8(%rdx)
	je	.L1541
	movzbl	9(%rax), %r8d
	cmpl	$10, %ecx
	movb	%r8b, 9(%rdx)
	je	.L1541
	movzbl	10(%rax), %r8d
	cmpl	$11, %ecx
	movb	%r8b, 10(%rdx)
	je	.L1541
	movzbl	11(%rax), %r8d
	cmpl	$12, %ecx
	movb	%r8b, 11(%rdx)
	je	.L1541
	movzbl	12(%rax), %r8d
	cmpl	$13, %ecx
	movb	%r8b, 12(%rdx)
	je	.L1541
	movzbl	13(%rax), %r8d
	cmpl	$14, %ecx
	movb	%r8b, 13(%rdx)
	je	.L1541
	movzbl	14(%rax), %eax
	movb	%al, 14(%rdx)
.L1541:
	leaq	1(%rdi,%r10), %rdi
	jmp	.L1507
	.p2align 4,,7
.L1497:
	movl	%r8d, %eax
	movl	%r8d, %ecx
	andl	$43690, %eax
	andl	$21845, %ecx
	addl	%ecx, %ecx
	sarl	%eax
	orl	%ecx, %eax
	movl	%eax, %r9d
	andl	$13107, %eax
	andl	$52428, %r9d
	sall	$2, %eax
	sarl	$2, %r9d
	orl	%eax, %r9d
	movl	%r9d, %ecx
	andl	$3855, %r9d
	andl	$61680, %ecx
	sall	$4, %r9d
	sarl	$4, %ecx
	orl	%r9d, %ecx
	movl	%ecx, %eax
	sall	$8, %ecx
	shrl	$8, %eax
	movzwl	%cx, %ecx
	orl	%ecx, %eax
	cmpl	1148(%rbx), %eax
	jl	.L1567
	cmpl	1152(%rbx), %eax
	jl	.L1568
	cmpl	1156(%rbx), %eax
	jl	.L1569
	cmpl	1160(%rbx), %eax
	jl	.L1570
	cmpl	1164(%rbx), %eax
	jl	.L1571
	cmpl	1168(%rbx), %eax
	jl	.L1859
.L1500:
	leaq	.LC44(%rip), %rax
	movq	%rax, _ZL22stbi__g_failure_reason(%rip)
	.p2align 4,,7
.L1486:
	xorl	%eax, %eax
.L1831:
	addq	$232, %rsp
	popq	%rbx
	popq	%rsi
	popq	%rdi
	popq	%rbp
	popq	%r12
	popq	%r13
	popq	%r14
	popq	%r15
	ret
	.p2align 4,,7
.L1850:
	movl	%ecx, %edx
	jmp	.L1493
	.p2align 4,,7
.L1518:
	movl	%r8d, %eax
	movl	%r8d, %ecx
	andl	$43690, %eax
	andl	$21845, %ecx
	addl	%ecx, %ecx
	sarl	%eax
	orl	%ecx, %eax
	movl	%eax, %r9d
	andl	$13107, %eax
	andl	$52428, %r9d
	sall	$2, %eax
	sarl	$2, %r9d
	orl	%eax, %r9d
	movl	%r9d, %ecx
	andl	$3855, %r9d
	andl	$61680, %ecx
	sall	$4, %r9d
	sarl	$4, %ecx
	orl	%r9d, %ecx
	movl	%ecx, %eax
	sall	$8, %ecx
	shrl	$8, %eax
	movzwl	%cx, %ecx
	orl	%ecx, %eax
	cmpl	3168(%rbx), %eax
	jl	.L1575
	cmpl	3172(%rbx), %eax
	jl	.L1576
	cmpl	3176(%rbx), %eax
	jl	.L1577
	cmpl	3180(%rbx), %eax
	jl	.L1578
	cmpl	3184(%rbx), %eax
	jl	.L1579
	cmpl	3188(%rbx), %eax
	jge	.L1500
	movl	$1, %ecx
	movl	$15, %r13d
	.p2align 4,,7
.L1520:
	movslq	%r13d, %r9
	sarl	%cl, %eax
	leaq	(%rbx,%r9,2), %r9
	movzwl	3096(%r9), %ecx
	movzwl	3196(%r9), %esi
	subl	%ecx, %eax
	addl	%esi, %eax
	movslq	%eax, %rsi
	movzbl	3228(%rbx,%rsi), %eax
	cmpl	%r13d, %eax
	je	.L1551
	leaq	.LC3(%rip), %rdx
	leaq	.LC45(%rip), %rcx
	movl	$3876, %r8d
	call	_assert
	movl	20(%rbx), %r8d
	movl	16(%rbx), %edx
.L1551:
	movl	%r13d, %ecx
	subl	%r13d, %edx
	movzwl	3516(%rbx,%rsi,2), %eax
	shrl	%cl, %r8d
	movl	%edx, 16(%rbx)
	movl	%r8d, 20(%rbx)
	jmp	.L1519
	.p2align 4,,7
.L1855:
	movl	%edx, %ecx
	jmp	.L1517
	.p2align 4,,7
.L1515:
	movq	(%rbx), %rdx
	xorl	%eax, %eax
	cmpq	%rdx, 8(%rbx)
	jbe	.L1516
	leaq	1(%rdx), %rax
	movq	%rax, (%rbx)
	movzbl	(%rdx), %eax
	sall	%cl, %eax
.L1516:
	addl	$8, %ecx
	orl	%eax, %r8d
	cmpl	$24, %ecx
	movl	%r8d, 20(%rbx)
	movl	%ecx, 16(%rbx)
	jg	.L1860
.L1517:
	movl	%r8d, %eax
	shrl	%cl, %eax
	testl	%eax, %eax
	je	.L1515
	leaq	.LC4(%rip), %rcx
	leaq	.LC3(%rip), %rdx
	movl	$3848, %r8d
	call	_assert
	movl	16(%rbx), %ecx
	movl	20(%rbx), %r8d
	jmp	.L1515
	.p2align 4,,7
.L1854:
	cmpl	%edx, %esi
	jg	.L1861
.L1510:
	movl	%esi, %ecx
	movl	$1, %eax
	subl	%esi, %edx
	sall	%cl, %eax
	movl	%edx, 16(%rbx)
	decl	%eax
	andl	%r8d, %eax
	shrl	%cl, %r8d
	movl	%r8d, 20(%rbx)
	addl	%eax, %ebp
	jmp	.L1509
	.p2align 4,,7
.L1860:
	movl	%ecx, %edx
	jmp	.L1514
	.p2align 4,,7
.L1856:
	cmpl	%edx, %esi
	jg	.L1862
.L1521:
	movl	%r8d, %eax
	movl	%esi, %ecx
	subl	%esi, %edx
	shrl	%cl, %eax
	movl	%edx, 16(%rbx)
	movl	%eax, 20(%rbx)
	movl	$1, %eax
	sall	%cl, %eax
	decl	%eax
	andl	%eax, %r8d
	addl	%r8d, %r13d
	jmp	.L1554
	.p2align 4,,7
.L1858:
	testl	%ebp, %ebp
	je	.L1507
	leal	-1(%rbp), %esi
	movsbl	(%rax), %edx
	movq	%rdi, %rcx
	incq	%rsi
	movq	%rsi, %r8
	addq	%rsi, %rdi
	call	memset
	jmp	.L1507
	.p2align 4,,7
.L1596:
	movq	%r9, %rax
	jmp	.L1533
	.p2align 4,,7
.L1859:
	movl	$1, %ecx
	movl	$15, %ebp
	.p2align 4,,7
.L1499:
	movslq	%ebp, %r9
	sarl	%cl, %eax
	leaq	(%rbx,%r9,2), %r9
	movzwl	1076(%r9), %ecx
	movzwl	1176(%r9), %esi
	subl	%ecx, %eax
	addl	%esi, %eax
	movslq	%eax, %rsi
	movzbl	1208(%rbx,%rsi), %eax
	cmpl	%ebp, %eax
	je	.L1547
	leaq	.LC3(%rip), %rdx
	leaq	.LC45(%rip), %rcx
	movl	$3876, %r8d
	call	_assert
	movl	20(%rbx), %r8d
	movl	16(%rbx), %edx
.L1547:
	movl	%ebp, %ecx
	subl	%ebp, %edx
	movzwl	1496(%rbx,%rsi,2), %esi
	shrl	%cl, %r8d
	movl	%edx, 16(%rbx)
	movl	%r8d, 20(%rbx)
	jmp	.L1498
	.p2align 4,,7
.L1571:
	movl	$2, %ecx
	movl	$14, %ebp
	jmp	.L1499
	.p2align 4,,7
.L1570:
	movl	$3, %ecx
	movl	$13, %ebp
	jmp	.L1499
	.p2align 4,,7
.L1569:
	movl	$4, %ecx
	movl	$12, %ebp
	jmp	.L1499
	.p2align 4,,7
.L1568:
	movl	$5, %ecx
	movl	$11, %ebp
	jmp	.L1499
	.p2align 4,,7
.L1567:
	movl	$6, %ecx
	movl	$10, %ebp
	jmp	.L1499
	.p2align 4,,7
.L1861:
	movl	%edx, %ecx
	jmp	.L1513
	.p2align 4,,7
.L1511:
	movq	(%rbx), %rdx
	xorl	%eax, %eax
	cmpq	%rdx, 8(%rbx)
	jbe	.L1512
	leaq	1(%rdx), %rax
	movq	%rax, (%rbx)
	movzbl	(%rdx), %eax
	sall	%cl, %eax
.L1512:
	addl	$8, %ecx
	orl	%eax, %r8d
	cmpl	$24, %ecx
	movl	%r8d, 20(%rbx)
	movl	%ecx, 16(%rbx)
	jg	.L1863
.L1513:
	movl	%r8d, %eax
	shrl	%cl, %eax
	testl	%eax, %eax
	je	.L1511
	leaq	.LC4(%rip), %rcx
	leaq	.LC3(%rip), %rdx
	movl	$3848, %r8d
	call	_assert
	movl	16(%rbx), %ecx
	movl	20(%rbx), %r8d
	jmp	.L1511
	.p2align 4,,7
.L1863:
	movl	%ecx, %edx
	jmp	.L1510
	.p2align 4,,7
.L1862:
	movl	%edx, %ecx
	jmp	.L1524
	.p2align 4,,7
.L1522:
	movq	(%rbx), %rdx
	xorl	%eax, %eax
	cmpq	%rdx, 8(%rbx)
	jbe	.L1523
	leaq	1(%rdx), %rax
	movq	%rax, (%rbx)
	movzbl	(%rdx), %eax
	sall	%cl, %eax
.L1523:
	addl	$8, %ecx
	orl	%eax, %r8d
	cmpl	$24, %ecx
	movl	%r8d, 20(%rbx)
	movl	%ecx, 16(%rbx)
	jg	.L1864
.L1524:
	movl	%r8d, %eax
	shrl	%cl, %eax
	testl	%eax, %eax
	je	.L1522
	leaq	.LC4(%rip), %rcx
	leaq	.LC3(%rip), %rdx
	movl	$3848, %r8d
	call	_assert
	movl	16(%rbx), %ecx
	movl	20(%rbx), %r8d
	jmp	.L1522
	.p2align 4,,7
.L1864:
	movl	%ecx, %edx
	jmp	.L1521
.L1432:
	movq	(%rbx), %rdx
	movslq	%eax, %rbp
	leaq	(%rdx,%rbp), %rcx
	cmpq	%rcx, 8(%rbx)
	jb	.L1865
	movq	24(%rbx), %r9
	movq	40(%rbx), %r8
	leaq	(%r9,%rbp), %rcx
	cmpq	%rcx, %r8
	jnb	.L1435
	movl	48(%rbx), %r10d
	testl	%r10d, %r10d
	jne	.L1866
	.p2align 4,,7
.L1527:
	leaq	.LC52(%rip), %rax
	movq	%rax, _ZL22stbi__g_failure_reason(%rip)
	jmp	.L1486
	.p2align 4,,7
.L1582:
	movl	%ebp, %ecx
	movq	%rdi, %rdx
	leal	-1(%rbp), %r10d
	jmp	.L1533
	.p2align 4,,7
.L1530:
	leaq	.LC7(%rip), %rax
	movq	%rax, _ZL22stbi__g_failure_reason(%rip)
	jmp	.L1486
	.p2align 4,,7
.L1532:
	leal	-1(%rbp), %r10d
	xorl	%edx, %edx
	movl	%r10d, %r8d
	incq	%r8
	.p2align 4,,7
.L1540:
	movzbl	(%rax,%rdx), %ecx
	movb	%cl, (%rdi,%rdx)
	incq	%rdx
	cmpq	%rdx, %r8
	jne	.L1540
	jmp	.L1541
.L1579:
	movl	$2, %ecx
	movl	$14, %r13d
	jmp	.L1520
.L1578:
	movl	$3, %ecx
	movl	$13, %r13d
	jmp	.L1520
.L1577:
	movl	$4, %ecx
	movl	$12, %r13d
	jmp	.L1520
.L1576:
	movl	$5, %ecx
	movl	$11, %r13d
	jmp	.L1520
.L1575:
	movl	$6, %ecx
	movl	$10, %r13d
	jmp	.L1520
.L1847:
	movl	%edx, %edi
	andl	$7, %edi
	jne	.L1867
	testl	%edx, %edx
	jle	.L1560
.L1871:
	leal	-8(%rdx), %eax
	movl	%r8d, %ecx
	movl	%r8d, %ebp
	shrl	$8, %ecx
	movb	%r8b, 144(%rsp)
	testl	%eax, %eax
	movl	%ecx, 20(%rbx)
	movl	%eax, 16(%rbx)
	jle	.L1561
	leal	-16(%rdx), %eax
	movzbl	%cl, %r12d
	movb	%cl, 145(%rsp)
	movl	%r8d, %ecx
	shrl	$16, %ecx
	testl	%eax, %eax
	movl	%eax, 16(%rbx)
	movl	%ecx, 20(%rbx)
	jle	.L1562
	leal	-24(%rdx), %eax
	movl	%r8d, %edi
	movzbl	%cl, %r13d
	shrl	$24, %edi
	movb	%cl, 146(%rsp)
	testl	%eax, %eax
	movl	%edi, 20(%rbx)
	movl	%eax, 16(%rbx)
	jle	.L1563
	subl	$32, %edx
	movl	$0, 20(%rbx)
	testl	%edx, %edx
	movl	%edx, 16(%rbx)
	je	.L1868
	leaq	.LC3(%rip), %rdx
	leaq	.LC49(%rip), %rcx
	movl	$4033, %r8d
	sall	$8, %edi
	call	_assert
	movl	%edi, %r8d
.L1425:
	sall	$8, %r12d
	movzbl	%bpl, %eax
	addl	%r13d, %r8d
	addl	%r12d, %eax
	movl	%eax, %edx
	xorl	$65535, %edx
	cmpl	%edx, %r8d
	je	.L1432
	leaq	.LC50(%rip), %rax
	movq	%rax, _ZL22stbi__g_failure_reason(%rip)
	jmp	.L1486
.L1848:
	movq	32(%rsp), %rdi
	xorl	%eax, %eax
	movl	$8, %ecx
	leaq	1+_ZL21stbi__zdefault_length(%rip), %r9
	leaq	288+_ZL21stbi__zdefault_length(%rip), %r10
	rep stosq
	movq	56(%rsp), %rcx
	movl	$0, (%rdi)
	leaq	60(%rbx), %rdi
	movq	$0, (%rcx)
	movq	$0, 1068(%rbx)
	andq	$-8, %rdi
	subq	%rdi, %rcx
	addl	$1024, %ecx
	shrl	$3, %ecx
	rep stosq
	movl	$8, %eax
	jmp	.L1444
	.p2align 4,,7
.L1869:
	movzbl	(%r9), %eax
	incq	%r9
	movslq	%eax, %rcx
	movl	144(%rsp,%rcx,4), %ecx
.L1444:
	incl	%ecx
	cmpq	%r9, %r10
	movl	%ecx, 144(%rsp,%rax,4)
	jne	.L1869
	movl	148(%rsp), %r9d
	movl	$0, 144(%rsp)
	cmpl	$2, %r9d
	jg	.L1469
	movl	152(%rsp), %r11d
	cmpl	$4, %r11d
	jg	.L1469
	movl	156(%rsp), %r10d
	cmpl	$8, %r10d
	jg	.L1469
	movl	160(%rsp), %r15d
	cmpl	$16, %r15d
	jg	.L1469
	movl	164(%rsp), %r13d
	cmpl	$32, %r13d
	jg	.L1469
	movl	168(%rsp), %eax
	cmpl	$64, %eax
	jg	.L1469
	movl	172(%rsp), %r12d
	cmpl	$128, %r12d
	jg	.L1469
	movl	176(%rsp), %r14d
	cmpl	$256, %r14d
	jg	.L1469
	movl	180(%rsp), %ebp
	cmpl	$512, %ebp
	jg	.L1469
	movl	184(%rsp), %edi
	cmpl	$1024, %edi
	jg	.L1469
	movl	188(%rsp), %esi
	cmpl	$2048, %esi
	movl	%esi, 44(%rsp)
	jg	.L1469
	movl	192(%rsp), %esi
	cmpl	$4096, %esi
	movl	%esi, 48(%rsp)
	jg	.L1469
	movl	196(%rsp), %esi
	cmpl	$8192, %esi
	movl	%esi, 52(%rsp)
	jg	.L1469
	movl	200(%rsp), %esi
	cmpl	$16384, %esi
	movl	%esi, 72(%rsp)
	jg	.L1469
	movl	204(%rsp), %esi
	cmpl	$32768, %esi
	movl	%esi, 76(%rsp)
	jg	.L1469
	movl	%r9d, %ecx
	movl	$0, 84(%rsp)
	movw	$0, 1078(%rbx)
	sall	$15, %ecx
	movw	$0, 1178(%rbx)
	movw	%r9w, 1180(%rbx)
	movl	%ecx, 1112(%rbx)
	leal	(%r9,%r9), %ecx
	movl	%ecx, 88(%rsp)
	movw	%cx, 1080(%rbx)
	addl	%r11d, %ecx
	cmpl	$4, %ecx
	jle	.L1598
	testl	%r11d, %r11d
	jne	.L1470
.L1598:
	movl	%ecx, %esi
	addl	%r11d, %r9d
	addl	%ecx, %ecx
	sall	$14, %esi
	testl	%r10d, %r10d
	movl	%ecx, 92(%rsp)
	movl	%esi, 1116(%rbx)
	movw	%cx, 1082(%rbx)
	leal	(%rcx,%r10), %r11d
	movw	%r9w, 1182(%rbx)
	je	.L1599
	cmpl	$8, %r11d
	jg	.L1470
.L1599:
	movl	%r11d, %ecx
	addl	%r9d, %r10d
	sall	$13, %ecx
	movw	%r10w, 1184(%rbx)
	movl	%ecx, 1120(%rbx)
	leal	(%r11,%r11), %ecx
	leal	(%rcx,%r15), %r9d
	movl	%ecx, 96(%rsp)
	movw	%cx, 1084(%rbx)
	cmpl	$16, %r9d
	jle	.L1600
	testl	%r15d, %r15d
	jne	.L1470
.L1600:
	movl	%r9d, %ecx
	addl	%r15d, %r10d
	sall	$12, %ecx
	testl	%r13d, %r13d
	movw	%r10w, 1186(%rbx)
	movl	%ecx, 1124(%rbx)
	leal	(%r9,%r9), %ecx
	movl	%ecx, 100(%rsp)
	movw	%cx, 1086(%rbx)
	leal	(%rcx,%r13), %r9d
	je	.L1601
	cmpl	$32, %r9d
	jg	.L1470
.L1601:
	movl	%r9d, %ecx
	addl	%r13d, %r10d
	sall	$11, %ecx
	movw	%r10w, 1188(%rbx)
	movl	%ecx, 1128(%rbx)
	leal	(%r9,%r9), %ecx
	leal	(%rcx,%rax), %r9d
	movl	%ecx, 104(%rsp)
	movw	%cx, 1088(%rbx)
	cmpl	$64, %r9d
	jle	.L1602
	testl	%eax, %eax
	jne	.L1470
.L1602:
	movl	%r9d, %ecx
	addl	%eax, %r10d
	sall	$10, %ecx
	movw	%r10w, 1190(%rbx)
	movl	%ecx, 1132(%rbx)
	leal	(%r9,%r9), %ecx
	movl	%ecx, 108(%rsp)
	movw	%cx, 1090(%rbx)
	addl	%r12d, %ecx
	testl	%r12d, %r12d
	je	.L1603
	cmpl	$128, %ecx
	jg	.L1470
.L1603:
	movl	%ecx, %eax
	addl	%ecx, %ecx
	addl	%r12d, %r10d
	movl	%ecx, 112(%rsp)
	movw	%cx, 1092(%rbx)
	addl	%r14d, %ecx
	sall	$9, %eax
	cmpl	$256, %ecx
	movw	%r10w, 1192(%rbx)
	movl	%eax, 1136(%rbx)
	jle	.L1604
	testl	%r14d, %r14d
	jne	.L1470
.L1604:
	movl	%ecx, %eax
	addl	%ecx, %ecx
	addl	%r14d, %r10d
	sall	$8, %eax
	movl	%ecx, 116(%rsp)
	movw	%cx, 1094(%rbx)
	addl	%ebp, %ecx
	testl	%ebp, %ebp
	movl	%eax, 1140(%rbx)
	movw	%r10w, 1194(%rbx)
	je	.L1605
	cmpl	$512, %ecx
	jg	.L1470
.L1605:
	movl	%ecx, %eax
	addl	%ecx, %ecx
	addl	%ebp, %r10d
	sall	$7, %eax
	movl	%ecx, 120(%rsp)
	movw	%cx, 1096(%rbx)
	addl	%edi, %ecx
	testl	%edi, %edi
	movl	%eax, 1144(%rbx)
	movw	%r10w, 1196(%rbx)
	je	.L1606
	cmpl	$1024, %ecx
	jg	.L1470
.L1606:
	movl	%ecx, %eax
	addl	%edi, %r10d
	movl	44(%rsp), %edi
	sall	$6, %eax
	movw	%r10w, 1198(%rbx)
	movl	%eax, 1148(%rbx)
	leal	(%rcx,%rcx), %eax
	movl	%eax, 124(%rsp)
	movw	%ax, 1098(%rbx)
	addl	%edi, %eax
	testl	%edi, %edi
	je	.L1607
	cmpl	$2048, %eax
	jg	.L1470
.L1607:
	movl	%eax, %ecx
	movl	48(%rsp), %edi
	addl	%eax, %eax
	sall	$5, %ecx
	movl	%eax, 128(%rsp)
	movw	%ax, 1100(%rbx)
	movl	%ecx, 1152(%rbx)
	movl	44(%rsp), %ecx
	addl	%edi, %eax
	addl	%r10d, %ecx
	cmpl	$4096, %eax
	movw	%cx, 1200(%rbx)
	jle	.L1608
	testl	%edi, %edi
	jne	.L1470
.L1608:
	movl	52(%rsp), %edi
	addl	48(%rsp), %ecx
	movl	%eax, %r9d
	addl	%eax, %eax
	sall	$4, %r9d
	movl	%eax, 132(%rsp)
	movw	%ax, 1102(%rbx)
	addl	%edi, %eax
	movl	%r9d, 1156(%rbx)
	cmpl	$8192, %eax
	movw	%cx, 1202(%rbx)
	jle	.L1609
	testl	%edi, %edi
	jne	.L1470
.L1609:
	movl	72(%rsp), %edi
	addl	52(%rsp), %ecx
	leal	0(,%rax,8), %r9d
	addl	%eax, %eax
	movl	%eax, 136(%rsp)
	movw	%ax, 1104(%rbx)
	addl	%edi, %eax
	movl	%r9d, 1160(%rbx)
	cmpl	$16384, %eax
	movw	%cx, 1204(%rbx)
	jle	.L1610
	testl	%edi, %edi
	jne	.L1470
.L1610:
	movl	76(%rsp), %edi
	addl	72(%rsp), %ecx
	leal	0(,%rax,4), %r9d
	addl	%eax, %eax
	movl	%eax, 140(%rsp)
	movw	%ax, 1106(%rbx)
	addl	%edi, %eax
	movl	%r9d, 1164(%rbx)
	cmpl	$32768, %eax
	movw	%cx, 1206(%rbx)
	jle	.L1611
	testl	%edi, %edi
	jne	.L1470
.L1611:
	addl	%eax, %eax
	movl	$65536, 1172(%rbx)
	xorl	%r10d, %r10d
	movl	%eax, 1168(%rbx)
	leaq	_ZL21stbi__zdefault_length(%rip), %rbp
	movl	$16, %r13d
	movl	$1, %r12d
	jmp	.L1461
.L1465:
	incl	%r11d
	movl	%r11d, 80(%rsp,%rsi,4)
.L1463:
	incq	%r10
	cmpq	$288, %r10
	je	.L1870
.L1461:
	movzbl	0(%rbp,%r10), %r9d
	testl	%r9d, %r9d
	je	.L1463
	movzbl	%r9b, %eax
	movslq	%r9d, %rsi
	leaq	(%rbx,%rax,2), %rcx
	movl	80(%rsp,%rsi,4), %r11d
	movzwl	1076(%rcx), %eax
	movl	%r11d, %r14d
	subl	%eax, %r14d
	movzwl	1176(%rcx), %eax
	addl	%r14d, %eax
	cmpl	$9, %r9d
	cltq
	movb	%r9b, 1208(%rbx,%rax)
	movw	%r10w, 1496(%rbx,%rax,2)
	jg	.L1465
	movl	%r11d, %ecx
	movl	%r11d, %eax
	andl	$43690, %ecx
	andl	$21845, %eax
	addl	%eax, %eax
	sarl	%ecx
	orl	%eax, %ecx
	movl	%ecx, %eax
	andl	$13107, %ecx
	andl	$52428, %eax
	sarl	$2, %eax
	movl	%eax, %r14d
	leal	0(,%rcx,4), %eax
	orl	%r14d, %eax
	movl	%eax, %ecx
	andl	$3855, %eax
	andl	$61680, %ecx
	sall	$4, %eax
	sarl	$4, %ecx
	orl	%eax, %ecx
	movl	%ecx, %r14d
	sall	$8, %ecx
	shrl	$8, %r14d
	movzwl	%cx, %eax
	movl	%r13d, %ecx
	subl	%r9d, %ecx
	orl	%r14d, %eax
	movl	%r12d, %r14d
	sarl	%cl, %eax
	movl	%r9d, %ecx
	sall	$9, %r9d
	sall	%cl, %r14d
	orl	%r10d, %r9d
	movl	%r14d, %edi
	.p2align 4,,7
.L1466:
	movslq	%eax, %rcx
	addl	%edi, %eax
	cmpl	$511, %eax
	movw	%r9w, 52(%rbx,%rcx,2)
	jle	.L1466
	jmp	.L1465
.L1870:
	movq	32(%rsp), %rdi
	xorl	%eax, %eax
	movl	$8, %ecx
	leaq	1+_ZL23stbi__zdefault_distance(%rip), %r9
	leaq	32+_ZL23stbi__zdefault_distance(%rip), %r10
	rep stosq
	movl	$128, %ecx
	movl	$0, (%rdi)
	movq	64(%rsp), %rdi
	rep stosq
	movl	$5, %eax
	jmp	.L1545
	.p2align 4,,7
.L1468:
	movzbl	(%r9), %ecx
	incq	%r9
	movq	%rcx, %rax
	movl	144(%rsp,%rcx,4), %ecx
.L1545:
	incl	%ecx
	cmpq	%r10, %r9
	movl	%ecx, 144(%rsp,%rax,4)
	jne	.L1468
	movl	148(%rsp), %ecx
	movl	$0, 144(%rsp)
	cmpl	$2, %ecx
	jg	.L1469
	movl	152(%rsp), %r11d
	cmpl	$4, %r11d
	jg	.L1469
	movl	156(%rsp), %r10d
	cmpl	$8, %r10d
	jg	.L1469
	movl	160(%rsp), %r15d
	cmpl	$16, %r15d
	jg	.L1469
	movl	164(%rsp), %r14d
	cmpl	$32, %r14d
	jg	.L1469
	movl	168(%rsp), %eax
	cmpl	$64, %eax
	jg	.L1469
	movl	172(%rsp), %r12d
	cmpl	$128, %r12d
	jg	.L1469
	movl	176(%rsp), %ebp
	cmpl	$256, %ebp
	jg	.L1469
	movl	180(%rsp), %r13d
	cmpl	$512, %r13d
	jg	.L1469
	movl	184(%rsp), %edi
	cmpl	$1024, %edi
	jg	.L1469
	movl	188(%rsp), %esi
	cmpl	$2048, %esi
	movl	%esi, 44(%rsp)
	jg	.L1469
	movl	192(%rsp), %esi
	cmpl	$4096, %esi
	movl	%esi, 48(%rsp)
	jg	.L1469
	movl	196(%rsp), %esi
	cmpl	$8192, %esi
	movl	%esi, 52(%rsp)
	jg	.L1469
	movl	200(%rsp), %esi
	cmpl	$16384, %esi
	movl	%esi, 72(%rsp)
	jg	.L1469
	movl	204(%rsp), %esi
	cmpl	$32768, %esi
	movl	%esi, 76(%rsp)
	jg	.L1469
	movl	%ecx, %r9d
	movl	$0, 84(%rsp)
	movw	$0, 3098(%rbx)
	sall	$15, %r9d
	movw	$0, 3198(%rbx)
	movw	%cx, 3200(%rbx)
	movl	%r9d, 3132(%rbx)
	leal	(%rcx,%rcx), %r9d
	movl	%r9d, 88(%rsp)
	movw	%r9w, 3100(%rbx)
	addl	%r11d, %r9d
	testl	%r11d, %r11d
	je	.L1612
	cmpl	$4, %r9d
	jg	.L1470
.L1612:
	movl	%r9d, %esi
	addl	%r9d, %r9d
	addl	%ecx, %r11d
	sall	$14, %esi
	movl	%r9d, 92(%rsp)
	movw	%r9w, 3102(%rbx)
	addl	%r10d, %r9d
	testl	%r10d, %r10d
	movl	%esi, 3136(%rbx)
	movw	%r11w, 3202(%rbx)
	je	.L1613
	cmpl	$8, %r9d
	jg	.L1470
.L1613:
	movl	%r9d, %ecx
	addl	%r10d, %r11d
	sall	$13, %ecx
	movw	%r11w, 3204(%rbx)
	movl	%ecx, 3140(%rbx)
	leal	(%r9,%r9), %ecx
	leal	(%rcx,%r15), %r9d
	movl	%ecx, 96(%rsp)
	movw	%cx, 3104(%rbx)
	cmpl	$16, %r9d
	jle	.L1614
	testl	%r15d, %r15d
	jne	.L1470
.L1614:
	movl	%r9d, %ecx
	addl	%r15d, %r11d
	sall	$12, %ecx
	movw	%r11w, 3206(%rbx)
	movl	%ecx, 3144(%rbx)
	leal	(%r9,%r9), %ecx
	leal	(%rcx,%r14), %r9d
	movl	%ecx, 100(%rsp)
	movw	%cx, 3106(%rbx)
	cmpl	$32, %r9d
	jle	.L1615
	testl	%r14d, %r14d
	jne	.L1470
.L1615:
	movl	%r9d, %ecx
	addl	%r14d, %r11d
	sall	$11, %ecx
	movw	%r11w, 3208(%rbx)
	movl	%ecx, 3148(%rbx)
	leal	(%r9,%r9), %ecx
	movl	%ecx, 104(%rsp)
	movw	%cx, 3108(%rbx)
	addl	%eax, %ecx
	cmpl	$64, %ecx
	jle	.L1616
	testl	%eax, %eax
	jne	.L1470
.L1616:
	movl	%ecx, %r9d
	addl	%ecx, %ecx
	addl	%eax, %r11d
	sall	$10, %r9d
	movl	%ecx, 108(%rsp)
	movw	%cx, 3110(%rbx)
	addl	%r12d, %ecx
	testl	%r12d, %r12d
	movl	%r9d, 3152(%rbx)
	movw	%r11w, 3210(%rbx)
	je	.L1617
	cmpl	$128, %ecx
	jg	.L1470
.L1617:
	movl	%ecx, %eax
	addl	%ecx, %ecx
	addl	%r12d, %r11d
	sall	$9, %eax
	movl	%ecx, 112(%rsp)
	movw	%cx, 3112(%rbx)
	addl	%ebp, %ecx
	testl	%ebp, %ebp
	movl	%eax, 3156(%rbx)
	movw	%r11w, 3212(%rbx)
	je	.L1618
	cmpl	$256, %ecx
	jg	.L1470
.L1618:
	movl	%ecx, %eax
	addl	%ecx, %ecx
	addl	%ebp, %r11d
	sall	$8, %eax
	movl	%ecx, 116(%rsp)
	movw	%cx, 3114(%rbx)
	movl	%eax, 3160(%rbx)
	leal	(%rcx,%r13), %eax
	movw	%r11w, 3214(%rbx)
	cmpl	$512, %eax
	jle	.L1619
	testl	%r13d, %r13d
	jne	.L1470
.L1619:
	movl	%eax, %ecx
	addl	%eax, %eax
	addl	%r13d, %r11d
	sall	$7, %ecx
	movl	%eax, 120(%rsp)
	movw	%ax, 3116(%rbx)
	addl	%edi, %eax
	testl	%edi, %edi
	movl	%ecx, 3164(%rbx)
	movw	%r11w, 3216(%rbx)
	je	.L1620
	cmpl	$1024, %eax
	jg	.L1470
.L1620:
	movl	%eax, %ecx
	addl	%eax, %eax
	sall	$6, %ecx
	movl	%eax, 124(%rsp)
	movw	%ax, 3118(%rbx)
	movl	%ecx, 3168(%rbx)
	leal	(%r11,%rdi), %ecx
	movl	44(%rsp), %edi
	movw	%cx, 3218(%rbx)
	addl	%edi, %eax
	cmpl	$2048, %eax
	jle	.L1621
	testl	%edi, %edi
	jne	.L1470
.L1621:
	addl	44(%rsp), %ecx
	movl	48(%rsp), %edi
	movl	%eax, %r9d
	addl	%eax, %eax
	sall	$5, %r9d
	movl	%eax, 128(%rsp)
	movw	%ax, 3120(%rbx)
	addl	%edi, %eax
	testl	%edi, %edi
	movl	%r9d, 3172(%rbx)
	movw	%cx, 3220(%rbx)
	je	.L1622
	cmpl	$4096, %eax
	jg	.L1470
.L1622:
	addl	48(%rsp), %ecx
	movl	52(%rsp), %edi
	movl	%eax, %r9d
	addl	%eax, %eax
	sall	$4, %r9d
	movl	%eax, 132(%rsp)
	movw	%ax, 3122(%rbx)
	addl	%edi, %eax
	testl	%edi, %edi
	movl	%r9d, 3176(%rbx)
	movw	%cx, 3222(%rbx)
	je	.L1623
	cmpl	$8192, %eax
	jg	.L1470
.L1623:
	movl	72(%rsp), %edi
	addl	52(%rsp), %ecx
	leal	0(,%rax,8), %r9d
	addl	%eax, %eax
	movl	%eax, 136(%rsp)
	movw	%ax, 3124(%rbx)
	addl	%edi, %eax
	movl	%r9d, 3180(%rbx)
	cmpl	$16384, %eax
	movw	%cx, 3224(%rbx)
	jle	.L1624
	testl	%edi, %edi
	jne	.L1470
.L1624:
	addl	72(%rsp), %ecx
	movl	76(%rsp), %edi
	leal	0(,%rax,4), %r9d
	addl	%eax, %eax
	movl	%eax, 140(%rsp)
	movw	%ax, 3126(%rbx)
	addl	%edi, %eax
	testl	%edi, %edi
	movl	%r9d, 3184(%rbx)
	movw	%cx, 3226(%rbx)
	je	.L1625
	cmpl	$32768, %eax
	jg	.L1470
.L1625:
	addl	%eax, %eax
	movl	$65536, 3192(%rbx)
	xorl	%r10d, %r10d
	movl	%eax, 3188(%rbx)
	leaq	_ZL23stbi__zdefault_distance(%rip), %rbp
	movl	$16, %r13d
	movl	$1, %r12d
	jmp	.L1485
.L1489:
	incl	%r11d
	movl	%r11d, 80(%rsp,%rsi,4)
.L1487:
	incq	%r10
	cmpq	$32, %r10
	je	.L1546
.L1485:
	movzbl	0(%rbp,%r10), %r9d
	testl	%r9d, %r9d
	je	.L1487
	movzbl	%r9b, %eax
	movslq	%r9d, %rsi
	leaq	(%rbx,%rax,2), %rcx
	movl	80(%rsp,%rsi,4), %r11d
	movzwl	3096(%rcx), %eax
	movl	%r11d, %r14d
	subl	%eax, %r14d
	movzwl	3196(%rcx), %eax
	addl	%r14d, %eax
	cmpl	$9, %r9d
	cltq
	movb	%r9b, 3228(%rbx,%rax)
	movw	%r10w, 3516(%rbx,%rax,2)
	jg	.L1489
	movl	%r11d, %ecx
	movl	%r11d, %eax
	andl	$43690, %ecx
	andl	$21845, %eax
	addl	%eax, %eax
	sarl	%ecx
	orl	%eax, %ecx
	movl	%ecx, %eax
	andl	$13107, %ecx
	andl	$52428, %eax
	sarl	$2, %eax
	movl	%eax, %r14d
	leal	0(,%rcx,4), %eax
	orl	%r14d, %eax
	movl	%eax, %ecx
	andl	$3855, %eax
	andl	$61680, %ecx
	sall	$4, %eax
	sarl	$4, %ecx
	orl	%eax, %ecx
	movl	%ecx, %r14d
	sall	$8, %ecx
	shrl	$8, %r14d
	movzwl	%cx, %eax
	movl	%r13d, %ecx
	subl	%r9d, %ecx
	orl	%r14d, %eax
	movl	%r12d, %r14d
	sarl	%cl, %eax
	movl	%r9d, %ecx
	sall	$9, %r9d
	sall	%cl, %r14d
	orl	%r10d, %r9d
	movl	%r14d, %edi
	.p2align 4,,7
.L1490:
	movslq	%eax, %rcx
	addl	%edi, %eax
	cmpl	$511, %eax
	movw	%r9w, 2072(%rbx,%rcx,2)
	jle	.L1490
	jmp	.L1489
.L1469:
	leaq	.LC34(%rip), %rax
	movq	%rax, _ZL22stbi__g_failure_reason(%rip)
	jmp	.L1486
.L1853:
	movl	40(%rsp), %eax
	movq	%rdi, 24(%rbx)
	testl	%eax, %eax
	jne	.L1597
.L1876:
	movl	16(%rbx), %ecx
	movl	20(%rbx), %eax
	jmp	.L1543
.L1857:
	leaq	.LC53(%rip), %rax
	movq	%rax, _ZL22stbi__g_failure_reason(%rip)
	jmp	.L1486
.L1470:
	leaq	.LC35(%rip), %rax
	movq	%rax, _ZL22stbi__g_failure_reason(%rip)
	jmp	.L1486
.L1867:
	cmpl	%edi, %edx
	jge	.L1419
	movq	%rbx, %rcx
	call	_ZL15stbi__fill_bitsP10stbi__zbuf
	movl	20(%rbx), %r8d
	movl	16(%rbx), %edx
.L1419:
	subl	%edi, %edx
	movl	%edi, %ecx
	shrl	%cl, %r8d
	testl	%edx, %edx
	movl	%edx, 16(%rbx)
	movl	%r8d, 20(%rbx)
	jg	.L1871
.L1560:
	movl	%edx, %eax
	xorl	%ebp, %ebp
	movl	$1, %edi
	testl	%eax, %eax
	je	.L1431
.L1872:
	leaq	.LC3(%rip), %rdx
	leaq	.LC49(%rip), %rcx
	movl	$4033, %r8d
	call	_assert
	jmp	.L1431
	.p2align 4,,7
.L1563:
	movl	$4, %edi
	movl	$3, %ebp
.L1420:
	testl	%eax, %eax
	jne	.L1872
.L1431:
	movq	8(%rbx), %r8
	movq	(%rbx), %rdx
	cmpq	%r8, %rdx
	jb	.L1873
	movslq	%ebp, %rax
	cmpl	$4, %edi
	movb	$0, 144(%rsp,%rax)
	je	.L1557
	leal	2(%rbp), %eax
	movq	%rdx, %rcx
	xorl	%edx, %edx
.L1426:
	cmpl	$3, %eax
	movb	%dl, 144(%rsp,%rdi)
	jg	.L1557
.L1875:
	cmpq	%rcx, %r8
	ja	.L1874
	cltq
	testl	%ebp, %ebp
	movb	$0, 144(%rsp,%rax)
	jne	.L1557
.L1565:
	xorl	%r8d, %r8d
.L1430:
	movzbl	145(%rsp), %r12d
	movzbl	144(%rsp), %ebp
	movzbl	146(%rsp), %r13d
	jmp	.L1425
.L1873:
	leaq	1(%rdx), %rcx
	movslq	%ebp, %rax
	cmpl	$4, %edi
	movq	%rcx, (%rbx)
	movzbl	(%rdx), %r9d
	movb	%r9b, 144(%rsp,%rax)
	je	.L1557
	cmpq	%rcx, %r8
	leal	2(%rbp), %eax
	jbe	.L1564
	leaq	2(%rdx), %rcx
	cmpl	$3, %eax
	movq	%rcx, (%rbx)
	movzbl	1(%rdx), %edx
	movb	%dl, 144(%rsp,%rdi)
	jle	.L1875
.L1557:
	movzbl	147(%rsp), %r8d
	movzbl	145(%rsp), %r12d
	movzbl	144(%rsp), %ebp
	movzbl	146(%rsp), %r13d
	sall	$8, %r8d
	jmp	.L1425
.L1874:
	leaq	1(%rcx), %rdx
	cltq
	testl	%ebp, %ebp
	movq	%rdx, (%rbx)
	movzbl	(%rcx), %r9d
	movb	%r9b, 144(%rsp,%rax)
	jne	.L1557
	cmpq	%r8, %rdx
	jnb	.L1565
	leaq	2(%rcx), %rax
	movq	%rax, (%rbx)
	movzbl	1(%rcx), %r8d
	sall	$8, %r8d
	jmp	.L1430
.L1562:
	movl	$3, %edi
	movl	$2, %ebp
	jmp	.L1420
.L1561:
	movl	$2, %edi
	movl	$1, %ebp
	jmp	.L1420
.L1866:
	movq	32(%rbx), %rcx
	subq	%rcx, %r9
	subq	%rcx, %r8
	addl	%r9d, %eax
	movq	%r9, %r12
	movl	%r8d, %edx
	cmpl	%eax, %r8d
	jge	.L1438
.L1439:
	addl	%edx, %edx
	cmpl	%eax, %edx
	jl	.L1439
.L1438:
	movslq	%edx, %rdi
	movq	%rdi, %rdx
	call	realloc
	testq	%rax, %rax
	je	.L1530
	leaq	(%rax,%rdi), %rdx
	movslq	%r12d, %r9
	movq	%rax, 32(%rbx)
	addq	%rax, %r9
	movq	%rdx, 40(%rbx)
	movq	(%rbx), %rdx
	movq	%r9, 24(%rbx)
.L1435:
	movq	%rbp, %r8
	movq	%r9, %rcx
	call	memcpy
	movl	40(%rsp), %eax
	addq	%rbp, (%rbx)
	addq	%rbp, 24(%rbx)
	testl	%eax, %eax
	je	.L1876
.L1597:
	movl	$1, %eax
	jmp	.L1831
.L1865:
	leaq	.LC51(%rip), %rax
	movq	%rax, _ZL22stbi__g_failure_reason(%rip)
	jmp	.L1486
.L1846:
	movq	8(%rcx), %r9
	movq	(%rcx), %rax
	cmpq	%rax, %r9
	ja	.L1877
.L1403:
	leaq	.LC48(%rip), %rax
	movq	%rax, _ZL22stbi__g_failure_reason(%rip)
	jmp	.L1486
.L1564:
	xorl	%edx, %edx
	jmp	.L1426
.L1877:
	leaq	1(%rax), %rdx
	movq	%rdx, (%rcx)
	movzbl	(%rax), %ecx
	movl	%ecx, %r8d
	andl	$15, %r8d
	cmpq	%rdx, %r9
	jbe	.L1878
	leaq	2(%rax), %rdx
	sall	$8, %ecx
	movq	%rdx, (%rbx)
	movzbl	1(%rax), %eax
	movl	$-2078209981, %edx
	addl	%eax, %ecx
	movl	%eax, %r9d
	movl	%ecx, %eax
	imull	%edx
	leal	(%rdx,%rcx), %eax
	sarl	$4, %eax
	movl	%eax, %edx
	sall	$5, %edx
	subl	%eax, %edx
	cmpl	%edx, %ecx
	jne	.L1405
	andl	$32, %r9d
	je	.L1406
	leaq	.LC47(%rip), %rax
	movq	%rax, _ZL22stbi__g_failure_reason(%rip)
	jmp	.L1486
.L1878:
	sall	$8, %ecx
	movl	$-2078209981, %edx
	movl	%ecx, %eax
	imull	%edx
	leal	(%rdx,%rcx), %eax
	sarl	$4, %eax
	movl	%eax, %edx
	sall	$5, %edx
	subl	%eax, %edx
	cmpl	%edx, %ecx
	je	.L1406
.L1405:
	leaq	.LC46(%rip), %rax
	movq	%rax, _ZL22stbi__g_failure_reason(%rip)
	jmp	.L1486
.L1868:
	sall	$8, %edi
	movl	%edi, %r8d
	jmp	.L1425
.L1406:
	cmpb	$8, %r8b
	je	.L1402
	jmp	.L1403
	.seh_endproc
	.section .rdata,"dr"
.LC54:
	.ascii "can't merge dc and ac\0"
	.text
	.p2align 4,,15
	.def	_ZL30stbi__parse_entropy_coded_dataP10stbi__jpeg;	.scl	3;	.type	32;	.endef
	.seh_proc	_ZL30stbi__parse_entropy_coded_dataP10stbi__jpeg
_ZL30stbi__parse_entropy_coded_dataP10stbi__jpeg:
.LFB636:
	pushq	%r15
	.seh_pushreg	%r15
	pushq	%r14
	.seh_pushreg	%r14
	pushq	%r13
	.seh_pushreg	%r13
	pushq	%r12
	.seh_pushreg	%r12
	pushq	%rbp
	.seh_pushreg	%rbp
	pushq	%rdi
	.seh_pushreg	%rdi
	pushq	%rsi
	.seh_pushreg	%rsi
	pushq	%rbx
	.seh_pushreg	%rbx
	subq	$280, %rsp
	.seh_stackalloc	280
	.seh_endprologue
	movl	18536(%rcx), %eax
	movl	$2147483647, %edx
	movq	%rcx, %rbp
	movl	$0, 18468(%rcx)
	movl	$0, 18464(%rcx)
	movl	$0, 18476(%rcx)
	movl	$0, 18392(%rcx)
	testl	%eax, %eax
	movl	$0, 18296(%rcx)
	movl	$0, 18200(%rcx)
	cmove	%edx, %eax
	movl	$0, 18104(%rcx)
	movb	$-1, 18472(%rcx)
	movl	%eax, 18540(%rcx)
	movl	18480(%rcx), %eax
	movl	$0, 18500(%rcx)
	testl	%eax, %eax
	jne	.L1881
	cmpl	$1, 18516(%rcx)
	je	.L1882
	movl	18068(%rcx), %eax
	testl	%eax, %eax
	jle	.L1914
	leaq	8(%rcx), %r15
	leaq	6728(%rcx), %rsi
	movl	18064(%rcx), %edx
	leaq	144(%rsp), %r13
	movl	$0, 80(%rsp)
	movq	%r15, %r12
	movq	%rsi, 88(%rsp)
	movq	%rcx, %r15
.L1911:
	testl	%edx, %edx
	jle	.L1896
	movq	%r15, %rbp
	movl	$0, 72(%rsp)
	movq	%r12, %r15
.L1910:
	movl	18516(%rbp), %edx
	leaq	18520(%rbp), %rax
	movl	$0, 104(%rsp)
	movq	%rax, 96(%rsp)
	testl	%edx, %edx
	jle	.L1905
.L2047:
	movq	96(%rsp), %rax
	movslq	(%rax), %rax
	movq	%rax, %rcx
	movq	%rax, %r12
	salq	$7, %rax
	salq	$5, %rcx
	movq	%rax, %r10
	subq	%rcx, %r10
	addq	%rbp, %r10
	movl	18088(%r10), %esi
	testl	%esi, %esi
	jle	.L1900
	movl	18084(%r10), %ebx
	movl	$0, 64(%rsp)
	movq	%r10, %r14
.L1904:
	testl	%ebx, %ebx
	jle	.L1901
	xorl	%edi, %edi
	.p2align 4,,7
.L1903:
	movslq	18092(%r14), %rax
	movslq	18100(%r14), %rdx
	movslq	18096(%r14), %rcx
	movl	%r12d, 40(%rsp)
	imull	72(%rsp), %ebx
	imull	80(%rsp), %esi
	addq	$105, %rax
	salq	$7, %rax
	leaq	8(%rbp,%rax), %rax
	addl	64(%rsp), %esi
	imulq	$1680, %rdx, %r8
	salq	$10, %rdx
	movq	%rax, 48(%rsp)
	leaq	13960(%rbp,%rdx), %rax
	addl	%edi, %ebx
	imulq	$1680, %rcx, %rcx
	movq	%r13, %rdx
	sall	$3, %ebx
	movq	%rax, 32(%rsp)
	movq	88(%rsp), %rax
	sall	$3, %esi
	leaq	(%rax,%r8), %r9
	leaq	(%r15,%rcx), %r8
	movq	%rbp, %rcx
	call	_ZL23stbi__jpeg_decode_blockP10stbi__jpegPsP13stbi__huffmanS3_S1_iPt
	testl	%eax, %eax
	je	.L2032
	movl	18116(%r14), %edx
	movslq	%ebx, %rbx
	movq	%r13, %r8
	incl	%edi
	imull	%edx, %esi
	movslq	%esi, %rcx
	addq	%rbx, %rcx
	addq	18128(%r14), %rcx
	call	*18544(%rbp)
	movl	18084(%r14), %ebx
	movl	18088(%r14), %esi
	cmpl	%edi, %ebx
	jg	.L1903
.L1901:
	incl	64(%rsp)
	movl	64(%rsp), %eax
	cmpl	%esi, %eax
	jl	.L1904
	movl	18516(%rbp), %edx
.L1900:
	incl	104(%rsp)
	addq	$4, 96(%rsp)
	movl	104(%rsp), %eax
	cmpl	%edx, %eax
	jl	.L2047
.L1905:
	movl	18540(%rbp), %eax
	decl	%eax
	testl	%eax, %eax
	movl	%eax, 18540(%rbp)
	jle	.L2071
.L1899:
	incl	72(%rsp)
	movl	18064(%rbp), %edx
	movl	72(%rsp), %eax
	cmpl	%eax, %edx
	jg	.L1910
	movl	18068(%rbp), %eax
	movq	%r15, %r12
	movq	%rbp, %r15
.L1896:
	incl	80(%rsp)
	movl	80(%rsp), %esi
	cmpl	%eax, %esi
	jl	.L1911
.L1914:
	movl	$1, %eax
	jmp	.L2032
.L1881:
	cmpl	$1, 18516(%rcx)
	je	.L1912
	movl	18068(%rcx), %eax
	testl	%eax, %eax
	jle	.L1914
	movl	18064(%rcx), %edx
	xorl	%r13d, %r13d
	movl	%r13d, %r14d
.L2000:
	testl	%edx, %edx
	jle	.L1977
	movl	$0, 72(%rsp)
	movl	%r14d, %r13d
.L1999:
	movl	18516(%rbp), %ecx
	leaq	18520(%rbp), %rax
	movl	$0, 96(%rsp)
	movq	%rax, 80(%rsp)
	testl	%ecx, %ecx
	jle	.L1995
.L2048:
	movq	80(%rsp), %rax
	movslq	(%rax), %rax
	movq	%rax, %rdx
	salq	$7, %rax
	salq	$5, %rdx
	movq	%rax, %r14
	subq	%rdx, %r14
	addq	%rbp, %r14
	movl	18088(%r14), %edx
	testl	%edx, %edx
	jle	.L1981
	movl	18084(%r14), %eax
	movl	72(%rsp), %esi
	xorl	%ebx, %ebx
.L1994:
	testl	%eax, %eax
	jle	.L1982
	movl	18488(%rbp), %r8d
	testl	%r8d, %r8d
	jne	.L1984
	imull	%r13d, %edx
	xorl	%r12d, %r12d
	imull	%esi, %eax
	addl	%ebx, %edx
	imull	18168(%r14), %edx
	addl	%edx, %eax
	movq	18160(%r14), %rdx
	sall	$6, %eax
	cltq
	leaq	(%rdx,%rax,2), %r15
	movslq	18096(%r14), %rax
	imulq	$1680, %rax, %rax
	leaq	8(%rbp,%rax), %rdx
	.p2align 4,,7
.L1986:
	cmpl	$15, 18468(%rbp)
	jle	.L2072
	movl	18492(%rbp), %eax
	testl	%eax, %eax
	je	.L2073
.L1988:
	movl	18468(%rbp), %eax
	testl	%eax, %eax
	jle	.L2074
.L1993:
	movl	18464(%rbp), %edx
	decl	%eax
	movl	%eax, 18468(%rbp)
	leal	(%rdx,%rdx), %ecx
	testl	%edx, %edx
	movl	%ecx, 18464(%rbp)
	jns	.L1992
	movl	18496(%rbp), %ecx
	movl	$1, %eax
	sall	%cl, %eax
	addw	%ax, (%r15)
.L1992:
	movl	18084(%r14), %eax
	incl	%r12d
	cmpl	%r12d, %eax
	jle	.L2075
.L2009:
	movl	18088(%r14), %ecx
	imull	%esi, %eax
	imull	%r13d, %ecx
	leal	(%rax,%r12), %edx
	addl	%ebx, %ecx
	imull	18168(%r14), %ecx
	leal	(%rcx,%rdx), %eax
	movq	18160(%r14), %rdx
	movl	18488(%rbp), %ecx
	sall	$6, %eax
	cltq
	leaq	(%rdx,%rax,2), %r15
	movslq	18096(%r14), %rax
	imulq	$1680, %rax, %rax
	testl	%ecx, %ecx
	leaq	8(%rbp,%rax), %rdx
	je	.L1986
.L1984:
	leaq	.LC54(%rip), %rax
	movq	%rax, _ZL22stbi__g_failure_reason(%rip)
	xorl	%eax, %eax
.L2032:
	addq	$280, %rsp
	popq	%rbx
	popq	%rsi
	popq	%rdi
	popq	%rbp
	popq	%r12
	popq	%r13
	popq	%r14
	popq	%r15
	ret
	.p2align 4,,7
.L2072:
	movq	%rbp, %rcx
	movq	%rdx, 64(%rsp)
	call	_ZL24stbi__grow_buffer_unsafeP10stbi__jpeg
	movl	18492(%rbp), %eax
	movq	64(%rsp), %rdx
	testl	%eax, %eax
	jne	.L1988
.L2073:
	leaq	8(%r15), %rdi
	movq	%r15, %rcx
	xorl	%eax, %eax
	movq	$0, (%r15)
	movq	$0, 120(%r15)
	andq	$-8, %rdi
	subq	%rdi, %rcx
	subl	$-128, %ecx
	shrl	$3, %ecx
	rep stosq
	movq	%rbp, %rcx
	call	_ZL22stbi__jpeg_huff_decodeP10stbi__jpegP13stbi__huffman
	xorl	%edx, %edx
	testl	%eax, %eax
	jne	.L2076
.L1989:
	movl	18104(%r14), %eax
	movl	18496(%rbp), %ecx
	incl	%r12d
	addl	%edx, %eax
	movl	%eax, 18104(%r14)
	sall	%cl, %eax
	movw	%ax, (%r15)
	movl	18084(%r14), %eax
	cmpl	%r12d, %eax
	jg	.L2009
.L2075:
	movl	18088(%r14), %edx
.L1982:
	incl	%ebx
	cmpl	%edx, %ebx
	jl	.L1994
	movl	18516(%rbp), %ecx
.L1981:
	incl	96(%rsp)
	addq	$4, 80(%rsp)
	movl	96(%rsp), %eax
	cmpl	%ecx, %eax
	jl	.L2048
.L1995:
	movl	18540(%rbp), %eax
	decl	%eax
	testl	%eax, %eax
	movl	%eax, 18540(%rbp)
	jle	.L2077
.L1980:
	incl	72(%rsp)
	movl	18064(%rbp), %edx
	movl	72(%rsp), %eax
	cmpl	%eax, %edx
	jg	.L1999
	movl	18068(%rbp), %eax
	movl	%r13d, %r14d
.L1977:
	incl	%r14d
	cmpl	%eax, %r14d
	jl	.L2000
	jmp	.L1914
	.p2align 4,,7
.L2076:
	cmpl	18468(%rbp), %eax
	jg	.L2078
.L1990:
	movl	18464(%rbp), %r9d
	movl	%eax, %ecx
	movl	%r9d, %edi
	roll	%cl, %r9d
	sarl	$31, %edi
	cmpl	$16, %eax
	jbe	.L1991
	leaq	.LC3(%rip), %rdx
	leaq	.LC43(%rip), %rcx
	movl	$1858, %r8d
	movl	%r9d, 88(%rsp)
	movl	%eax, 64(%rsp)
	call	_assert
	movl	88(%rsp), %r9d
	movl	64(%rsp), %eax
.L1991:
	leaq	_ZL11stbi__bmask(%rip), %rdx
	movslq	%eax, %r8
	subl	%eax, 18468(%rbp)
	leaq	_ZL11stbi__jbias(%rip), %rax
	notl	%edi
	movl	(%rdx,%r8,4), %ecx
	andl	(%rax,%r8,4), %edi
	movl	%ecx, %edx
	andl	%r9d, %ecx
	notl	%edx
	andl	%r9d, %edx
	movl	%edx, 18464(%rbp)
	leal	(%rdi,%rcx), %edx
	jmp	.L1989
.L2074:
	movq	%rbp, %rcx
	call	_ZL24stbi__grow_buffer_unsafeP10stbi__jpeg
	movl	18468(%rbp), %eax
	jmp	.L1993
.L1882:
	movslq	18520(%rcx), %rax
	movq	%rax, %rdx
	movq	%rax, %rdi
	salq	$7, %rax
	salq	$5, %rdx
	subq	%rdx, %rax
	leaq	(%rcx,%rax), %rcx
	movl	18108(%rcx), %esi
	leal	7(%rsi), %edx
	sarl	$3, %edx
	movl	%edx, 72(%rsp)
	movl	18112(%rcx), %edx
	addl	$7, %edx
	sarl	$3, %edx
	testl	%edx, %edx
	movl	%edx, 88(%rsp)
	jle	.L1914
	movl	72(%rsp), %esi
	leaq	6728(%rbp), %r13
	leaq	8(%rbp), %r12
	xorl	%r14d, %r14d
	movq	%rax, 80(%rsp)
	leal	-1(%rsi), %edx
	leaq	8(,%rdx,8), %rsi
	movq	%rsi, 64(%rsp)
	leaq	144(%rsp), %rsi
.L1889:
	movq	80(%rsp), %rax
	xorl	%ebx, %ebx
	leaq	0(%rbp,%rax), %r15
	movl	72(%rsp), %eax
	testl	%eax, %eax
	jle	.L1893
	movq	%r15, %rax
	movq	%rbp, %r15
	movq	%rax, %rbp
	jmp	.L1894
	.p2align 4,,7
.L1890:
	addq	$8, %rbx
	cmpq	%rbx, 64(%rsp)
	je	.L2079
.L1894:
	movslq	18092(%rbp), %rax
	movslq	18100(%rbp), %rdx
	movslq	18096(%rbp), %rcx
	movl	%edi, 40(%rsp)
	addq	$105, %rax
	imulq	$1680, %rdx, %r8
	salq	$7, %rax
	salq	$10, %rdx
	imulq	$1680, %rcx, %rcx
	leaq	8(%r15,%rax), %rax
	movq	%rax, 48(%rsp)
	leaq	13960(%r15,%rdx), %rax
	movq	%rsi, %rdx
	leaq	0(%r13,%r8), %r9
	leaq	(%r12,%rcx), %r8
	movq	%rax, 32(%rsp)
	movq	%r15, %rcx
	call	_ZL23stbi__jpeg_decode_blockP10stbi__jpegPsP13stbi__huffmanS3_S1_iPt
	testl	%eax, %eax
	je	.L2032
	movl	18116(%rbp), %edx
	movq	%rsi, %r8
	movl	%edx, %ecx
	imull	%r14d, %ecx
	sall	$3, %ecx
	movslq	%ecx, %rcx
	addq	%rbx, %rcx
	addq	18128(%rbp), %rcx
	call	*18544(%r15)
	movl	18540(%r15), %eax
	decl	%eax
	testl	%eax, %eax
	movl	%eax, 18540(%r15)
	jg	.L1890
	cmpl	$23, 18468(%r15)
	jle	.L2080
.L1891:
	movzbl	18472(%r15), %eax
	addl	$48, %eax
	cmpb	$7, %al
	ja	.L1914
	movl	18536(%r15), %eax
	movl	$2147483647, %edx
	movl	$0, 18468(%r15)
	movl	$0, 18464(%r15)
	movl	$0, 18476(%r15)
	movl	$0, 18392(%r15)
	movl	$0, 18296(%r15)
	testl	%eax, %eax
	movl	$0, 18200(%r15)
	movl	$0, 18104(%r15)
	cmove	%edx, %eax
	addq	$8, %rbx
	cmpq	%rbx, 64(%rsp)
	movb	$-1, 18472(%r15)
	movl	%eax, 18540(%r15)
	movl	$0, 18500(%r15)
	jne	.L1894
.L2079:
	movq	%r15, %rbp
.L1893:
	incl	%r14d
	cmpl	%r14d, 88(%rsp)
	jne	.L1889
	jmp	.L1914
	.p2align 4,,7
.L1912:
	movslq	18520(%rcx), %rax
	movq	%rax, %rdx
	salq	$7, %rax
	salq	$5, %rdx
	subq	%rdx, %rax
	leaq	(%rcx,%rax), %rcx
	movl	18108(%rcx), %esi
	leal	7(%rsi), %edx
	sarl	$3, %edx
	movl	%edx, 88(%rsp)
	movl	18112(%rcx), %edx
	addl	$7, %edx
	sarl	$3, %edx
	testl	%edx, %edx
	movl	%edx, 140(%rsp)
	jle	.L1914
	movl	$0, 80(%rsp)
	movq	%rax, 128(%rsp)
	movq	%rbp, %r13
.L1916:
	movl	88(%rsp), %ebx
	movq	128(%rsp), %rax
	movl	$0, 64(%rsp)
	testl	%ebx, %ebx
	leaq	0(%r13,%rax), %r12
	jg	.L2049
	jmp	.L1975
	.p2align 4,,7
.L2085:
	movl	18488(%r13), %r11d
	testl	%r11d, %r11d
	jne	.L1984
	cmpl	$15, 18468(%r13)
	movl	18096(%r12), %ebx
	jle	.L2081
	movl	18492(%r13), %r10d
	testl	%r10d, %r10d
	je	.L2082
.L1920:
	movl	18468(%r13), %eax
	testl	%eax, %eax
	jle	.L2083
.L1925:
	movl	18464(%r13), %edx
	decl	%eax
	movl	%eax, 18468(%r13)
	leal	(%rdx,%rdx), %ecx
	testl	%edx, %edx
	movl	%ecx, 18464(%r13)
	jns	.L1924
	movl	18496(%r13), %ecx
	movl	$1, %eax
	sall	%cl, %eax
	addw	%ax, (%rsi)
	.p2align 4,,7
.L1924:
	movl	18540(%r13), %eax
	decl	%eax
	testl	%eax, %eax
	movl	%eax, 18540(%r13)
	jle	.L2084
	incl	64(%rsp)
	movl	64(%rsp), %eax
	cmpl	%eax, 88(%rsp)
	je	.L1975
.L2049:
	movl	80(%rsp), %eax
	movslq	18484(%r13), %rbx
	imull	18168(%r12), %eax
	movq	18160(%r12), %rdx
	addl	64(%rsp), %eax
	sall	$6, %eax
	testl	%ebx, %ebx
	cltq
	leaq	(%rdx,%rax,2), %rsi
	je	.L2085
	movl	18492(%r13), %r9d
	movslq	18100(%r12), %rax
	testl	%r9d, %r9d
	jne	.L1927
	movl	18500(%r13), %edx
	testl	%edx, %edx
	jne	.L2086
	movq	%rax, %r15
	movl	18496(%r13), %edi
	movl	18468(%r13), %r11d
	imulq	$1680, %rax, %r14
	salq	$10, %r15
	movq	%r12, 104(%rsp)
	imulq	$420, %rax, %rdx
	addq	$13952, %r15
	imulq	$840, %rax, %rax
	addq	%r13, %r14
	movq	%rdx, 72(%rsp)
	movq	%rax, 96(%rsp)
	jmp	.L1944
	.p2align 4,,7
.L1929:
	movl	18464(%r13), %eax
	movl	%eax, %edx
	shrl	$23, %edx
	movl	%edx, %ecx
	leaq	0(%r13,%rcx,2), %rcx
	movswl	8(%rcx,%r15), %r8d
	testl	%r8d, %r8d
	movl	%r8d, %ecx
	je	.L1932
.L2010:
	movl	%r8d, %edx
	andl	$15, %ecx
	sarl	$8, %r8d
	sarl	$4, %edx
	sall	%cl, %eax
	subl	%ecx, %r11d
	andl	$15, %edx
	leaq	_ZL19stbi__jpeg_dezigzag(%rip), %rcx
	movl	%eax, 18464(%r13)
	addl	%ebx, %edx
	movl	%r11d, 18468(%r13)
	leal	1(%rdx), %ebx
	movslq	%edx, %rdx
	movzbl	(%rcx,%rdx), %eax
	movl	%edi, %ecx
	sall	%cl, %r8d
	movw	%r8w, (%rsi,%rax,2)
.L1931:
	cmpl	%ebx, 18488(%r13)
	jl	.L2087
.L1944:
	cmpl	$15, %r11d
	jg	.L1929
	movq	%r13, %rcx
	call	_ZL24stbi__grow_buffer_unsafeP10stbi__jpeg
	movl	18464(%r13), %eax
	movl	18468(%r13), %r11d
	movl	%eax, %edx
	shrl	$23, %edx
	movl	%edx, %ecx
	leaq	0(%r13,%rcx,2), %rcx
	movswl	8(%rcx,%r15), %r8d
	testl	%r8d, %r8d
	movl	%r8d, %ecx
	jne	.L2010
	cmpl	$15, %r11d
	jg	.L1932
	movq	%r13, %rcx
	call	_ZL24stbi__grow_buffer_unsafeP10stbi__jpeg
	movl	18464(%r13), %eax
	movl	18468(%r13), %r11d
	movl	%eax, %edx
	shrl	$23, %edx
.L1932:
	movslq	%edx, %rdx
	movzbl	6728(%rdx,%r14), %edx
	cmpl	$255, %edx
	je	.L1933
	addq	%r14, %rdx
	movzbl	8008(%rdx), %ecx
	cmpl	%r11d, %ecx
	jg	.L1935
	sall	%cl, %eax
	subl	%ecx, %r11d
	movl	%eax, 18464(%r13)
	movl	%r11d, 18468(%r13)
	movzbl	7752(%rdx), %ebp
.L1936:
	movl	%ebp, %edx
	sarl	$4, %edx
	andl	$15, %ebp
	jne	.L2088
	cmpl	$15, %edx
	jne	.L2089
	addl	$16, %ebx
	cmpl	%ebx, 18488(%r13)
	jge	.L1944
.L2087:
	movq	104(%rsp), %r12
	jmp	.L1924
	.p2align 4,,7
.L1933:
	movl	%eax, %edx
	shrl	$16, %edx
	cmpl	%edx, 8308(%r14)
	ja	.L2012
	cmpl	%edx, 8312(%r14)
	ja	.L2013
	cmpl	%edx, 8316(%r14)
	ja	.L2014
	cmpl	%edx, 8320(%r14)
	ja	.L2015
	cmpl	%edx, 8324(%r14)
	ja	.L2016
	cmpl	8328(%r14), %edx
	jb	.L2017
	cmpl	8332(%r14), %edx
	jb	.L2090
	leal	-16(%r11), %eax
	movl	%eax, 18468(%r13)
.L1935:
	leaq	.LC44(%rip), %rax
	movq	%rax, _ZL22stbi__g_failure_reason(%rip)
	xorl	%eax, %eax
	jmp	.L2032
	.p2align 4,,7
.L2084:
	cmpl	$23, 18468(%r13)
	jle	.L2091
.L1973:
	movzbl	18472(%r13), %eax
	addl	$48, %eax
	cmpb	$7, %al
	ja	.L1914
	movl	18536(%r13), %eax
	movl	$2147483647, %edx
	movl	$0, 18468(%r13)
	movl	$0, 18464(%r13)
	movl	$0, 18476(%r13)
	movl	$0, 18392(%r13)
	movl	$0, 18296(%r13)
	testl	%eax, %eax
	movl	$0, 18200(%r13)
	movl	$0, 18104(%r13)
	cmove	%edx, %eax
	incl	64(%rsp)
	movb	$-1, 18472(%r13)
	movl	%eax, 18540(%r13)
	movl	64(%rsp), %eax
	cmpl	%eax, 88(%rsp)
	movl	$0, 18500(%r13)
	jne	.L2049
.L1975:
	incl	80(%rsp)
	movl	80(%rsp), %eax
	cmpl	%eax, 140(%rsp)
	jne	.L1916
	jmp	.L1914
	.p2align 4,,7
.L2088:
	addl	%ebx, %edx
	leaq	_ZL19stbi__jpeg_dezigzag(%rip), %rcx
	cmpl	%r11d, %ebp
	leal	1(%rdx), %ebx
	movslq	%edx, %rdx
	movzbl	(%rcx,%rdx), %edx
	leaq	(%rsi,%rdx,2), %r12
	jg	.L2092
.L1943:
	leaq	_ZL11stbi__bmask(%rip), %rdx
	movslq	%ebp, %r10
	movl	%eax, %r8d
	movl	%ebp, %ecx
	sarl	$31, %eax
	subl	%ebp, %r11d
	movl	(%rdx,%r10,4), %edx
	roll	%cl, %r8d
	notl	%eax
	movl	%r11d, 18468(%r13)
	movl	%edx, %ecx
	andl	%r8d, %edx
	notl	%ecx
	andl	%r8d, %ecx
	movl	%ecx, 18464(%r13)
	leaq	_ZL11stbi__jbias(%rip), %rcx
	andl	(%rcx,%r10,4), %eax
	movl	%edi, %ecx
	addl	%edx, %eax
	sall	%cl, %eax
	movw	%ax, (%r12)
	jmp	.L1931
	.p2align 4,,7
.L1927:
	movl	18496(%r13), %ecx
	movl	18500(%r13), %edx
	movl	$1, %edi
	sall	%cl, %edi
	testl	%edx, %edx
	movl	%edi, 72(%rsp)
	movl	%edi, %ebp
	je	.L1945
	decl	%edx
	movl	%edx, 18500(%r13)
	movl	18488(%r13), %edx
	cmpl	%edx, %ebx
	jg	.L1924
	leaq	_ZL19stbi__jpeg_dezigzag(%rip), %r15
	movl	%edi, %r14d
	jmp	.L1951
	.p2align 4,,7
.L1947:
	movl	18464(%r13), %ecx
	decl	%eax
	movl	%eax, 18468(%r13)
	leal	(%rcx,%rcx), %r8d
	testl	%ecx, %ecx
	movl	%r8d, 18464(%r13)
	jns	.L1946
	movzwl	(%rdi), %eax
	testw	%ax, %bp
	jne	.L1946
	testw	%ax, %ax
	jle	.L1950
	addl	%r14d, %eax
	movw	%ax, (%rdi)
	.p2align 4,,7
.L1946:
	incl	%ebx
	cmpl	%edx, %ebx
	jg	.L1924
.L1951:
	movslq	%ebx, %rax
	movzbl	(%r15,%rax), %eax
	leaq	(%rsi,%rax,2), %rdi
	cmpw	$0, (%rdi)
	je	.L1946
	movl	18468(%r13), %eax
	testl	%eax, %eax
	jg	.L1947
	movq	%r13, %rcx
	call	_ZL24stbi__grow_buffer_unsafeP10stbi__jpeg
	movl	18468(%r13), %eax
	movl	18488(%r13), %edx
	jmp	.L1947
	.p2align 4,,7
.L1950:
	subl	%r14d, %eax
	movw	%ax, (%rdi)
	jmp	.L1946
.L2081:
	movq	%r13, %rcx
	call	_ZL24stbi__grow_buffer_unsafeP10stbi__jpeg
	movl	18492(%r13), %r10d
	testl	%r10d, %r10d
	jne	.L1920
.L2082:
	leaq	8(%rsi), %rdi
	movq	%rsi, %rcx
	xorl	%eax, %eax
	movq	$0, (%rsi)
	movq	$0, 120(%rsi)
	andq	$-8, %rdi
	subq	%rdi, %rcx
	subl	$-128, %ecx
	shrl	$3, %ecx
	rep stosq
	movslq	%ebx, %rax
	movq	%r13, %rcx
	imulq	$1680, %rax, %rax
	leaq	8(%r13,%rax), %rdx
	call	_ZL22stbi__jpeg_huff_decodeP10stbi__jpegP13stbi__huffman
	xorl	%edx, %edx
	testl	%eax, %eax
	jne	.L2093
.L1921:
	movl	18104(%r12), %eax
	movl	18496(%r13), %ecx
	addl	%edx, %eax
