	.file	"imgui_draw.cpp"
	.text
	.p2align 4,,15
	.def	_ZL19rect_original_orderPKvS0_;	.scl	3;	.type	32;	.endef
	.seh_proc	_ZL19rect_original_orderPKvS0_
_ZL19rect_original_orderPKvS0_:
.LFB295:
	.seh_endprologue
	movl	12(%rdx), %eax
	cmpl	%eax, 12(%rcx)
	movl	$-1, %edx
	setg	%al
	movzbl	%al, %eax
	cmovl	%edx, %eax
	ret
	.seh_endproc
	.p2align 4,,15
	.def	_ZL17stbtt__find_tablePhjPKc;	.scl	3;	.type	32;	.endef
	.seh_proc	_ZL17stbtt__find_tablePhjPKc
_ZL17stbtt__find_tablePhjPKc:
.LFB316:
	pushq	%rsi
	.seh_pushreg	%rsi
	pushq	%rbx
	.seh_pushreg	%rbx
	.seh_endprologue
	movl	%edx, %eax
	addl	$12, %edx
	leaq	4(%rcx,%rax), %rax
	movzbl	(%rax), %r11d
	movzbl	1(%rax), %eax
	sall	$8, %r11d
	addl	%eax, %r11d
	movzwl	%r11w, %r11d
	testl	%r11d, %r11d
	je	.L8
	movsbl	(%r8), %ebx
	xorl	%eax, %eax
	jmp	.L7
	.p2align 4,,7
.L6:
	incl	%eax
	addl	$16, %edx
	cmpl	%eax, %r11d
	je	.L8
.L7:
	movl	%edx, %r9d
	movzbl	(%rcx,%r9), %r10d
	cmpl	%ebx, %r10d
	jne	.L6
	movzbl	1(%rcx,%r9), %esi
	movsbl	1(%r8), %r10d
	cmpl	%r10d, %esi
	jne	.L6
	movzbl	2(%rcx,%r9), %esi
	movsbl	2(%r8), %r10d
	cmpl	%r10d, %esi
	jne	.L6
	movzbl	3(%rcx,%r9), %esi
	movsbl	3(%r8), %r10d
	cmpl	%r10d, %esi
	jne	.L6
	leaq	8(%rcx,%r9), %rcx
	movzbl	(%rcx), %edx
	movzbl	1(%rcx), %eax
	sall	$24, %edx
	sall	$16, %eax
	addl	%eax, %edx
	movzbl	2(%rcx), %eax
	sall	$8, %eax
	addl	%eax, %edx
	movzbl	3(%rcx), %eax
	addl	%edx, %eax
	jmp	.L5
	.p2align 4,,7
.L8:
	xorl	%eax, %eax
.L5:
	popq	%rbx
	popq	%rsi
	ret
	.seh_endproc
	.p2align 4,,15
	.def	_ZL27stbtt__sort_edges_quicksortP11stbtt__edgei;	.scl	3;	.type	32;	.endef
	.seh_proc	_ZL27stbtt__sort_edges_quicksortP11stbtt__edgei
_ZL27stbtt__sort_edges_quicksortP11stbtt__edgei:
.LFB363:
	pushq	%rbp
	.seh_pushreg	%rbp
	pushq	%rdi
	.seh_pushreg	%rdi
	pushq	%rsi
	.seh_pushreg	%rsi
	pushq	%rbx
	.seh_pushreg	%rbx
	subq	$40, %rsp
	.seh_stackalloc	40
	.seh_endprologue
	cmpl	$12, %edx
	movq	%rcx, %rdi
	movl	%edx, %ebp
	jle	.L11
.L14:
	movl	%ebp, %eax
	movss	4(%rdi), %xmm0
	sarl	%eax
	leal	-1(%rbp), %ebx
	cltq
	movq	%rax, %rdx
	salq	$4, %rdx
	leaq	(%rdx,%rax,4), %rax
	movslq	%ebp, %rdx
	movq	%rdx, %rcx
	salq	$4, %rcx
	addq	%rdi, %rax
	leaq	(%rcx,%rdx,4), %rdx
	movss	4(%rax), %xmm1
	xorl	%ecx, %ecx
	movss	-16(%rdi,%rdx), %xmm2
	ucomiss	%xmm1, %xmm2
	seta	%cl
	xorl	%r8d, %r8d
	ucomiss	%xmm0, %xmm1
	seta	%r8b
	cmpl	%ecx, %r8d
	je	.L16
	xorl	%r8d, %r8d
	ucomiss	%xmm0, %xmm2
	seta	%r8b
	cmpl	%r8d, %ecx
	je	.L30
	leal	-1(%rbp), %ebx
	subq	$20, %rdx
.L18:
	movq	(%rax), %r8
	addq	%rdi, %rdx
	movss	(%rdx), %xmm3
	movl	16(%rdx), %ecx
	movss	4(%rdx), %xmm2
	movq	%r8, (%rdx)
	movq	8(%rax), %r8
	movss	12(%rdx), %xmm0
	movss	8(%rdx), %xmm1
	movq	%r8, 8(%rdx)
	movl	16(%rax), %r8d
	movl	%r8d, 16(%rdx)
	movss	%xmm3, (%rax)
	movl	%ecx, 16(%rax)
	movss	%xmm2, 4(%rax)
	movss	%xmm1, 8(%rax)
	movss	%xmm0, 12(%rax)
	movss	4(%rdi), %xmm0
.L16:
	movq	(%rax), %rcx
	movss	(%rdi), %xmm3
	movss	12(%rdi), %xmm1
	movl	16(%rdi), %edx
	movss	8(%rdi), %xmm2
	leaq	20(%rdi), %rsi
	movq	%rcx, (%rdi)
	movq	8(%rax), %rcx
	movq	%rcx, 8(%rdi)
	movl	16(%rax), %ecx
	movl	%ecx, 16(%rdi)
	movss	%xmm3, (%rax)
	movl	%edx, 16(%rax)
	movss	%xmm0, 4(%rax)
	movl	$2, %ecx
	movss	%xmm2, 8(%rax)
	movss	%xmm1, 12(%rax)
	movss	4(%rdi), %xmm1
	.p2align 4,,7
.L19:
	movss	4(%rsi), %xmm2
	leal	-1(%rcx), %r8d
	ucomiss	%xmm2, %xmm1
	ja	.L20
	movslq	%ebx, %rax
	movq	%rax, %rdx
	salq	$4, %rdx
	leaq	(%rdx,%rax,4), %rax
	leaq	(%rdi,%rax), %rdx
	leaq	-20(%rdi,%rax), %rax
	movss	4(%rdx), %xmm0
	ucomiss	%xmm1, %xmm0
	jbe	.L21
	.p2align 4,,7
.L28:
	movq	%rax, %rdx
	subq	$20, %rax
	decl	%ebx
	movss	24(%rax), %xmm0
	ucomiss	%xmm1, %xmm0
	ja	.L28
.L21:
	cmpl	%r8d, %ebx
	jle	.L24
	movq	(%rdx), %r8
	movss	(%rsi), %xmm3
	movss	8(%rsi), %xmm1
	movl	16(%rsi), %eax
	movss	12(%rsi), %xmm0
	decl	%ebx
	movq	%r8, (%rsi)
	movq	8(%rdx), %r8
	movq	%r8, 8(%rsi)
	movl	16(%rdx), %r8d
	movl	%r8d, 16(%rsi)
	movss	%xmm3, (%rdx)
	movl	%eax, 16(%rdx)
	movss	%xmm2, 4(%rdx)
	movss	%xmm1, 8(%rdx)
	movss	%xmm0, 12(%rdx)
	movss	4(%rdi), %xmm1
.L20:
	incl	%ecx
	addq	$20, %rsi
	jmp	.L19
.L24:
	subl	%r8d, %ebp
	cmpl	%ebx, %ebp
	jle	.L25
	movq	%rdi, %rcx
	movl	%ebx, %edx
	movq	%rsi, %rdi
	call	_ZL27stbtt__sort_edges_quicksortP11stbtt__edgei
.L26:
	cmpl	$12, %ebp
	jg	.L14
.L11:
	addq	$40, %rsp
	popq	%rbx
	popq	%rsi
	popq	%rdi
	popq	%rbp
	ret
.L25:
	movl	%ebp, %edx
	movq	%rsi, %rcx
	movl	%ebx, %ebp
	call	_ZL27stbtt__sort_edges_quicksortP11stbtt__edgei
	jmp	.L26
.L30:
	leal	-1(%rbp), %ebx
	xorl	%edx, %edx
	jmp	.L18
	.seh_endproc
	.p2align 4,,15
	.def	_ZL22stbtt__tesselate_curveP12stbtt__pointPifffffffi;	.scl	3;	.type	32;	.endef
	.seh_proc	_ZL22stbtt__tesselate_curveP12stbtt__pointPifffffffi
_ZL22stbtt__tesselate_curveP12stbtt__pointPifffffffi:
.LFB367:
	pushq	%rdi
	.seh_pushreg	%rdi
	pushq	%rsi
	.seh_pushreg	%rsi
	pushq	%rbx
	.seh_pushreg	%rbx
	subq	$192, %rsp
	.seh_stackalloc	192
	movaps	%xmm6, 80(%rsp)
	.seh_savexmm	%xmm6, 80
	movaps	%xmm7, 96(%rsp)
	.seh_savexmm	%xmm7, 96
	movaps	%xmm8, 112(%rsp)
	.seh_savexmm	%xmm8, 112
	movaps	%xmm9, 128(%rsp)
	.seh_savexmm	%xmm9, 128
	movaps	%xmm10, 144(%rsp)
	.seh_savexmm	%xmm10, 144
	movaps	%xmm11, 160(%rsp)
	.seh_savexmm	%xmm11, 160
	movaps	%xmm12, 176(%rsp)
	.seh_savexmm	%xmm12, 176
	.seh_endprologue
	movq	%rcx, %rdi
	movq	%rdx, %rsi
	cmpl	$16, 296(%rsp)
	movss	256(%rsp), %xmm11
	movss	264(%rsp), %xmm8
	movss	272(%rsp), %xmm10
	movss	280(%rsp), %xmm9
	jg	.L32
	movaps	%xmm11, %xmm6
	movaps	%xmm8, %xmm7
	movss	.LC0(%rip), %xmm0
	addss	%xmm11, %xmm6
	movaps	%xmm2, %xmm1
	addss	%xmm8, %xmm7
	movss	.LC1(%rip), %xmm12
	addss	%xmm10, %xmm1
	addss	%xmm2, %xmm6
	addss	%xmm3, %xmm7
	mulss	%xmm12, %xmm1
	addss	%xmm10, %xmm6
	addss	%xmm9, %xmm7
	mulss	%xmm0, %xmm6
	mulss	%xmm0, %xmm7
	movaps	%xmm3, %xmm0
	addss	%xmm9, %xmm0
	subss	%xmm6, %xmm1
	mulss	%xmm12, %xmm0
	mulss	%xmm1, %xmm1
	subss	%xmm7, %xmm0
	mulss	%xmm0, %xmm0
	addss	%xmm1, %xmm0
	ucomiss	288(%rsp), %xmm0
	ja	.L41
	testq	%rcx, %rcx
	movl	(%rdx), %eax
	je	.L35
	movslq	%eax, %rdx
	leaq	(%rcx,%rdx,8), %rdx
	movss	%xmm10, (%rdx)
	movss	%xmm9, 4(%rdx)
.L35:
	incl	%eax
	movl	%eax, (%rsi)
.L32:
	movaps	80(%rsp), %xmm6
	movl	$1, %eax
	movaps	96(%rsp), %xmm7
	movaps	112(%rsp), %xmm8
	movaps	128(%rsp), %xmm9
	movaps	144(%rsp), %xmm10
	movaps	160(%rsp), %xmm11
	movaps	176(%rsp), %xmm12
	addq	$192, %rsp
	popq	%rbx
	popq	%rsi
	popq	%rdi
	ret
	.p2align 4,,7
.L41:
	movaps	%xmm8, %xmm0
	movl	296(%rsp), %eax
	movss	288(%rsp), %xmm4
	addss	%xmm3, %xmm0
	movss	%xmm4, 64(%rsp)
	leal	1(%rax), %ebx
	movss	%xmm7, 56(%rsp)
	movss	%xmm6, 48(%rsp)
	movl	%ebx, 72(%rsp)
	mulss	%xmm12, %xmm0
	movss	%xmm0, 40(%rsp)
	movaps	%xmm11, %xmm0
	addss	%xmm2, %xmm0
	mulss	%xmm12, %xmm0
	movss	%xmm0, 32(%rsp)
	call	_ZL22stbtt__tesselate_curveP12stbtt__pointPifffffffi
	movss	%xmm10, 48(%rsp)
	addss	%xmm9, %xmm8
	movl	%ebx, 72(%rsp)
	addss	%xmm11, %xmm10
	movss	288(%rsp), %xmm5
	movss	%xmm5, 64(%rsp)
	movaps	%xmm7, %xmm3
	movss	%xmm9, 56(%rsp)
	movaps	%xmm6, %xmm2
	mulss	%xmm12, %xmm8
	movq	%rsi, %rdx
	movq	%rdi, %rcx
	mulss	%xmm12, %xmm10
	movss	%xmm8, 40(%rsp)
	movss	%xmm10, 32(%rsp)
	call	_ZL22stbtt__tesselate_curveP12stbtt__pointPifffffffi
	jmp	.L32
	.seh_endproc
	.section .rdata,"dr"
	.align 8
.LC2:
	.ascii "C:/libraries/include/imgui/stb_truetype.h\0"
.LC3:
	.ascii "!(o > b->size || o < 0)\0"
	.text
	.p2align 4,,15
	.def	_ZL15stbtt__buf_seekP10stbtt__bufi;	.scl	3;	.type	32;	.endef
	.seh_proc	_ZL15stbtt__buf_seekP10stbtt__bufi
_ZL15stbtt__buf_seekP10stbtt__bufi:
.LFB299:
	pushq	%rsi
	.seh_pushreg	%rsi
	pushq	%rbx
	.seh_pushreg	%rbx
	subq	$40, %rsp
	.seh_stackalloc	40
	.seh_endprologue
	movl	12(%rcx), %eax
	movq	%rcx, %rsi
	movl	%edx, %ebx
	cmpl	%edx, %eax
	jl	.L48
	movl	%edx, %ecx
	subl	$0, %ecx
	js	.L48
.L43:
	movl	%ebx, %edx
	shrl	$31, %edx
	jne	.L45
	cmpl	%eax, %ebx
	cmovle	%ebx, %eax
.L45:
	movl	%eax, 8(%rsi)
	addq	$40, %rsp
	popq	%rbx
	popq	%rsi
	ret
	.p2align 4,,7
.L48:
	leaq	.LC2(%rip), %rdx
	leaq	.LC3(%rip), %rcx
	movl	$1000, %r8d
	call	_assert
	movl	12(%rsi), %eax
	jmp	.L43
	.seh_endproc
	.section .rdata,"dr"
.LC4:
	.ascii "!info->cff.size\0"
	.text
	.p2align 4,,15
	.def	_ZL20stbtt__GetGlyfOffsetPK14stbtt_fontinfoi;	.scl	3;	.type	32;	.endef
	.seh_proc	_ZL20stbtt__GetGlyfOffsetPK14stbtt_fontinfoi
_ZL20stbtt__GetGlyfOffsetPK14stbtt_fontinfoi:
.LFB324:
	pushq	%rsi
	.seh_pushreg	%rsi
	pushq	%rbx
	.seh_pushreg	%rbx
	subq	$40, %rsp
	.seh_stackalloc	40
	.seh_endprologue
	movl	68(%rcx), %eax
	movq	%rcx, %rsi
	movl	%edx, %ebx
	testl	%eax, %eax
	jne	.L60
.L53:
	cmpl	%ebx, 20(%rsi)
	jle	.L57
	movl	52(%rsi), %edx
	movl	$-1, %eax
	cmpl	$1, %edx
	jg	.L54
	testl	%edx, %edx
	je	.L61
	movslq	24(%rsi), %rax
	movq	8(%rsi), %r9
	sall	$2, %ebx
	movslq	%ebx, %rbx
	movl	32(%rsi), %ecx
	addq	%rax, %rbx
	leaq	(%r9,%rbx), %r8
	leaq	4(%r9,%rbx), %r9
	movzbl	(%r8), %edx
	movzbl	1(%r8), %eax
	sall	$24, %edx
	sall	$16, %eax
	addl	%eax, %edx
	movzbl	2(%r8), %eax
	sall	$8, %eax
	addl	%edx, %eax
	movzbl	3(%r8), %edx
	movzbl	(%r9), %r8d
	addl	%edx, %eax
	movzbl	1(%r9), %edx
	sall	$24, %r8d
	addl	%ecx, %eax
	sall	$16, %edx
	addl	%edx, %r8d
	movzbl	2(%r9), %edx
	sall	$8, %edx
	addl	%r8d, %edx
	movzbl	3(%r9), %r8d
	addl	%r8d, %edx
	addl	%ecx, %edx
.L56:
	cmpl	%edx, %eax
	movl	$-1, %edx
	cmove	%edx, %eax
.L54:
	addq	$40, %rsp
	popq	%rbx
	popq	%rsi
	ret
	.p2align 4,,7
.L61:
	movslq	24(%rsi), %rax
	movq	8(%rsi), %rcx
	addl	%ebx, %ebx
	movslq	%ebx, %rbx
	movl	32(%rsi), %r8d
	addq	%rax, %rbx
	leaq	(%rcx,%rbx), %rdx
	leaq	2(%rcx,%rbx), %rcx
	movzbl	(%rdx), %eax
	movzbl	1(%rdx), %edx
	sall	$8, %eax
	addl	%edx, %eax
	movzbl	(%rcx), %edx
	movzbl	1(%rcx), %ecx
	movzwl	%ax, %eax
	leal	(%r8,%rax,2), %eax
	sall	$8, %edx
	addl	%ecx, %edx
	movzwl	%dx, %edx
	leal	(%r8,%rdx,2), %edx
	jmp	.L56
	.p2align 4,,7
.L60:
	leaq	.LC2(%rip), %rdx
	leaq	.LC4(%rip), %rcx
	movl	$1439, %r8d
	call	_assert
	jmp	.L53
	.p2align 4,,7
.L57:
	movl	$-1, %eax
	jmp	.L54
	.seh_endproc
	.p2align 4,,15
	.def	_ZL22stbtt__tesselate_cubicP12stbtt__pointPifffffffffi;	.scl	3;	.type	32;	.endef
	.seh_proc	_ZL22stbtt__tesselate_cubicP12stbtt__pointPifffffffffi
_ZL22stbtt__tesselate_cubicP12stbtt__pointPifffffffffi:
.LFB368:
	pushq	%rdi
	.seh_pushreg	%rdi
	pushq	%rsi
	.seh_pushreg	%rsi
	pushq	%rbx
	.seh_pushreg	%rbx
	subq	$288, %rsp
	.seh_stackalloc	288
	movaps	%xmm6, 128(%rsp)
	.seh_savexmm	%xmm6, 128
	movaps	%xmm7, 144(%rsp)
	.seh_savexmm	%xmm7, 144
	movaps	%xmm8, 160(%rsp)
	.seh_savexmm	%xmm8, 160
	movaps	%xmm9, 176(%rsp)
	.seh_savexmm	%xmm9, 176
	movaps	%xmm10, 192(%rsp)
	.seh_savexmm	%xmm10, 192
	movaps	%xmm11, 208(%rsp)
	.seh_savexmm	%xmm11, 208
	movaps	%xmm12, 224(%rsp)
	.seh_savexmm	%xmm12, 224
	movaps	%xmm13, 240(%rsp)
	.seh_savexmm	%xmm13, 240
	movaps	%xmm14, 256(%rsp)
	.seh_savexmm	%xmm14, 256
	movaps	%xmm15, 272(%rsp)
	.seh_savexmm	%xmm15, 272
	.seh_endprologue
	movq	%rcx, %rdi
	movq	%rdx, %rsi
	movss	368(%rsp), %xmm4
	movl	408(%rsp), %ebx
	movss	376(%rsp), %xmm1
	movaps	%xmm4, %xmm10
	movss	352(%rsp), %xmm14
	movss	360(%rsp), %xmm13
	movaps	%xmm1, %xmm11
	movss	384(%rsp), %xmm5
	movss	.LC1(%rip), %xmm15
	jmp	.L74
	.p2align 4,,7
.L85:
	ucomiss	400(%rsp), %xmm6
	jbe	.L80
	movaps	%xmm14, %xmm0
	movaps	%xmm13, %xmm1
	addss	%xmm10, %xmm14
	movss	%xmm5, 108(%rsp)
	incl	%ebx
	addss	%xmm2, %xmm0
	movl	%ebx, 88(%rsp)
	movq	%rsi, %rdx
	addss	%xmm3, %xmm1
	movq	%rdi, %rcx
	addss	%xmm11, %xmm13
	addss	392(%rsp), %xmm11
	mulss	%xmm15, %xmm14
	mulss	%xmm15, %xmm0
	addss	%xmm5, %xmm10
	mulss	%xmm15, %xmm1
	movss	400(%rsp), %xmm5
	mulss	%xmm15, %xmm13
	movss	%xmm5, 80(%rsp)
	movaps	%xmm0, %xmm4
	mulss	%xmm15, %xmm10
	movaps	%xmm1, %xmm8
	mulss	%xmm15, %xmm11
	addss	%xmm14, %xmm4
	movss	%xmm1, 40(%rsp)
	addss	%xmm13, %xmm8
	movss	%xmm0, 32(%rsp)
	addss	%xmm10, %xmm14
	addss	%xmm11, %xmm13
	mulss	%xmm15, %xmm4
	mulss	%xmm15, %xmm8
	mulss	%xmm15, %xmm14
	mulss	%xmm15, %xmm13
	movaps	%xmm4, %xmm6
	movss	%xmm4, 48(%rsp)
	movaps	%xmm8, %xmm7
	movss	%xmm8, 56(%rsp)
	addss	%xmm14, %xmm6
	addss	%xmm13, %xmm7
	mulss	%xmm15, %xmm6
	mulss	%xmm15, %xmm7
	movss	%xmm6, 64(%rsp)
	movss	%xmm7, 72(%rsp)
	call	_ZL22stbtt__tesselate_cubicP12stbtt__pointPifffffffffi
	movaps	%xmm7, %xmm3
	movaps	%xmm6, %xmm2
	movss	108(%rsp), %xmm5
.L74:
	movaps	%xmm14, %xmm0
	movaps	%xmm13, %xmm6
	movaps	%xmm10, %xmm4
	subss	%xmm2, %xmm0
	movaps	%xmm11, %xmm9
	subss	%xmm3, %xmm6
	movaps	%xmm5, %xmm1
	movaps	%xmm5, %xmm12
	movss	392(%rsp), %xmm8
	subss	%xmm14, %xmm4
	mulss	%xmm0, %xmm0
	movss	392(%rsp), %xmm7
	mulss	%xmm6, %xmm6
	subss	%xmm13, %xmm9
	subss	%xmm10, %xmm1
	subss	%xmm11, %xmm8
	subss	%xmm2, %xmm12
	addss	%xmm0, %xmm6
	subss	%xmm3, %xmm7
	cvtss2sd	%xmm6, %xmm0
	sqrtsd	%xmm0, %xmm6
	ucomisd	%xmm6, %xmm6
	jp	.L81
.L63:
	mulss	%xmm9, %xmm9
	mulss	%xmm4, %xmm4
	addss	%xmm9, %xmm4
	cvtss2sd	%xmm4, %xmm0
	sqrtsd	%xmm0, %xmm9
	ucomisd	%xmm9, %xmm9
	jp	.L82
.L65:
	mulss	%xmm1, %xmm1
	mulss	%xmm8, %xmm8
	addss	%xmm1, %xmm8
	cvtss2sd	%xmm8, %xmm8
	sqrtsd	%xmm8, %xmm0
	ucomisd	%xmm0, %xmm0
	jp	.L83
.L67:
	mulss	%xmm12, %xmm12
	addsd	%xmm9, %xmm6
	mulss	%xmm7, %xmm7
	movsd	%xmm6, %xmm1
	addss	%xmm12, %xmm7
	addsd	%xmm0, %xmm1
	cvtss2sd	%xmm7, %xmm7
	cvtsd2ss	%xmm1, %xmm6
	sqrtsd	%xmm7, %xmm0
	ucomisd	%xmm0, %xmm0
	jp	.L84
.L69:
	cvtsd2ss	%xmm0, %xmm1
	mulss	%xmm6, %xmm6
	cmpl	$16, %ebx
	mulss	%xmm1, %xmm1
	subss	%xmm1, %xmm6
	jle	.L85
.L62:
	movaps	128(%rsp), %xmm6
	movaps	144(%rsp), %xmm7
	movaps	160(%rsp), %xmm8
	movaps	176(%rsp), %xmm9
	movaps	192(%rsp), %xmm10
	movaps	208(%rsp), %xmm11
	movaps	224(%rsp), %xmm12
	movaps	240(%rsp), %xmm13
	movaps	256(%rsp), %xmm14
	movaps	272(%rsp), %xmm15
	addq	$288, %rsp
	popq	%rbx
	popq	%rsi
	popq	%rdi
	ret
	.p2align 4,,7
.L80:
	testq	%rdi, %rdi
	movl	(%rsi), %eax
	je	.L75
	movslq	%eax, %rdx
	movss	392(%rsp), %xmm2
	leaq	(%rdi,%rdx,8), %rdx
	movss	%xmm5, (%rdx)
	movss	%xmm2, 4(%rdx)
.L75:
	incl	%eax
	movl	%eax, (%rsi)
	jmp	.L62
.L84:
	movsd	%xmm7, %xmm0
	movss	%xmm5, 116(%rsp)
	movss	%xmm3, 112(%rsp)
	movss	%xmm2, 108(%rsp)
	call	sqrt
	movss	116(%rsp), %xmm5
	movss	112(%rsp), %xmm3
	movss	108(%rsp), %xmm2
	jmp	.L69
.L81:
	movss	%xmm5, 124(%rsp)
	movss	%xmm3, 120(%rsp)
	movss	%xmm2, 116(%rsp)
	movss	%xmm1, 112(%rsp)
	movss	%xmm4, 108(%rsp)
	call	sqrt
	movss	124(%rsp), %xmm5
	movsd	%xmm0, %xmm6
	movss	120(%rsp), %xmm3
	movss	116(%rsp), %xmm2
	movss	112(%rsp), %xmm1
	movss	108(%rsp), %xmm4
	jmp	.L63
.L82:
	movss	%xmm5, 120(%rsp)
	movss	%xmm3, 116(%rsp)
	movss	%xmm2, 112(%rsp)
	movss	%xmm1, 108(%rsp)
	call	sqrt
	movss	120(%rsp), %xmm5
	movsd	%xmm0, %xmm9
	movss	116(%rsp), %xmm3
	movss	112(%rsp), %xmm2
	movss	108(%rsp), %xmm1
	jmp	.L65
.L83:
	movsd	%xmm8, %xmm0
	movss	%xmm5, 116(%rsp)
	movss	%xmm3, 112(%rsp)
	movss	%xmm2, 108(%rsp)
	call	sqrt
	movss	116(%rsp), %xmm5
	movss	112(%rsp), %xmm3
	movss	108(%rsp), %xmm2
	jmp	.L67
	.seh_endproc
	.p2align 4,,15
	.def	_ZL19rect_height_comparePKvS0_;	.scl	3;	.type	32;	.endef
	.seh_proc	_ZL19rect_height_comparePKvS0_
_ZL19rect_height_comparePKvS0_:
.LFB293:
	.seh_endprologue
	movzwl	6(%rdx), %eax
	cmpw	%ax, 6(%rcx)
	ja	.L88
	movl	$1, %eax
	jb	.L87
	movzwl	4(%rdx), %eax
	movl	$-1, %edx
	cmpw	%ax, 4(%rcx)
	setb	%al
	movzbl	%al, %eax
	cmova	%edx, %eax
	ret
	.p2align 4,,7
.L88:
	movl	$-1, %eax
.L87:
	rep ret
	.seh_endproc
	.section .rdata,"dr"
	.align 8
.LC5:
	.ascii "C:/libraries/include/imgui/imgui_draw.cpp\0"
	.align 8
.LC6:
	.ascii "stb__dout + length <= stb__barrier\0"
	.text
	.p2align 4,,15
	.def	_ZL10stb__matchPhj;	.scl	3;	.type	32;	.endef
	.seh_proc	_ZL10stb__matchPhj
_ZL10stb__matchPhj:
.LFB499:
	pushq	%r14
	.seh_pushreg	%r14
	pushq	%r12
	.seh_pushreg	%r12
	pushq	%rbp
	.seh_pushreg	%rbp
	pushq	%rdi
	.seh_pushreg	%rdi
	pushq	%rsi
	.seh_pushreg	%rsi
	pushq	%rbx
	.seh_pushreg	%rbx
	subq	$40, %rsp
	.seh_stackalloc	40
	.seh_endprologue
	movq	_ZL9stb__dout(%rip), %rax
	movl	%edx, %edi
	movq	_ZL12stb__barrier(%rip), %rdx
	movq	%rcx, %rbx
	movq	%rdi, %rsi
	leaq	(%rax,%rdi), %rcx
	cmpq	%rcx, %rdx
	jb	.L201
.L92:
	cmpq	%rbx, _ZL13stb__barrier4(%rip)
	ja	.L94
	testl	%esi, %esi
	leal	-1(%rsi), %r11d
	je	.L91
	leaq	16(%rbx), %rdx
	cmpq	%rdx, %rax
	leaq	16(%rax), %rdx
	setnb	%cl
	cmpq	%rdx, %rbx
	setnb	%dl
	orb	%dl, %cl
	je	.L96
	cmpl	$20, %esi
	jbe	.L96
	movq	%rbx, %r9
	negq	%r9
	andl	$15, %r9d
	cmpl	%esi, %r9d
	cmova	%esi, %r9d
	testl	%r9d, %r9d
	je	.L109
	movzbl	(%rbx), %r8d
	cmpl	$1, %r9d
	leaq	1(%rax), %rdx
	leaq	1(%rbx), %rcx
	movb	%r8b, (%rax)
	leal	-2(%rsi), %r8d
	je	.L97
	movzbl	1(%rbx), %r8d
	cmpl	$2, %r9d
	leaq	2(%rax), %rdx
	leaq	2(%rbx), %rcx
	movb	%r8b, 1(%rax)
	leal	-3(%rsi), %r8d
	je	.L97
	movzbl	2(%rbx), %r8d
	cmpl	$3, %r9d
	leaq	3(%rax), %rdx
	leaq	3(%rbx), %rcx
	movb	%r8b, 2(%rax)
	leal	-4(%rsi), %r8d
	je	.L97
	movzbl	3(%rbx), %r8d
	cmpl	$4, %r9d
	leaq	4(%rax), %rdx
	leaq	4(%rbx), %rcx
	movb	%r8b, 3(%rax)
	leal	-5(%rsi), %r8d
	je	.L97
	movzbl	4(%rbx), %r8d
	cmpl	$5, %r9d
	leaq	5(%rax), %rdx
	leaq	5(%rbx), %rcx
	movb	%r8b, 4(%rax)
	leal	-6(%rsi), %r8d
	je	.L97
	movzbl	5(%rbx), %r8d
	cmpl	$6, %r9d
	leaq	6(%rax), %rdx
	leaq	6(%rbx), %rcx
	movb	%r8b, 5(%rax)
	leal	-7(%rsi), %r8d
	je	.L97
	movzbl	6(%rbx), %r8d
	cmpl	$7, %r9d
	leaq	7(%rax), %rdx
	leaq	7(%rbx), %rcx
	movb	%r8b, 6(%rax)
	leal	-8(%rsi), %r8d
	je	.L97
	movzbl	7(%rbx), %r8d
	cmpl	$8, %r9d
	leaq	8(%rax), %rdx
	leaq	8(%rbx), %rcx
	movb	%r8b, 7(%rax)
	leal	-9(%rsi), %r8d
	je	.L97
	movzbl	8(%rbx), %r8d
	cmpl	$9, %r9d
	leaq	9(%rax), %rdx
	leaq	9(%rbx), %rcx
	movb	%r8b, 8(%rax)
	leal	-10(%rsi), %r8d
	je	.L97
	movzbl	9(%rbx), %r8d
	cmpl	$10, %r9d
	leaq	10(%rax), %rdx
	leaq	10(%rbx), %rcx
	movb	%r8b, 9(%rax)
	leal	-11(%rsi), %r8d
	je	.L97
	movzbl	10(%rbx), %r8d
	cmpl	$11, %r9d
	leaq	11(%rax), %rdx
	leaq	11(%rbx), %rcx
	movb	%r8b, 10(%rax)
	leal	-12(%rsi), %r8d
	je	.L97
	movzbl	11(%rbx), %r8d
	cmpl	$12, %r9d
	leaq	12(%rax), %rdx
	leaq	12(%rbx), %rcx
	movb	%r8b, 11(%rax)
	leal	-13(%rsi), %r8d
	je	.L97
	movzbl	12(%rbx), %r8d
	cmpl	$13, %r9d
	leaq	13(%rax), %rdx
	leaq	13(%rbx), %rcx
	movb	%r8b, 12(%rax)
	leal	-14(%rsi), %r8d
	je	.L97
	movzbl	13(%rbx), %r8d
	cmpl	$15, %r9d
	leaq	14(%rax), %rdx
	leaq	14(%rbx), %rcx
	movb	%r8b, 13(%rax)
	leal	-15(%rsi), %r8d
	jne	.L97
	movzbl	14(%rbx), %r8d
	leaq	15(%rax), %rdx
	leaq	15(%rbx), %rcx
	movb	%r8b, 14(%rax)
	leal	-16(%rsi), %r8d
.L97:
	subl	%r9d, %esi
	movl	%r11d, %r14d
	movl	%r9d, %r12d
	leal	-16(%rsi), %r10d
	subl	%r9d, %r14d
	shrl	$4, %r10d
	leal	1(%r10), %ebp
	movl	%ebp, %edi
	sall	$4, %edi
	cmpl	$14, %r14d
	jbe	.L99
	subl	$4, %r10d
	addq	%r12, %rbx
	leaq	(%rax,%r12), %r9
	cmpl	$-6, %r10d
	ja	.L110
	shrl	$2, %r10d
	leal	4(,%r10,4), %r12d
	xorl	%r10d, %r10d
.L101:
	movdqa	(%rbx), %xmm0
	prefetcht0	464(%rbx)
	addl	$4, %r10d
	prefetcht0	464(%r9)
	addq	$64, %rbx
	addq	$64, %r9
	movups	%xmm0, -64(%r9)
	movdqa	-48(%rbx), %xmm0
	movups	%xmm0, -48(%r9)
	movdqa	-32(%rbx), %xmm0
	movups	%xmm0, -32(%r9)
	movdqa	-16(%rbx), %xmm0
	movups	%xmm0, -16(%r9)
	cmpl	%r10d, %r12d
	jne	.L101
.L100:
	xorl	%r10d, %r10d
.L105:
	movdqa	(%rbx,%r10), %xmm0
	incl	%r12d
	movups	%xmm0, (%r9,%r10)
	addq	$16, %r10
	cmpl	%ebp, %r12d
	jb	.L105
	movl	%edi, %r9d
	subl	%edi, %r8d
	addq	%r9, %rcx
	addq	%r9, %rdx
	cmpl	%edi, %esi
	movl	%r11d, %r9d
	je	.L108
.L99:
	movzbl	(%rcx), %r9d
	testl	%r8d, %r8d
	movb	%r9b, (%rdx)
	movl	%r11d, %r9d
	je	.L108
	movzbl	1(%rcx), %r10d
	cmpl	$1, %r8d
	movb	%r10b, 1(%rdx)
	je	.L108
	movzbl	2(%rcx), %r10d
	cmpl	$2, %r8d
	movb	%r10b, 2(%rdx)
	je	.L108
	movzbl	3(%rcx), %r10d
	cmpl	$3, %r8d
	movb	%r10b, 3(%rdx)
	je	.L108
	movzbl	4(%rcx), %r10d
	cmpl	$4, %r8d
	movb	%r10b, 4(%rdx)
	je	.L108
	movzbl	5(%rcx), %r10d
	cmpl	$5, %r8d
	movb	%r10b, 5(%rdx)
	je	.L108
	movzbl	6(%rcx), %r10d
	cmpl	$6, %r8d
	movb	%r10b, 6(%rdx)
	je	.L108
	movzbl	7(%rcx), %r10d
	cmpl	$7, %r8d
	movb	%r10b, 7(%rdx)
	je	.L108
	movzbl	8(%rcx), %r10d
	cmpl	$8, %r8d
	movb	%r10b, 8(%rdx)
	je	.L108
	movzbl	9(%rcx), %r10d
	cmpl	$9, %r8d
	movb	%r10b, 9(%rdx)
	je	.L108
	movzbl	10(%rcx), %r9d
	cmpl	$10, %r8d
	movb	%r9b, 10(%rdx)
	movl	%r11d, %r9d
	je	.L108
	movzbl	11(%rcx), %r10d
	cmpl	$11, %r8d
	movb	%r10b, 11(%rdx)
	je	.L108
	movzbl	12(%rcx), %r10d
	cmpl	$12, %r8d
	movb	%r10b, 12(%rdx)
	je	.L108
	movzbl	13(%rcx), %r10d
	cmpl	$13, %r8d
	movb	%r10b, 13(%rdx)
	je	.L108
	movzbl	14(%rcx), %ecx
	movb	%cl, 14(%rdx)
.L108:
	leaq	1(%rax,%r9), %rax
	movq	%rax, _ZL9stb__dout(%rip)
	addq	$40, %rsp
	popq	%rbx
	popq	%rsi
	popq	%rdi
	popq	%rbp
	popq	%r12
	popq	%r14
	ret
	.p2align 4,,7
.L94:
	incq	%rdx
	movq	%rdx, _ZL9stb__dout(%rip)
.L91:
	addq	$40, %rsp
	popq	%rbx
	popq	%rsi
	popq	%rdi
	popq	%rbp
	popq	%r12
	popq	%r14
	ret
	.p2align 4,,7
.L201:
	leaq	.LC5(%rip), %rdx
	leaq	.LC6(%rip), %rcx
	movl	$2217, %r8d
	call	_assert
	movq	_ZL9stb__dout(%rip), %rax
	movq	_ZL12stb__barrier(%rip), %rdx
	addq	%rax, %rdi
	cmpq	%rdx, %rdi
	jbe	.L92
	movq	%rdi, _ZL9stb__dout(%rip)
	addq	$40, %rsp
	popq	%rbx
	popq	%rsi
	popq	%rdi
	popq	%rbp
	popq	%r12
	popq	%r14
	ret
	.p2align 4,,7
.L109:
	movq	%rax, %rdx
	movq	%rbx, %rcx
	movl	%r11d, %r8d
	jmp	.L97
	.p2align 4,,7
.L96:
	movl	%r11d, %r9d
	xorl	%edx, %edx
	leaq	1(%r9), %r8
	.p2align 4,,7
.L107:
	movzbl	(%rbx,%rdx), %ecx
	movb	%cl, (%rax,%rdx)
	incq	%rdx
	cmpq	%rdx, %r8
	jne	.L107
	jmp	.L108
	.p2align 4,,7
.L110:
	xorl	%r12d, %r12d
	jmp	.L100
	.seh_endproc
	.section .rdata,"dr"
.LC7:
	.ascii "0\0"
	.align 8
.LC8:
	.ascii "unicode_codepoint <= ttUSHORT(data + endCount + 2*item)\0"
	.text
	.p2align 4,,15
	.def	stbtt_FindGlyphIndex.isra.11;	.scl	3;	.type	32;	.endef
	.seh_proc	stbtt_FindGlyphIndex.isra.11
stbtt_FindGlyphIndex.isra.11:
.LFB744:
	pushq	%r13
	.seh_pushreg	%r13
	pushq	%r12
	.seh_pushreg	%r12
	pushq	%rbp
	.seh_pushreg	%rbp
	pushq	%rdi
	.seh_pushreg	%rdi
	pushq	%rsi
	.seh_pushreg	%rsi
	pushq	%rbx
	.seh_pushreg	%rbx
	subq	$40, %rsp
	.seh_stackalloc	40
	.seh_endprologue
	movl	%edx, %edi
	movq	%rcx, %rbx
	movslq	%r8d, %rsi
	leaq	(%rcx,%rdi), %rcx
	movzbl	(%rcx), %ebp
	movzbl	1(%rcx), %eax
	sall	$8, %ebp
	addw	%ax, %bp
	jne	.L203
	leaq	2(%rbx,%rdi), %rdx
	movzbl	(%rdx), %eax
	movzbl	1(%rdx), %edx
	sall	$8, %eax
	addl	%edx, %eax
	movzwl	%ax, %eax
	subl	$6, %eax
	cmpl	%esi, %eax
	jg	.L226
.L225:
	xorl	%eax, %eax
.L205:
	addq	$40, %rsp
	popq	%rbx
	popq	%rsi
	popq	%rdi
	popq	%rbp
	popq	%r12
	popq	%r13
	ret
	.p2align 4,,7
.L203:
	cmpw	$6, %bp
	je	.L227
	cmpw	$2, %bp
	je	.L228
	cmpw	$4, %bp
	je	.L229
	leal	-12(%rbp), %eax
	cmpw	$1, %ax
	jbe	.L230
	leaq	.LC2(%rip), %rdx
	leaq	.LC7(%rip), %rcx
	movl	$1417, %r8d
	call	_assert
	jmp	.L225
	.p2align 4,,7
.L226:
	movzbl	6(%rcx,%rsi), %eax
	addq	$40, %rsp
	popq	%rbx
	popq	%rsi
	popq	%rdi
	popq	%rbp
	popq	%r12
	popq	%r13
	ret
	.p2align 4,,7
.L227:
	leaq	6(%rbx,%rdi), %rdx
	movzbl	(%rdx), %eax
	movzbl	1(%rdx), %edx
	sall	$8, %eax
	addl	%edx, %eax
	movzwl	%ax, %eax
	cmpl	%esi, %eax
	ja	.L225
	leaq	8(%rbx,%rdi), %rcx
	movzbl	(%rcx), %edx
	movzbl	1(%rcx), %ecx
	sall	$8, %edx
	addl	%ecx, %edx
	movzwl	%dx, %edx
	addl	%eax, %edx
	cmpl	%edx, %esi
	jnb	.L225
	subl	%eax, %esi
	leal	(%rsi,%rsi), %eax
	leaq	10(%rdi,%rax), %rax
	addq	%rax, %rbx
	movzbl	(%rbx), %eax
	movzbl	1(%rbx), %edx
	sall	$8, %eax
	addl	%edx, %eax
	movzwl	%ax, %eax
	jmp	.L205
	.p2align 4,,7
.L230:
	leaq	12(%rbx,%rdi), %rdx
	xorl	%r11d, %r11d
	movzbl	(%rdx), %eax
	sall	$24, %eax
	movl	%eax, %r10d
	movzbl	1(%rdx), %eax
	sall	$16, %eax
	addl	%r10d, %eax
	movzbl	2(%rdx), %r10d
	sall	$8, %r10d
	addl	%r10d, %eax
	movzbl	3(%rdx), %r10d
	addl	%eax, %r10d
.L219:
	cmpl	%r10d, %r11d
	jl	.L216
	jmp	.L225
	.p2align 4,,7
.L217:
	cmpl	%r11d, %eax
	movl	%eax, %r10d
	jle	.L225
.L216:
	movl	%r10d, %eax
	movl	$12, %ecx
	subl	%r11d, %eax
	sarl	%eax
	addl	%r11d, %eax
	movl	%eax, %edx
	imull	%ecx, %edx
	movslq	%edx, %rdx
	addq	%rdi, %rdx
	leaq	16(%rbx,%rdx), %r9
	movzbl	(%r9), %r8d
	movzbl	1(%r9), %ecx
	sall	$24, %r8d
	sall	$16, %ecx
	addl	%ecx, %r8d
	movzbl	2(%r9), %ecx
	sall	$8, %ecx
	addl	%r8d, %ecx
	movzbl	3(%r9), %r8d
	addl	%r8d, %ecx
	cmpl	%esi, %ecx
	ja	.L217
	leaq	20(%rbx,%rdx), %r11
	movzbl	(%r11), %r9d
	movzbl	1(%r11), %r8d
	sall	$24, %r9d
	sall	$16, %r8d
	addl	%r8d, %r9d
	movzbl	2(%r11), %r8d
	sall	$8, %r8d
	addl	%r9d, %r8d
	movzbl	3(%r11), %r9d
	addl	%r9d, %r8d
	cmpl	%esi, %r8d
	jnb	.L218
	leal	1(%rax), %r11d
	jmp	.L219
	.p2align 4,,7
.L229:
	cmpl	$65535, %esi
	jg	.L225
	leaq	12(%rbx,%rdi), %rcx
	leal	14(%rdx), %r10d
	movzbl	(%rcx), %eax
	movzbl	1(%rcx), %ecx
	movq	%r10, %rdx
	sall	$8, %eax
	addl	%ecx, %eax
	andl	$65534, %eax
	movslq	%eax, %rcx
	addq	%r10, %rcx
	addq	%rbx, %rcx
	movzbl	(%rcx), %r9d
	movzbl	1(%rcx), %r8d
	sall	$8, %r9d
	leal	(%r9,%r8), %ecx
	leal	(%rax,%r10), %r8d
	leaq	10(%rbx,%rdi), %rax
	movzbl	(%rax), %r9d
	movzbl	1(%rax), %eax
	movzwl	%cx, %ecx
	cmpl	%ecx, %esi
	cmovl	%r10d, %r8d
	subl	$2, %r8d
	sall	$8, %r9d
	addw	%ax, %r9w
	je	.L211
	leaq	8(%rbx,%rdi), %rcx
	movzbl	(%rcx), %eax
	movzbl	1(%rcx), %ecx
	sall	$8, %eax
	addl	%ecx, %eax
	movzwl	%ax, %eax
	shrl	%eax
	movl	%eax, %r11d
	.p2align 4,,7
.L212:
	movzwl	%r11w, %eax
	movl	%r8d, %ebp
	sarl	%eax
	movl	%eax, %r11d
	addl	%eax, %eax
	movslq	%eax, %rcx
	addl	%r8d, %eax
	addq	%rbp, %rcx
	addq	%rbx, %rcx
	movzbl	(%rcx), %r12d
	movzbl	1(%rcx), %ebp
	sall	$8, %r12d
	leal	(%r12,%rbp), %ecx
	movzwl	%cx, %ecx
	cmpl	%ecx, %esi
	cmovg	%eax, %r8d
	decw	%r9w
	jne	.L212
.L211:
	subl	%edx, %r8d
	leaq	6(%rbx,%rdi), %rax
	leal	2(%r8), %r12d
	movzbl	(%rax), %r13d
	movzbl	1(%rax), %ebp
	andl	$131070, %r12d
	addq	%r12, %r10
	addq	%rbx, %r10
	movzbl	(%r10), %eax
	movzbl	1(%r10), %edx
	sall	$8, %eax
	addl	%edx, %eax
	movzwl	%ax, %eax
	cmpl	%eax, %esi
	jg	.L231
.L213:
	sall	$8, %r13d
	addq	$16, %rdi
	leal	0(%r13,%rbp), %eax
	movzwl	%ax, %eax
	sarl	%eax
	leal	(%rax,%rax), %r9d
	movslq	%r9d, %rcx
	leaq	(%rcx,%rdi), %rdx
	addq	%r12, %rdx
	addq	%rbx, %rdx
	movzbl	(%rdx), %r10d
	movzbl	1(%rdx), %r8d
	sall	$8, %r10d
	leal	(%r10,%r8), %edx
	movzwl	%dx, %edx
	cmpl	%edx, %esi
	jl	.L225
	sall	$3, %eax
	subl	%r9d, %eax
	cltq
	addq	%rdi, %rax
	leaq	(%r12,%rax), %r8
	leaq	(%rbx,%r8), %r11
	movzbl	(%r11), %r9d
	movl	%r9d, %r10d
	movzbl	1(%r11), %r9d
	sall	$8, %r10d
	addw	%r10w, %r9w
	jne	.L214
	subq	%rcx, %rax
	addq	%rax, %r12
	addq	%r12, %rbx
	movzbl	(%rbx), %eax
	movzbl	1(%rbx), %edx
	sall	$8, %eax
	addl	%edx, %esi
	addl	%esi, %eax
	movzwl	%ax, %eax
	jmp	.L205
.L231:
	leaq	.LC2(%rip), %rdx
	leaq	.LC8(%rip), %rcx
	movl	$1382, %r8d
	call	_assert
	jmp	.L213
	.p2align 4,,7
.L228:
	leaq	.LC2(%rip), %rdx
	leaq	.LC7(%rip), %rcx
	movl	$1346, %r8d
	call	_assert
	xorl	%eax, %eax
	jmp	.L205
.L214:
	subl	%edx, %esi
	movzwl	%r9w, %r9d
	leal	(%rsi,%rsi), %eax
	addq	%r9, %r8
	cltq
	addq	%r8, %rax
	addq	%rax, %rbx
	movzbl	(%rbx), %eax
	sall	$8, %eax
	movl	%eax, %edx
	movzbl	1(%rbx), %eax
	addl	%edx, %eax
	movzwl	%ax, %eax
	jmp	.L205
.L218:
	leaq	24(%rbx,%rdx), %r8
	movzbl	(%r8), %edx
	movzbl	1(%r8), %eax
	sall	$24, %edx
	sall	$16, %eax
	addl	%eax, %edx
	movzbl	2(%r8), %eax
	sall	$8, %eax
	addl	%eax, %edx
	movzbl	3(%r8), %eax
	addl	%edx, %eax
	cmpw	$12, %bp
	jne	.L205
	subl	%ecx, %esi
	addl	%esi, %eax
	jmp	.L205
	.seh_endproc
	.section .rdata,"dr"
	.align 8
.LC9:
	.ascii "C:/libraries/include/imgui/stb_rect_pack.h\0"
.LC10:
	.ascii "first->x <= x0\0"
.LC11:
	.ascii "node->next->x > x0\0"
.LC12:
	.ascii "node->x <= x0\0"
	.text
	.p2align 4,,15
	.def	_ZL25stbrp__skyline_find_min_yP13stbrp_contextP10stbrp_nodeiiPi.isra.12;	.scl	3;	.type	32;	.endef
	.seh_proc	_ZL25stbrp__skyline_find_min_yP13stbrp_contextP10stbrp_nodeiiPi.isra.12
_ZL25stbrp__skyline_find_min_yP13stbrp_contextP10stbrp_nodeiiPi.isra.12:
.LFB745:
	pushq	%r12
	.seh_pushreg	%r12
	pushq	%rbp
	.seh_pushreg	%rbp
	pushq	%rdi
	.seh_pushreg	%rdi
	pushq	%rsi
	.seh_pushreg	%rsi
	pushq	%rbx
	.seh_pushreg	%rbx
	subq	$32, %rsp
	.seh_stackalloc	32
	.seh_endprologue
	movl	%edx, %ebp
	leal	(%rdx,%r8), %esi
	movzwl	(%rcx), %edx
	movq	%rcx, %rbx
	movl	%r8d, %edi
	movq	%r9, %r12
	cmpl	%edx, %ebp
	jl	.L247
	movq	8(%rcx), %rax
	movzwl	(%rax), %eax
	cmpl	%eax, %ebp
	jge	.L242
.L235:
	xorl	%r10d, %r10d
	cmpl	%edx, %esi
	jle	.L243
	xorl	%r8d, %r8d
	xorl	%eax, %eax
	jmp	.L241
	.p2align 4,,7
.L248:
	movl	%ecx, %r11d
	movq	8(%rbx), %rbx
	subl	%eax, %r11d
	movl	%r11d, %eax
	imull	%r8d, %eax
	addl	%eax, %r10d
	cmpl	%edx, %ebp
	jle	.L238
	movzwl	(%rbx), %edx
	movl	%edx, %eax
	subl	%ebp, %eax
	addl	%eax, %r8d
	movl	%ecx, %eax
.L239:
	cmpl	%edx, %esi
	jle	.L236
.L241:
	movzwl	2(%rbx), %ecx
	cmpl	%eax, %ecx
	jg	.L248
	movq	8(%rbx), %rbx
	movzwl	(%rbx), %r9d
	movl	%r9d, %r11d
	subl	%edx, %r11d
	movl	%r11d, %edx
	leal	(%r11,%r8), %r11d
	cmpl	%r11d, %edi
	jge	.L244
	movl	%edi, %edx
	subl	%r8d, %edx
	movl	%edi, %r8d
.L240:
	movl	%eax, %r11d
	subl	%ecx, %r11d
	imull	%r11d, %edx
	addl	%edx, %r10d
	movl	%r9d, %edx
	cmpl	%edx, %esi
	jg	.L241
.L236:
	movl	%r10d, (%r12)
	addq	$32, %rsp
	popq	%rbx
	popq	%rsi
	popq	%rdi
	popq	%rbp
	popq	%r12
	ret
	.p2align 4,,7
.L238:
	movzwl	(%rbx), %eax
	movl	%eax, %r9d
	subl	%edx, %r9d
	movl	%eax, %edx
	movl	%ecx, %eax
	addl	%r9d, %r8d
	jmp	.L239
	.p2align 4,,7
.L244:
	movl	%r11d, %r8d
	jmp	.L240
	.p2align 4,,7
.L247:
	leaq	.LC9(%rip), %rdx
	leaq	.LC10(%rip), %rcx
	movl	$287, %r8d
	call	_assert
	movq	8(%rbx), %rax
	movzwl	(%rax), %eax
	cmpl	%eax, %ebp
	jge	.L242
.L234:
	movzwl	(%rbx), %edx
	cmpl	%edx, %ebp
	jge	.L235
	leaq	.LC9(%rip), %rdx
	leaq	.LC12(%rip), %rcx
	movl	$297, %r8d
	call	_assert
	movzwl	(%rbx), %edx
	jmp	.L235
	.p2align 4,,7
.L242:
	leaq	.LC9(%rip), %rdx
	leaq	.LC11(%rip), %rcx
	movl	$294, %r8d
	call	_assert
	jmp	.L234
.L243:
	xorl	%eax, %eax
	jmp	.L236
	.seh_endproc
	.section .rdata,"dr"
.LC13:
	.ascii "width % c->align == 0\0"
.LC14:
	.ascii "xpos >= 0\0"
	.align 8
.LC15:
	.ascii "node->next->x > xpos && node->x <= xpos\0"
	.text
	.p2align 4,,15
	.def	stbrp_pack_rects;	.scl	3;	.type	32;	.endef
	.seh_proc	stbrp_pack_rects
stbrp_pack_rects:
.LFB296:
	pushq	%r15
	.seh_pushreg	%r15
	pushq	%r14
	.seh_pushreg	%r14
	pushq	%r13
	.seh_pushreg	%r13
	pushq	%r12
	.seh_pushreg	%r12
	pushq	%rbp
	.seh_pushreg	%rbp
	pushq	%rdi
	.seh_pushreg	%rdi
	pushq	%rsi
	.seh_pushreg	%rsi
	pushq	%rbx
	.seh_pushreg	%rbx
	subq	$136, %rsp
	.seh_stackalloc	136
	.seh_endprologue
	testl	%r8d, %r8d
	movq	%rcx, %r13
	movq	%rdx, 216(%rsp)
	movl	%r8d, 224(%rsp)
	jle	.L250
	cmpl	$4, %r8d
	leal	-3(%r8), %r9d
	jle	.L299
	leaq	556(%rdx), %rdx
	movl	$1, %ecx
	xorl	%eax, %eax
	.p2align 4,,7
.L252:
	leal	1(%rcx), %r8d
	movl	%ecx, -528(%rdx)
	movl	%eax, -544(%rdx)
	prefetcht0	(%rdx)
	addl	$4, %eax
	addq	$64, %rdx
	movl	%r8d, -576(%rdx)
	leal	2(%rcx), %r8d
	addl	$4, %ecx
	movl	%r8d, -560(%rdx)
	cmpl	%ecx, %r9d
	jg	.L252
	movl	224(%rsp), %ecx
.L251:
	movslq	%eax, %rdx
	salq	$4, %rdx
	addq	216(%rsp), %rdx
	.p2align 4,,7
.L254:
	movl	%eax, 12(%rdx)
	incl	%eax
	addq	$16, %rdx
	cmpl	%eax, %ecx
	jg	.L254
	movslq	224(%rsp), %rax
	movq	216(%rsp), %rcx
	leaq	_ZL19rect_height_comparePKvS0_(%rip), %r9
	movl	$16, %r8d
	movq	%r13, %r14
	movq	%rax, %rdx
	movq	%rax, 88(%rsp)
	call	qsort
	movq	216(%rsp), %rax
	movq	216(%rsp), %rdi
	leaq	26(%rax), %r15
	movl	224(%rsp), %eax
	decl	%eax
	salq	$4, %rax
	leaq	42(%rdi,%rax), %rax
	movq	%rax, 40(%rsp)
	leaq	24(%r13), %rax
	movq	%rax, 72(%rsp)
	jmp	.L291
	.p2align 4,,7
.L255:
	movw	$0, -16(%r15)
	movw	$0, -18(%r15)
	prefetcht0	(%r15)
.L257:
	addq	$16, %r15
	cmpq	%r15, 40(%rsp)
	je	.L340
.L291:
	movzwl	-22(%r15), %r12d
	testw	%r12w, %r12w
	je	.L255
	movzwl	-20(%r15), %eax
	prefetcht0	-4(%r15)
	testw	%ax, %ax
	movw	%ax, 100(%rsp)
	je	.L255
	movzwl	100(%rsp), %eax
	movl	8(%r14), %ecx
	movl	%eax, 60(%rsp)
	movzwl	%r12w, %eax
	leal	-1(%rax,%rcx), %edi
	movl	%eax, 96(%rsp)
	movl	%edi, %eax
	cltd
	idivl	%ecx
	subl	%edx, %edi
	movl	%edi, %eax
	cltd
	idivl	%ecx
	testl	%edx, %edx
	jne	.L341
.L258:
	movq	24(%r14), %rbx
	movq	72(%rsp), %rcx
	movzwl	(%rbx), %edx
	movq	%rcx, 80(%rsp)
	leal	(%rdi,%rdx), %eax
	cmpl	%eax, (%r14)
	movl	%edx, %esi
	jl	.L259
	leaq	124(%rsp), %rax
	movq	%rcx, %rsi
	movq	%r14, %rcx
	movq	%r15, 64(%rsp)
	movl	%r12d, %r14d
	movq	%rbx, %r15
	movq	$0, 32(%rsp)
	movl	$1073741824, 56(%rsp)
	movl	$1073741824, %ebp
	movq	%rax, 48(%rsp)
	movl	60(%rsp), %ebx
	movq	%rax, %r13
	movq	%rcx, %r12
	jmp	.L264
	.p2align 4,,7
.L343:
	cmpl	%ebp, %eax
	jge	.L261
.L300:
	movq	%rsi, 32(%rsp)
	movl	%eax, %ebp
.L261:
	leaq	8(%r15), %rsi
	movq	8(%r15), %r15
	movzwl	(%r15), %edx
	leal	(%rdi,%rdx), %eax
	cmpl	(%r12), %eax
	jg	.L342
.L264:
	movq	%r15, %rcx
	movq	%r13, %r9
	movl	%edi, %r8d
	call	_ZL25stbrp__skyline_find_min_yP13stbrp_contextP10stbrp_nodeiiPi.isra.12
	movl	16(%r12), %ecx
	testl	%ecx, %ecx
	je	.L343
	leal	(%rbx,%rax), %edx
	cmpl	4(%r12), %edx
	jg	.L261
	cmpl	%ebp, %eax
	jge	.L262
	movl	124(%rsp), %edx
	movl	%edx, 56(%rsp)
	jmp	.L300
	.p2align 4,,7
.L262:
	jne	.L261
	movl	124(%rsp), %edx
	cmpl	56(%rsp), %edx
	jge	.L261
	movl	%edx, 56(%rsp)
	jmp	.L300
	.p2align 4,,7
.L342:
	movq	%r12, %rax
	movl	%r14d, %r12d
	movq	64(%rsp), %r15
	movq	%rax, %r14
	movq	32(%rsp), %rax
	testq	%rax, %rax
	je	.L265
	movq	(%rax), %rax
	decl	%ecx
	movzwl	(%rax), %eax
	movl	%eax, 64(%rsp)
	je	.L344
.L266:
	movl	60(%rsp), %eax
	addl	%ebp, %eax
	cmpl	4(%r14), %eax
	jg	.L268
	movq	32(%r14), %r8
	testq	%r8, %r8
	je	.L268
	movl	%ebp, %r9d
	addw	100(%rsp), %bp
	movl	64(%rsp), %edi
	movq	8(%r8), %rax
	movw	%di, (%r8)
	movl	%edi, %r11d
	movw	%bp, 2(%r8)
	movq	%rax, 32(%r14)
	movq	32(%rsp), %rax
	movq	(%rax), %rdx
	movzwl	(%rdx), %eax
	cmpl	%edi, %eax
	jl	.L345
	movq	32(%rsp), %rax
	movq	%r8, (%rax)
.L285:
	movq	8(%rdx), %rcx
	testq	%rcx, %rcx
	je	.L346
	movzwl	(%rcx), %eax
	movl	96(%rsp), %r13d
	addl	64(%rsp), %r13d
	movl	%eax, %edi
	cmpl	%eax, %r13d
	jl	.L286
	movq	32(%r14), %rsi
	jmp	.L287
	.p2align 4,,7
.L288:
	movzwl	(%rax), %ebx
	movq	%rdx, %rsi
	cmpl	%r13d, %ebx
	jg	.L336
	movq	%rcx, %rdx
	movzwl	%bx, %edi
	movq	%rax, %rcx
.L287:
	movq	%rsi, 8(%rdx)
	movq	8(%rcx), %rax
	testq	%rax, %rax
	jne	.L288
.L336:
	movq	%rdx, 32(%r14)
.L284:
	cmpl	%r13d, %edi
	movq	%rcx, 8(%r8)
	jge	.L281
	addl	%r11d, %r12d
	movw	%r12w, (%rcx)
	jmp	.L281
	.p2align 4,,7
.L340:
	movq	88(%rsp), %rdx
	movq	216(%rsp), %rcx
	leaq	_ZL19rect_original_orderPKvS0_(%rip), %r9
	movl	$16, %r8d
	call	qsort
	xorl	%edx, %edx
	cmpl	$4, 224(%rsp)
	jle	.L298
	movl	224(%rsp), %edi
	movq	216(%rsp), %rax
	leal	-5(%rdi), %edx
	addq	$408, %rax
	shrl	$2, %edx
	leal	4(,%rdx,4), %r8d
	xorl	%edx, %edx
	.p2align 4,,7
.L292:
	xorl	%ecx, %ecx
	cmpl	$-1, -400(%rax)
	prefetcht0	(%rax)
	prefetcht0	4(%rax)
	setne	%cl
	movl	%ecx, -396(%rax)
	xorl	%ecx, %ecx
	cmpl	$-1, -384(%rax)
	setne	%cl
	movl	%ecx, -380(%rax)
	xorl	%ecx, %ecx
	cmpl	$-1, -368(%rax)
	setne	%cl
	movl	%ecx, -364(%rax)
	xorl	%ecx, %ecx
	cmpl	$-1, -352(%rax)
	setne	%cl
	addl	$4, %edx
	addq	$64, %rax
	movl	%ecx, -412(%rax)
	cmpl	%r8d, %edx
	jne	.L292
.L298:
	movslq	%edx, %rax
	movl	224(%rsp), %r8d
	salq	$4, %rax
	addq	216(%rsp), %rax
	.p2align 4,,7
.L293:
	xorl	%ecx, %ecx
	cmpl	$-1, 8(%rax)
	setne	%cl
	incl	%edx
	addq	$16, %rax
	movl	%ecx, -4(%rax)
	cmpl	%edx, %r8d
	jg	.L293
.L249:
	addq	$136, %rsp
	popq	%rbx
	popq	%rsi
	popq	%rdi
	popq	%rbp
	popq	%r12
	popq	%r13
	popq	%r14
	popq	%r15
	ret
.L347:
	cmpq	$0, 32(%rsp)
	movzwl	102(%rsp), %r12d
	movq	104(%rsp), %r15
	jne	.L266
.L268:
	movl	$-1, %r9d
	movl	%r9d, %r11d
.L281:
	movw	%r9w, -16(%r15)
	movw	%r11w, -18(%r15)
	jmp	.L257
.L345:
	movq	8(%rdx), %rax
	movq	%r8, 8(%rdx)
	movq	%rax, %rdx
	jmp	.L285
.L341:
	leaq	.LC9(%rip), %rdx
	leaq	.LC13(%rip), %rcx
	movl	$344, %r8d
	call	_assert
	jmp	.L258
.L344:
	movq	24(%r14), %rbx
	movzwl	(%rbx), %esi
.L267:
	cmpl	%esi, %edi
	movq	%rbx, %r13
	jle	.L302
	.p2align 4,,7
.L270:
	movq	8(%r13), %r13
	movzwl	0(%r13), %esi
	cmpl	%esi, %edi
	jg	.L270
.L302:
	movl	%esi, %r10d
	movw	%r12w, 102(%rsp)
	movq	%r15, 104(%rsp)
	movl	%r10d, %esi
	movq	%r13, %r12
	movq	80(%rsp), %r15
	subl	%edi, %esi
	movl	60(%rsp), %r13d
	js	.L271
	.p2align 4,,7
.L348:
	movq	8(%rbx), %rax
	movzwl	(%rax), %edx
	cmpl	%edx, %esi
	movl	%edx, %r8d
	jl	.L272
	movq	%rbx, %r15
	movq	%rax, %rbx
	jmp	.L274
	.p2align 4,,7
.L303:
	movq	%rbx, %r15
	movzwl	%ax, %r8d
	movq	%rdx, %rbx
.L274:
	movq	8(%rbx), %rdx
	movzwl	(%rdx), %ecx
	cmpl	%ecx, %esi
	movl	%ecx, %eax
	jge	.L303
	addq	$8, %r15
.L275:
	cmpl	%r8d, %esi
	jge	.L295
	leaq	.LC9(%rip), %rdx
	leaq	.LC15(%rip), %rcx
	movl	$407, %r8d
	call	_assert
.L295:
	movq	48(%rsp), %r9
	movl	%esi, %edx
	movl	%edi, %r8d
	movq	%rbx, %rcx
	call	_ZL25stbrp__skyline_find_min_yP13stbrp_contextP10stbrp_nodeiiPi.isra.12
	leal	0(%r13,%rax), %edx
	cmpl	4(%r14), %edx
	jge	.L276
	cmpl	%ebp, %eax
	jg	.L276
	jge	.L277
	movl	124(%rsp), %ecx
	movl	%ecx, 56(%rsp)
.L278:
	movq	%r15, 32(%rsp)
	movl	%eax, %ebp
	movl	%esi, 64(%rsp)
.L276:
	movq	8(%r12), %r12
	testq	%r12, %r12
	je	.L347
	movzwl	(%r12), %r10d
	movl	%r10d, %esi
	subl	%edi, %esi
	jns	.L348
.L271:
	leaq	.LC9(%rip), %rdx
	leaq	.LC14(%rip), %rcx
	movl	$401, %r8d
	call	_assert
.L272:
	movzwl	(%rbx), %r8d
	jmp	.L275
	.p2align 4,,7
.L277:
	movl	124(%rsp), %edx
	movl	56(%rsp), %ecx
	cmpl	%ecx, %edx
	jl	.L304
	cmpl	64(%rsp), %esi
	jge	.L276
	cmpl	%ecx, %edx
	jne	.L276
.L304:
	movl	%edx, 56(%rsp)
	jmp	.L278
.L259:
	cmpl	$1, 16(%r14)
	jne	.L268
	leaq	124(%rsp), %rax
	movl	$1073741824, %ebp
	movl	$1073741824, 56(%rsp)
	movq	$0, 32(%rsp)
	movl	$0, 64(%rsp)
	movq	%rax, 48(%rsp)
	jmp	.L267
.L299:
	xorl	%eax, %eax
	movl	%r8d, %ecx
	jmp	.L251
.L250:
	movslq	224(%rsp), %rbx
	leaq	_ZL19rect_height_comparePKvS0_(%rip), %r9
	movq	%rdx, %rcx
	movl	$16, %r8d
	movq	%rbx, %rdx
	call	qsort
	movq	216(%rsp), %rcx
	leaq	_ZL19rect_original_orderPKvS0_(%rip), %r9
	movl	$16, %r8d
	movq	%rbx, %rdx
	call	qsort
	jmp	.L249
.L265:
	decl	%ecx
	jne	.L268
	movq	24(%r14), %rbx
	movl	$0, 64(%rsp)
	movzwl	(%rbx), %esi
	jmp	.L267
.L286:
	movzwl	(%rdx), %edi
	movq	%rdx, %rcx
	jmp	.L284
.L346:
	movl	96(%rsp), %r13d
	movzwl	(%rdx), %edi
	movq	%rdx, %rcx
	addl	64(%rsp), %r13d
	jmp	.L284
	.seh_endproc
	.section .rdata,"dr"
.LC16:
	.ascii "y0 < y1\0"
.LC17:
	.ascii "e->sy <= e->ey\0"
.LC18:
	.ascii "x1 <= x+1\0"
.LC19:
	.ascii "x1 >= x\0"
.LC20:
	.ascii "x1 <= x\0"
.LC21:
	.ascii "x1 >= x+1\0"
.LC22:
	.ascii "x1 >= x && x1 <= x+1\0"
	.align 8
.LC23:
	.ascii "x0 >= x && x0 <= x+1 && x1 >= x && x1 <= x+1\0"
	.text
	.p2align 4,,15
	.def	_ZL26stbtt__handle_clipped_edgePfiP18stbtt__active_edgeffff.part.15;	.scl	3;	.type	32;	.endef
	.seh_proc	_ZL26stbtt__handle_clipped_edgePfiP18stbtt__active_edgeffff.part.15
_ZL26stbtt__handle_clipped_edgePfiP18stbtt__active_edgeffff.part.15:
.LFB748:
	pushq	%rdi
	.seh_pushreg	%rdi
	pushq	%rsi
	.seh_pushreg	%rsi
	pushq	%rbx
	.seh_pushreg	%rbx
	addq	$-128, %rsp
	.seh_stackalloc	128
	movaps	%xmm6, 32(%rsp)
	.seh_savexmm	%xmm6, 32
	movaps	%xmm7, 48(%rsp)
	.seh_savexmm	%xmm7, 48
	movaps	%xmm8, 64(%rsp)
	.seh_savexmm	%xmm8, 64
	movaps	%xmm9, 80(%rsp)
	.seh_savexmm	%xmm9, 80
	movaps	%xmm10, 96(%rsp)
	.seh_savexmm	%xmm10, 96
	movaps	%xmm11, 112(%rsp)
	.seh_savexmm	%xmm11, 112
	.seh_endprologue
	movq	%rcx, %rdi
	movslq	%edx, %rsi
	movq	%r8, %rbx
	movss	192(%rsp), %xmm8
	movss	208(%rsp), %xmm6
	movaps	%xmm3, %xmm9
	ucomiss	%xmm8, %xmm6
	movss	200(%rsp), %xmm7
	jbe	.L403
.L350:
	movss	28(%rbx), %xmm0
	ucomiss	24(%rbx), %xmm0
	jb	.L404
.L351:
	ucomiss	%xmm0, %xmm8
	ja	.L349
	movss	24(%rbx), %xmm1
	ucomiss	%xmm6, %xmm1
	ja	.L349
	ucomiss	%xmm8, %xmm1
	jbe	.L356
	movaps	%xmm7, %xmm3
	movaps	%xmm1, %xmm2
	subss	%xmm9, %xmm3
	subss	%xmm8, %xmm2
	mulss	%xmm3, %xmm2
	movaps	%xmm6, %xmm3
	subss	%xmm8, %xmm3
	movaps	%xmm1, %xmm8
	divss	%xmm3, %xmm2
	addss	%xmm2, %xmm9
.L356:
	ucomiss	%xmm0, %xmm6
	ja	.L405
.L358:
	cvtsi2ss	%esi, %xmm10
	ucomiss	%xmm10, %xmm9
	jp	.L360
	jne	.L360
	leal	1(%rsi), %eax
	cvtsi2ss	%eax, %xmm11
	ucomiss	%xmm7, %xmm11
	jb	.L406
.L362:
	ucomiss	%xmm7, %xmm10
	jb	.L385
	ucomiss	%xmm9, %xmm10
	jb	.L385
.L372:
	subss	%xmm8, %xmm6
	leaq	(%rdi,%rsi,4), %rax
	mulss	20(%rbx), %xmm6
	addss	(%rax), %xmm6
	movss	%xmm6, (%rax)
.L349:
	movaps	32(%rsp), %xmm6
	movaps	48(%rsp), %xmm7
	movaps	64(%rsp), %xmm8
	movaps	80(%rsp), %xmm9
	movaps	96(%rsp), %xmm10
	movaps	112(%rsp), %xmm11
	subq	$-128, %rsp
	popq	%rbx
	popq	%rsi
	popq	%rdi
	ret
	.p2align 4,,7
.L404:
	leaq	.LC2(%rip), %rdx
	leaq	.LC17(%rip), %rcx
	movl	$2544, %r8d
	call	_assert
	movss	28(%rbx), %xmm0
	jmp	.L351
	.p2align 4,,7
.L403:
	leaq	.LC2(%rip), %rdx
	leaq	.LC16(%rip), %rcx
	movl	$2543, %r8d
	call	_assert
	jmp	.L350
	.p2align 4,,7
.L405:
	movaps	%xmm7, %xmm2
	movaps	%xmm0, %xmm1
	subss	%xmm9, %xmm2
	subss	%xmm6, %xmm1
	subss	%xmm8, %xmm6
	mulss	%xmm2, %xmm1
	divss	%xmm6, %xmm1
	movaps	%xmm0, %xmm6
	addss	%xmm1, %xmm7
	jmp	.L358
	.p2align 4,,7
.L360:
	leal	1(%rsi), %eax
	cvtsi2ss	%eax, %xmm11
	ucomiss	%xmm11, %xmm9
	jp	.L363
	jne	.L363
	ucomiss	%xmm10, %xmm7
	jnb	.L362
	leaq	.LC2(%rip), %rdx
	leaq	.LC19(%rip), %rcx
	movl	$2559, %r8d
	call	_assert
	jmp	.L362
	.p2align 4,,7
.L385:
	ucomiss	%xmm11, %xmm7
	jb	.L386
	ucomiss	%xmm11, %xmm9
	.p2align 4,,3
	jnb	.L349
.L386:
	ucomiss	%xmm10, %xmm9
	setnb	%dl
	ucomiss	%xmm10, %xmm7
	setnb	%al
	andl	%edx, %eax
	ucomiss	%xmm9, %xmm11
	setnb	%dl
	testb	%dl, %al
	je	.L387
	ucomiss	%xmm7, %xmm11
	jb	.L387
.L375:
	subss	%xmm10, %xmm9
	movss	.LC24(%rip), %xmm0
	subss	%xmm10, %xmm7
	leaq	(%rdi,%rsi,4), %rax
	subss	%xmm8, %xmm6
	addss	%xmm9, %xmm7
	mulss	20(%rbx), %xmm6
	mulss	.LC1(%rip), %xmm7
	subss	%xmm7, %xmm0
	mulss	%xmm0, %xmm6
	addss	(%rax), %xmm6
	movss	%xmm6, (%rax)
	jmp	.L349
	.p2align 4,,7
.L387:
	leaq	.LC2(%rip), %rdx
	leaq	.LC23(%rip), %rcx
	movl	$2572, %r8d
	call	_assert
	jmp	.L375
	.p2align 4,,7
.L363:
	ucomiss	%xmm9, %xmm10
	jnb	.L407
	ucomiss	%xmm11, %xmm9
	.p2align 4,,3
	jnb	.L408
	ucomiss	%xmm10, %xmm7
	jb	.L384
	ucomiss	%xmm7, %xmm11
	jnb	.L362
.L384:
	leaq	.LC2(%rip), %rdx
	leaq	.LC22(%rip), %rcx
	movl	$2565, %r8d
	call	_assert
	jmp	.L362
	.p2align 4,,7
.L406:
	leaq	.LC2(%rip), %rdx
	leaq	.LC18(%rip), %rcx
	movl	$2557, %r8d
	call	_assert
	jmp	.L362
	.p2align 4,,7
.L407:
	ucomiss	%xmm7, %xmm10
	jnb	.L372
	leaq	.LC2(%rip), %rdx
	leaq	.LC20(%rip), %rcx
	movl	$2561, %r8d
	call	_assert
	jmp	.L362
	.p2align 4,,7
.L408:
	ucomiss	%xmm11, %xmm7
	jnb	.L362
	leaq	.LC2(%rip), %rdx
	leaq	.LC21(%rip), %rcx
	movl	$2563, %r8d
	call	_assert
	jmp	.L362
	.seh_endproc
	.align 2
	.p2align 4,,15
	.def	_ZN11ImFontAtlas19RenderCustomTexDataEiPv.constprop.66;	.scl	3;	.type	32;	.endef
	.seh_proc	_ZN11ImFontAtlas19RenderCustomTexDataEiPv.constprop.66
_ZN11ImFontAtlas19RenderCustomTexDataEiPv.constprop.66:
.LFB814:
	pushq	%rdi
	.seh_pushreg	%rdi
	pushq	%rsi
	.seh_pushreg	%rsi
	pushq	%rbx
	.seh_pushreg	%rbx
	subq	$48, %rsp
	.seh_stackalloc	48
	.seh_endprologue
	movq	%rdx, %rbx
	movslq	(%rdx), %rdx
	movq	$0, 32(%rsp)
	cmpl	4(%rbx), %edx
	movq	$0, 40(%rsp)
	movw	$181, 36(%rsp)
	movw	$28, 38(%rsp)
	je	.L410
	movq	8(%rbx), %rax
	leal	1(%rdx), %r8d
.L411:
	movl	%r8d, (%rbx)
	movq	32(%rsp), %rcx
	salq	$4, %rdx
	movq	40(%rsp), %rbx
	movq	%rcx, (%rax,%rdx)
	movq	%rbx, 8(%rax,%rdx)
	addq	$48, %rsp
	popq	%rbx
	popq	%rsi
	popq	%rdi
	ret
	.p2align 4,,7
.L410:
	testl	%edx, %edx
	leal	1(%rdx), %r8d
	movl	$8, %eax
	jne	.L420
	cmpl	%eax, %r8d
	cmovge	%r8d, %eax
	cmpl	%edx, %eax
	movl	%eax, %esi
	jg	.L413
.L421:
	movq	8(%rbx), %rax
	jmp	.L411
	.p2align 4,,7
.L420:
	movl	%edx, %eax
	shrl	$31, %eax
	addl	%edx, %eax
	sarl	%eax
	addl	%edx, %eax
	cmpl	%eax, %r8d
	cmovge	%r8d, %eax
	cmpl	%edx, %eax
	movl	%eax, %esi
	jle	.L421
.L413:
	movslq	%eax, %rcx
	salq	$4, %rcx
	call	_ZN5ImGui8MemAllocEy
	movq	8(%rbx), %rcx
	movq	%rax, %rdi
	testq	%rcx, %rcx
	je	.L414
	movslq	(%rbx), %r8
	movq	%rcx, %rdx
	movq	%rax, %rcx
	salq	$4, %r8
	call	memcpy
	movq	8(%rbx), %rcx
.L414:
	call	_ZN5ImGui7MemFreeEPv
	movslq	(%rbx), %rdx
	movq	%rdi, 8(%rbx)
	movq	%rdi, %rax
	movl	%esi, 4(%rbx)
	leal	1(%rdx), %r8d
	jmp	.L411
	.seh_endproc
	.p2align 4,,15
	.def	_ZL14stbtt__buf_getP10stbtt__bufi.constprop.77;	.scl	3;	.type	32;	.endef
	.seh_proc	_ZL14stbtt__buf_getP10stbtt__bufi.constprop.77
_ZL14stbtt__buf_getP10stbtt__bufi.constprop.77:
.LFB803:
	.seh_endprologue
	movl	12(%rcx), %r10d
	movl	8(%rcx), %edx
	cmpl	%edx, %r10d
	jle	.L424
	movq	(%rcx), %r11
	leal	1(%rdx), %r9d
	movslq	%edx, %rax
	movl	%r9d, 8(%rcx)
	movzbl	(%r11,%rax), %eax
	sall	$8, %eax
	cmpl	%r10d, %r9d
	movl	%eax, %r8d
	jge	.L425
	addl	$2, %edx
	movslq	%r9d, %r9
	movl	%edx, 8(%rcx)
	movzbl	(%r11,%r9), %eax
.L423:
	orl	%r8d, %eax
	ret
	.p2align 4,,7
.L424:
	xorl	%r8d, %r8d
	xorl	%eax, %eax
	orl	%r8d, %eax
	ret
.L425:
	xorl	%eax, %eax
	jmp	.L423
	.seh_endproc
	.p2align 4,,15
	.def	_ZL15stbtt__dict_getP10stbtt__bufi;	.scl	3;	.type	32;	.endef
	.seh_proc	_ZL15stbtt__dict_getP10stbtt__bufi
_ZL15stbtt__dict_getP10stbtt__bufi:
.LFB307:
	pushq	%r12
	.seh_pushreg	%r12
	pushq	%rbp
	.seh_pushreg	%rbp
	pushq	%rdi
	.seh_pushreg	%rdi
	pushq	%rsi
	.seh_pushreg	%rsi
	pushq	%rbx
	.seh_pushreg	%rbx
	subq	$32, %rsp
	.seh_stackalloc	32
	.seh_endprologue
	movl	%r8d, %ebp
	movl	12(%rdx), %r8d
	movq	%rcx, %rdi
	movq	%rdx, %r12
	testl	%r8d, %r8d
	js	.L476
.L427:
	testl	%r8d, %r8d
	movl	$0, %esi
	cmovle	%r8d, %esi
	cmpl	%r8d, %esi
	movl	%esi, 8(%r12)
	jge	.L428
	.p2align 4,,7
.L479:
	movl	%esi, %ebx
	.p2align 4,,7
.L430:
	movq	(%r12), %rdx
	movslq	%ebx, %rcx
	leaq	(%rdx,%rcx), %r9
	movzbl	(%r9), %eax
	cmpb	$27, %al
	jbe	.L432
	cmpb	$30, %al
	je	.L477
	leal	1(%rbx), %eax
	movl	%eax, 8(%r12)
	movzbl	(%rdx,%rcx), %edx
	leal	-32(%rdx), %ecx
	cmpl	$214, %ecx
	ja	.L478
	movl	%eax, %ebx
.L439:
	cmpl	%r8d, %ebx
	jl	.L430
.L438:
	xorl	%eax, %eax
.L431:
	cmpl	%ebp, %eax
	je	.L452
.L483:
	movl	8(%r12), %esi
	cmpl	%r8d, %esi
	jl	.L479
.L428:
	testl	%r8d, %r8d
	movq	$0, (%rdi)
	movl	$0, 12(%rdi)
	movl	$0, 8(%rdi)
	js	.L426
	movq	(%r12), %rax
	movq	%rax, (%rdi)
.L426:
	movq	%rdi, %rax
	addq	$32, %rsp
	popq	%rbx
	popq	%rsi
	popq	%rdi
	popq	%rbp
	popq	%r12
	ret
	.p2align 4,,7
.L477:
	incl	%ebx
	js	.L462
	cmpl	%r8d, %ebx
	jg	.L462
	cmpl	%r8d, %ebx
	.p2align 4,,3
	jg	.L463
.L481:
	movl	%ebx, %eax
	shrl	$31, %eax
	jne	.L463
.L436:
	movl	%ebx, 8(%r12)
	movslq	%ebx, %rdx
	jmp	.L440
	.p2align 4,,7
.L480:
	movq	(%r12), %rax
	incl	%ebx
	movl	%ebx, 8(%r12)
	movzbl	(%rax,%rdx), %eax
	movl	%eax, %ecx
	andl	$15, %ecx
	cmpb	$15, %cl
	je	.L439
	sarl	$4, %eax
	incq	%rdx
	cmpl	$15, %eax
	je	.L439
.L440:
	cmpl	%r8d, %ebx
	jl	.L480
	jmp	.L438
	.p2align 4,,7
.L462:
	leaq	.LC2(%rip), %rdx
	leaq	.LC3(%rip), %rcx
	movl	$1000, %r8d
	call	_assert
	movl	12(%r12), %r8d
	cmpl	%r8d, %ebx
	jle	.L481
.L463:
	movl	%r8d, %ebx
	jmp	.L436
	.p2align 4,,7
.L478:
	leal	-247(%rdx), %ecx
	cmpl	$3, %ecx
	ja	.L482
.L442:
	cmpl	%r8d, %eax
	jge	.L460
	addl	$2, %ebx
	movl	%ebx, 8(%r12)
	jmp	.L439
.L474:
	movl	%eax, 8(%r12)
	.p2align 4,,7
.L460:
	movl	%eax, %ebx
	jmp	.L438
.L432:
	leal	1(%rbx), %ecx
	movl	%ecx, 8(%r12)
	movzbl	(%r9), %eax
	cmpl	$12, %eax
	jne	.L431
	cmpl	%r8d, %ecx
	movl	$256, %eax
	jge	.L431
	leal	2(%rbx), %eax
	movslq	%ecx, %rcx
	movl	%eax, 8(%r12)
	movzbl	(%rdx,%rcx), %eax
	orb	$1, %ah
	cmpl	%ebp, %eax
	jne	.L483
.L452:
	subl	%esi, %ebx
	movl	%esi, %edx
	movq	$0, (%rdi)
	movl	%ebx, %eax
	shrl	$31, %edx
	movl	$0, 12(%rdi)
	shrl	$31, %eax
	movl	$0, 8(%rdi)
	orb	%al, %dl
	jne	.L426
	cmpl	%r8d, %esi
	jg	.L426
	subl	%esi, %r8d
	cmpl	%r8d, %ebx
	jg	.L426
	movslq	%esi, %rax
	addq	(%r12), %rax
	movl	%ebx, 12(%rdi)
	movq	%rax, (%rdi)
	movq	%rdi, %rax
	addq	$32, %rsp
	popq	%rbx
	popq	%rsi
	popq	%rdi
	popq	%rbp
	popq	%r12
	ret
.L476:
	leaq	.LC2(%rip), %rdx
	leaq	.LC3(%rip), %rcx
	movl	$1000, %r8d
	call	_assert
	movl	12(%r12), %r8d
	jmp	.L427
.L482:
	leal	-251(%rdx), %ecx
	cmpl	$3, %ecx
	jbe	.L442
	cmpl	$28, %edx
	je	.L484
	cmpl	$29, %edx
	jne	.L447
	cmpl	%r8d, %eax
	.p2align 4,,2
	jge	.L460
	leal	2(%rbx), %eax
	cmpl	%eax, %r8d
	jle	.L474
	leal	3(%rbx), %eax
	cmpl	%eax, %r8d
	movl	%eax, 8(%r12)
	jle	.L460
	leal	4(%rbx), %eax
	cmpl	%eax, %r8d
	movl	%eax, 8(%r12)
	jle	.L460
	addl	$5, %ebx
	movl	%ebx, 8(%r12)
	jmp	.L439
.L447:
	leaq	.LC2(%rip), %rdx
	leaq	.LC7(%rip), %rcx
	movl	$1063, %r8d
	call	_assert
	movl	8(%r12), %ebx
	movl	12(%r12), %r8d
	jmp	.L439
.L484:
	cmpl	%r8d, %eax
	jge	.L460
	leal	2(%rbx), %eax
	cmpl	%r8d, %eax
	jge	.L474
	addl	$3, %ebx
	movl	%ebx, 8(%r12)
	jmp	.L439
	.seh_endproc
	.p2align 4,,15
	.def	_ZL20stbtt__dict_get_intsP10stbtt__bufiiPj.constprop.76;	.scl	3;	.type	32;	.endef
	.seh_proc	_ZL20stbtt__dict_get_intsP10stbtt__bufiiPj.constprop.76
_ZL20stbtt__dict_get_intsP10stbtt__bufiiPj.constprop.76:
.LFB804:
	pushq	%rbx
	.seh_pushreg	%rbx
	subq	$48, %rsp
	.seh_stackalloc	48
	.seh_endprologue
	movq	%rcx, %rax
	leaq	32(%rsp), %rcx
	movq	%r8, %rbx
	movl	%edx, %r8d
	movq	%rax, %rdx
	call	_ZL15stbtt__dict_getP10stbtt__bufi
	movq	40(%rsp), %rax
	movq	32(%rsp), %r9
	movq	%rax, %r8
	sarq	$32, %r8
	cmpl	%r8d, %eax
	jge	.L485
	movslq	%eax, %rdx
	movzbl	(%r9,%rdx), %edx
	leal	-32(%rdx), %r10d
	leal	-139(%rdx), %ecx
	cmpl	$214, %r10d
	ja	.L504
.L492:
	movl	%ecx, (%rbx)
.L485:
	addq	$48, %rsp
	popq	%rbx
	ret
	.p2align 4,,7
.L504:
	leal	-247(%rdx), %ecx
	leal	1(%rax), %r10d
	cmpl	$3, %ecx
	ja	.L505
	sall	$8, %ecx
	cmpl	%r8d, %r10d
	jge	.L506
	movslq	%r10d, %r10
	movzbl	(%r9,%r10), %eax
.L500:
	leal	108(%rax,%rcx), %ecx
	jmp	.L492
	.p2align 4,,7
.L505:
	leal	-251(%rdx), %ecx
	cmpl	$3, %ecx
	ja	.L507
	movl	$251, %ecx
	subl	%edx, %ecx
	sall	$8, %ecx
	cmpl	%r8d, %r10d
	jge	.L508
	movslq	%r10d, %r10
	movzbl	(%r9,%r10), %eax
.L498:
	subl	%eax, %ecx
	subl	$108, %ecx
	jmp	.L492
	.p2align 4,,7
.L507:
	cmpl	$28, %edx
	je	.L509
	cmpl	$29, %edx
	je	.L510
	leaq	.LC7(%rip), %rcx
	leaq	.LC2(%rip), %rdx
	movl	$1063, %r8d
	call	_assert
	xorl	%ecx, %ecx
	jmp	.L492
	.p2align 4,,7
.L506:
	xorl	%eax, %eax
	jmp	.L500
	.p2align 4,,7
.L508:
	xorl	%eax, %eax
	.p2align 4,,5
	jmp	.L498
	.p2align 4,,7
.L510:
	cmpl	%r8d, %r10d
	.p2align 4,,4
	jge	.L502
	movslq	%r10d, %r10
	leal	2(%rax), %r11d
	movzbl	(%r9,%r10), %ecx
	movl	%ecx, %r10d
	sall	$8, %r10d
	cmpl	%r8d, %r11d
	jge	.L495
	movslq	%r11d, %r11
	leal	3(%rax), %edx
	movzbl	(%r9,%r11), %ecx
	orl	%r10d, %ecx
	sall	$8, %ecx
	cmpl	%edx, %r8d
	jle	.L494
	movslq	%edx, %rdx
	addl	$4, %eax
	movzbl	(%r9,%rdx), %edx
	orl	%edx, %ecx
	sall	$8, %ecx
	cmpl	%eax, %r8d
	jle	.L503
	cltq
	movzbl	(%r9,%rax), %eax
	orl	%eax, %ecx
	jmp	.L492
	.p2align 4,,7
.L502:
	xorl	%ecx, %ecx
.L494:
	sall	$8, %ecx
	xorl	%eax, %eax
	orl	%eax, %ecx
	jmp	.L492
	.p2align 4,,7
.L509:
	xorl	%ecx, %ecx
	cmpl	%r8d, %r10d
	jge	.L492
	movslq	%r10d, %r10
	addl	$2, %eax
	movzbl	(%r9,%r10), %ecx
	sall	$8, %ecx
	cmpl	%r8d, %eax
	jge	.L492
	cltq
	movzbl	(%r9,%rax), %eax
	orl	%eax, %ecx
	jmp	.L492
.L503:
	xorl	%eax, %eax
	orl	%eax, %ecx
	jmp	.L492
.L495:
	sall	$24, %ecx
	xorl	%eax, %eax
	orl	%eax, %ecx
	jmp	.L492
	.seh_endproc
	.p2align 4,,15
	.def	_ZL14stbtt__cff_intP10stbtt__buf;	.scl	3;	.type	32;	.endef
	.seh_proc	_ZL14stbtt__cff_intP10stbtt__buf
_ZL14stbtt__cff_intP10stbtt__buf:
.LFB305:
	pushq	%rbx
	.seh_pushreg	%rbx
	subq	$32, %rsp
	.seh_stackalloc	32
	.seh_endprologue
	movl	8(%rcx), %r8d
	movl	12(%rcx), %r9d
	cmpl	%r9d, %r8d
	jl	.L533
.L512:
	leaq	.LC2(%rip), %rdx
	leaq	.LC7(%rip), %rcx
	movl	$1063, %r8d
	call	_assert
	xorl	%eax, %eax
.L530:
	addq	$32, %rsp
	popq	%rbx
	ret
	.p2align 4,,7
.L533:
	movq	(%rcx), %r11
	leal	1(%r8), %r10d
	movslq	%r8d, %rax
	movl	%r10d, 8(%rcx)
	movzbl	(%r11,%rax), %eax
	leal	-32(%rax), %edx
	cmpl	$214, %edx
	ja	.L513
	subl	$139, %eax
	addq	$32, %rsp
	popq	%rbx
	ret
	.p2align 4,,7
.L513:
	leal	-247(%rax), %edx
	cmpl	$3, %edx
	ja	.L534
	movl	%edx, %eax
	xorl	%edx, %edx
	sall	$8, %eax
	cmpl	%r10d, %r9d
	jle	.L518
	addl	$2, %r8d
	movslq	%r10d, %r10
	movl	%r8d, 8(%rcx)
	movzbl	(%r11,%r10), %edx
.L518:
	leal	108(%rax,%rdx), %eax
	addq	$32, %rsp
	popq	%rbx
	ret
.L534:
	leal	-251(%rax), %edx
	cmpl	$3, %edx
	ja	.L535
	movl	$251, %edx
	subl	%eax, %edx
	movl	%edx, %eax
	xorl	%edx, %edx
	sall	$8, %eax
	cmpl	%r10d, %r9d
	jle	.L519
	addl	$2, %r8d
	movslq	%r10d, %r10
	movl	%r8d, 8(%rcx)
	movzbl	(%r11,%r10), %edx
.L519:
	subl	%edx, %eax
	subl	$108, %eax
	addq	$32, %rsp
	popq	%rbx
	ret
.L535:
	cmpl	$28, %eax
	je	.L536
	cmpl	$29, %eax
	jne	.L512
	cmpl	%r10d, %r9d
	.p2align 4,,2
	jle	.L528
	leal	2(%r8), %ebx
	movslq	%r10d, %r10
	movl	%ebx, 8(%rcx)
	movzbl	(%r11,%r10), %eax
	movl	%eax, %edx
	sall	$8, %edx
	cmpl	%ebx, %r9d
	jle	.L522
	leal	3(%r8), %r10d
	movslq	%ebx, %rbx
	movl	%edx, %eax
	movl	%r10d, 8(%rcx)
	movzbl	(%r11,%rbx), %r8d
.L521:
	orl	%r8d, %eax
	movl	%eax, %edx
	sall	$8, %edx
	cmpl	%r10d, %r9d
	jle	.L523
	leal	1(%r10), %ebx
	movslq	%r10d, %r10
	movl	%edx, %eax
	movl	%ebx, 8(%rcx)
	movzbl	(%r11,%r10), %r8d
.L525:
	orl	%r8d, %eax
	sall	$8, %eax
	cmpl	%ebx, %r9d
	jle	.L529
	leal	1(%rbx), %edx
	movslq	%ebx, %rbx
	movl	%edx, 8(%rcx)
	movzbl	(%r11,%rbx), %edx
	orl	%edx, %eax
	jmp	.L530
.L536:
	addq	$32, %rsp
	popq	%rbx
	jmp	_ZL14stbtt__buf_getP10stbtt__bufi.constprop.77
	.p2align 4,,7
.L528:
	xorl	%eax, %eax
	xorl	%r8d, %r8d
	jmp	.L521
	.p2align 4,,7
.L523:
	sall	$16, %eax
	xorl	%edx, %edx
	orl	%edx, %eax
	jmp	.L530
.L529:
	xorl	%edx, %edx
	orl	%edx, %eax
	jmp	.L530
.L522:
	sall	$16, %eax
	xorl	%r8d, %r8d
	jmp	.L525
	.seh_endproc
	.p2align 4,,15
	.def	_ZL21stbtt__csctx_rline_toP12stbtt__csctxff;	.scl	3;	.type	32;	.endef
	.seh_proc	_ZL21stbtt__csctx_rline_toP12stbtt__csctxff
_ZL21stbtt__csctx_rline_toP12stbtt__csctxff:
.LFB334:
	.seh_endprologue
	movl	(%rcx), %eax
	addss	16(%rcx), %xmm1
	addss	20(%rcx), %xmm2
	testl	%eax, %eax
	movss	%xmm1, 16(%rcx)
	movss	%xmm2, 20(%rcx)
	cvttss2si	%xmm2, %r8d
	cvttss2si	%xmm1, %edx
	jne	.L552
	movslq	48(%rcx), %rax
	leaq	(%rax,%rax), %r9
	salq	$4, %rax
	subq	%r9, %rax
	addq	40(%rcx), %rax
	movb	$2, 12(%rax)
	movw	%dx, (%rax)
	movw	%r8w, 2(%rax)
	movw	$0, 4(%rax)
	movw	$0, 6(%rax)
	movslq	48(%rcx), %rax
	leaq	(%rax,%rax), %r8
	movq	%rax, %rdx
	salq	$4, %rax
	incl	%edx
	subq	%r8, %rax
	addq	40(%rcx), %rax
	movw	$0, 8(%rax)
	movw	$0, 10(%rax)
	movl	%edx, 48(%rcx)
	ret
	.p2align 4,,7
.L552:
	cmpl	28(%rcx), %edx
	jle	.L553
.L539:
	movl	%edx, 28(%rcx)
.L540:
	cmpl	36(%rcx), %r8d
	jg	.L541
	movl	4(%rcx), %r10d
	testl	%r10d, %r10d
	je	.L541
	cmpl	24(%rcx), %edx
	jge	.L545
.L543:
	cmpl	32(%rcx), %r8d
	movl	%edx, 24(%rcx)
	jl	.L548
	movl	4(%rcx), %eax
	testl	%eax, %eax
	jne	.L547
.L548:
	movl	%r8d, 32(%rcx)
.L547:
	movl	48(%rcx), %edx
	movl	$1, 4(%rcx)
	incl	%edx
	movl	%edx, 48(%rcx)
	ret
	.p2align 4,,7
.L541:
	cmpl	24(%rcx), %edx
	movl	%r8d, 36(%rcx)
	jl	.L543
	movl	4(%rcx), %r9d
	testl	%r9d, %r9d
	jne	.L545
	movl	%edx, 24(%rcx)
	jmp	.L548
	.p2align 4,,7
.L553:
	movl	4(%rcx), %r11d
	testl	%r11d, %r11d
	jne	.L540
	jmp	.L539
	.p2align 4,,7
.L545:
	cmpl	32(%rcx), %r8d
	jl	.L548
	.p2align 4,,7
	jmp	.L547
	.seh_endproc
	.p2align 4,,15
	.def	_ZL23stbtt__csctx_rccurve_toP12stbtt__csctxffffff;	.scl	3;	.type	32;	.endef
	.seh_proc	_ZL23stbtt__csctx_rccurve_toP12stbtt__csctxffffff
_ZL23stbtt__csctx_rccurve_toP12stbtt__csctxffffff:
.LFB335:
	pushq	%rdi
	.seh_pushreg	%rdi
	pushq	%rsi
	.seh_pushreg	%rsi
	pushq	%rbx
	.seh_pushreg	%rbx
	.seh_endprologue
	movl	(%rcx), %edi
	addss	16(%rcx), %xmm1
	movss	64(%rsp), %xmm5
	addss	20(%rcx), %xmm2
	movss	72(%rsp), %xmm0
	movss	80(%rsp), %xmm4
	testl	%edi, %edi
	addss	%xmm1, %xmm3
	cvttss2si	%xmm1, %r8d
	addss	%xmm2, %xmm5
	cvttss2si	%xmm2, %edx
	addss	%xmm3, %xmm0
	cvttss2si	%xmm3, %r11d
	addss	%xmm5, %xmm4
	cvttss2si	%xmm5, %r10d
	movss	%xmm0, 16(%rcx)
	movss	%xmm4, 20(%rcx)
	cvttss2si	%xmm4, %ebx
	cvttss2si	%xmm0, %r9d
	jne	.L580
	movslq	48(%rcx), %rax
	leaq	(%rax,%rax), %rsi
	salq	$4, %rax
	subq	%rsi, %rax
	addq	40(%rcx), %rax
	movb	$4, 12(%rax)
	movw	%r8w, 4(%rax)
	movw	%dx, 6(%rax)
	movw	%r9w, (%rax)
	movw	%bx, 2(%rax)
	movslq	48(%rcx), %rax
	leaq	(%rax,%rax), %r8
	movq	%rax, %rdx
	salq	$4, %rax
	incl	%edx
	subq	%r8, %rax
	addq	40(%rcx), %rax
	movw	%r11w, 8(%rax)
	movw	%r10w, 10(%rax)
	movl	%edx, 48(%rcx)
	popq	%rbx
	popq	%rsi
	popq	%rdi
	ret
	.p2align 4,,7
.L580:
	movl	28(%rcx), %eax
	cmpl	%eax, %r9d
	jle	.L581
.L556:
	movl	%r9d, 28(%rcx)
	movl	%r9d, %eax
.L557:
	movl	36(%rcx), %esi
	cmpl	%esi, %ebx
	jg	.L558
	movl	4(%rcx), %edi
	testl	%edi, %edi
	je	.L558
	movl	24(%rcx), %edi
	cmpl	%edi, %r9d
	jl	.L560
.L562:
	movl	32(%rcx), %r9d
	cmpl	%r9d, %ebx
	jge	.L582
	movl	%edi, %r9d
	jmp	.L563
	.p2align 4,,7
.L558:
	movl	24(%rcx), %edi
	movl	%ebx, 36(%rcx)
	cmpl	%edi, %r9d
	jge	.L583
	movl	%ebx, %esi
.L560:
	movl	32(%rcx), %edi
	movl	%r9d, 24(%rcx)
	cmpl	%edi, %ebx
	jl	.L563
	cmpl	$0, 4(%rcx)
	jne	.L584
.L563:
	movl	%ebx, 32(%rcx)
.L564:
	cmpl	%eax, %r8d
	movl	$1, 4(%rcx)
	jle	.L565
	movl	%r8d, 28(%rcx)
	movl	%r8d, %eax
.L565:
	cmpl	%esi, %edx
	jle	.L566
	movl	%edx, 36(%rcx)
	movl	%edx, %esi
.L566:
	cmpl	%r9d, %r8d
	jge	.L567
	movl	%r8d, 24(%rcx)
	movl	%r8d, %r9d
.L567:
	cmpl	%ebx, %edx
	jge	.L568
	movl	%edx, 32(%rcx)
	movl	%edx, %ebx
.L568:
	cmpl	%eax, %r11d
	jle	.L569
	movl	%r11d, 28(%rcx)
.L569:
	cmpl	%esi, %r10d
	jle	.L570
	movl	%r10d, 36(%rcx)
.L570:
	cmpl	%r9d, %r11d
	jge	.L571
	movl	%r11d, 24(%rcx)
.L571:
	cmpl	%ebx, %r10d
	jge	.L578
	movl	%r10d, 32(%rcx)
.L578:
	movl	48(%rcx), %edx
	incl	%edx
	movl	%edx, 48(%rcx)
	popq	%rbx
	popq	%rsi
	popq	%rdi
	ret
	.p2align 4,,7
.L581:
	movl	4(%rcx), %esi
	testl	%esi, %esi
	jne	.L557
	jmp	.L556
	.p2align 4,,7
.L583:
	movl	4(%rcx), %esi
	testl	%esi, %esi
	jne	.L585
	movl	%r9d, 24(%rcx)
	movl	%ebx, %esi
	jmp	.L563
	.p2align 4,,7
.L582:
	movl	%r9d, %ebx
	movl	%edi, %r9d
	jmp	.L564
	.p2align 4,,7
.L585:
	movl	%ebx, %esi
	jmp	.L562
	.p2align 4,,7
.L584:
	movl	%edi, %ebx
	jmp	.L564
	.seh_endproc
	.section .rdata,"dr"
.LC25:
	.ascii "i >= 0 && i < count\0"
.LC26:
	.ascii "offsize >= 1 && offsize <= 4\0"
.LC27:
	.ascii "n >= 1 && n <= 4\0"
	.text
	.p2align 4,,15
	.def	_ZL20stbtt__cff_index_get10stbtt__bufi;	.scl	3;	.type	32;	.endef
	.seh_proc	_ZL20stbtt__cff_index_get10stbtt__bufi
_ZL20stbtt__cff_index_get10stbtt__bufi:
.LFB310:
	pushq	%r15
	.seh_pushreg	%r15
	pushq	%r14
	.seh_pushreg	%r14
	pushq	%r13
	.seh_pushreg	%r13
	pushq	%r12
	.seh_pushreg	%r12
	pushq	%rbp
	.seh_pushreg	%rbp
	pushq	%rdi
	.seh_pushreg	%rdi
	pushq	%rsi
	.seh_pushreg	%rsi
	pushq	%rbx
	.seh_pushreg	%rbx
	subq	$56, %rsp
	.seh_stackalloc	56
	.seh_endprologue
	movslq	12(%rdx), %r13
	movq	(%rdx), %r12
	movq	%rcx, %r15
	movl	%r8d, %ebx
	cmpl	$0, %r13d
	movl	%r13d, %r14d
	jl	.L630
	jle	.L612
	movzbl	(%r12), %edx
	sall	$8, %edx
	cmpl	$1, %r13d
	jle	.L613
	movzbl	1(%r12), %ecx
	movl	$2, %esi
.L589:
	orl	%ecx, %edx
	cmpl	%esi, %r13d
	jle	.L590
	movzbl	(%r12,%rsi), %edi
	leal	1(%rsi), %ecx
	movl	%ebx, %esi
	subl	$0, %esi
	movl	%edi, %eax
	js	.L591
	cmpl	%ebx, %edx
	jle	.L591
	incl	%edx
	leal	-1(%rdi), %ebp
	imull	%edi, %edx
	imull	%edi, %ebx
	leal	2(%rdx), %eax
	movl	%eax, 40(%rsp)
.L592:
	cmpl	$3, %ebp
	ja	.L631
	addl	%ecx, %ebx
	cmpl	%r13d, %ebx
	jg	.L594
.L635:
	movl	%ebx, %eax
	subl	$0, %eax
	js	.L594
.L596:
	testl	%ebx, %ebx
	cmovs	%r13d, %ebx
	cmpl	$3, %ebp
	ja	.L632
.L597:
	testl	%edi, %edi
	je	.L633
.L611:
	xorl	%esi, %esi
	xorl	%edx, %edx
	.p2align 4,,7
.L601:
	sall	$8, %esi
	xorl	%ecx, %ecx
	cmpl	%ebx, %r14d
	jle	.L599
	movslq	%ebx, %rcx
	incl	%ebx
	movzbl	(%r12,%rcx), %ecx
.L599:
	incl	%edx
	orl	%ecx, %esi
	cmpl	%edi, %edx
	jne	.L601
	cmpl	$3, %ebp
	movl	%esi, %r9d
	ja	.L634
.L608:
	xorl	%edx, %edx
	xorl	%ecx, %ecx
	.p2align 4,,7
.L603:
	sall	$8, %edx
	xorl	%r8d, %r8d
	cmpl	%ebx, %r14d
	jle	.L602
	movslq	%ebx, %r8
	incl	%ebx
	movzbl	(%r12,%r8), %r8d
.L602:
	incl	%ecx
	orl	%r8d, %edx
	cmpl	%edi, %ecx
	jl	.L603
	subl	%esi, %edx
	movl	%edx, %eax
	shrl	$31, %eax
.L610:
	movl	40(%rsp), %ebp
	movq	$0, (%r15)
	movl	$0, 12(%r15)
	movl	$0, 8(%r15)
	addl	%r9d, %ebp
	movl	%ebp, %ecx
	shrl	$31, %ecx
	orb	%cl, %al
	jne	.L586
	cmpl	%r13d, %ebp
	jg	.L586
	subl	%ebp, %r13d
	cmpl	%edx, %r13d
	jl	.L586
	movslq	%ebp, %rbp
	movl	%edx, 12(%r15)
	addq	%rbp, %r12
	movq	%r12, (%r15)
.L586:
	movq	%r15, %rax
	addq	$56, %rsp
	popq	%rbx
	popq	%rsi
	popq	%rdi
	popq	%rbp
	popq	%r12
	popq	%r13
	popq	%r14
	popq	%r15
	ret
	.p2align 4,,7
.L630:
	leaq	.LC2(%rip), %rdx
	leaq	.LC3(%rip), %rcx
	movl	$1000, %r8d
	movl	%r13d, %esi
	call	_assert
	xorl	%edx, %edx
.L590:
	movl	%ebx, %eax
	movl	$2, 40(%rsp)
	subl	$0, %eax
	js	.L618
	cmpl	%edx, %ebx
	jge	.L618
	xorl	%ebx, %ebx
	movl	$-1, %ebp
	xorl	%edi, %edi
.L605:
	leaq	.LC26(%rip), %rcx
	leaq	.LC2(%rip), %rdx
	movl	$1118, %r8d
	call	_assert
	movl	%esi, %ecx
	addl	%ecx, %ebx
	cmpl	%r13d, %ebx
	jle	.L635
	.p2align 4,,7
.L594:
	leaq	.LC2(%rip), %rdx
	leaq	.LC3(%rip), %rcx
	movl	$1000, %r8d
	call	_assert
	cmpl	%ebx, %r13d
	jge	.L596
	cmpl	$3, %ebp
	movl	%r13d, %ebx
	jbe	.L597
.L632:
	leaq	.LC2(%rip), %rdx
	leaq	.LC27(%rip), %rcx
	movl	$1013, %r8d
	call	_assert
	testl	%edi, %edi
	jne	.L611
	leaq	.LC2(%rip), %rdx
	leaq	.LC27(%rip), %rcx
	movl	$1013, %r8d
	call	_assert
	xorl	%eax, %eax
	xorl	%edx, %edx
	xorl	%r9d, %r9d
	jmp	.L610
	.p2align 4,,7
.L618:
	xorl	%ebx, %ebx
	movl	$-1, %ebp
	xorl	%edi, %edi
.L607:
	leaq	.LC25(%rip), %rcx
	leaq	.LC2(%rip), %rdx
	movl	$1117, %r8d
	call	_assert
	movl	%esi, %ecx
	jmp	.L592
	.p2align 4,,7
.L612:
	xorl	%edx, %edx
	xorl	%ecx, %ecx
	xorl	%esi, %esi
	jmp	.L589
	.p2align 4,,7
.L634:
	leaq	.LC2(%rip), %rdx
	leaq	.LC27(%rip), %rcx
	movl	$1013, %r8d
	movl	%esi, 44(%rsp)
	call	_assert
	movl	44(%rsp), %r9d
	jmp	.L608
.L591:
	incl	%edx
	leal	-1(%rax), %ebp
	movl	%ecx, %esi
	imull	%eax, %edx
	imull	%eax, %ebx
	leal	2(%rdx), %eax
	movl	%eax, 40(%rsp)
	jmp	.L607
.L613:
	movl	$1, %esi
	jmp	.L590
.L631:
	movl	%ecx, %esi
	jmp	.L605
.L633:
	xorl	%eax, %eax
	xorl	%edx, %edx
	xorl	%r9d, %r9d
	jmp	.L610
	.seh_endproc
	.p2align 4,,15
	.def	_ZL21stbtt__csctx_rmove_toP12stbtt__csctxff;	.scl	3;	.type	32;	.endef
	.seh_proc	_ZL21stbtt__csctx_rmove_toP12stbtt__csctxff
_ZL21stbtt__csctx_rmove_toP12stbtt__csctxff:
.LFB333:
	.seh_endprologue
	movss	8(%rcx), %xmm4
	movss	16(%rcx), %xmm0
	ucomiss	%xmm0, %xmm4
	movss	12(%rcx), %xmm5
	jp	.L639
	jne	.L639
	movss	20(%rcx), %xmm3
	ucomiss	%xmm3, %xmm5
	jp	.L639
	.p2align 4,,3
	je	.L670
.L639:
	movl	(%rcx), %r9d
	cvttss2si	%xmm5, %r8d
	cvttss2si	%xmm4, %edx
	testl	%r9d, %r9d
	jne	.L671
	movslq	48(%rcx), %rax
	leaq	(%rax,%rax), %r9
	salq	$4, %rax
	subq	%r9, %rax
	addq	40(%rcx), %rax
	movb	$2, 12(%rax)
	movw	%dx, (%rax)
	movslq	48(%rcx), %rdx
	movw	%r8w, 2(%rax)
	movw	$0, 4(%rax)
	movw	$0, 6(%rax)
	movl	(%rcx), %r9d
	movss	16(%rcx), %xmm0
	leaq	(%rdx,%rdx), %r8
	movq	%rdx, %rax
	salq	$4, %rdx
	subq	%r8, %rdx
	addq	40(%rcx), %rdx
	movw	$0, 8(%rdx)
	movw	$0, 10(%rdx)
.L652:
	incl	%eax
	movss	20(%rcx), %xmm3
	movl	%eax, 48(%rcx)
.L640:
	addss	%xmm0, %xmm1
	testl	%r9d, %r9d
	addss	%xmm3, %xmm2
	movss	%xmm1, 16(%rcx)
	movss	%xmm1, 8(%rcx)
	movss	%xmm2, 20(%rcx)
	movss	%xmm2, 12(%rcx)
	cvttss2si	%xmm2, %r8d
	cvttss2si	%xmm1, %edx
	jne	.L672
	cltq
	leaq	(%rax,%rax), %r9
	salq	$4, %rax
	subq	%r9, %rax
	addq	40(%rcx), %rax
	movb	$1, 12(%rax)
	movw	%dx, (%rax)
	movslq	48(%rcx), %rdx
	movw	%r8w, 2(%rax)
	movw	$0, 4(%rax)
	movw	$0, 6(%rax)
	leaq	(%rdx,%rdx), %r8
	movq	%rdx, %rax
	salq	$4, %rdx
	incl	%eax
	subq	%r8, %rdx
	addq	40(%rcx), %rdx
	movw	$0, 8(%rdx)
	movw	$0, 10(%rdx)
	movl	%eax, 48(%rcx)
	ret
	.p2align 4,,7
.L670:
	movl	48(%rcx), %eax
	movl	(%rcx), %r9d
	jmp	.L640
	.p2align 4,,7
.L672:
	cmpl	28(%rcx), %edx
	jle	.L673
.L654:
	movl	%edx, 28(%rcx)
.L655:
	cmpl	36(%rcx), %r8d
	jg	.L656
	movl	4(%rcx), %r10d
	testl	%r10d, %r10d
	je	.L656
	cmpl	24(%rcx), %edx
	jge	.L660
.L658:
	cmpl	32(%rcx), %r8d
	movl	%edx, 24(%rcx)
	jl	.L663
	movl	4(%rcx), %edx
	testl	%edx, %edx
	jne	.L662
.L663:
	movl	%r8d, 32(%rcx)
.L662:
	incl	%eax
	movl	$1, 4(%rcx)
	movl	%eax, 48(%rcx)
	ret
	.p2align 4,,7
.L656:
	cmpl	24(%rcx), %edx
	movl	%r8d, 36(%rcx)
	jl	.L658
	movl	4(%rcx), %r9d
	testl	%r9d, %r9d
	jne	.L660
	movl	%edx, 24(%rcx)
	jmp	.L663
	.p2align 4,,7
.L671:
	cmpl	28(%rcx), %edx
	jle	.L674
.L642:
	movl	%edx, 28(%rcx)
.L643:
	cmpl	36(%rcx), %r8d
	jg	.L644
	movl	4(%rcx), %eax
	testl	%eax, %eax
	je	.L644
	cmpl	24(%rcx), %edx
	jge	.L648
.L646:
	cmpl	32(%rcx), %r8d
	movl	%edx, 24(%rcx)
	jl	.L651
	movl	4(%rcx), %eax
	testl	%eax, %eax
	jne	.L650
.L651:
	movl	%r8d, 32(%rcx)
.L650:
	movl	$1, 4(%rcx)
	movl	48(%rcx), %eax
	jmp	.L652
	.p2align 4,,7
.L673:
	movl	4(%rcx), %r11d
	testl	%r11d, %r11d
	jne	.L655
	jmp	.L654
	.p2align 4,,7
.L674:
	movl	4(%rcx), %eax
	testl	%eax, %eax
	jne	.L643
	.p2align 4,,6
	jmp	.L642
	.p2align 4,,7
.L660:
	cmpl	32(%rcx), %r8d
	jl	.L663
	.p2align 4,,7
	jmp	.L662
	.p2align 4,,7
.L648:
	cmpl	32(%rcx), %r8d
	.p2align 4,,3
	jl	.L651
	.p2align 4,,7
	jmp	.L650
	.p2align 4,,7
.L644:
	cmpl	24(%rcx), %edx
	movl	%r8d, 36(%rcx)
	jl	.L646
	movl	4(%rcx), %eax
	testl	%eax, %eax
	jne	.L648
	movl	%edx, 24(%rcx)
	jmp	.L651
	.seh_endproc
	.p2align 4,,15
	.def	_ZL20stbtt__cff_get_indexP10stbtt__buf;	.scl	3;	.type	32;	.endef
	.seh_proc	_ZL20stbtt__cff_get_indexP10stbtt__buf
_ZL20stbtt__cff_get_indexP10stbtt__buf:
.LFB304:
	pushq	%r13
	.seh_pushreg	%r13
	pushq	%r12
	.seh_pushreg	%r12
	pushq	%rbp
	.seh_pushreg	%rbp
	pushq	%rdi
	.seh_pushreg	%rdi
	pushq	%rsi
	.seh_pushreg	%rsi
	pushq	%rbx
	.seh_pushreg	%rbx
	subq	$40, %rsp
	.seh_stackalloc	40
	.seh_endprologue
	movslq	8(%rdx), %rbp
	movl	12(%rdx), %eax
	movq	%rcx, %r12
	movq	%rdx, %rdi
	cmpl	%eax, %ebp
	movl	%ebp, %esi
	jge	.L676
	movq	(%rdx), %rcx
	leal	1(%rbp), %edx
	movslq	%ebp, %r8
	movl	%edx, 8(%rdi)
	movzbl	(%rcx,%r8), %ebx
	sall	$8, %ebx
	cmpl	%edx, %eax
	jle	.L677
	leal	2(%rbp), %esi
	movslq	%edx, %rdx
	movl	%esi, 8(%rdi)
	movzbl	(%rcx,%rdx), %edx
	orl	%edx, %ebx
	je	.L676
	cmpl	%eax, %esi
	jge	.L699
	leal	3(%rbp), %edx
	movslq	%esi, %rsi
	movl	%edx, 8(%rdi)
	movzbl	(%rcx,%rsi), %r13d
	leal	-1(%r13), %esi
	imull	%r13d, %ebx
	cmpl	$3, %esi
	ja	.L678
.L680:
	addl	%edx, %ebx
	js	.L700
	cmpl	%eax, %ebx
	jg	.L700
.L681:
	movl	%ebx, %edx
	shrl	$31, %edx
	.p2align 4,,2
	jne	.L701
	cmpl	%eax, %ebx
	.p2align 4,,2
	jg	.L701
.L683:
	cmpl	$3, %esi
	movl	%ebx, 8(%rdi)
	ja	.L710
.L685:
	testl	%r13d, %r13d
	movl	$-1, %esi
	je	.L686
	xorl	%esi, %esi
	xorl	%edx, %edx
	.p2align 4,,7
.L688:
	sall	$8, %esi
	xorl	%ecx, %ecx
	cmpl	%ebx, %eax
	jle	.L687
	movq	(%rdi), %rcx
	leal	1(%rbx), %r8d
	movslq	%ebx, %rbx
	movl	%r8d, 8(%rdi)
	movzbl	(%rcx,%rbx), %ecx
	movl	%r8d, %ebx
.L687:
	incl	%edx
	orl	%ecx, %esi
	cmpl	%r13d, %edx
	jne	.L688
	decl	%esi
.L686:
	addl	%ebx, %esi
	js	.L702
	cmpl	%eax, %esi
	jg	.L702
.L689:
	cmpl	%eax, %esi
	.p2align 4,,3
	jg	.L703
	movl	%esi, %ecx
	shrl	$31, %ecx
	.p2align 4,,2
	jne	.L703
.L691:
	movl	%esi, 8(%rdi)
.L676:
	movl	%esi, %ebx
	movl	%ebp, %edx
	movq	$0, (%r12)
	subl	%ebp, %ebx
	shrl	$31, %edx
	movl	$0, 12(%r12)
	movl	$0, 8(%r12)
	jne	.L675
	movl	%ebx, %edx
	shrl	$31, %edx
	jne	.L675
	cmpl	%eax, %ebp
	jg	.L675
	subl	%ebp, %eax
	cmpl	%eax, %ebx
	jg	.L675
	addq	(%rdi), %rbp
	movl	%ebx, 12(%r12)
	movq	%rbp, (%r12)
.L675:
	movq	%r12, %rax
	addq	$40, %rsp
	popq	%rbx
	popq	%rsi
	popq	%rdi
	popq	%rbp
	popq	%r12
	popq	%r13
	ret
.L677:
	testl	%ebx, %ebx
	movl	%edx, %esi
	je	.L676
	.p2align 4,,7
.L699:
	xorl	%ebx, %ebx
	movl	$-1, %esi
	xorl	%r13d, %r13d
.L678:
	leaq	.LC2(%rip), %rdx
	leaq	.LC26(%rip), %rcx
	movl	$1048, %r8d
	call	_assert
	movl	12(%rdi), %eax
	movl	8(%rdi), %edx
	jmp	.L680
	.p2align 4,,7
.L700:
	leaq	.LC2(%rip), %rdx
	leaq	.LC3(%rip), %rcx
	movl	$1000, %r8d
	call	_assert
	movl	12(%rdi), %eax
	jmp	.L681
	.p2align 4,,7
.L702:
	leaq	.LC2(%rip), %rdx
	leaq	.LC3(%rip), %rcx
	movl	$1000, %r8d
	call	_assert
	movl	12(%rdi), %eax
	jmp	.L689
	.p2align 4,,7
.L710:
	leaq	.LC2(%rip), %rdx
	leaq	.LC27(%rip), %rcx
	movl	$1013, %r8d
	call	_assert
	movl	12(%rdi), %eax
	movl	8(%rdi), %ebx
	jmp	.L685
	.p2align 4,,7
.L703:
	movl	%eax, %esi
	jmp	.L691
	.p2align 4,,7
.L701:
	movl	%eax, %ebx
	jmp	.L683
	.seh_endproc
	.p2align 4,,15
	.def	_ZL16stbtt__get_subrs10stbtt__bufS_;	.scl	3;	.type	32;	.endef
	.seh_proc	_ZL16stbtt__get_subrs10stbtt__bufS_
_ZL16stbtt__get_subrs10stbtt__bufS_:
.LFB319:
	pushq	%rbp
	.seh_pushreg	%rbp
	pushq	%rdi
	.seh_pushreg	%rdi
	pushq	%rsi
	.seh_pushreg	%rsi
	pushq	%rbx
	.seh_pushreg	%rbx
	subq	$136, %rsp
	.seh_stackalloc	136
	.seh_endprologue
	movq	(%rdx), %rax
	movq	8(%rdx), %rdx
	movq	%rcx, %rsi
	leaq	32(%rsp), %rcx
	movl	$0, 80(%rsp)
	movl	$0, 84(%rsp)
	movq	%rdx, 72(%rsp)
	movq	8(%r8), %rdx
	movq	%rax, 64(%rsp)
	movq	(%r8), %rax
	movl	$18, %r8d
	movq	%rdx, 56(%rsp)
	leaq	48(%rsp), %rdx
	movq	%rax, 48(%rsp)
	call	_ZL15stbtt__dict_getP10stbtt__bufi
	movq	40(%rsp), %rax
	movq	32(%rsp), %rbp
	movq	%rax, %rdi
	sarq	$32, %rdi
	cmpl	%eax, %edi
	jle	.L712
	movslq	%eax, %rdx
	leal	1(%rax), %ebx
	movzbl	0(%rbp,%rdx), %edx
	leal	-32(%rdx), %r8d
	leal	-139(%rdx), %ecx
	cmpl	$214, %r8d
	ja	.L778
.L718:
	cmpl	%edi, %ebx
	movl	%ecx, 80(%rsp)
	jge	.L712
	movslq	%ebx, %rax
	leal	1(%rbx), %edx
	movzbl	0(%rbp,%rax), %eax
	leal	-32(%rax), %ecx
	cmpl	$214, %ecx
	ja	.L733
	subl	$139, %eax
.L734:
	movl	%eax, 84(%rsp)
.L712:
	movl	84(%rsp), %ebx
	testl	%ebx, %ebx
	je	.L745
	movl	80(%rsp), %eax
	testl	%eax, %eax
	je	.L745
	movl	%ebx, %edi
	shrl	$31, %edi
	jne	.L760
	movl	%eax, %edi
	shrl	$31, %edi
	jne	.L760
	movl	76(%rsp), %edx
	cmpl	%edx, %ebx
	jg	.L760
	subl	%ebx, %edx
	cmpl	%edx, %eax
	jle	.L779
	.p2align 4,,7
.L760:
	xorl	%eax, %eax
	xorl	%edx, %edx
.L748:
	leaq	112(%rsp), %rdi
	movq	%rdx, 96(%rsp)
	leaq	96(%rsp), %rdx
	movl	$19, %r8d
	movl	%eax, 108(%rsp)
	movl	$0, 104(%rsp)
	movq	%rdi, %rcx
	call	_ZL15stbtt__dict_getP10stbtt__bufi
	movl	120(%rsp), %eax
	cmpl	%eax, 124(%rsp)
	jle	.L745
	movq	%rdi, %rcx
	call	_ZL14stbtt__cff_intP10stbtt__buf
	testl	%eax, %eax
	jne	.L780
.L745:
	movq	%rsi, %rax
	movq	$0, (%rsi)
	movl	$0, 12(%rsi)
	movl	$0, 8(%rsi)
	addq	$136, %rsp
	popq	%rbx
	popq	%rsi
	popq	%rdi
	popq	%rbp
	ret
	.p2align 4,,7
.L778:
	leal	-247(%rdx), %ecx
	cmpl	$3, %ecx
	ja	.L781
	sall	$8, %ecx
	cmpl	%edi, %ebx
	jge	.L782
	movslq	%ebx, %rbx
	movzbl	0(%rbp,%rbx), %edx
	leal	2(%rax), %ebx
.L729:
	leal	108(%rcx,%rdx), %ecx
	jmp	.L718
	.p2align 4,,7
.L733:
	leal	-247(%rax), %ecx
	cmpl	$3, %ecx
	ja	.L735
	sall	$8, %ecx
	xorl	%eax, %eax
	cmpl	%edi, %edx
	jge	.L736
	movslq	%edx, %rdx
	movzbl	0(%rbp,%rdx), %eax
.L736:
	leal	108(%rcx,%rax), %eax
	jmp	.L734
	.p2align 4,,7
.L781:
	leal	-251(%rdx), %ecx
	cmpl	$3, %ecx
	ja	.L783
	movl	$251, %ecx
	subl	%edx, %ecx
	sall	$8, %ecx
	cmpl	%edi, %ebx
	jge	.L784
	movslq	%ebx, %rbx
	movzbl	0(%rbp,%rbx), %edx
	leal	2(%rax), %ebx
.L727:
	subl	%edx, %ecx
	subl	$108, %ecx
	jmp	.L718
	.p2align 4,,7
.L735:
	leal	-251(%rax), %ecx
	cmpl	$3, %ecx
	ja	.L737
	movl	$251, %ecx
	subl	%eax, %ecx
	movl	%ecx, %eax
	xorl	%ecx, %ecx
	sall	$8, %eax
	cmpl	%edi, %edx
	jge	.L738
	movslq	%edx, %rdx
	movzbl	0(%rbp,%rdx), %ecx
.L738:
	subl	%ecx, %eax
	subl	$108, %eax
	jmp	.L734
	.p2align 4,,7
.L783:
	cmpl	$28, %edx
	je	.L716
	cmpl	$29, %edx
	je	.L717
	leaq	.LC7(%rip), %rcx
	leaq	.LC2(%rip), %rdx
	movl	$1063, %r8d
	call	_assert
	xorl	%ecx, %ecx
	jmp	.L718
	.p2align 4,,7
.L780:
	leal	(%rbx,%rax), %edx
	leaq	64(%rsp), %rbx
	movq	%rbx, %rcx
	call	_ZL15stbtt__buf_seekP10stbtt__bufi
	movq	%rbx, %rdx
	movq	%rsi, %rcx
	call	_ZL20stbtt__cff_get_indexP10stbtt__buf
	movq	%rsi, %rax
	addq	$136, %rsp
	popq	%rbx
	popq	%rsi
	popq	%rdi
	popq	%rbp
	ret
	.p2align 4,,7
.L737:
	cmpl	$28, %eax
	je	.L785
	cmpl	$29, %eax
	je	.L786
	leaq	.LC2(%rip), %rdx
	leaq	.LC7(%rip), %rcx
	movl	$1063, %r8d
	call	_assert
	xorl	%eax, %eax
	jmp	.L734
	.p2align 4,,7
.L782:
	xorl	%edx, %edx
	jmp	.L729
	.p2align 4,,7
.L784:
	xorl	%edx, %edx
	.p2align 4,,5
	jmp	.L727
	.p2align 4,,7
.L779:
	movslq	%ebx, %rdx
	addq	64(%rsp), %rdx
	jmp	.L748
	.p2align 4,,7
.L717:
	cmpl	%edi, %ebx
	jl	.L787
	xorl	%edx, %edx
.L719:
	sall	$8, %edx
	xorl	%ecx, %ecx
	orl	%edx, %ecx
	jmp	.L718
	.p2align 4,,7
.L786:
	cmpl	%edi, %edx
	jge	.L756
	movslq	%edx, %rdx
	leal	2(%rbx), %r8d
	movzbl	0(%rbp,%rdx), %eax
	movl	%eax, %edx
	sall	$8, %edx
	cmpl	%r8d, %edi
	jle	.L743
	movslq	%r8d, %r8
	leal	3(%rbx), %ecx
	movzbl	0(%rbp,%r8), %eax
	orl	%edx, %eax
	sall	$8, %eax
	cmpl	%ecx, %edi
	jle	.L742
	movslq	%ecx, %rcx
	addl	$4, %ebx
	movzbl	0(%rbp,%rcx), %edx
	orl	%edx, %eax
	sall	$8, %eax
	cmpl	%ebx, %edi
	movl	%eax, %edx
	jle	.L757
	movslq	%ebx, %rbx
	movzbl	0(%rbp,%rbx), %eax
	orl	%edx, %eax
	jmp	.L734
	.p2align 4,,7
.L787:
	movslq	%ebx, %rbx
	leal	2(%rax), %r8d
	movzbl	0(%rbp,%rbx), %edx
	movl	%edx, %ecx
	sall	$8, %ecx
	cmpl	%edi, %r8d
	jge	.L788
	movslq	%r8d, %r8
	leal	3(%rax), %ebx
	movzbl	0(%rbp,%r8), %edx
	orl	%ecx, %edx
	sall	$8, %edx
	cmpl	%edi, %ebx
	jge	.L719
	movslq	%ebx, %rbx
	leal	4(%rax), %ecx
	movzbl	0(%rbp,%rbx), %r8d
	orl	%r8d, %edx
	sall	$8, %edx
	cmpl	%edi, %ecx
	jge	.L789
	movslq	%ecx, %rcx
	leal	5(%rax), %ebx
	movzbl	0(%rbp,%rcx), %ecx
	orl	%edx, %ecx
	jmp	.L718
	.p2align 4,,7
.L716:
	cmpl	%edi, %ebx
	jge	.L752
	movslq	%ebx, %rbx
	leal	2(%rax), %ecx
	movzbl	0(%rbp,%rbx), %edx
	sall	$8, %edx
	cmpl	%edi, %ecx
	jge	.L725
	movslq	%ecx, %rcx
	leal	3(%rax), %ebx
	movzbl	0(%rbp,%rcx), %ecx
	orl	%edx, %ecx
	jmp	.L718
	.p2align 4,,7
.L756:
	xorl	%eax, %eax
.L742:
	sall	$8, %eax
	movl	%eax, %edx
	xorl	%eax, %eax
	orl	%edx, %eax
	jmp	.L734
	.p2align 4,,7
.L785:
	xorl	%eax, %eax
	cmpl	%edi, %edx
	jge	.L734
	movslq	%edx, %rdx
	addl	$2, %ebx
	movzbl	0(%rbp,%rdx), %eax
	sall	$8, %eax
	cmpl	%edi, %ebx
	jge	.L734
	movslq	%ebx, %rbx
	movzbl	0(%rbp,%rbx), %edx
	orl	%edx, %eax
	jmp	.L734
.L752:
	xorl	%edx, %edx
.L725:
	movl	%edx, 80(%rsp)
	jmp	.L712
.L789:
	movl	%ecx, %ebx
	xorl	%ecx, %ecx
	orl	%edx, %ecx
	jmp	.L718
.L788:
	sall	$24, %edx
	xorl	%ecx, %ecx
	movl	%r8d, %ebx
	orl	%edx, %ecx
	jmp	.L718
.L757:
	xorl	%eax, %eax
	orl	%edx, %eax
	jmp	.L734
.L743:
	sall	$24, %eax
	movl	%eax, %edx
	xorl	%eax, %eax
	orl	%edx, %eax
	jmp	.L734
	.seh_endproc
	.p2align 4,,15
	.def	_ZL21stbtt__run_charstringPK14stbtt_fontinfoiP12stbtt__csctx;	.scl	3;	.type	32;	.endef
	.seh_proc	_ZL21stbtt__run_charstringPK14stbtt_fontinfoiP12stbtt__csctx
_ZL21stbtt__run_charstringPK14stbtt_fontinfoiP12stbtt__csctx:
.LFB338:
	pushq	%r15
	.seh_pushreg	%r15
	pushq	%r14
	.seh_pushreg	%r14
	pushq	%r13
	.seh_pushreg	%r13
	pushq	%r12
	.seh_pushreg	%r12
	pushq	%rbp
	.seh_pushreg	%rbp
	pushq	%rdi
	.seh_pushreg	%rdi
	pushq	%rsi
	.seh_pushreg	%rsi
	pushq	%rbx
	.seh_pushreg	%rbx
	subq	$728, %rsp
	.seh_stackalloc	728
	movaps	%xmm6, 560(%rsp)
	.seh_savexmm	%xmm6, 560
	movaps	%xmm7, 576(%rsp)
	.seh_savexmm	%xmm7, 576
	movaps	%xmm8, 592(%rsp)
	.seh_savexmm	%xmm8, 592
	movaps	%xmm9, 608(%rsp)
	.seh_savexmm	%xmm9, 608
	movaps	%xmm10, 624(%rsp)
	.seh_savexmm	%xmm10, 624
	movaps	%xmm11, 640(%rsp)
	.seh_savexmm	%xmm11, 640
	movaps	%xmm12, 656(%rsp)
	.seh_savexmm	%xmm12, 656
	movaps	%xmm13, 672(%rsp)
	.seh_savexmm	%xmm13, 672
	movaps	%xmm14, 688(%rsp)
	.seh_savexmm	%xmm14, 688
	movaps	%xmm15, 704(%rsp)
	.seh_savexmm	%xmm15, 704
	.seh_endprologue
	xorl	%ebx, %ebx
	xorl	%esi, %esi
	movl	$1, %ebp
	movq	%rcx, %rdi
	movq	%r8, %r15
	movq	104(%rcx), %rax
	movl	%edx, 808(%rsp)
	movq	112(%rcx), %rdx
	movl	808(%rsp), %r8d
	movq	%rax, 160(%rsp)
	leaq	144(%rsp), %rax
	movq	%rdx, 168(%rsp)
	movq	80(%rdi), %rdx
	movq	%rax, %rcx
	movq	%rax, 80(%rsp)
	movq	72(%rdi), %rax
	movq	%rdx, 136(%rsp)
	movq	%rax, 128(%rsp)
	leaq	128(%rsp), %rax
	movq	%rax, %rdx
	movq	%rax, 72(%rsp)
	call	_ZL20stbtt__cff_index_get10stbtt__bufi
	movq	152(%rsp), %rdx
	movss	.LC29(%rip), %xmm6
	movq	144(%rsp), %rax
	movsd	.LC30(%rip), %xmm12
	movl	$0, 88(%rsp)
	movaps	%xmm6, %xmm13
	movaps	%xmm6, %xmm15
	movq	%rdx, 184(%rsp)
	movl	184(%rsp), %edx
	movl	188(%rsp), %r11d
	movaps	%xmm6, %xmm14
	movq	%rax, 176(%rsp)
	movl	$0, 68(%rsp)
	.p2align 4,,7
.L791:
	cmpl	%r11d, %edx
	jge	.L927
.L980:
	movq	176(%rsp), %r12
	leal	1(%rdx), %r10d
	movslq	%edx, %rax
	movl	%r10d, 184(%rsp)
	movzbl	(%r12,%rax), %r14d
	cmpb	$31, %r14b
	movl	%r14d, %ecx
	ja	.L793
	leaq	.L795(%rip), %rax
	movzbl	%r14b, %r8d
	movslq	(%rax,%r8,4), %r8
	addq	%r8, %rax
	jmp	*%rax
	.section .rdata,"dr"
	.align 4
.L795:
	.long	.L793-.L795
	.long	.L794-.L795
	.long	.L793-.L795
	.long	.L794-.L795
	.long	.L796-.L795
	.long	.L797-.L795
	.long	.L798-.L795
	.long	.L799-.L795
	.long	.L800-.L795
	.long	.L793-.L795
	.long	.L801-.L795
	.long	.L802-.L795
	.long	.L803-.L795
	.long	.L793-.L795
	.long	.L804-.L795
	.long	.L793-.L795
	.long	.L793-.L795
	.long	.L793-.L795
	.long	.L794-.L795
	.long	.L805-.L795
	.long	.L805-.L795
	.long	.L806-.L795
	.long	.L807-.L795
	.long	.L794-.L795
	.long	.L808-.L795
	.long	.L809-.L795
	.long	.L810-.L795
	.long	.L810-.L795
	.long	.L793-.L795
	.long	.L811-.L795
	.long	.L812-.L795
	.long	.L813-.L795
	.text
	.p2align 4,,7
.L801:
	movl	88(%rsp), %eax
	testl	%eax, %eax
	jne	.L811
	movl	148(%rdi), %eax
	movl	$1, 88(%rsp)
	testl	%eax, %eax
	je	.L811
	movq	136(%rdi), %rax
	movq	144(%rdi), %rdx
	movq	%rax, 192(%rsp)
	movq	%rdx, 200(%rsp)
	js	.L976
.L860:
	movl	204(%rsp), %eax
	testl	%eax, %eax
	js	.L861
	movl	$0, 200(%rsp)
	je	.L862
	movq	192(%rsp), %rax
	movl	$1, 200(%rsp)
	movzbl	(%rax), %eax
	testl	%eax, %eax
	je	.L977
	cmpl	$3, %eax
	je	.L978
.L867:
	movl	$-1, %r8d
.L865:
	movq	128(%rdi), %rdx
	movq	72(%rsp), %r12
	movq	80(%rsp), %r13
	movq	120(%rdi), %rax
	movq	%rdx, 136(%rsp)
	movq	%r12, %rdx
	movq	%r13, %rcx
	movq	%rax, 128(%rsp)
	call	_ZL20stbtt__cff_index_get10stbtt__bufi
	movq	64(%rdi), %rdx
	movq	56(%rdi), %rax
	leaq	112(%rsp), %r8
	movq	%r13, %rcx
	movq	%rdx, 136(%rsp)
	movq	152(%rsp), %rdx
	movq	%rax, 128(%rsp)
	movq	144(%rsp), %rax
	movq	%rdx, 120(%rsp)
	movq	%r12, %rdx
	movq	%rax, 112(%rsp)
	call	_ZL16stbtt__get_subrs10stbtt__bufS_
	movq	144(%rsp), %rax
	movq	152(%rsp), %rdx
	movl	$1, 88(%rsp)
	movq	%rax, 160(%rsp)
	movq	%rdx, 168(%rsp)
	.p2align 4,,7
.L811:
	testl	%ebx, %ebx
	je	.L927
	decl	%ebx
	cmpl	$9, %esi
	movslq	%ebx, %rax
	movss	368(%rsp,%rax,4), %xmm0
	cvttss2si	%xmm0, %r13d
	jg	.L927
	movq	176(%rsp), %rax
	movq	184(%rsp), %rdx
	leal	1(%rsi), %r12d
	movslq	%esi, %rsi
	salq	$4, %rsi
	cmpl	$10, %r14d
	movq	%rax, 208(%rsp,%rsi)
	movq	%rdx, 216(%rsp,%rsi)
	leaq	160(%rsp), %rax
	leaq	88(%rdi), %rdx
	cmovne	%rdx, %rax
	movl	12(%rax), %esi
	movq	(%rax), %r14
	testl	%esi, %esi
	js	.L979
	je	.L922
	movzbl	(%r14), %eax
	sall	$8, %eax
	cmpl	$1, %esi
	je	.L923
	movzbl	1(%r14), %edx
	movl	$2, %ecx
.L874:
	orl	%edx, %eax
	movl	$32768, %r8d
	cmpl	$33899, %eax
	ja	.L875
	cmpl	$1240, %eax
	sbbl	%r8d, %r8d
	andl	$-1024, %r8d
	addl	$1131, %r8d
.L875:
	addl	%r13d, %r8d
	js	.L927
	cmpl	%eax, %r8d
	jge	.L927
	salq	$32, %rsi
	movq	72(%rsp), %rdx
	movq	%r14, 128(%rsp)
	orq	%rsi, %rcx
	movq	%rcx, 136(%rsp)
	movq	80(%rsp), %rcx
	call	_ZL20stbtt__cff_index_get10stbtt__bufi
	movslq	156(%rsp), %rax
	movq	144(%rsp), %rdx
	movq	%rdx, 176(%rsp)
	testl	%eax, %eax
	movl	%eax, %r11d
	movl	%eax, 188(%rsp)
	je	.L927
	xorl	%edx, %edx
	movl	%r12d, %esi
	cmpl	%r11d, %edx
	jl	.L980
	.p2align 4,,7
.L927:
	xorl	%eax, %eax
.L969:
	movaps	560(%rsp), %xmm6
	movaps	576(%rsp), %xmm7
	movaps	592(%rsp), %xmm8
	movaps	608(%rsp), %xmm9
	movaps	624(%rsp), %xmm10
	movaps	640(%rsp), %xmm11
	movaps	656(%rsp), %xmm12
	movaps	672(%rsp), %xmm13
	movaps	688(%rsp), %xmm14
	movaps	704(%rsp), %xmm15
	addq	$728, %rsp
	popq	%rbx
	popq	%rsi
	popq	%rdi
	popq	%rbp
	popq	%r12
	popq	%r13
	popq	%r14
	popq	%r15
	ret
	.p2align 4,,7
.L813:
	cmpl	$3, %ebx
	jle	.L927
	movl	$4, %r14d
	movl	$1, %ecx
	movl	$2, %edx
	movl	$7, %eax
	movl	$3, %r13d
	xorl	%r12d, %r12d
.L834:
	movl	%ebx, %r8d
	movslq	%r13d, %r13
	subl	%r12d, %r8d
	movss	368(%rsp,%r13,4), %xmm2
	cmpl	$5, %r8d
	xorps	%xmm0, %xmm0
	je	.L981
.L837:
	movslq	%ecx, %rcx
	movslq	%r12d, %r12
	movslq	%edx, %rdx
	movss	368(%rsp,%rcx,4), %xmm3
	movq	%r15, %rcx
	movss	368(%rsp,%r12,4), %xmm1
	movl	%eax, 92(%rsp)
	movss	%xmm2, 48(%rsp)
	xorps	%xmm2, %xmm2
	movss	%xmm0, 40(%rsp)
	movss	368(%rsp,%rdx,4), %xmm0
	movss	%xmm0, 32(%rsp)
	call	_ZL23stbtt__csctx_rccurve_toP12stbtt__csctxffffff
	movslq	92(%rsp), %rax
	cmpl	%eax, %ebx
	jg	.L982
.L973:
	movl	184(%rsp), %edx
	movl	188(%rsp), %r11d
.L815:
	xorl	%ebx, %ebx
	jmp	.L791
	.p2align 4,,7
.L812:
	cmpl	$3, %ebx
	jle	.L927
	movl	$7, %r13d
	movl	$4, %r12d
	movl	$1, %edx
	movl	$2, %ecx
	movl	$3, %eax
	xorl	%r14d, %r14d
.L839:
	movl	%ebx, %r8d
	xorps	%xmm0, %xmm0
	subl	%r14d, %r8d
	cmpl	$5, %r8d
	je	.L983
.L835:
	movslq	%edx, %rdx
	movslq	%r14d, %r14
	movslq	%ecx, %rcx
	movss	368(%rsp,%rdx,4), %xmm3
	movss	368(%rsp,%r14,4), %xmm2
	xorps	%xmm1, %xmm1
	movss	%xmm0, 48(%rsp)
	movss	368(%rsp,%rax,4), %xmm0
	movss	%xmm0, 40(%rsp)
	movss	368(%rsp,%rcx,4), %xmm0
	movq	%r15, %rcx
	movss	%xmm0, 32(%rsp)
	call	_ZL23stbtt__csctx_rccurve_toP12stbtt__csctxffffff
	cmpl	%r13d, %ebx
	jle	.L973
	leal	7(%r12), %eax
	leal	2(%r12), %edx
	leal	1(%r12), %ecx
	leal	4(%r12), %r14d
	jmp	.L834
	.p2align 4,,7
.L810:
	cmpl	$3, %ebx
	jle	.L927
	testb	$1, %bl
	je	.L916
	cmpl	$4, %ebx
	movss	368(%rsp), %xmm1
	je	.L917
	xorps	%xmm7, %xmm7
	movl	$4, %eax
	movl	$1, %r12d
.L855:
	cmpl	$27, %r14d
	je	.L856
	.p2align 4,,7
.L858:
	leal	1(%r12), %edx
	cltq
	movq	%r15, %rcx
	movss	368(%rsp,%rax,4), %xmm0
	leal	2(%r12), %eax
	movslq	%edx, %rdx
	movss	368(%rsp,%rdx,4), %xmm3
	movslq	%r12d, %rdx
	cltq
	movss	368(%rsp,%rdx,4), %xmm2
	movl	$0x00000000, 40(%rsp)
	movss	%xmm0, 48(%rsp)
	addl	$4, %r12d
	movss	368(%rsp,%rax,4), %xmm0
	movss	%xmm0, 32(%rsp)
	call	_ZL23stbtt__csctx_rccurve_toP12stbtt__csctxffffff
	leal	3(%r12), %eax
	movaps	%xmm7, %xmm1
	cmpl	%eax, %ebx
	jg	.L858
	movl	184(%rsp), %edx
	movl	188(%rsp), %r11d
	jmp	.L815
	.p2align 4,,7
.L809:
	cmpl	$7, %ebx
	jle	.L927
	leal	-8(%rbx), %r9d
	leaq	368(%rsp), %rdx
	movl	48(%r15), %eax
	leaq	372(%rsp), %rcx
	shrl	%r9d
	movl	%r9d, %r8d
	leaq	12(%rdx,%r8,8), %r8
	jmp	.L854
	.p2align 4,,7
.L842:
	cltq
	addq	$8, %rcx
	leaq	(%rax,%rax), %r11
	salq	$4, %rax
	subq	%r11, %rax
	addq	40(%r15), %rax
	movb	$2, 12(%rax)
	movw	%dx, (%rax)
	movslq	48(%r15), %rdx
	movw	%r10w, 2(%rax)
	movw	$0, 4(%rax)
	movw	$0, 6(%rax)
	leaq	(%rdx,%rdx), %r10
	movq	%rdx, %rax
	salq	$4, %rdx
	incl	%eax
	subq	%r10, %rdx
	addq	40(%r15), %rdx
	cmpq	%r8, %rcx
	movw	$0, 8(%rdx)
	movw	$0, 10(%rdx)
	movl	%eax, 48(%r15)
	je	.L984
.L854:
	movss	(%rcx), %xmm1
	movl	(%r15), %r14d
	movss	-4(%rcx), %xmm0
	addss	20(%r15), %xmm1
	addss	16(%r15), %xmm0
	testl	%r14d, %r14d
	movss	%xmm1, 20(%r15)
	movss	%xmm0, 16(%r15)
	cvttss2si	%xmm1, %r10d
	cvttss2si	%xmm0, %edx
	je	.L842
	cmpl	28(%r15), %edx
	jg	.L843
	movl	4(%r15), %r13d
	testl	%r13d, %r13d
	jne	.L844
.L843:
	movl	%edx, 28(%r15)
.L844:
	cmpl	36(%r15), %r10d
	jg	.L845
	movl	4(%r15), %r12d
	testl	%r12d, %r12d
	je	.L845
	cmpl	24(%r15), %edx
	jl	.L847
.L849:
	cmpl	%r10d, 32(%r15)
	jle	.L851
	.p2align 4,,7
.L852:
	movl	%r10d, 32(%r15)
.L851:
	addq	$8, %rcx
	incl	%eax
	movl	$1, 4(%r15)
	cmpq	%r8, %rcx
	movl	%eax, 48(%r15)
	jne	.L854
.L984:
	leal	2(%r9,%r9), %eax
	leal	3(%r9,%r9), %r8d
	leal	5(%rax), %edx
	cmpl	%edx, %ebx
	jle	.L927
	leal	2(%rax), %ecx
	movslq	%edx, %rdx
	xorl	%ebx, %ebx
	movss	368(%rsp,%rdx,4), %xmm0
	leal	4(%rax), %edx
	movslq	%ecx, %rcx
	movss	368(%rsp,%rcx,4), %xmm3
	movslq	%r8d, %rcx
	movslq	%edx, %rdx
	movss	368(%rsp,%rcx,4), %xmm2
	movslq	%eax, %rcx
	movss	368(%rsp,%rcx,4), %xmm1
	addl	$3, %eax
	movss	%xmm0, 48(%rsp)
	cltq
	movq	%r15, %rcx
	movss	368(%rsp,%rdx,4), %xmm0
	movss	%xmm0, 40(%rsp)
	movss	368(%rsp,%rax,4), %xmm0
	movss	%xmm0, 32(%rsp)
	call	_ZL23stbtt__csctx_rccurve_toP12stbtt__csctxffffff
	movl	184(%rsp), %edx
	movl	188(%rsp), %r11d
	jmp	.L791
	.p2align 4,,7
.L808:
	cmpl	$7, %ebx
	jle	.L927
	leal	-2(%rbx), %r14d
	leaq	368(%rsp), %r12
	xorl	%r13d, %r13d
	jmp	.L841
	.p2align 4,,7
.L915:
	movl	%eax, %r13d
.L841:
	movss	20(%r12), %xmm0
	movq	%r15, %rcx
	addq	$24, %r12
	movss	%xmm0, 48(%rsp)
	movss	-8(%r12), %xmm0
	movss	%xmm0, 40(%rsp)
	movss	-12(%r12), %xmm0
	movss	%xmm0, 32(%rsp)
	movss	-16(%r12), %xmm3
	movss	-20(%r12), %xmm2
	movss	-24(%r12), %xmm1
	call	_ZL23stbtt__csctx_rccurve_toP12stbtt__csctxffffff
	leal	11(%r13), %edx
	leal	6(%r13), %eax
	cmpl	%r14d, %edx
	jl	.L915
	addl	$7, %r13d
	cmpl	%r13d, %ebx
	jle	.L927
	cltq
	movslq	%r13d, %r13
	movq	%r15, %rcx
	movss	368(%rsp,%r13,4), %xmm2
	xorl	%ebx, %ebx
	movss	368(%rsp,%rax,4), %xmm1
	call	_ZL21stbtt__csctx_rline_toP12stbtt__csctxff
	movl	184(%rsp), %edx
	movl	188(%rsp), %r11d
	jmp	.L791
	.p2align 4,,7
.L807:
	testl	%ebx, %ebx
	je	.L927
	xorps	%xmm2, %xmm2
	decl	%ebx
	movslq	%ebx, %rbx
.L974:
	movss	368(%rsp,%rbx,4), %xmm1
.L975:
	movq	%r15, %rcx
	xorl	%ebp, %ebp
	xorl	%ebx, %ebx
	call	_ZL21stbtt__csctx_rmove_toP12stbtt__csctxff
	movl	184(%rsp), %edx
	movl	188(%rsp), %r11d
	jmp	.L791
	.p2align 4,,7
.L806:
	cmpl	$1, %ebx
	jle	.L927
	leal	-1(%rbx), %eax
	subl	$2, %ebx
	movslq	%ebx, %rbx
	cltq
	movss	368(%rsp,%rax,4), %xmm2
	jmp	.L974
	.p2align 4,,7
.L805:
	testl	%ebp, %ebp
	je	.L814
	sarl	%ebx
	addl	%ebx, 68(%rsp)
.L814:
	movl	68(%rsp), %eax
	leaq	176(%rsp), %rcx
	xorl	%ebp, %ebp
	xorl	%ebx, %ebx
	leal	7(%rax), %edx
	sarl	$3, %edx
	addl	%r10d, %edx
	call	_ZL15stbtt__buf_seekP10stbtt__bufi
	movl	184(%rsp), %edx
	movl	188(%rsp), %r11d
	jmp	.L791
	.p2align 4,,7
.L804:
	movss	8(%r15), %xmm0
	ucomiss	16(%r15), %xmm0
	movss	12(%r15), %xmm1
	jp	.L879
	jne	.L879
	ucomiss	20(%r15), %xmm1
	jp	.L879
	movl	$1, %eax
	je	.L969
.L879:
	movl	(%r15), %r11d
	cvttss2si	%xmm1, %ecx
	cvttss2si	%xmm0, %edx
	testl	%r11d, %r11d
	jne	.L985
	movslq	48(%r15), %rax
	leaq	(%rax,%rax), %r8
	salq	$4, %rax
	subq	%r8, %rax
	addq	40(%r15), %rax
	movb	$2, 12(%rax)
	movw	%dx, (%rax)
	movw	%cx, 2(%rax)
	movw	$0, 4(%rax)
	movw	$0, 6(%rax)
	movslq	48(%r15), %rax
	leaq	(%rax,%rax), %rcx
	movq	%rax, %rdx
	salq	$4, %rax
	subq	%rcx, %rax
	addq	40(%r15), %rax
	movw	$0, 8(%rax)
	movw	$0, 10(%rax)
.L893:
	incl	%edx
	movl	$1, %eax
	movl	%edx, 48(%r15)
	jmp	.L969
	.p2align 4,,7
.L800:
	cmpl	$5, %ebx
	jle	.L927
	leaq	368(%rsp), %r12
	movl	$5, %r13d
	.p2align 4,,7
.L840:
	movss	20(%r12), %xmm0
	movq	%r15, %rcx
	addl	$6, %r13d
	movss	%xmm0, 48(%rsp)
	addq	$24, %r12
	movss	-8(%r12), %xmm0
	movss	%xmm0, 40(%rsp)
	movss	-12(%r12), %xmm0
	movss	%xmm0, 32(%rsp)
	movss	-16(%r12), %xmm3
	movss	-20(%r12), %xmm2
	movss	-24(%r12), %xmm1
	call	_ZL23stbtt__csctx_rccurve_toP12stbtt__csctxffffff
	cmpl	%r13d, %ebx
	jg	.L840
	movl	184(%rsp), %edx
	movl	188(%rsp), %r11d
	jmp	.L815
	.p2align 4,,7
.L799:
	testl	%ebx, %ebx
	je	.L927
	movl	$1, %r13d
	xorl	%r12d, %r12d
.L830:
	xorps	%xmm1, %xmm1
	movslq	%r12d, %r12
	movq	%r15, %rcx
	movss	368(%rsp,%r12,4), %xmm2
	call	_ZL21stbtt__csctx_rline_toP12stbtt__csctxff
	cmpl	%r13d, %ebx
	jle	.L973
	leal	1(%r13), %r12d
	jmp	.L833
	.p2align 4,,7
.L802:
	testl	%esi, %esi
	je	.L927
	decl	%esi
	movslq	%esi, %rax
	salq	$4, %rax
	movq	216(%rsp,%rax), %rdx
	movq	208(%rsp,%rax), %rax
	movq	%rdx, 184(%rsp)
	movq	%rax, 176(%rsp)
	movl	184(%rsp), %edx
	movl	188(%rsp), %r11d
	jmp	.L791
	.p2align 4,,7
.L803:
	cmpl	%r11d, %r10d
	jge	.L927
	addl	$2, %edx
	movslq	%r10d, %r10
	movl	%edx, 184(%rsp)
	movzbl	(%r12,%r10), %eax
	cmpb	$35, %al
	je	.L894
	jbe	.L986
	cmpb	$36, %al
	je	.L897
	cmpb	$37, %al
	.p2align 4,,7
	jne	.L927
	cmpl	$10, %ebx
	.p2align 4,,4
	jle	.L927
	movss	380(%rsp), %xmm5
	movss	404(%rsp), %xmm0
	movss	%xmm0, 104(%rsp)
	movaps	%xmm5, %xmm0
	movss	372(%rsp), %xmm2
	movss	384(%rsp), %xmm4
	addss	%xmm2, %xmm0
	movaps	%xmm4, %xmm7
	movss	368(%rsp), %xmm1
	movss	%xmm4, 108(%rsp)
	movss	388(%rsp), %xmm4
	movss	%xmm4, 92(%rsp)
	movaps	%xmm1, %xmm4
	movss	376(%rsp), %xmm3
	addss	%xmm3, %xmm4
	movss	396(%rsp), %xmm9
	addss	92(%rsp), %xmm0
	movss	392(%rsp), %xmm8
	movss	400(%rsp), %xmm10
	movss	%xmm5, 96(%rsp)
	addss	%xmm7, %xmm4
	movss	408(%rsp), %xmm11
	addss	%xmm9, %xmm0
	addss	%xmm8, %xmm4
	addss	104(%rsp), %xmm0
	addss	%xmm10, %xmm4
	cvtss2sd	%xmm4, %xmm7
	cvtss2sd	%xmm0, %xmm5
	andpd	%xmm12, %xmm7
	andpd	%xmm12, %xmm5
	ucomisd	%xmm5, %xmm7
	jbe	.L970
	movaps	%xmm0, %xmm7
	xorps	%xmm15, %xmm7
.L901:
	movss	92(%rsp), %xmm5
	movq	%r15, %rcx
	xorl	%ebx, %ebx
	movss	%xmm5, 48(%rsp)
	movss	108(%rsp), %xmm5
	movss	%xmm5, 40(%rsp)
	movss	96(%rsp), %xmm5
	movss	%xmm5, 32(%rsp)
	call	_ZL23stbtt__csctx_rccurve_toP12stbtt__csctxffffff
	movss	104(%rsp), %xmm5
	movq	%r15, %rcx
	movss	%xmm7, 48(%rsp)
	movaps	%xmm10, %xmm3
	movss	%xmm11, 40(%rsp)
	movaps	%xmm9, %xmm2
	movss	%xmm5, 32(%rsp)
	movaps	%xmm8, %xmm1
	call	_ZL23stbtt__csctx_rccurve_toP12stbtt__csctxffffff
	movl	184(%rsp), %edx
	movl	188(%rsp), %r11d
	jmp	.L791
	.p2align 4,,7
.L796:
	testl	%ebx, %ebx
	je	.L927
	decl	%ebx
	xorps	%xmm1, %xmm1
	movslq	%ebx, %rbx
	movss	368(%rsp,%rbx,4), %xmm2
	jmp	.L975
	.p2align 4,,7
.L794:
	sarl	%ebx
	movl	%r10d, %edx
	addl	%ebx, 68(%rsp)
	xorl	%ebx, %ebx
	jmp	.L791
	.p2align 4,,7
.L798:
	testl	%ebx, %ebx
	je	.L927
	movl	$1, %r12d
	xorl	%r13d, %r13d
.L833:
	xorps	%xmm2, %xmm2
	movslq	%r13d, %r13
	movq	%r15, %rcx
	movss	368(%rsp,%r13,4), %xmm1
	call	_ZL21stbtt__csctx_rline_toP12stbtt__csctxff
	cmpl	%r12d, %ebx
	jle	.L973
	leal	1(%r12), %r13d
	jmp	.L830
	.p2align 4,,7
.L797:
	cmpl	$1, %ebx
	jle	.L927
	subl	$2, %ebx
	leaq	368(%rsp), %rcx
	movl	48(%r15), %eax
	shrl	%ebx
	leaq	372(%rsp), %r8
	movl	%ebx, %edx
	leaq	12(%rcx,%rdx,8), %r9
	jmp	.L829
	.p2align 4,,7
.L816:
	cltq
	leaq	(%rax,%rax), %r10
	salq	$4, %rax
	subq	%r10, %rax
	addq	40(%r15), %rax
	movb	$2, 12(%rax)
	movw	%dx, (%rax)
	movslq	48(%r15), %rdx
	movw	%cx, 2(%rax)
	movw	$0, 4(%rax)
	movw	$0, 6(%rax)
	leaq	(%rdx,%rdx), %rcx
	movq	%rdx, %rax
	salq	$4, %rdx
	subq	%rcx, %rdx
	addq	40(%r15), %rdx
	movw	$0, 8(%rdx)
	movw	$0, 10(%rdx)
.L827:
	addq	$8, %r8
	incl	%eax
	cmpq	%r9, %r8
	movl	%eax, 48(%r15)
	je	.L973
.L829:
	movss	(%r8), %xmm1
	movl	(%r15), %r12d
	movss	-4(%r8), %xmm0
	addss	20(%r15), %xmm1
	addss	16(%r15), %xmm0
	testl	%r12d, %r12d
	movss	%xmm1, 20(%r15)
	movss	%xmm0, 16(%r15)
	cvttss2si	%xmm1, %ecx
	cvttss2si	%xmm0, %edx
	je	.L816
	cmpl	28(%r15), %edx
	jg	.L817
	movl	4(%r15), %ebx
	testl	%ebx, %ebx
	jne	.L818
.L817:
	movl	%edx, 28(%r15)
.L818:
	cmpl	36(%r15), %ecx
	jg	.L819
	movl	4(%r15), %r11d
	testl	%r11d, %r11d
	je	.L819
	cmpl	24(%r15), %edx
	jl	.L821
.L823:
	cmpl	%ecx, 32(%r15)
	jle	.L825
	.p2align 4,,7
.L826:
	movl	%ecx, 32(%r15)
.L825:
	movl	$1, 4(%r15)
	jmp	.L827
	.p2align 4,,7
.L819:
	cmpl	24(%r15), %edx
	movl	%ecx, 36(%r15)
	jl	.L821
	movl	4(%r15), %r10d
	testl	%r10d, %r10d
	jne	.L823
	movl	%edx, 24(%r15)
	jmp	.L826
	.p2align 4,,7
.L845:
	cmpl	24(%r15), %edx
	movl	%r10d, 36(%r15)
	jl	.L847
	movl	4(%r15), %r11d
	testl	%r11d, %r11d
	jne	.L849
	movl	%edx, 24(%r15)
	jmp	.L852
	.p2align 4,,7
.L847:
	cmpl	32(%r15), %r10d
	movl	%edx, 24(%r15)
	jl	.L852
	movl	4(%r15), %edx
	testl	%edx, %edx
	je	.L852
	jmp	.L851
	.p2align 4,,7
.L821:
	cmpl	32(%r15), %ecx
	movl	%edx, 24(%r15)
	jl	.L826
	movl	4(%r15), %edx
	testl	%edx, %edx
	je	.L826
	jmp	.L825
.L793:
	cmpl	$28, %r14d
	je	.L902
	subl	$32, %ecx
	cmpb	$-33, %cl
	ja	.L927
	cmpl	$255, %r14d
	jne	.L902
	cmpl	%r11d, %r10d
	jge	.L928
	leal	2(%rdx), %r13d
	movslq	%r10d, %r10
	movl	%r13d, 184(%rsp)
	movzbl	(%r12,%r10), %eax
	movl	%eax, %r8d
	sall	$8, %r8d
	cmpl	%r11d, %r13d
	jge	.L904
	leal	3(%rdx), %r9d
	movslq	%r13d, %r13
	movl	%r9d, 184(%rsp)
	movzbl	(%r12,%r13), %eax
	orl	%r8d, %eax
	sall	$8, %eax
	cmpl	%r11d, %r9d
	jge	.L903
	leal	4(%rdx), %r8d
	movslq	%r9d, %r9
	movl	%r8d, 184(%rsp)
	movzbl	(%r12,%r9), %ecx
	orl	%ecx, %eax
	sall	$8, %eax
	cmpl	%r11d, %r8d
	movl	%eax, %ecx
	jge	.L929
	addl	$5, %edx
	movslq	%r8d, %r8
	movl	%edx, 184(%rsp)
	movzbl	(%r12,%r8), %eax
.L905:
	orl	%ecx, %eax
	cvtsi2ssq	%rax, %xmm0
	mulss	.LC31(%rip), %xmm0
	jmp	.L908
	.p2align 4,,7
.L902:
	leaq	176(%rsp), %r12
	movq	%r12, %rcx
	call	_ZL15stbtt__buf_seekP10stbtt__bufi
	movq	%r12, %rcx
	call	_ZL14stbtt__cff_intP10stbtt__buf
	cwtl
	cvtsi2ss	%eax, %xmm0
.L908:
	cmpl	$47, %ebx
	jg	.L927
	movslq	%ebx, %rax
	movl	184(%rsp), %edx
	movl	188(%rsp), %r11d
	movss	%xmm0, 368(%rsp,%rax,4)
	incl	%ebx
	jmp	.L791
	.p2align 4,,7
.L922:
	xorl	%ecx, %ecx
.L873:
	xorl	%eax, %eax
	movl	$107, %r8d
	jmp	.L875
	.p2align 4,,7
.L916:
	xorps	%xmm7, %xmm7
	movl	$3, %eax
	xorl	%r12d, %r12d
	movaps	%xmm7, %xmm1
	jmp	.L855
	.p2align 4,,7
.L923:
	movl	$1, %ecx
	xorl	%edx, %edx
	jmp	.L874
.L985:
	cmpl	28(%r15), %edx
	jle	.L987
.L883:
	movl	%edx, 28(%r15)
.L884:
	cmpl	36(%r15), %ecx
	jg	.L885
	movl	4(%r15), %r9d
	testl	%r9d, %r9d
	je	.L885
	cmpl	24(%r15), %edx
	jl	.L887
.L889:
	cmpl	32(%r15), %ecx
	jge	.L891
.L892:
	movl	%ecx, 32(%r15)
.L891:
	movl	$1, 4(%r15)
	movl	48(%r15), %edx
	jmp	.L893
.L981:
	movslq	%r14d, %r8
	movss	368(%rsp,%r8,4), %xmm0
	jmp	.L837
.L897:
	cmpl	$8, %ebx
	jle	.L927
	xorps	%xmm7, %xmm7
	movss	372(%rsp), %xmm0
	movss	380(%rsp), %xmm8
	movq	%r15, %rcx
	movss	384(%rsp), %xmm1
	xorl	%ebx, %ebx
	movaps	%xmm0, %xmm2
	movss	%xmm1, 40(%rsp)
	movss	%xmm8, 32(%rsp)
	movss	%xmm7, 48(%rsp)
	movss	400(%rsp), %xmm4
	movss	376(%rsp), %xmm3
	movss	368(%rsp), %xmm1
	movss	396(%rsp), %xmm9
	movss	388(%rsp), %xmm10
	movss	392(%rsp), %xmm11
	movss	%xmm4, 104(%rsp)
	movss	%xmm0, 92(%rsp)
	call	_ZL23stbtt__csctx_rccurve_toP12stbtt__csctxffffff
	movss	92(%rsp), %xmm0
	movq	%r15, %rcx
	addss	%xmm0, %xmm8
	movss	104(%rsp), %xmm4
	movss	%xmm4, 40(%rsp)
	movaps	%xmm11, %xmm3
	movss	%xmm9, 32(%rsp)
	movaps	%xmm7, %xmm2
	movaps	%xmm10, %xmm1
	addss	%xmm9, %xmm8
	movaps	%xmm8, %xmm0
	xorps	%xmm6, %xmm0
	movss	%xmm0, 48(%rsp)
	call	_ZL23stbtt__csctx_rccurve_toP12stbtt__csctxffffff
	movl	184(%rsp), %edx
	movl	188(%rsp), %r11d
	jmp	.L791
.L885:
	cmpl	24(%r15), %edx
	movl	%ecx, 36(%r15)
	jge	.L988
.L887:
	cmpl	32(%r15), %ecx
	movl	%edx, 24(%r15)
	jl	.L892
	movl	4(%r15), %eax
	testl	%eax, %eax
	je	.L892
	jmp	.L891
	.p2align 4,,7
.L979:
	leaq	.LC3(%rip), %rcx
	leaq	.LC2(%rip), %rdx
	movl	$1000, %r8d
	call	_assert
	movl	%esi, %ecx
	jmp	.L873
	.p2align 4,,7
.L856:
	movaps	%xmm1, %xmm2
	.p2align 4,,7
.L859:
	leal	1(%r12), %edx
	cltq
	movq	%r15, %rcx
	movslq	%edx, %rdx
	movss	368(%rsp,%rdx,4), %xmm3
	movslq	%r12d, %rdx
	movss	368(%rsp,%rdx,4), %xmm1
	movl	$0x00000000, 48(%rsp)
	movss	368(%rsp,%rax,4), %xmm0
	leal	2(%r12), %eax
	addl	$4, %r12d
	movss	%xmm0, 40(%rsp)
	cltq
	movss	368(%rsp,%rax,4), %xmm0
	movss	%xmm0, 32(%rsp)
	call	_ZL23stbtt__csctx_rccurve_toP12stbtt__csctxffffff
	leal	3(%r12), %eax
	movaps	%xmm7, %xmm2
	cmpl	%eax, %ebx
	jg	.L859
	jmp	.L973
.L894:
	cmpl	$12, %ebx
	jle	.L927
	movss	388(%rsp), %xmm1
	movq	%r15, %rcx
	movss	%xmm1, 48(%rsp)
	movss	384(%rsp), %xmm1
	movss	%xmm1, 40(%rsp)
	movss	380(%rsp), %xmm1
	movss	%xmm1, 32(%rsp)
	movss	412(%rsp), %xmm0
	movss	376(%rsp), %xmm3
	movss	372(%rsp), %xmm2
	movss	368(%rsp), %xmm1
	movss	392(%rsp), %xmm7
	movss	396(%rsp), %xmm8
	movss	400(%rsp), %xmm9
	movss	404(%rsp), %xmm10
	movss	408(%rsp), %xmm11
	movss	%xmm0, 92(%rsp)
	call	_ZL23stbtt__csctx_rccurve_toP12stbtt__csctxffffff
	movss	92(%rsp), %xmm0
	movq	%r15, %rcx
	movss	%xmm0, 48(%rsp)
	movaps	%xmm9, %xmm3
	movss	%xmm11, 40(%rsp)
	movaps	%xmm8, %xmm2
	movss	%xmm10, 32(%rsp)
	movaps	%xmm7, %xmm1
	call	_ZL23stbtt__csctx_rccurve_toP12stbtt__csctxffffff
	jmp	.L973
.L928:
	xorl	%eax, %eax
.L903:
	sall	$8, %eax
	movl	%eax, %ecx
	xorl	%eax, %eax
	jmp	.L905
.L983:
	movslq	%r12d, %r8
	movss	368(%rsp,%r8,4), %xmm0
	jmp	.L835
.L987:
	movl	4(%r15), %r10d
	testl	%r10d, %r10d
	jne	.L884
	jmp	.L883
.L988:
	movl	4(%r15), %r8d
	testl	%r8d, %r8d
	jne	.L889
	movl	%edx, 24(%r15)
	jmp	.L892
.L986:
	cmpb	$34, %al
	jne	.L927
	cmpl	$6, %ebx
	.p2align 4,,2
	jle	.L927
	xorps	%xmm7, %xmm7
	movss	376(%rsp), %xmm8
	movss	380(%rsp), %xmm0
	movq	%r15, %rcx
	movss	%xmm8, 32(%rsp)
	xorps	%xmm14, %xmm8
	movss	%xmm0, 40(%rsp)
	movaps	%xmm7, %xmm2
	movss	%xmm7, 48(%rsp)
	xorl	%ebx, %ebx
	movss	384(%rsp), %xmm9
	movss	388(%rsp), %xmm10
	movss	392(%rsp), %xmm11
	movss	372(%rsp), %xmm3
	movss	368(%rsp), %xmm1
	call	_ZL23stbtt__csctx_rccurve_toP12stbtt__csctxffffff
	movss	%xmm7, 48(%rsp)
	movaps	%xmm10, %xmm3
	movss	%xmm11, 40(%rsp)
	movaps	%xmm7, %xmm2
	movss	%xmm8, 32(%rsp)
	movaps	%xmm9, %xmm1
	movq	%r15, %rcx
	call	_ZL23stbtt__csctx_rccurve_toP12stbtt__csctxffffff
	movl	184(%rsp), %edx
	movl	188(%rsp), %r11d
	jmp	.L791
.L970:
	xorps	%xmm13, %xmm4
	movaps	%xmm11, %xmm7
	movaps	%xmm4, %xmm11
	jmp	.L901
.L917:
	movl	%r10d, %edx
	xorl	%ebx, %ebx
	jmp	.L791
.L977:
	movl	$1, %eax
.L862:
	addl	808(%rsp), %eax
	leaq	192(%rsp), %rcx
	movl	%eax, %edx
	call	_ZL15stbtt__buf_seekP10stbtt__bufi
	movslq	200(%rsp), %rax
	xorl	%r8d, %r8d
	cmpl	204(%rsp), %eax
	jge	.L865
	leal	1(%rax), %edx
	movl	%edx, 200(%rsp)
	movq	192(%rsp), %rdx
	movzbl	(%rdx,%rax), %r8d
	jmp	.L865
.L861:
	movl	%eax, 200(%rsp)
	jmp	.L862
.L976:
	leaq	.LC2(%rip), %rdx
	leaq	.LC3(%rip), %rcx
	movl	$1000, %r8d
	call	_assert
	jmp	.L860
.L978:
	leaq	192(%rsp), %rax
	movq	%rax, %r13
	movq	%rax, %rcx
	call	_ZL14stbtt__buf_getP10stbtt__bufi.constprop.77
	movq	%r13, %rcx
	movl	%eax, %r12d
	movq	%r13, 96(%rsp)
	call	_ZL14stbtt__buf_getP10stbtt__bufi.constprop.77
	testl	%r12d, %r12d
	movl	%eax, %r13d
	movl	%r12d, %ecx
	jle	.L867
	xorl	%r12d, %r12d
	movl	%ebp, 88(%rsp)
	movl	%esi, 92(%rsp)
	movq	%rdi, 800(%rsp)
	movl	%ebx, 104(%rsp)
	movl	%r12d, %edi
	movl	%ecx, %esi
	movl	808(%rsp), %ebp
	movq	96(%rsp), %r12
	jmp	.L870
	.p2align 4,,7
.L930:
	incl	%edi
	cmpl	%edi, %esi
	je	.L972
	movl	%eax, %r13d
.L870:
	movslq	200(%rsp), %rax
	xorl	%ebx, %ebx
	cmpl	204(%rsp), %eax
	jge	.L868
	leal	1(%rax), %ecx
	movl	%ecx, 200(%rsp)
	movq	192(%rsp), %rcx
	movzbl	(%rcx,%rax), %ebx
.L868:
	movq	%r12, %rcx
	call	_ZL14stbtt__buf_getP10stbtt__bufi.constprop.77
	cmpl	%r13d, %ebp
	jl	.L930
	cmpl	%eax, %ebp
	jge	.L930
	movl	%ebx, %r8d
	movl	88(%rsp), %ebp
	movl	92(%rsp), %esi
	movl	104(%rsp), %ebx
	movq	800(%rsp), %rdi
	jmp	.L865
.L972:
	movl	88(%rsp), %ebp
	movl	92(%rsp), %esi
	movl	104(%rsp), %ebx
	movq	800(%rsp), %rdi
	jmp	.L867
.L929:
	xorl	%eax, %eax
	jmp	.L905
.L982:
	leal	2(%r14), %ecx
	leal	1(%r14), %edx
	leal	7(%r14), %r13d
	leal	4(%r14), %r12d
	jmp	.L839
.L904:
	sall	$24, %eax
	movl	%eax, %ecx
	xorl	%eax, %eax
	jmp	.L905
	.seh_endproc
	.section .rdata,"dr"
	.align 8
.LC34:
	.ascii "output_ctx.num_vertices == count_ctx.num_vertices\0"
	.text
	.p2align 4,,15
	.def	_ZL22stbtt__GetGlyphShapeTTPK14stbtt_fontinfoiPP12stbtt_vertex;	.scl	3;	.type	32;	.endef
	.seh_proc	_ZL22stbtt__GetGlyphShapeTTPK14stbtt_fontinfoiPP12stbtt_vertex
_ZL22stbtt__GetGlyphShapeTTPK14stbtt_fontinfoiPP12stbtt_vertex:
.LFB329:
	pushq	%r15
	.seh_pushreg	%r15
	pushq	%r14
	.seh_pushreg	%r14
	pushq	%r13
	.seh_pushreg	%r13
	pushq	%r12
	.seh_pushreg	%r12
	pushq	%rbp
	.seh_pushreg	%rbp
	pushq	%rdi
	.seh_pushreg	%rdi
	pushq	%rsi
	.seh_pushreg	%rsi
	pushq	%rbx
	.seh_pushreg	%rbx
	subq	$376, %rsp
	.seh_stackalloc	376
	movaps	%xmm6, 208(%rsp)
	.seh_savexmm	%xmm6, 208
	movaps	%xmm7, 224(%rsp)
	.seh_savexmm	%xmm7, 224
	movaps	%xmm8, 240(%rsp)
	.seh_savexmm	%xmm8, 240
	movaps	%xmm9, 256(%rsp)
	.seh_savexmm	%xmm9, 256
	movaps	%xmm10, 272(%rsp)
	.seh_savexmm	%xmm10, 272
	movaps	%xmm11, 288(%rsp)
	.seh_savexmm	%xmm11, 288
	movaps	%xmm12, 304(%rsp)
	.seh_savexmm	%xmm12, 304
	movaps	%xmm13, 320(%rsp)
	.seh_savexmm	%xmm13, 320
	movaps	%xmm14, 336(%rsp)
	.seh_savexmm	%xmm14, 336
	movaps	%xmm15, 352(%rsp)
	.seh_savexmm	%xmm15, 352
	.seh_endprologue
	movq	%rcx, %r13
	movq	%r8, 464(%rsp)
	movq	8(%rcx), %rbx
	call	_ZL20stbtt__GetGlyfOffsetPK14stbtt_fontinfoi
	movq	464(%rsp), %rsi
	testl	%eax, %eax
	movq	$0, (%rsi)
	js	.L1045
	cltq
	leaq	(%rbx,%rax), %rdx
	movzbl	(%rdx), %esi
	movzbl	1(%rdx), %edx
	sall	$8, %esi
	addl	%edx, %esi
	testw	%si, %si
	jle	.L992
	movswl	%si, %esi
	leaq	10(%rbx,%rax), %rdi
	addl	%esi, %esi
	movslq	%esi, %r12
	movq	%rdi, %r15
	movq	%rdi, 48(%rsp)
	addq	%r12, %rax
	leaq	10(%rbx,%rax), %rcx
	movzbl	(%rcx), %edx
	movzbl	1(%rcx), %ecx
	sall	$8, %edx
	addl	%ecx, %edx
	movzwl	%dx, %edx
	leaq	12(%rax,%rdx), %rdi
	leaq	-2(%r15,%r12), %rax
	movzbl	(%rax), %r13d
	movzbl	1(%rax), %eax
	addq	%rbx, %rdi
	sall	$8, %r13d
	addl	%eax, %r13d
	movzwl	%r13w, %eax
	leal	1(%rax), %ebp
	leal	(%rsi,%rbp), %ecx
	movslq	%ecx, %rcx
	leaq	(%rcx,%rcx), %rax
	salq	$4, %rcx
	subq	%rax, %rcx
	call	_ZN5ImGui8MemAllocEy
	testq	%rax, %rax
	movq	%rax, %rbx
	je	.L1045
	movzwl	%r13w, %r13d
	leaq	(%r12,%r12), %rax
	movq	%r12, %r9
	addq	%r13, %r12
	salq	$4, %r9
	xorl	%ecx, %ecx
	leaq	(%r12,%r12), %rdx
	salq	$4, %r12
	subq	%rax, %r9
	leaq	194(%rbx,%r9), %rax
	subq	%rdx, %r12
	xorl	%edx, %edx
	leaq	208(%rbx,%r12), %r8
	jmp	.L997
	.p2align 4,,7
.L1091:
	movzbl	(%rdi), %ecx
	testb	$8, %cl
	jne	.L995
	incq	%rdi
.L996:
	movb	%cl, -182(%rax)
	prefetcht0	(%rax)
	addq	$14, %rax
	cmpq	%r8, %rax
	je	.L1090
.L997:
	testb	%dl, %dl
	je	.L1091
	decl	%edx
	jmp	.L996
	.p2align 4,,7
.L992:
	cmpw	$-1, %si
	.p2align 4,,3
	je	.L1092
	xorl	%r12d, %r12d
	xorl	%ebx, %ebx
	testw	%si, %si
	jne	.L1093
.L1021:
	movq	464(%rsp), %rax
	movq	%rbx, (%rax)
	movl	%r12d, %eax
.L991:
	movaps	208(%rsp), %xmm6
	movaps	224(%rsp), %xmm7
	movaps	240(%rsp), %xmm8
	movaps	256(%rsp), %xmm9
	movaps	272(%rsp), %xmm10
	movaps	288(%rsp), %xmm11
	movaps	304(%rsp), %xmm12
	movaps	320(%rsp), %xmm13
	movaps	336(%rsp), %xmm14
	movaps	352(%rsp), %xmm15
	addq	$376, %rsp
	popq	%rbx
	popq	%rsi
	popq	%rdi
	popq	%rbp
	popq	%r12
	popq	%r13
	popq	%r14
	popq	%r15
	ret
	.p2align 4,,7
.L995:
	movzbl	1(%rdi), %edx
	addq	$2, %rdi
	jmp	.L996
	.p2align 4,,7
.L1090:
	leaq	124(%rbx,%r9), %rax
	xorl	%r8d, %r8d
	leaq	138(%rbx,%r12), %r9
	movq	%rax, %rdx
	jmp	.L1002
	.p2align 4,,7
.L1095:
	movzbl	(%rdi), %r10d
	andl	$16, %ecx
	leaq	1(%rdi), %r11
	movzbl	%r10b, %ecx
	jne	.L1000
	negl	%ecx
.L1000:
	addl	%ecx, %r8d
	movq	%r11, %rdi
.L1001:
	movw	%r8w, -124(%rdx)
	addq	$14, %rdx
	cmpq	%r9, %rdx
	je	.L1094
.L1002:
	movzbl	-112(%rdx), %ecx
	prefetcht0	(%rdx)
	testb	$2, %cl
	jne	.L1095
	andl	$16, %ecx
	jne	.L1001
	movzbl	(%rdi), %ecx
	movzbl	1(%rdi), %r10d
	addq	$14, %rdx
	addq	$2, %rdi
	sall	$8, %ecx
	addl	%r10d, %ecx
	movswl	%cx, %ecx
	addl	%ecx, %r8d
	movw	%r8w, -138(%rdx)
	cmpq	%r9, %rdx
	jne	.L1002
.L1094:
	xorl	%ecx, %ecx
	jmp	.L1007
	.p2align 4,,7
.L1097:
	movzbl	(%rdi), %r8d
	andl	$32, %edx
	leaq	1(%rdi), %r10
	movzbl	%r8b, %edx
	jne	.L1005
	negl	%edx
.L1005:
	addl	%edx, %ecx
	movq	%r10, %rdi
.L1006:
	movw	%cx, -122(%rax)
	addq	$14, %rax
	cmpq	%rax, %r9
	je	.L1096
.L1007:
	movzbl	-112(%rax), %edx
	prefetcht0	(%rax)
	testb	$4, %dl
	jne	.L1097
	andl	$32, %edx
	jne	.L1006
	movzbl	(%rdi), %edx
	movzbl	1(%rdi), %r8d
	addq	$14, %rax
	addq	$2, %rdi
	sall	$8, %edx
	addl	%r8d, %edx
	movswl	%dx, %edx
	addl	%edx, %ecx
	movw	%cx, -136(%rax)
	cmpq	%rax, %r9
	jne	.L1007
.L1096:
	movl	$0, 60(%rsp)
	movl	$0, 56(%rsp)
	xorl	%r14d, %r14d
	movl	$0, 44(%rsp)
	movl	$0, 40(%rsp)
	xorl	%r15d, %r15d
	movl	$0, 36(%rsp)
	xorl	%r13d, %r13d
	xorl	%r12d, %r12d
	movl	$0, 32(%rsp)
	xorl	%edx, %edx
	xorl	%ecx, %ecx
	jmp	.L1018
	.p2align 4,,7
.L1100:
	testl	%r13d, %r13d
	je	.L1051
	movslq	%ecx, %rax
	movl	$1, %r13d
	incl	%ecx
	leaq	(%rax,%rax), %r8
	salq	$4, %rax
	subq	%r8, %rax
	leal	(%r9,%r15), %r8d
	addq	%rbx, %rax
	sarl	%r8d
	movw	%r15w, 4(%rax)
	movw	%r14w, 6(%rax)
	movw	%r8w, (%rax)
	leal	(%r10,%r14), %r8d
	movb	$3, 12(%rax)
	movl	%r10d, %r14d
	movl	%r9d, %r15d
	sarl	%r8d
	movw	%r8w, 2(%rax)
.L1015:
	incl	%edx
	cmpl	%edx, %ebp
	jle	.L1098
.L1018:
	leal	(%rsi,%rdx), %eax
	cltq
	leaq	(%rax,%rax), %r8
	salq	$4, %rax
	subq	%r8, %rax
	cmpl	%edx, %r12d
	leaq	(%rbx,%rax), %r10
	movzbl	12(%r10), %r8d
	movswl	(%r10), %r9d
	movswl	2(%r10), %r10d
	je	.L1099
	andl	$1, %r8d
	je	.L1100
	movslq	%ecx, %rax
	leaq	(%rax,%rax), %r8
	salq	$4, %rax
	subq	%r8, %rax
	addq	%rbx, %rax
	testl	%r13d, %r13d
	je	.L1017
	incl	%edx
	incl	%ecx
	xorl	%r13d, %r13d
	cmpl	%edx, %ebp
	movb	$3, 12(%rax)
	movw	%r9w, (%rax)
	movw	%r10w, 2(%rax)
	movw	%r15w, 4(%rax)
	movw	%r14w, 6(%rax)
	jg	.L1018
	.p2align 4,,7
.L1098:
	movl	36(%rsp), %edx
	testl	%edx, %edx
	je	.L1019
	testl	%r13d, %r13d
	je	.L1020
	movslq	%ecx, %rax
	movl	56(%rsp), %esi
	incl	%ecx
	leaq	(%rax,%rax), %rdx
	salq	$4, %rax
	subq	%rdx, %rax
	leal	(%r15,%rsi), %edx
	movl	60(%rsp), %esi
	addq	%rbx, %rax
	sarl	%edx
	movb	$3, 12(%rax)
	movw	%r15w, 4(%rax)
	movw	%dx, (%rax)
	leal	(%r14,%rsi), %edx
	movw	%r14w, 6(%rax)
	sarl	%edx
	movw	%dx, 2(%rax)
.L1020:
	leal	1(%rcx), %r12d
	movslq	%ecx, %rcx
	movzwl	40(%rsp), %esi
	leaq	(%rcx,%rcx), %rax
	salq	$4, %rcx
	subq	%rax, %rcx
	leaq	(%rbx,%rcx), %rax
	movw	%si, (%rax)
	movzwl	44(%rsp), %esi
	movb	$3, 12(%rax)
	movw	%si, 2(%rax)
	movzwl	56(%rsp), %esi
	movw	%si, 4(%rax)
	movzwl	60(%rsp), %esi
	movw	%si, 6(%rax)
	jmp	.L1021
	.p2align 4,,7
.L1099:
	testl	%r12d, %r12d
	jne	.L1101
.L1009:
	andl	$1, %r8d
	movl	%r8d, %r11d
	xorl	$1, %r11d
	testb	%r8b, %r8b
	movzbl	%r11b, %edi
	movl	%edi, 36(%rsp)
	jne	.L1013
	leaq	14(%rbx,%rax), %rax
	testb	$1, 12(%rax)
	jne	.L1014
	movswl	(%rax), %edx
	movswl	2(%rax), %eax
	movl	%r10d, 60(%rsp)
	movl	%r9d, 56(%rsp)
	addl	%r9d, %edx
	addl	%r10d, %eax
	sarl	%eax
	sarl	%edx
	movl	%eax, %r10d
	movl	%edx, %r9d
.L1013:
	movslq	%ecx, %rax
	movl	32(%rsp), %edi
	movl	%r10d, 44(%rsp)
	leaq	(%rax,%rax), %rdx
	salq	$4, %rax
	movl	%r9d, 40(%rsp)
	incl	%ecx
	xorl	%r13d, %r13d
	subq	%rdx, %rax
	leal	(%rdi,%rdi), %edx
	incl	%edi
	addq	%rbx, %rax
	movl	%edi, 32(%rsp)
	movslq	%edx, %rdx
	addq	48(%rsp), %rdx
	movb	$1, 12(%rax)
	movw	%r9w, (%rax)
	movw	%r10w, 2(%rax)
	movw	$0, 4(%rax)
	movw	$0, 6(%rax)
	movzbl	(%rdx), %eax
	movzbl	1(%rdx), %edx
	sall	$8, %eax
	addl	%edx, %eax
	movl	%r12d, %edx
	movzwl	%ax, %eax
	leal	1(%rax), %r12d
	jmp	.L1015
	.p2align 4,,7
.L1051:
	movl	%r10d, %r14d
	movl	%r9d, %r15d
	movl	$1, %r13d
	jmp	.L1015
	.p2align 4,,7
.L1017:
	movb	$2, 12(%rax)
	movw	%r9w, (%rax)
	incl	%ecx
	movw	%r10w, 2(%rax)
	movw	$0, 4(%rax)
	movw	$0, 6(%rax)
	jmp	.L1015
	.p2align 4,,7
.L1101:
	movl	36(%rsp), %r11d
	testl	%r11d, %r11d
	je	.L1010
	testl	%r13d, %r13d
	movl	%ecx, %r11d
	je	.L1011
	movslq	%ecx, %rcx
	incl	%r11d
	leaq	(%rcx,%rcx), %rdi
	salq	$4, %rcx
	subq	%rdi, %rcx
	movl	56(%rsp), %edi
	addq	%rbx, %rcx
	movb	$3, 12(%rcx)
	movw	%r15w, 4(%rcx)
	addl	%r15d, %edi
	movw	%r14w, 6(%rcx)
	sarl	%edi
	movw	%di, (%rcx)
	movl	60(%rsp), %edi
	addl	%r14d, %edi
	sarl	%edi
	movw	%di, 2(%rcx)
.L1011:
	leal	1(%r11), %ecx
	movslq	%r11d, %r11
	leaq	(%r11,%r11), %rdi
	salq	$4, %r11
	subq	%rdi, %r11
	movzwl	40(%rsp), %edi
	addq	%rbx, %r11
	movb	$3, 12(%r11)
	movw	%di, (%r11)
	movzwl	44(%rsp), %edi
	movw	%di, 2(%r11)
	movzwl	56(%rsp), %edi
	movw	%di, 4(%r11)
	movzwl	60(%rsp), %edi
	movw	%di, 6(%r11)
	jmp	.L1009
.L1109:
	testq	%rbx, %rbx
	je	.L1044
	movq	%rbx, %rcx
	call	_ZN5ImGui7MemFreeEPv
.L1044:
	movq	72(%rsp), %rcx
	testq	%rcx, %rcx
	je	.L1045
	call	_ZN5ImGui7MemFreeEPv
	.p2align 4,,7
.L1045:
	xorl	%eax, %eax
	jmp	.L991
	.p2align 4,,7
.L1014:
	movl	%r10d, 60(%rsp)
	movl	%r9d, 56(%rsp)
	leal	1(%rdx), %r12d
	movswl	2(%rax), %r10d
	movswl	(%rax), %r9d
	jmp	.L1013
	.p2align 4,,7
.L1019:
	leal	1(%rcx), %r12d
	movslq	%ecx, %rcx
	leaq	(%rcx,%rcx), %rax
	salq	$4, %rcx
	subq	%rax, %rcx
	testl	%r13d, %r13d
	leaq	(%rbx,%rcx), %rax
	jne	.L1102
	movzwl	40(%rsp), %esi
	movb	$2, 12(%rax)
	movw	$0, 4(%rax)
	movw	$0, 6(%rax)
	movw	%si, (%rax)
	movzwl	44(%rsp), %esi
	movw	%si, 2(%rax)
	jmp	.L1021
	.p2align 4,,7
.L1010:
	movslq	%ecx, %r11
	leaq	(%r11,%r11), %rdi
	salq	$4, %r11
	subq	%rdi, %r11
	addq	%rbx, %r11
	testl	%r13d, %r13d
	jne	.L1103
	movzwl	40(%rsp), %edi
	movb	$2, 12(%r11)
	incl	%ecx
	movw	$0, 4(%r11)
	movw	$0, 6(%r11)
	movw	%di, (%r11)
	movzwl	44(%rsp), %edi
	movw	%di, 2(%r11)
	jmp	.L1009
	.p2align 4,,7
.L1092:
	leaq	10(%rbx,%rax), %r14
	xorl	%r12d, %r12d
	xorl	%ebx, %ebx
	xorps	%xmm8, %xmm8
	jmp	.L1049
	.p2align 4,,7
.L1108:
	movzbl	(%r14), %ecx
	movzbl	1(%r14), %r8d
	addq	$2, %r14
	movaps	%xmm8, %xmm12
	movaps	%xmm8, %xmm13
	sall	$8, %ecx
	addl	%r8d, %ecx
	movswl	%cx, %ecx
	cvtsi2ss	%ecx, %xmm6
	mulss	.LC33(%rip), %xmm6
	movaps	%xmm6, %xmm14
	movaps	%xmm6, %xmm7
	mulss	%xmm6, %xmm14
	movaps	%xmm14, %xmm0
	addss	%xmm8, %xmm0
	cvtss2sd	%xmm0, %xmm0
.L1028:
	sqrtsd	%xmm0, %xmm9
	ucomisd	%xmm9, %xmm9
	jp	.L1104
.L1030:
	movaps	%xmm12, %xmm0
	mulss	%xmm12, %xmm0
	addss	%xmm0, %xmm14
	cvtss2sd	%xmm14, %xmm0
	sqrtsd	%xmm0, %xmm15
	ucomisd	%xmm15, %xmm15
	jp	.L1105
.L1032:
	movl	68(%r13), %eax
	movzwl	%r15w, %r15d
	testl	%eax, %eax
	je	.L1106
	leaq	80(%rsp), %rdi
	leaq	144(%rsp), %rbp
	xorl	%eax, %eax
	movl	$7, %ecx
	leaq	80(%rsp), %r8
	movl	%r15d, %edx
	rep stosq
	movl	$7, %ecx
	movq	%rbp, %rdi
	movl	$1, 80(%rsp)
	rep stosq
	movq	%r13, %rcx
	call	_ZL21stbtt__run_charstringPK14stbtt_fontinfoiP12stbtt__csctx
	testl	%eax, %eax
	jne	.L1107
.L1039:
	andl	$32, %esi
	je	.L1021
.L1049:
	movq	$0, 72(%rsp)
	movzbl	(%r14), %esi
	movzbl	1(%r14), %eax
	movzbl	3(%r14), %r15d
	sall	$8, %esi
	addl	%eax, %esi
	movzbl	2(%r14), %eax
	sall	$8, %eax
	addl	%eax, %r15d
	testb	$2, %sil
	je	.L1024
	testb	$1, %sil
	je	.L1025
	movzbl	4(%r14), %eax
	movzbl	5(%r14), %edx
	addq	$8, %r14
	sall	$8, %eax
	addl	%edx, %eax
	movzbl	-1(%r14), %edx
	cwtl
	cvtsi2ss	%eax, %xmm11
	movzbl	-2(%r14), %eax
	sall	$8, %eax
	addl	%edx, %eax
	cwtl
	cvtsi2ss	%eax, %xmm10
.L1026:
	testb	$8, %sil
	jne	.L1108
	testb	$64, %sil
	je	.L1029
	movzbl	(%r14), %eax
	movzbl	1(%r14), %edx
	addq	$4, %r14
	movss	.LC33(%rip), %xmm6
	xorps	%xmm3, %xmm3
	xorps	%xmm12, %xmm12
	sall	$8, %eax
	addl	%edx, %eax
	movzbl	-1(%r14), %edx
	cwtl
	movaps	%xmm12, %xmm13
	cvtsi2ss	%eax, %xmm7
	movzbl	-2(%r14), %eax
	sall	$8, %eax
	addl	%edx, %eax
	cwtl
	cvtsi2ss	%eax, %xmm0
	mulss	%xmm6, %xmm7
	mulss	%xmm0, %xmm6
	movaps	%xmm7, %xmm0
	mulss	%xmm7, %xmm0
	movaps	%xmm6, %xmm14
	addss	%xmm3, %xmm0
	mulss	%xmm6, %xmm14
	cvtss2sd	%xmm0, %xmm0
	jmp	.L1028
	.p2align 4,,7
.L1106:
	leaq	72(%rsp), %r8
	movl	%r15d, %edx
	movq	%r13, %rcx
	call	_ZL22stbtt__GetGlyphShapeTTPK14stbtt_fontinfoiPP12stbtt_vertex
	movl	%eax, %edi
.L1035:
	testl	%edi, %edi
	jle	.L1039
	cmpl	$4, %edi
	cvtsd2ss	%xmm9, %xmm3
	cvtsd2ss	%xmm15, %xmm0
	movq	72(%rsp), %r9
	jle	.L1053
	leal	-5(%rdi), %edx
	leaq	76(%r9), %rax
	shrl	$2, %edx
	leal	4(,%rdx,4), %r8d
	xorl	%edx, %edx
	.p2align 4,,7
.L1041:
	movswl	-76(%rax), %ecx
	movaps	%xmm7, %xmm5
	prefetcht0	(%rax)
	movaps	%xmm12, %xmm4
	addl	$4, %edx
	addq	$56, %rax
	cvtsi2ss	%ecx, %xmm2
	movswl	-130(%rax), %ecx
	cvtsi2ss	%ecx, %xmm1
	mulss	%xmm2, %xmm5
	mulss	%xmm13, %xmm2
	mulss	%xmm1, %xmm4
	mulss	%xmm6, %xmm1
	addss	%xmm5, %xmm4
	movaps	%xmm7, %xmm5
	addss	%xmm2, %xmm1
	addss	%xmm11, %xmm4
	addss	%xmm10, %xmm1
	mulss	%xmm3, %xmm4
	mulss	%xmm0, %xmm1
	cvttss2si	%xmm4, %ecx
	movaps	%xmm12, %xmm4
	movw	%cx, -132(%rax)
	cvttss2si	%xmm1, %ecx
	movw	%cx, -130(%rax)
	movswl	-128(%rax), %ecx
	cvtsi2ss	%ecx, %xmm2
	movswl	-126(%rax), %ecx
	cvtsi2ss	%ecx, %xmm1
	mulss	%xmm2, %xmm5
	mulss	%xmm13, %xmm2
	mulss	%xmm1, %xmm4
	mulss	%xmm6, %xmm1
	addss	%xmm5, %xmm4
	movaps	%xmm12, %xmm5
	addss	%xmm2, %xmm1
	addss	%xmm11, %xmm4
	addss	%xmm10, %xmm1
	mulss	%xmm3, %xmm4
	mulss	%xmm0, %xmm1
	cvttss2si	%xmm4, %ecx
	movaps	%xmm7, %xmm4
	movw	%cx, -128(%rax)
	cvttss2si	%xmm1, %ecx
	movw	%cx, -126(%rax)
	movswl	-118(%rax), %ecx
	cvtsi2ss	%ecx, %xmm1
	movswl	-116(%rax), %ecx
	cvtsi2ss	%ecx, %xmm2
	mulss	%xmm1, %xmm4
	mulss	%xmm13, %xmm1
	mulss	%xmm2, %xmm5
	mulss	%xmm6, %xmm2
	addss	%xmm5, %xmm4
	movaps	%xmm12, %xmm5
	addss	%xmm2, %xmm1
	addss	%xmm11, %xmm4
	addss	%xmm10, %xmm1
	mulss	%xmm3, %xmm4
	mulss	%xmm0, %xmm1
	cvttss2si	%xmm4, %ecx
	movaps	%xmm7, %xmm4
	movw	%cx, -118(%rax)
	cvttss2si	%xmm1, %ecx
	movw	%cx, -116(%rax)
	movswl	-114(%rax), %ecx
	cvtsi2ss	%ecx, %xmm1
	movswl	-112(%rax), %ecx
	cvtsi2ss	%ecx, %xmm2
	mulss	%xmm1, %xmm4
	mulss	%xmm13, %xmm1
	mulss	%xmm2, %xmm5
	mulss	%xmm6, %xmm2
	addss	%xmm5, %xmm4
	movaps	%xmm12, %xmm5
	addss	%xmm2, %xmm1
	addss	%xmm11, %xmm4
	addss	%xmm10, %xmm1
	mulss	%xmm3, %xmm4
	mulss	%xmm0, %xmm1
	cvttss2si	%xmm4, %ecx
	movaps	%xmm7, %xmm4
	movw	%cx, -114(%rax)
	cvttss2si	%xmm1, %ecx
	movw	%cx, -112(%rax)
	movswl	-104(%rax), %ecx
	cvtsi2ss	%ecx, %xmm1
	movswl	-102(%rax), %ecx
	cvtsi2ss	%ecx, %xmm2
	mulss	%xmm1, %xmm4
	mulss	%xmm13, %xmm1
	mulss	%xmm2, %xmm5
	mulss	%xmm6, %xmm2
	addss	%xmm5, %xmm4
	movaps	%xmm12, %xmm5
	addss	%xmm2, %xmm1
	addss	%xmm11, %xmm4
	addss	%xmm10, %xmm1
	mulss	%xmm3, %xmm4
	mulss	%xmm0, %xmm1
	cvttss2si	%xmm4, %ecx
	movaps	%xmm7, %xmm4
	movw	%cx, -104(%rax)
	cvttss2si	%xmm1, %ecx
	movw	%cx, -102(%rax)
	movswl	-100(%rax), %ecx
	cvtsi2ss	%ecx, %xmm1
	movswl	-98(%rax), %ecx
	cvtsi2ss	%ecx, %xmm2
	mulss	%xmm1, %xmm4
	mulss	%xmm13, %xmm1
	mulss	%xmm2, %xmm5
	mulss	%xmm6, %xmm2
	addss	%xmm5, %xmm4
	movaps	%xmm12, %xmm5
	addss	%xmm2, %xmm1
	addss	%xmm11, %xmm4
	addss	%xmm10, %xmm1
	mulss	%xmm3, %xmm4
	mulss	%xmm0, %xmm1
	cvttss2si	%xmm4, %ecx
	movaps	%xmm7, %xmm4
	movw	%cx, -100(%rax)
	cvttss2si	%xmm1, %ecx
	movw	%cx, -98(%rax)
	movswl	-90(%rax), %ecx
	cvtsi2ss	%ecx, %xmm1
	movswl	-88(%rax), %ecx
	cvtsi2ss	%ecx, %xmm2
	mulss	%xmm1, %xmm4
	mulss	%xmm13, %xmm1
	mulss	%xmm2, %xmm5
	mulss	%xmm6, %xmm2
	addss	%xmm5, %xmm4
	movaps	%xmm12, %xmm5
	addss	%xmm2, %xmm1
	addss	%xmm11, %xmm4
	addss	%xmm10, %xmm1
	mulss	%xmm3, %xmm4
	mulss	%xmm0, %xmm1
	cvttss2si	%xmm4, %ecx
	movaps	%xmm7, %xmm4
	movw	%cx, -90(%rax)
	cvttss2si	%xmm1, %ecx
	movw	%cx, -88(%rax)
	movswl	-86(%rax), %ecx
	cvtsi2ss	%ecx, %xmm1
	movswl	-84(%rax), %ecx
	cvtsi2ss	%ecx, %xmm2
	mulss	%xmm1, %xmm4
	mulss	%xmm13, %xmm1
	mulss	%xmm2, %xmm5
	mulss	%xmm6, %xmm2
	addss	%xmm5, %xmm4
	addss	%xmm2, %xmm1
	addss	%xmm11, %xmm4
	addss	%xmm10, %xmm1
	mulss	%xmm3, %xmm4
	mulss	%xmm0, %xmm1
	cvttss2si	%xmm4, %ecx
	movw	%cx, -86(%rax)
	cvttss2si	%xmm1, %ecx
	movw	%cx, -84(%rax)
	cmpl	%edx, %r8d
	jne	.L1041
.L1040:
	movslq	%edx, %rax
	leaq	(%rax,%rax), %rcx
	salq	$4, %rax
	subq	%rcx, %rax
	addq	%r9, %rax
	.p2align 4,,7
.L1042:
	movswl	(%rax), %ecx
	movaps	%xmm12, %xmm5
	movaps	%xmm7, %xmm4
	incl	%edx
	addq	$14, %rax
	cvtsi2ss	%ecx, %xmm1
	movswl	-12(%rax), %ecx
	cvtsi2ss	%ecx, %xmm2
	mulss	%xmm1, %xmm4
	mulss	%xmm13, %xmm1
	mulss	%xmm2, %xmm5
	mulss	%xmm6, %xmm2
	addss	%xmm5, %xmm4
	movaps	%xmm12, %xmm5
	addss	%xmm2, %xmm1
	addss	%xmm11, %xmm4
	addss	%xmm10, %xmm1
	mulss	%xmm3, %xmm4
	mulss	%xmm0, %xmm1
	cvttss2si	%xmm4, %ecx
	movaps	%xmm7, %xmm4
	movw	%cx, -14(%rax)
	cvttss2si	%xmm1, %ecx
	movw	%cx, -12(%rax)
	movswl	-10(%rax), %ecx
	cvtsi2ss	%ecx, %xmm1
	movswl	-8(%rax), %ecx
	cvtsi2ss	%ecx, %xmm2
	mulss	%xmm1, %xmm4
	mulss	%xmm13, %xmm1
	mulss	%xmm2, %xmm5
	mulss	%xmm6, %xmm2
	addss	%xmm5, %xmm4
	addss	%xmm2, %xmm1
	addss	%xmm11, %xmm4
	addss	%xmm10, %xmm1
	mulss	%xmm3, %xmm4
	mulss	%xmm0, %xmm1
	cvttss2si	%xmm4, %ecx
	movw	%cx, -10(%rax)
	cvttss2si	%xmm1, %ecx
	movw	%cx, -8(%rax)
	cmpl	%edx, %edi
	jg	.L1042
	leal	(%rdi,%r12), %r15d
	movslq	%r15d, %rcx
	leaq	(%rcx,%rcx), %rax
	salq	$4, %rcx
	subq	%rax, %rcx
	call	_ZN5ImGui8MemAllocEy
	testq	%rax, %rax
	movq	%rax, %rbp
	je	.L1109
	testl	%r12d, %r12d
	je	.L1046
	leaq	(%r12,%r12), %rax
	salq	$4, %r12
	movq	%rbx, %rdx
	movq	%rbp, %rcx
	subq	%rax, %r12
	movq	%r12, %r8
	call	memcpy
	movslq	%edi, %r8
	movq	72(%rsp), %rdx
	leaq	0(%rbp,%r12), %rcx
	leaq	(%r8,%r8), %rax
	salq	$4, %r8
	subq	%rax, %r8
	call	memcpy
.L1047:
	movq	%rbx, %rcx
	call	_ZN5ImGui7MemFreeEPv
.L1048:
	movq	72(%rsp), %rcx
	movslq	%r15d, %r12
	movq	%rbp, %rbx
	call	_ZN5ImGui7MemFreeEPv
	jmp	.L1039
	.p2align 4,,7
.L1025:
	movsbl	4(%r14), %eax
	addq	$6, %r14
	cvtsi2ss	%eax, %xmm11
	movsbl	-1(%r14), %eax
	cvtsi2ss	%eax, %xmm10
	jmp	.L1026
	.p2align 4,,7
.L1046:
	movslq	%edi, %r8
	movq	72(%rsp), %rdx
	movq	%rbp, %rcx
	leaq	(%r8,%r8), %rax
	salq	$4, %r8
	subq	%rax, %r8
	call	memcpy
	testq	%rbx, %rbx
	je	.L1048
	jmp	.L1047
	.p2align 4,,7
.L1024:
	xorps	%xmm10, %xmm10
	leaq	.LC2(%rip), %rdx
	leaq	.LC7(%rip), %rcx
	movl	$1670, %r8d
	addq	$4, %r14
	call	_assert
	movaps	%xmm10, %xmm11
	jmp	.L1026
	.p2align 4,,7
.L1029:
	testb	$-128, %sil
	je	.L1052
	movzbl	(%r14), %eax
	movzbl	1(%r14), %edx
	addq	$8, %r14
	movss	.LC33(%rip), %xmm6
	sall	$8, %eax
	addl	%edx, %eax
	movzbl	-5(%r14), %edx
	cwtl
	cvtsi2ss	%eax, %xmm7
	movzbl	-6(%r14), %eax
	sall	$8, %eax
	addl	%edx, %eax
	movzbl	-3(%r14), %edx
	cwtl
	cvtsi2ss	%eax, %xmm13
	movzbl	-4(%r14), %eax
	sall	$8, %eax
	mulss	%xmm6, %xmm7
	addl	%edx, %eax
	movzbl	-1(%r14), %edx
	cwtl
	cvtsi2ss	%eax, %xmm12
	movzbl	-2(%r14), %eax
	movaps	%xmm7, %xmm1
	mulss	%xmm7, %xmm1
	sall	$8, %eax
	mulss	%xmm6, %xmm13
	addl	%edx, %eax
	cwtl
	cvtsi2ss	%eax, %xmm0
	mulss	%xmm6, %xmm12
	mulss	%xmm0, %xmm6
	movaps	%xmm13, %xmm0
	mulss	%xmm13, %xmm0
	movaps	%xmm6, %xmm14
	addss	%xmm1, %xmm0
	mulss	%xmm6, %xmm14
	cvtss2sd	%xmm0, %xmm0
	jmp	.L1028
	.p2align 4,,7
.L1107:
	movslq	128(%rsp), %rcx
	leaq	(%rcx,%rcx), %rax
	salq	$4, %rcx
	subq	%rax, %rcx
	call	_ZN5ImGui8MemAllocEy
	movq	%rbp, %r8
	movl	%r15d, %edx
	movq	%r13, %rcx
	movq	%rax, 72(%rsp)
	movq	%rax, 184(%rsp)
	call	_ZL21stbtt__run_charstringPK14stbtt_fontinfoiP12stbtt__csctx
	testl	%eax, %eax
	je	.L1039
	movl	128(%rsp), %edi
	cmpl	%edi, 192(%rsp)
	je	.L1035
	leaq	.LC2(%rip), %rdx
	leaq	.LC34(%rip), %rcx
	movl	$2113, %r8d
	call	_assert
	movl	192(%rsp), %edi
	jmp	.L1035
	.p2align 4,,7
.L1052:
	xorps	%xmm12, %xmm12
	movlpd	.LC32(%rip), %xmm0
	movss	.LC24(%rip), %xmm6
	movaps	%xmm6, %xmm7
	movaps	%xmm6, %xmm14
	movaps	%xmm12, %xmm13
	jmp	.L1028
.L1053:
	xorl	%edx, %edx
	jmp	.L1040
.L1102:
	movzwl	40(%rsp), %esi
	movb	$3, 12(%rax)
	movw	%r15w, 4(%rax)
	movw	%r14w, 6(%rax)
	movw	%si, (%rax)
	movzwl	44(%rsp), %esi
	movw	%si, 2(%rax)
	jmp	.L1021
.L1103:
	movzwl	40(%rsp), %edi
	movb	$3, 12(%r11)
	incl	%ecx
	movw	%r15w, 4(%r11)
	movw	%r14w, 6(%r11)
	movw	%di, (%r11)
	movzwl	44(%rsp), %edi
	movw	%di, 2(%r11)
	jmp	.L1009
.L1093:
	leaq	.LC2(%rip), %rdx
	leaq	.LC7(%rip), %rcx
	movl	$1723, %r8d
	call	_assert
	jmp	.L1021
.L1105:
	call	sqrt
	movsd	%xmm0, %xmm15
	.p2align 4,,3
	jmp	.L1032
.L1104:
	call	sqrt
	movsd	%xmm0, %xmm9
	jmp	.L1030
	.seh_endproc
	.p2align 4,,15
	.def	stbtt_GetGlyphBitmapBoxSubpixel.constprop.72;	.scl	3;	.type	32;	.endef
	.seh_proc	stbtt_GetGlyphBitmapBoxSubpixel.constprop.72
stbtt_GetGlyphBitmapBoxSubpixel.constprop.72:
.LFB808:
	pushq	%r14
	.seh_pushreg	%r14
	pushq	%r13
	.seh_pushreg	%r13
	pushq	%r12
	.seh_pushreg	%r12
	pushq	%rbp
	.seh_pushreg	%rbp
	pushq	%rdi
	.seh_pushreg	%rdi
	pushq	%rsi
	.seh_pushreg	%rsi
	pushq	%rbx
	.seh_pushreg	%rbx
	addq	$-128, %rsp
	.seh_stackalloc	128
	movaps	%xmm6, 96(%rsp)
	.seh_savexmm	%xmm6, 96
	movaps	%xmm7, 112(%rsp)
	.seh_savexmm	%xmm7, 112
	.seh_endprologue
	movq	%rcx, %rbx
	movaps	%xmm2, %xmm7
	movl	68(%rcx), %eax
	movaps	%xmm3, %xmm6
	movq	224(%rsp), %rbp
	movq	232(%rsp), %r13
	movq	240(%rsp), %r14
	movq	248(%rsp), %r12
	testl	%eax, %eax
	jne	.L1142
	call	_ZL20stbtt__GetGlyfOffsetPK14stbtt_fontinfoi
	testl	%eax, %eax
	js	.L1114
	movq	8(%rbx), %rcx
	cltq
	leaq	2(%rcx,%rax), %r8
	movzbl	(%r8), %edx
	movzbl	1(%r8), %r8d
	sall	$8, %edx
	addl	%r8d, %edx
	leaq	4(%rcx,%rax), %r8
	movswl	%dx, %edx
	movzbl	(%r8), %ebx
	movzbl	1(%r8), %r8d
	sall	$8, %ebx
	addl	%r8d, %ebx
	leaq	6(%rcx,%rax), %r8
	leaq	8(%rcx,%rax), %rax
	movswl	%bx, %ebx
	movzbl	(%r8), %edi
	movzbl	(%rax), %esi
	movzbl	1(%r8), %r8d
	movzbl	1(%rax), %eax
	sall	$8, %edi
	sall	$8, %esi
	addl	%r8d, %edi
	addl	%eax, %esi
	movswl	%di, %edi
	movswl	%si, %esi
.L1113:
	testq	%rbp, %rbp
	je	.L1125
	cvtsi2ss	%edx, %xmm0
	mulss	%xmm7, %xmm0
	addss	.LC28(%rip), %xmm0
	cvtss2sd	%xmm0, %xmm0
	call	floor
	cvttsd2si	%xmm0, %eax
	movl	%eax, 0(%rbp)
.L1125:
	testq	%r13, %r13
	je	.L1119
	negl	%esi
	cvtsi2ss	%esi, %xmm0
	mulss	%xmm6, %xmm0
	addss	.LC28(%rip), %xmm0
	cvtss2sd	%xmm0, %xmm0
	call	floor
	cvttsd2si	%xmm0, %eax
	movl	%eax, 0(%r13)
.L1119:
	testq	%r14, %r14
	je	.L1120
	cvtsi2ss	%edi, %xmm0
	mulss	%xmm7, %xmm0
	addss	.LC28(%rip), %xmm0
	cvtss2sd	%xmm0, %xmm0
	call	ceil
	cvttsd2si	%xmm0, %eax
	movl	%eax, (%r14)
.L1120:
	testq	%r12, %r12
	je	.L1110
	negl	%ebx
	cvtsi2ss	%ebx, %xmm0
	mulss	%xmm6, %xmm0
	addss	.LC28(%rip), %xmm0
	cvtss2sd	%xmm0, %xmm0
	call	ceil
	cvttsd2si	%xmm0, %eax
	movl	%eax, (%r12)
.L1110:
	movaps	96(%rsp), %xmm6
	movaps	112(%rsp), %xmm7
	subq	$-128, %rsp
	popq	%rbx
	popq	%rsi
	popq	%rdi
	popq	%rbp
	popq	%r12
	popq	%r13
	popq	%r14
	ret
	.p2align 4,,7
.L1114:
	testq	%rbp, %rbp
	je	.L1123
	movl	$0, 0(%rbp)
.L1123:
	testq	%r13, %r13
	je	.L1115
	movl	$0, 0(%r13)
.L1115:
	testq	%r14, %r14
	je	.L1116
	movl	$0, (%r14)
.L1116:
	testq	%r12, %r12
	je	.L1110
	movl	$0, (%r12)
	jmp	.L1110
	.p2align 4,,7
.L1142:
	leaq	32(%rsp), %rdi
	xorl	%eax, %eax
	movl	$7, %ecx
	leaq	32(%rsp), %r8
	rep stosq
	movq	%rbx, %rcx
	movl	$1, 32(%rsp)
	call	_ZL21stbtt__run_charstringPK14stbtt_fontinfoiP12stbtt__csctx
	testl	%eax, %eax
	je	.L1126
	movl	56(%rsp), %edx
	movl	64(%rsp), %ebx
	movl	60(%rsp), %edi
	movl	68(%rsp), %esi
	jmp	.L1113
	.p2align 4,,7
.L1126:
	xorl	%esi, %esi
	xorl	%edi, %edi
	xorl	%ebx, %ebx
	xorl	%edx, %edx
	jmp	.L1113
	.seh_endproc
	.section	.text$snprintf,"x"
	.linkonce discard
	.p2align 4,,15
	.globl	snprintf
	.def	snprintf;	.scl	2;	.type	32;	.endef
	.seh_proc	snprintf
snprintf:
.LFB144:
	subq	$56, %rsp
	.seh_stackalloc	56
	.seh_endprologue
	movq	%r9, 88(%rsp)
	leaq	88(%rsp), %r9
	movq	%r9, 40(%rsp)
	call	__ms_vsnprintf
	addq	$56, %rsp
	ret
	.seh_endproc
	.text
	.align 2
	.p2align 4,,15
	.globl	_ZN10ImDrawList5ClearEv
	.def	_ZN10ImDrawList5ClearEv;	.scl	2;	.type	32;	.endef
	.seh_proc	_ZN10ImDrawList5ClearEv
_ZN10ImDrawList5ClearEv:
.LFB406:
	pushq	%rsi
	.seh_pushreg	%rsi
	pushq	%rbx
	.seh_pushreg	%rbx
	subq	$40, %rsp
	.seh_stackalloc	40
	.seh_endprologue
	movl	4(%rcx), %eax
	movq	%rcx, %rbx
	testl	%eax, %eax
	jns	.L1145
	xorl	%ecx, %ecx
	call	_ZN5ImGui8MemAllocEy
	movq	8(%rbx), %rcx
	movq	%rax, %rsi
	testq	%rcx, %rcx
	je	.L1146
	movslq	(%rbx), %r8
	movq	%rcx, %rdx
	movq	%rsi, %rcx
	movq	%r8, %rax
	salq	$6, %r8
	salq	$4, %rax
	subq	%rax, %r8
	call	memcpy
	movq	8(%rbx), %rcx
.L1146:
	call	_ZN5ImGui7MemFreeEPv
	movq	%rsi, 8(%rbx)
	movl	$0, 4(%rbx)
.L1145:
	movl	20(%rbx), %r8d
	movl	$0, (%rbx)
	testl	%r8d, %r8d
	js	.L1188
	movl	36(%rbx), %esi
	movl	$0, 16(%rbx)
	testl	%esi, %esi
	jns	.L1152
.L1151:
	xorl	%ecx, %ecx
	call	_ZN5ImGui8MemAllocEy
	movq	40(%rbx), %rcx
	movq	%rax, %rsi
	testq	%rcx, %rcx
	je	.L1150
	movslq	32(%rbx), %rax
	movq	%rax, %rdx
	salq	$4, %rdx
	leaq	(%rdx,%rax,4), %r8
	movq	%rcx, %rdx
	movq	%rsi, %rcx
	call	memcpy
	movq	40(%rbx), %rcx
.L1150:
	call	_ZN5ImGui7MemFreeEPv
	movq	%rsi, 40(%rbx)
	movl	$0, 36(%rbx)
.L1152:
	movl	84(%rbx), %ecx
	movl	$0, 32(%rbx)
	movl	$0, 56(%rbx)
	movq	$0, 64(%rbx)
	movq	$0, 72(%rbx)
	testl	%ecx, %ecx
	js	.L1162
	movl	100(%rbx), %r10d
	movl	$0, 80(%rbx)
	testl	%r10d, %r10d
	jns	.L1155
.L1164:
	xorl	%ecx, %ecx
	call	_ZN5ImGui8MemAllocEy
	movq	104(%rbx), %rcx
	movq	%rax, %rsi
	testq	%rcx, %rcx
	je	.L1156
	movslq	96(%rbx), %r8
	movq	%rcx, %rdx
	movq	%rax, %rcx
	salq	$3, %r8
	call	memcpy
	movq	104(%rbx), %rcx
.L1156:
	call	_ZN5ImGui7MemFreeEPv
	movq	%rsi, 104(%rbx)
	movl	$0, 100(%rbx)
.L1155:
	movl	116(%rbx), %eax
	movl	$0, 96(%rbx)
	testl	%eax, %eax
	js	.L1157
.L1158:
	movl	$0, 112(%rbx)
	movl	$0, 128(%rbx)
	movl	$1, 132(%rbx)
	addq	$40, %rsp
	popq	%rbx
	popq	%rsi
	ret
	.p2align 4,,7
.L1188:
	xorl	%ecx, %ecx
	call	_ZN5ImGui8MemAllocEy
	movq	24(%rbx), %rcx
	movq	%rax, %rsi
	testq	%rcx, %rcx
	je	.L1147
	movslq	16(%rbx), %r8
	movq	%rcx, %rdx
	movq	%rax, %rcx
	addq	%r8, %r8
	call	memcpy
	movq	24(%rbx), %rcx
.L1147:
	call	_ZN5ImGui7MemFreeEPv
	movl	36(%rbx), %eax
	movq	%rsi, 24(%rbx)
	movl	$0, 20(%rbx)
	movl	$0, 16(%rbx)
	testl	%eax, %eax
	js	.L1151
	movl	84(%rbx), %r11d
	movl	$0, 32(%rbx)
	movl	$0, 56(%rbx)
	movq	$0, 64(%rbx)
	movq	$0, 72(%rbx)
	testl	%r11d, %r11d
	jns	.L1153
.L1162:
	xorl	%ecx, %ecx
	call	_ZN5ImGui8MemAllocEy
	movq	88(%rbx), %rcx
	movq	%rax, %rsi
	testq	%rcx, %rcx
	je	.L1154
	movslq	80(%rbx), %r8
	movq	%rcx, %rdx
	movq	%rax, %rcx
	salq	$4, %r8
	call	memcpy
	movq	88(%rbx), %rcx
.L1154:
	call	_ZN5ImGui7MemFreeEPv
	movq	%rsi, 88(%rbx)
	movl	$0, 84(%rbx)
.L1153:
	movl	100(%rbx), %edx
	movl	$0, 80(%rbx)
	testl	%edx, %edx
	js	.L1164
	movl	116(%rbx), %r9d
	movl	$0, 96(%rbx)
	testl	%r9d, %r9d
	jns	.L1158
.L1157:
	xorl	%ecx, %ecx
	call	_ZN5ImGui8MemAllocEy
	movq	120(%rbx), %rcx
	movq	%rax, %rsi
	testq	%rcx, %rcx
	je	.L1159
	movslq	112(%rbx), %r8
	movq	%rcx, %rdx
	movq	%rax, %rcx
	salq	$3, %r8
	call	memcpy
	movq	120(%rbx), %rcx
.L1159:
	call	_ZN5ImGui7MemFreeEPv
	movq	%rsi, 120(%rbx)
	movl	$0, 116(%rbx)
	jmp	.L1158
	.seh_endproc
	.section .rdata,"dr"
	.align 8
.LC35:
	.ascii "C:/libraries/include/imgui/imgui.h\0"
.LC36:
	.ascii "i < Size\0"
	.text
	.align 2
	.p2align 4,,15
	.globl	_ZN10ImDrawList15ClearFreeMemoryEv
	.def	_ZN10ImDrawList15ClearFreeMemoryEv;	.scl	2;	.type	32;	.endef
	.seh_proc	_ZN10ImDrawList15ClearFreeMemoryEv
_ZN10ImDrawList15ClearFreeMemoryEv:
.LFB407:
	pushq	%rbp
	.seh_pushreg	%rbp
	pushq	%rdi
	.seh_pushreg	%rdi
	pushq	%rsi
	.seh_pushreg	%rsi
	pushq	%rbx
	.seh_pushreg	%rbx
	subq	$40, %rsp
	.seh_stackalloc	40
	.seh_endprologue
	movq	%rcx, %rsi
	movq	8(%rcx), %rcx
	testq	%rcx, %rcx
	je	.L1190
	movl	$0, 4(%rsi)
	movl	$0, (%rsi)
	call	_ZN5ImGui7MemFreeEPv
	movq	$0, 8(%rsi)
.L1190:
	movq	24(%rsi), %rcx
	testq	%rcx, %rcx
	je	.L1191
	movl	$0, 20(%rsi)
	movl	$0, 16(%rsi)
	call	_ZN5ImGui7MemFreeEPv
	movq	$0, 24(%rsi)
.L1191:
	movq	40(%rsi), %rcx
	testq	%rcx, %rcx
	je	.L1192
	movl	$0, 36(%rsi)
	movl	$0, 32(%rsi)
	call	_ZN5ImGui7MemFreeEPv
	movq	$0, 40(%rsi)
.L1192:
	movq	88(%rsi), %rcx
	movl	$0, 56(%rsi)
	movq	$0, 64(%rsi)
	movq	$0, 72(%rsi)
	testq	%rcx, %rcx
	je	.L1193
	movl	$0, 84(%rsi)
	movl	$0, 80(%rsi)
	call	_ZN5ImGui7MemFreeEPv
	movq	$0, 88(%rsi)
.L1193:
	movq	104(%rsi), %rcx
	testq	%rcx, %rcx
	je	.L1194
	movl	$0, 100(%rsi)
	movl	$0, 96(%rsi)
	call	_ZN5ImGui7MemFreeEPv
	movq	$0, 104(%rsi)
.L1194:
	movq	120(%rsi), %rcx
	testq	%rcx, %rcx
	je	.L1195
	movl	$0, 116(%rsi)
	movl	$0, 112(%rsi)
	call	_ZN5ImGui7MemFreeEPv
	movq	$0, 120(%rsi)
.L1195:
	movl	136(%rsi), %eax
	xorl	%ebp, %ebp
	xorl	%edi, %edi
	movl	$0, 128(%rsi)
	movl	$1, 132(%rsi)
	testl	%eax, %eax
	jg	.L1232
	jmp	.L1205
	.p2align 4,,7
.L1200:
	movq	%rbp, %rbx
	addq	144(%rsi), %rbx
	movq	8(%rbx), %rcx
	testq	%rcx, %rcx
	je	.L1203
.L1207:
	movl	$0, 4(%rbx)
	movl	$0, (%rbx)
	call	_ZN5ImGui7MemFreeEPv
	movq	$0, 8(%rbx)
.L1201:
	cmpl	%edi, 136(%rsi)
	jg	.L1233
	leaq	.LC35(%rip), %rdx
	leaq	.LC36(%rip), %rcx
	movl	$856, %r8d
	call	_assert
.L1233:
	movq	%rbp, %rbx
	addq	144(%rsi), %rbx
.L1203:
	movq	24(%rbx), %rcx
	testq	%rcx, %rcx
	je	.L1204
	movl	$0, 20(%rbx)
	movl	$0, 16(%rbx)
	call	_ZN5ImGui7MemFreeEPv
	movq	$0, 24(%rbx)
.L1204:
	movl	136(%rsi), %eax
	incl	%edi
	addq	$32, %rbp
	cmpl	%edi, %eax
	jle	.L1205
.L1232:
	testl	%edi, %edi
	jne	.L1199
	movq	144(%rsi), %rax
	movq	$0, (%rax)
	movq	$0, 8(%rax)
	movq	$0, 16(%rax)
	movq	$0, 24(%rax)
	movl	136(%rsi), %eax
.L1199:
	cmpl	%eax, %edi
	jl	.L1200
	leaq	.LC36(%rip), %rcx
	leaq	.LC35(%rip), %rdx
	movl	$856, %r8d
	movq	%rbp, %rbx
	call	_assert
	addq	144(%rsi), %rbx
	movq	8(%rbx), %rcx
	testq	%rcx, %rcx
	jne	.L1207
	jmp	.L1201
	.p2align 4,,7
.L1205:
	movq	144(%rsi), %rcx
	testq	%rcx, %rcx
	je	.L1189
	movl	$0, 140(%rsi)
	movl	$0, 136(%rsi)
	call	_ZN5ImGui7MemFreeEPv
	movq	$0, 144(%rsi)
.L1189:
	addq	$40, %rsp
	popq	%rbx
	popq	%rsi
	popq	%rdi
	popq	%rbp
	ret
	.seh_endproc
	.section .rdata,"dr"
	.align 8
.LC37:
	.ascii "draw_cmd.ClipRect.x <= draw_cmd.ClipRect.z && draw_cmd.ClipRect.y <= draw_cmd.ClipRect.w\0"
	.text
	.align 2
	.p2align 4,,15
	.globl	_ZN10ImDrawList10AddDrawCmdEv
	.def	_ZN10ImDrawList10AddDrawCmdEv;	.scl	2;	.type	32;	.endef
	.seh_proc	_ZN10ImDrawList10AddDrawCmdEv
_ZN10ImDrawList10AddDrawCmdEv:
.LFB408:
	pushq	%rbp
	.seh_pushreg	%rbp
	pushq	%rdi
	.seh_pushreg	%rdi
	pushq	%rsi
	.seh_pushreg	%rsi
	pushq	%rbx
	.seh_pushreg	%rbx
	subq	$104, %rsp
	.seh_stackalloc	104
	movaps	%xmm6, 32(%rsp)
	.seh_savexmm	%xmm6, 32
	movaps	%xmm7, 48(%rsp)
	.seh_savexmm	%xmm7, 48
	movaps	%xmm8, 64(%rsp)
	.seh_savexmm	%xmm8, 64
	movaps	%xmm9, 80(%rsp)
	.seh_savexmm	%xmm9, 80
	.seh_endprologue
	leaq	_ZL13GNullClipRect(%rip), %rax
	movq	%rcx, %rbx
	movslq	80(%rcx), %rdx
	testl	%edx, %edx
	je	.L1235
	movq	88(%rcx), %rax
	salq	$4, %rdx
	leaq	-16(%rax,%rdx), %rax
.L1235:
	movss	(%rax), %xmm7
	xorl	%edi, %edi
	movss	4(%rax), %xmm9
	movss	8(%rax), %xmm6
	movss	12(%rax), %xmm8
	movslq	96(%rbx), %rax
	testl	%eax, %eax
	je	.L1236
	movq	104(%rbx), %rdx
	movq	-8(%rdx,%rax,8), %rdi
.L1236:
	ucomiss	%xmm7, %xmm6
	jb	.L1237
	ucomiss	%xmm9, %xmm8
	jnb	.L1239
.L1237:
	leaq	.LC5(%rip), %rdx
	leaq	.LC37(%rip), %rcx
	movl	$171, %r8d
	call	_assert
.L1239:
	movslq	(%rbx), %rdx
	cmpl	4(%rbx), %edx
	je	.L1240
	movq	8(%rbx), %rax
	leal	1(%rdx), %r8d
.L1241:
	movq	%rdx, %rcx
	salq	$6, %rdx
	movl	%r8d, (%rbx)
	salq	$4, %rcx
	subq	%rcx, %rdx
	addq	%rdx, %rax
	movss	%xmm7, 4(%rax)
	movl	$0, (%rax)
	movq	%rdi, 24(%rax)
	movss	%xmm9, 8(%rax)
	movq	$0, 32(%rax)
	movq	$0, 40(%rax)
	movss	%xmm6, 12(%rax)
	movss	%xmm8, 16(%rax)
	movaps	32(%rsp), %xmm6
	movaps	48(%rsp), %xmm7
	movaps	64(%rsp), %xmm8
	movaps	80(%rsp), %xmm9
	addq	$104, %rsp
	popq	%rbx
	popq	%rsi
	popq	%rdi
	popq	%rbp
	ret
	.p2align 4,,7
.L1240:
	testl	%edx, %edx
	leal	1(%rdx), %r8d
	movl	$8, %eax
	jne	.L1255
	cmpl	%eax, %r8d
	cmovge	%r8d, %eax
	cmpl	%edx, %eax
	movl	%eax, %ebp
	jg	.L1243
.L1256:
	movq	8(%rbx), %rax
	jmp	.L1241
	.p2align 4,,7
.L1255:
	movl	%edx, %eax
	shrl	$31, %eax
	addl	%edx, %eax
	sarl	%eax
	addl	%edx, %eax
	cmpl	%eax, %r8d
	cmovge	%r8d, %eax
	cmpl	%edx, %eax
	movl	%eax, %ebp
	jle	.L1256
.L1243:
	movslq	%eax, %rcx
	movq	%rcx, %rax
	salq	$6, %rcx
	salq	$4, %rax
	subq	%rax, %rcx
	call	_ZN5ImGui8MemAllocEy
	movq	8(%rbx), %rcx
	movq	%rax, %rsi
	testq	%rcx, %rcx
	je	.L1244
	movslq	(%rbx), %r8
	movq	%rcx, %rdx
	movq	%rsi, %rcx
	movq	%r8, %rax
	salq	$6, %r8
	salq	$4, %rax
	subq	%rax, %r8
	call	memcpy
	movq	8(%rbx), %rcx
.L1244:
	call	_ZN5ImGui7MemFreeEPv
	movslq	(%rbx), %rdx
	movq	%rsi, 8(%rbx)
	movq	%rsi, %rax
	movl	%ebp, 4(%rbx)
	leal	1(%rdx), %r8d
	jmp	.L1241
	.seh_endproc
	.section .rdata,"dr"
.LC38:
	.ascii "Size > 0\0"
	.text
	.align 2
	.p2align 4,,15
	.globl	_ZN10ImDrawList11AddCallbackEPFvPKS_PK9ImDrawCmdEPv
	.def	_ZN10ImDrawList11AddCallbackEPFvPKS_PK9ImDrawCmdEPv;	.scl	2;	.type	32;	.endef
	.seh_proc	_ZN10ImDrawList11AddCallbackEPFvPKS_PK9ImDrawCmdEPv
_ZN10ImDrawList11AddCallbackEPFvPKS_PK9ImDrawCmdEPv:
.LFB409:
	pushq	%rdi
	.seh_pushreg	%rdi
	pushq	%rsi
	.seh_pushreg	%rsi
	pushq	%rbx
	.seh_pushreg	%rbx
	subq	$32, %rsp
	.seh_stackalloc	32
	.seh_endprologue
	movslq	(%rcx), %rax
	movq	%rcx, %rbx
	movq	%rdx, %rdi
	movq	%r8, %rsi
	cmpl	$0, %eax
	jne	.L1258
.L1262:
	movq	%rbx, %rcx
	call	_ZN10ImDrawList10AddDrawCmdEv
	movslq	(%rbx), %rax
	testl	%eax, %eax
	jle	.L1269
.L1259:
	movq	%rax, %rdx
	salq	$6, %rax
	salq	$4, %rdx
	subq	%rdx, %rax
	movq	8(%rbx), %rdx
	leaq	-48(%rdx,%rax), %rax
.L1263:
	movq	%rbx, %rcx
	movq	%rdi, 32(%rax)
	movq	%rsi, 40(%rax)
	addq	$32, %rsp
	popq	%rbx
	popq	%rsi
	popq	%rdi
	jmp	_ZN10ImDrawList10AddDrawCmdEv
	.p2align 4,,7
.L1258:
	jle	.L1270
.L1261:
	movq	%rax, %rdx
	salq	$6, %rax
	salq	$4, %rdx
	subq	%rdx, %rax
	movq	8(%rbx), %rdx
	leaq	-48(%rdx,%rax), %rax
	testq	%rax, %rax
	je	.L1262
	movl	(%rax), %edx
	testl	%edx, %edx
	jne	.L1262
	cmpq	$0, 32(%rax)
	jne	.L1262
	.p2align 4,,2
	jmp	.L1263
	.p2align 4,,7
.L1269:
	leaq	.LC35(%rip), %rdx
	leaq	.LC38(%rip), %rcx
	movl	$866, %r8d
	call	_assert
	movslq	(%rbx), %rax
	jmp	.L1259
	.p2align 4,,7
.L1270:
	leaq	.LC35(%rip), %rdx
	leaq	.LC38(%rip), %rcx
	movl	$866, %r8d
	call	_assert
	movslq	(%rbx), %rax
	jmp	.L1261
	.seh_endproc
	.align 2
	.p2align 4,,15
	.globl	_ZN10ImDrawList14UpdateClipRectEv
	.def	_ZN10ImDrawList14UpdateClipRectEv;	.scl	2;	.type	32;	.endef
	.seh_proc	_ZN10ImDrawList14UpdateClipRectEv
_ZN10ImDrawList14UpdateClipRectEv:
.LFB410:
	pushq	%rbp
	.seh_pushreg	%rbp
	pushq	%rdi
	.seh_pushreg	%rdi
	pushq	%rsi
	.seh_pushreg	%rsi
	pushq	%rbx
	.seh_pushreg	%rbx
	subq	$56, %rsp
	.seh_stackalloc	56
	.seh_endprologue
	movslq	80(%rcx), %rax
	leaq	_ZL13GNullClipRect(%rip), %rdx
	movq	%rcx, %rbx
	testl	%eax, %eax
	je	.L1272
	movq	88(%rcx), %rdx
	salq	$4, %rax
	leaq	-16(%rdx,%rax), %rdx
.L1272:
	movl	(%rbx), %edi
	movq	(%rdx), %rax
	movq	8(%rdx), %rdx
	testl	%edi, %edi
	movq	%rax, 32(%rsp)
	movq	%rdx, 40(%rsp)
	jle	.L1273
	movslq	%edi, %rax
	movq	%rax, %rdx
	salq	$6, %rax
	salq	$4, %rdx
	subq	%rdx, %rax
	movq	8(%rbx), %rdx
	leaq	-48(%rdx,%rax), %rsi
	testq	%rsi, %rsi
	je	.L1273
	movl	(%rsi), %ebp
	testl	%ebp, %ebp
	jne	.L1298
	cmpq	$0, 32(%rsi)
	je	.L1275
.L1273:
	movq	%rbx, %rcx
	addq	$56, %rsp
	popq	%rbx
	popq	%rsi
	popq	%rdi
	popq	%rbp
	jmp	_ZN10ImDrawList10AddDrawCmdEv
	.p2align 4,,7
.L1298:
	leaq	32(%rsp), %rdx
	leaq	4(%rsi), %rcx
	movl	$16, %r8d
	call	memcmp
	testl	%eax, %eax
	jne	.L1273
	cmpq	$0, 32(%rsi)
	jne	.L1273
.L1275:
	cmpl	$1, %edi
	je	.L1276
	cmpq	$48, %rsi
	leaq	-48(%rsi), %rcx
	je	.L1276
	testl	%ebp, %ebp
	jne	.L1276
	leaq	32(%rsp), %rdx
	addq	$4, %rcx
	movl	$16, %r8d
	call	memcmp
	testl	%eax, %eax
	jne	.L1276
	movslq	96(%rbx), %rax
	xorl	%edx, %edx
	movq	-24(%rsi), %rcx
	testl	%eax, %eax
	je	.L1277
	movq	104(%rbx), %rdx
	movq	-8(%rdx,%rax,8), %rdx
.L1277:
	cmpq	%rcx, %rdx
	jne	.L1276
	cmpq	$0, -16(%rsi)
	jne	.L1276
	decl	%edi
	movl	%edi, (%rbx)
	jmp	.L1271
	.p2align 4,,7
.L1276:
	movq	32(%rsp), %rax
	movq	40(%rsp), %rdx
	movq	%rax, 4(%rsi)
	movq	%rdx, 12(%rsi)
.L1271:
	addq	$56, %rsp
	popq	%rbx
	popq	%rsi
	popq	%rdi
	popq	%rbp
	ret
	.seh_endproc
	.align 2
	.p2align 4,,15
	.globl	_ZN10ImDrawList15UpdateTextureIDEv
	.def	_ZN10ImDrawList15UpdateTextureIDEv;	.scl	2;	.type	32;	.endef
	.seh_proc	_ZN10ImDrawList15UpdateTextureIDEv
_ZN10ImDrawList15UpdateTextureIDEv:
.LFB411:
	pushq	%rbp
	.seh_pushreg	%rbp
	pushq	%rdi
	.seh_pushreg	%rdi
	pushq	%rsi
	.seh_pushreg	%rsi
	pushq	%rbx
	.seh_pushreg	%rbx
	subq	$40, %rsp
	.seh_stackalloc	40
	.seh_endprologue
	movslq	96(%rcx), %rax
	xorl	%ebp, %ebp
	movq	%rcx, %rbx
	testl	%eax, %eax
	je	.L1300
	movq	104(%rcx), %rdx
	movq	-8(%rdx,%rax,8), %rbp
.L1300:
	movl	(%rbx), %edi
	cmpl	$0, %edi
	jne	.L1301
.L1303:
	movq	%rbx, %rcx
	addq	$40, %rsp
	popq	%rbx
	popq	%rsi
	popq	%rdi
	popq	%rbp
	jmp	_ZN10ImDrawList10AddDrawCmdEv
	.p2align 4,,7
.L1301:
	jle	.L1318
.L1302:
	movslq	%edi, %rax
	movq	%rax, %rdx
	salq	$6, %rax
	salq	$4, %rdx
	subq	%rdx, %rax
	movq	8(%rbx), %rdx
	leaq	-48(%rdx,%rax), %rsi
	testq	%rsi, %rsi
	je	.L1303
	movl	(%rsi), %eax
	testl	%eax, %eax
	je	.L1304
	cmpq	24(%rsi), %rbp
	jne	.L1303
	.p2align 4,,7
.L1304:
	cmpq	$0, 32(%rsi)
	jne	.L1303
	cmpl	$1, %edi
	jle	.L1305
	movq	%rsi, %rcx
	subq	$48, %rcx
	je	.L1305
	cmpq	-24(%rsi), %rbp
	je	.L1319
.L1305:
	movq	%rbp, 24(%rsi)
.L1299:
	addq	$40, %rsp
	popq	%rbx
	popq	%rsi
	popq	%rdi
	popq	%rbp
	ret
	.p2align 4,,7
.L1318:
	leaq	.LC35(%rip), %rdx
	leaq	.LC38(%rip), %rcx
	movl	$866, %r8d
	call	_assert
	movl	(%rbx), %edi
	jmp	.L1302
	.p2align 4,,7
.L1319:
	movslq	80(%rbx), %rax
	leaq	_ZL13GNullClipRect(%rip), %rdx
	testl	%eax, %eax
	je	.L1306
	movq	88(%rbx), %rdx
	salq	$4, %rax
	leaq	-16(%rdx,%rax), %rdx
.L1306:
	addq	$4, %rcx
	movl	$16, %r8d
	call	memcmp
	testl	%eax, %eax
	jne	.L1305
	cmpq	$0, -16(%rsi)
	jne	.L1305
	decl	%edi
	movl	%edi, (%rbx)
	jmp	.L1299
	.seh_endproc
	.align 2
	.p2align 4,,15
	.globl	_ZN10ImDrawList12PushClipRectE6ImVec2S0_b
	.def	_ZN10ImDrawList12PushClipRectE6ImVec2S0_b;	.scl	2;	.type	32;	.endef
	.seh_proc	_ZN10ImDrawList12PushClipRectE6ImVec2S0_b
_ZN10ImDrawList12PushClipRectE6ImVec2S0_b:
.LFB412:
	pushq	%rdi
	.seh_pushreg	%rdi
	pushq	%rsi
	.seh_pushreg	%rsi
	pushq	%rbx
	.seh_pushreg	%rbx
	subq	$112, %rsp
	.seh_stackalloc	112
	movaps	%xmm6, 48(%rsp)
	.seh_savexmm	%xmm6, 48
	movaps	%xmm7, 64(%rsp)
	.seh_savexmm	%xmm7, 64
	movaps	%xmm8, 80(%rsp)
	.seh_savexmm	%xmm8, 80
	movaps	%xmm9, 96(%rsp)
	.seh_savexmm	%xmm9, 96
	.seh_endprologue
	movq	%r8, %rax
	movq	%rcx, %rbx
	shrq	$32, %rax
	movl	%eax, 44(%rsp)
	movq	%rdx, %rax
	movss	44(%rsp), %xmm7
	shrq	$32, %rax
	movl	%r8d, 44(%rsp)
	movss	44(%rsp), %xmm6
	movl	%eax, 44(%rsp)
	movss	44(%rsp), %xmm9
	testb	%r9b, %r9b
	movl	%edx, 44(%rsp)
	movslq	80(%rcx), %rdx
	movss	44(%rsp), %xmm8
	je	.L1322
	testl	%edx, %edx
	jne	.L1349
.L1322:
	movaps	%xmm6, %xmm0
	cmpl	84(%rbx), %edx
	cmpnless	%xmm8, %xmm0
	andps	%xmm0, %xmm6
	andnps	%xmm8, %xmm0
	orps	%xmm0, %xmm6
	movaps	%xmm7, %xmm0
	cmpnless	%xmm9, %xmm0
	andps	%xmm0, %xmm7
	andnps	%xmm9, %xmm0
	orps	%xmm0, %xmm7
	je	.L1330
	movq	88(%rbx), %rax
	leal	1(%rdx), %r8d
.L1331:
	salq	$4, %rdx
	movl	%r8d, 80(%rbx)
	movq	%rbx, %rcx
	addq	%rax, %rdx
	movss	%xmm8, (%rdx)
	movss	%xmm9, 4(%rdx)
	movss	%xmm6, 8(%rdx)
	movss	%xmm7, 12(%rdx)
	movaps	48(%rsp), %xmm6
	movaps	64(%rsp), %xmm7
	movaps	80(%rsp), %xmm8
	movaps	96(%rsp), %xmm9
	addq	$112, %rsp
	popq	%rbx
	popq	%rsi
	popq	%rdi
	jmp	_ZN10ImDrawList14UpdateClipRectEv
	.p2align 4,,7
.L1349:
	movq	88(%rcx), %rcx
	movslq	%edx, %rax
	salq	$4, %rax
	leaq	-16(%rcx,%rax), %rax
	movss	(%rax), %xmm3
	movss	4(%rax), %xmm2
	maxss	%xmm8, %xmm3
	movss	8(%rax), %xmm1
	maxss	%xmm9, %xmm2
	movss	12(%rax), %xmm0
	minss	%xmm6, %xmm1
	minss	%xmm7, %xmm0
	movaps	%xmm3, %xmm8
	movaps	%xmm2, %xmm9
	movaps	%xmm1, %xmm6
	movaps	%xmm0, %xmm7
	jmp	.L1322
	.p2align 4,,7
.L1330:
	testl	%edx, %edx
	leal	1(%rdx), %r8d
	movl	$8, %eax
	jne	.L1350
	cmpl	%eax, %r8d
	cmovge	%r8d, %eax
	cmpl	%edx, %eax
	movl	%eax, %esi
	jg	.L1333
.L1351:
	movq	88(%rbx), %rax
	jmp	.L1331
	.p2align 4,,7
.L1350:
	movl	%edx, %eax
	shrl	$31, %eax
	addl	%edx, %eax
	sarl	%eax
	addl	%edx, %eax
	cmpl	%eax, %r8d
	cmovge	%r8d, %eax
	cmpl	%edx, %eax
	movl	%eax, %esi
	jle	.L1351
.L1333:
	movslq	%eax, %rcx
	salq	$4, %rcx
	call	_ZN5ImGui8MemAllocEy
	movq	88(%rbx), %rcx
	movq	%rax, %rdi
	testq	%rcx, %rcx
	je	.L1334
	movslq	80(%rbx), %r8
	movq	%rcx, %rdx
	movq	%rax, %rcx
	salq	$4, %r8
	call	memcpy
	movq	88(%rbx), %rcx
.L1334:
	call	_ZN5ImGui7MemFreeEPv
	movslq	80(%rbx), %rdx
	movq	%rdi, 88(%rbx)
	movq	%rdi, %rax
	movl	%esi, 84(%rbx)
	leal	1(%rdx), %r8d
	jmp	.L1331
	.seh_endproc
	.align 2
	.p2align 4,,15
	.globl	_ZN10ImDrawList22PushClipRectFullScreenEv
	.def	_ZN10ImDrawList22PushClipRectFullScreenEv;	.scl	2;	.type	32;	.endef
	.seh_proc	_ZN10ImDrawList22PushClipRectFullScreenEv
_ZN10ImDrawList22PushClipRectFullScreenEv:
.LFB413:
	pushq	%rdi
	.seh_pushreg	%rdi
	pushq	%rsi
	.seh_pushreg	%rsi
	pushq	%rbx
	.seh_pushreg	%rbx
	subq	$96, %rsp
	.seh_stackalloc	96
	movaps	%xmm6, 32(%rsp)
	.seh_savexmm	%xmm6, 32
	movaps	%xmm7, 48(%rsp)
	.seh_savexmm	%xmm7, 48
	movaps	%xmm8, 64(%rsp)
	.seh_savexmm	%xmm8, 64
	movaps	%xmm9, 80(%rsp)
	.seh_savexmm	%xmm9, 80
	.seh_endprologue
	movq	%rcx, %rbx
	movss	8+_ZL13GNullClipRect(%rip), %xmm7
	movslq	80(%rcx), %rdx
	movaps	%xmm7, %xmm0
	movss	_ZL13GNullClipRect(%rip), %xmm9
	movss	12+_ZL13GNullClipRect(%rip), %xmm6
	cmpl	84(%rcx), %edx
	cmpnless	%xmm9, %xmm0
	movss	4+_ZL13GNullClipRect(%rip), %xmm8
	andps	%xmm0, %xmm7
	andnps	%xmm9, %xmm0
	orps	%xmm0, %xmm7
	movaps	%xmm6, %xmm0
	cmpnless	%xmm8, %xmm0
	andps	%xmm0, %xmm6
	andnps	%xmm8, %xmm0
	orps	%xmm0, %xmm6
	je	.L1357
	movq	88(%rcx), %rax
	leal	1(%rdx), %r8d
.L1358:
	salq	$4, %rdx
	movl	%r8d, 80(%rbx)
	movq	%rbx, %rcx
	addq	%rax, %rdx
	movss	%xmm9, (%rdx)
	movss	%xmm8, 4(%rdx)
	movss	%xmm7, 8(%rdx)
	movss	%xmm6, 12(%rdx)
	movaps	32(%rsp), %xmm6
	movaps	48(%rsp), %xmm7
	movaps	64(%rsp), %xmm8
	movaps	80(%rsp), %xmm9
	addq	$96, %rsp
	popq	%rbx
	popq	%rsi
	popq	%rdi
	jmp	_ZN10ImDrawList14UpdateClipRectEv
	.p2align 4,,7
.L1357:
	testl	%edx, %edx
	leal	1(%rdx), %r8d
	movl	$8, %eax
	jne	.L1369
	cmpl	%eax, %r8d
	cmovge	%r8d, %eax
	cmpl	%edx, %eax
	movl	%eax, %esi
	jg	.L1360
.L1370:
	movq	88(%rbx), %rax
	jmp	.L1358
	.p2align 4,,7
.L1369:
	movl	%edx, %eax
	shrl	$31, %eax
	addl	%edx, %eax
	sarl	%eax
	addl	%edx, %eax
	cmpl	%eax, %r8d
	cmovge	%r8d, %eax
	cmpl	%edx, %eax
	movl	%eax, %esi
	jle	.L1370
.L1360:
	movslq	%eax, %rcx
	salq	$4, %rcx
	call	_ZN5ImGui8MemAllocEy
	movq	88(%rbx), %rcx
	movq	%rax, %rdi
	testq	%rcx, %rcx
	je	.L1361
	movslq	80(%rbx), %r8
	movq	%rcx, %rdx
	movq	%rax, %rcx
	salq	$4, %r8
	call	memcpy
	movq	88(%rbx), %rcx
.L1361:
	call	_ZN5ImGui7MemFreeEPv
	movslq	80(%rbx), %rdx
	movq	%rdi, 88(%rbx)
	movq	%rdi, %rax
	movl	%esi, 84(%rbx)
	leal	1(%rdx), %r8d
	jmp	.L1358
	.seh_endproc
	.section .rdata,"dr"
.LC39:
	.ascii "_ClipRectStack.Size > 0\0"
	.text
	.align 2
	.p2align 4,,15
	.globl	_ZN10ImDrawList11PopClipRectEv
	.def	_ZN10ImDrawList11PopClipRectEv;	.scl	2;	.type	32;	.endef
	.seh_proc	_ZN10ImDrawList11PopClipRectEv
_ZN10ImDrawList11PopClipRectEv:
.LFB414:
	pushq	%rbx
	.seh_pushreg	%rbx
	subq	$32, %rsp
	.seh_stackalloc	32
	.seh_endprologue
	movl	80(%rcx), %eax
	movq	%rcx, %rbx
	testl	%eax, %eax
	jle	.L1373
.L1372:
	decl	%eax
	movq	%rbx, %rcx
	movl	%eax, 80(%rbx)
	addq	$32, %rsp
	popq	%rbx
	jmp	_ZN10ImDrawList14UpdateClipRectEv
	.p2align 4,,7
.L1373:
	leaq	.LC5(%rip), %rdx
	leaq	.LC39(%rip), %rcx
	movl	$259, %r8d
	call	_assert
	movl	80(%rbx), %eax
	testl	%eax, %eax
	jg	.L1372
	leaq	.LC35(%rip), %rdx
	leaq	.LC38(%rip), %rcx
	movl	$885, %r8d
	call	_assert
	movl	80(%rbx), %eax
	jmp	.L1372
	.seh_endproc
	.align 2
	.p2align 4,,15
	.globl	_ZN10ImDrawList13PushTextureIDERKPv
	.def	_ZN10ImDrawList13PushTextureIDERKPv;	.scl	2;	.type	32;	.endef
	.seh_proc	_ZN10ImDrawList13PushTextureIDERKPv
_ZN10ImDrawList13PushTextureIDERKPv:
.LFB415:
	pushq	%rbp
	.seh_pushreg	%rbp
	pushq	%rdi
	.seh_pushreg	%rdi
	pushq	%rsi
	.seh_pushreg	%rsi
	pushq	%rbx
	.seh_pushreg	%rbx
	subq	$40, %rsp
	.seh_stackalloc	40
	.seh_endprologue
	movq	%rdx, %rbp
	movslq	96(%rcx), %rdx
	movq	%rcx, %rbx
	cmpl	100(%rcx), %edx
	je	.L1375
	movq	104(%rcx), %rax
	leal	1(%rdx), %r8d
.L1376:
	movq	0(%rbp), %rcx
	movl	%r8d, 96(%rbx)
	movq	%rcx, (%rax,%rdx,8)
	movq	%rbx, %rcx
	addq	$40, %rsp
	popq	%rbx
	popq	%rsi
	popq	%rdi
	popq	%rbp
	jmp	_ZN10ImDrawList15UpdateTextureIDEv
	.p2align 4,,7
.L1375:
	testl	%edx, %edx
	leal	1(%rdx), %r8d
	movl	$8, %eax
	jne	.L1385
	cmpl	%eax, %r8d
	cmovge	%r8d, %eax
	cmpl	%edx, %eax
	movl	%eax, %esi
	jg	.L1378
.L1386:
	movq	104(%rbx), %rax
	jmp	.L1376
	.p2align 4,,7
.L1385:
	movl	%edx, %eax
	shrl	$31, %eax
	addl	%edx, %eax
	sarl	%eax
	addl	%edx, %eax
	cmpl	%eax, %r8d
	cmovge	%r8d, %eax
	cmpl	%edx, %eax
	movl	%eax, %esi
	jle	.L1386
.L1378:
	movslq	%eax, %rcx
	salq	$3, %rcx
	call	_ZN5ImGui8MemAllocEy
	movq	104(%rbx), %rcx
	movq	%rax, %rdi
	testq	%rcx, %rcx
	je	.L1379
	movslq	96(%rbx), %r8
	movq	%rcx, %rdx
	movq	%rax, %rcx
	salq	$3, %r8
	call	memcpy
	movq	104(%rbx), %rcx
.L1379:
	call	_ZN5ImGui7MemFreeEPv
	movslq	96(%rbx), %rdx
	movq	%rdi, 104(%rbx)
	movq	%rdi, %rax
	movl	%esi, 100(%rbx)
	leal	1(%rdx), %r8d
	jmp	.L1376
	.seh_endproc
	.section .rdata,"dr"
.LC40:
	.ascii "_TextureIdStack.Size > 0\0"
	.text
	.align 2
	.p2align 4,,15
	.globl	_ZN10ImDrawList12PopTextureIDEv
	.def	_ZN10ImDrawList12PopTextureIDEv;	.scl	2;	.type	32;	.endef
	.seh_proc	_ZN10ImDrawList12PopTextureIDEv
_ZN10ImDrawList12PopTextureIDEv:
.LFB416:
	pushq	%rbx
	.seh_pushreg	%rbx
	subq	$32, %rsp
	.seh_stackalloc	32
	.seh_endprologue
	movl	96(%rcx), %eax
	movq	%rcx, %rbx
	testl	%eax, %eax
	jle	.L1389
.L1388:
	decl	%eax
	movq	%rbx, %rcx
	movl	%eax, 96(%rbx)
	addq	$32, %rsp
	popq	%rbx
	jmp	_ZN10ImDrawList15UpdateTextureIDEv
	.p2align 4,,7
.L1389:
	leaq	.LC5(%rip), %rdx
	leaq	.LC40(%rip), %rcx
	movl	$272, %r8d
	call	_assert
	movl	96(%rbx), %eax
	testl	%eax, %eax
	jg	.L1388
	leaq	.LC35(%rip), %rdx
	leaq	.LC38(%rip), %rcx
	movl	$885, %r8d
	call	_assert
	movl	96(%rbx), %eax
	jmp	.L1388
	.seh_endproc
	.section .rdata,"dr"
	.align 8
.LC41:
	.ascii "_ChannelsCurrent == 0 && _ChannelsCount == 1\0"
	.text
	.align 2
	.p2align 4,,15
	.globl	_ZN10ImDrawList13ChannelsSplitEi
	.def	_ZN10ImDrawList13ChannelsSplitEi;	.scl	2;	.type	32;	.endef
	.seh_proc	_ZN10ImDrawList13ChannelsSplitEi
_ZN10ImDrawList13ChannelsSplitEi:
.LFB417:
	pushq	%r15
	.seh_pushreg	%r15
	pushq	%r14
	.seh_pushreg	%r14
	pushq	%r13
	.seh_pushreg	%r13
	pushq	%r12
	.seh_pushreg	%r12
	pushq	%rbp
	.seh_pushreg	%rbp
	pushq	%rdi
	.seh_pushreg	%rdi
	pushq	%rsi
	.seh_pushreg	%rsi
	pushq	%rbx
	.seh_pushreg	%rbx
	subq	$120, %rsp
	.seh_stackalloc	120
	movaps	%xmm6, 48(%rsp)
	.seh_savexmm	%xmm6, 48
	movaps	%xmm7, 64(%rsp)
	.seh_savexmm	%xmm7, 64
	movaps	%xmm8, 80(%rsp)
	.seh_savexmm	%xmm8, 80
	movaps	%xmm9, 96(%rsp)
	.seh_savexmm	%xmm9, 96
	.seh_endprologue
	movabsq	$4294967296, %rax
	movq	%rcx, %rbx
	movl	%edx, %edi
	cmpq	%rax, 128(%rcx)
	je	.L1391
	leaq	.LC5(%rip), %rdx
	leaq	.LC41(%rip), %rcx
	movl	$279, %r8d
	call	_assert
.L1391:
	movl	136(%rbx), %ebp
	cmpl	%edi, %ebp
	movl	%ebp, %eax
	jl	.L1443
	testl	%eax, %eax
	movl	%edi, 132(%rbx)
	jle	.L1444
.L1397:
	movq	144(%rbx), %rax
	cmpl	$1, %edi
	movl	$32, %r12d
	movl	$1, %esi
	movq	$0, (%rax)
	movq	$0, 8(%rax)
	movq	$0, 16(%rax)
	movq	$0, 24(%rax)
	jg	.L1440
	jmp	.L1390
	.p2align 4,,7
.L1448:
	cmpl	136(%rbx), %esi
	jge	.L1445
.L1400:
	movq	%r12, %rax
	addq	144(%rbx), %rax
	movl	$0, (%rax)
	movl	$0, 4(%rax)
	movl	$0, 16(%rax)
	movl	$0, 20(%rax)
	cmpl	136(%rbx), %esi
	movq	$0, 8(%rax)
	movq	$0, 24(%rax)
	jge	.L1446
.L1406:
	movq	144(%rbx), %rax
	movl	(%rax,%r12), %ecx
	testl	%ecx, %ecx
	je	.L1447
.L1407:
	incl	%esi
	addq	$32, %r12
	cmpl	%esi, %edi
	je	.L1390
.L1440:
	cmpl	%esi, %ebp
	jle	.L1448
	cmpl	136(%rbx), %esi
	jge	.L1449
.L1402:
	movq	%r12, %r13
	addq	144(%rbx), %r13
	movl	4(%r13), %edx
	testl	%edx, %edx
	js	.L1450
	movl	$0, 0(%r13)
	cmpl	136(%rbx), %esi
	jge	.L1451
.L1404:
	movq	%r12, %r13
	addq	144(%rbx), %r13
	movl	20(%r13), %eax
	testl	%eax, %eax
	js	.L1452
.L1421:
	movl	$0, 16(%r13)
	cmpl	136(%rbx), %esi
	jl	.L1406
.L1446:
	leaq	.LC36(%rip), %rcx
	leaq	.LC35(%rip), %rdx
	movl	$856, %r8d
	call	_assert
	movq	144(%rbx), %rax
	movl	(%rax,%r12), %ecx
	testl	%ecx, %ecx
	jne	.L1407
.L1447:
	movslq	80(%rbx), %rax
	testl	%eax, %eax
	jle	.L1453
.L1408:
	movq	88(%rbx), %rdx
	salq	$4, %rax
	leaq	-16(%rdx,%rax), %rax
	movss	(%rax), %xmm9
	movss	4(%rax), %xmm8
	movss	8(%rax), %xmm7
	movss	12(%rax), %xmm6
	movslq	96(%rbx), %rax
	testl	%eax, %eax
	jle	.L1454
.L1409:
	cmpl	136(%rbx), %esi
	movq	104(%rbx), %rdx
	movq	-8(%rdx,%rax,8), %r13
	jge	.L1455
.L1410:
	movq	%r12, %r15
	addq	144(%rbx), %r15
	movslq	(%r15), %rdx
	cmpl	4(%r15), %edx
	je	.L1411
	movq	8(%r15), %rax
	leal	1(%rdx), %ecx
.L1412:
	movl	%ecx, (%r15)
	movq	%rdx, %rcx
	salq	$6, %rdx
	salq	$4, %rcx
	incl	%esi
	addq	$32, %r12
	subq	%rcx, %rdx
	addq	%rdx, %rax
	cmpl	%esi, %edi
	movl	$0, (%rax)
	movss	%xmm9, 4(%rax)
	movq	%r13, 24(%rax)
	movss	%xmm8, 8(%rax)
	movq	$0, 32(%rax)
	movq	$0, 40(%rax)
	movss	%xmm7, 12(%rax)
	movss	%xmm6, 16(%rax)
	jne	.L1440
.L1390:
	movaps	48(%rsp), %xmm6
	movaps	64(%rsp), %xmm7
	movaps	80(%rsp), %xmm8
	movaps	96(%rsp), %xmm9
	addq	$120, %rsp
	popq	%rbx
	popq	%rsi
	popq	%rdi
	popq	%rbp
	popq	%r12
	popq	%r13
	popq	%r14
	popq	%r15
	ret
	.p2align 4,,7
.L1450:
	xorl	%ecx, %ecx
	call	_ZN5ImGui8MemAllocEy
	movq	8(%r13), %rcx
	movq	%rax, %r14
	testq	%rcx, %rcx
	je	.L1403
	movslq	0(%r13), %r8
	movq	%rcx, %rdx
	movq	%r14, %rcx
	movq	%r8, %rax
	salq	$6, %r8
	salq	$4, %rax
	subq	%rax, %r8
	call	memcpy
	movq	8(%r13), %rcx
.L1403:
	call	_ZN5ImGui7MemFreeEPv
	movl	$0, 4(%r13)
	movl	$0, 0(%r13)
	cmpl	136(%rbx), %esi
	movq	%r14, 8(%r13)
	jl	.L1404
.L1451:
	leaq	.LC35(%rip), %rdx
	leaq	.LC36(%rip), %rcx
	movl	$856, %r8d
	call	_assert
	jmp	.L1404
	.p2align 4,,7
.L1452:
	xorl	%ecx, %ecx
	call	_ZN5ImGui8MemAllocEy
	movq	24(%r13), %rcx
	movq	%rax, %r14
	testq	%rcx, %rcx
	je	.L1405
	movslq	16(%r13), %r8
	movq	%rcx, %rdx
	movq	%rax, %rcx
	addq	%r8, %r8
	call	memcpy
	movq	24(%r13), %rcx
.L1405:
	call	_ZN5ImGui7MemFreeEPv
	movq	%r14, 24(%r13)
	movl	$0, 20(%r13)
	jmp	.L1421
	.p2align 4,,7
.L1445:
	leaq	.LC35(%rip), %rdx
	leaq	.LC36(%rip), %rcx
	movl	$856, %r8d
	call	_assert
	jmp	.L1400
	.p2align 4,,7
.L1449:
	leaq	.LC35(%rip), %rdx
	leaq	.LC36(%rip), %rcx
	movl	$856, %r8d
	call	_assert
	jmp	.L1402
	.p2align 4,,7
.L1411:
	testl	%edx, %edx
	leal	1(%rdx), %ecx
	movl	$8, %eax
	je	.L1413
	movl	%edx, %eax
	shrl	$31, %eax
	addl	%edx, %eax
	sarl	%eax
	addl	%edx, %eax
.L1413:
	cmpl	%eax, %ecx
	cmovge	%ecx, %eax
	cmpl	%eax, %edx
	movl	%eax, %r14d
	jl	.L1414
	movq	8(%r15), %rax
	jmp	.L1412
	.p2align 4,,7
.L1455:
	leaq	.LC35(%rip), %rdx
	leaq	.LC36(%rip), %rcx
	movl	$856, %r8d
	call	_assert
	jmp	.L1410
	.p2align 4,,7
.L1414:
	movslq	%eax, %rcx
	movq	%rcx, %rax
	salq	$6, %rcx
	salq	$4, %rax
	subq	%rax, %rcx
	call	_ZN5ImGui8MemAllocEy
	movq	8(%r15), %rcx
	movq	%rax, %r9
	movq	%rax, 40(%rsp)
	testq	%rcx, %rcx
	je	.L1415
	movslq	(%r15), %r8
	movq	%rcx, %rdx
	movq	%r9, %rcx
	movq	%r8, %rax
	salq	$6, %r8
	salq	$4, %rax
	subq	%rax, %r8
	call	memcpy
	movq	8(%r15), %rcx
.L1415:
	call	_ZN5ImGui7MemFreeEPv
	movslq	(%r15), %rdx
	movq	40(%rsp), %rax
	movl	%r14d, 4(%r15)
	movq	%rax, 8(%r15)
	leal	1(%rdx), %ecx
	jmp	.L1412
	.p2align 4,,7
.L1443:
	movl	140(%rbx), %eax
	cmpl	%eax, %edi
	jle	.L1393
	testl	%eax, %eax
	movl	$8, %edx
	je	.L1394
	movl	%eax, %edx
	shrl	$31, %edx
	addl	%eax, %edx
	sarl	%edx
	addl	%eax, %edx
.L1394:
	cmpl	%edx, %edi
	jge	.L1424
	cmpl	%edx, %eax
	jl	.L1456
.L1393:
	movl	%edi, %eax
	movl	%edi, 136(%rbx)
	movl	%edi, 132(%rbx)
	testl	%eax, %eax
	jg	.L1397
.L1444:
	leaq	.LC35(%rip), %rdx
	leaq	.LC36(%rip), %rcx
	movl	$856, %r8d
	call	_assert
	jmp	.L1397
	.p2align 4,,7
.L1454:
	leaq	.LC35(%rip), %rdx
	leaq	.LC38(%rip), %rcx
	movl	$866, %r8d
	call	_assert
	movslq	96(%rbx), %rax
	jmp	.L1409
	.p2align 4,,7
.L1453:
	leaq	.LC35(%rip), %rdx
	leaq	.LC38(%rip), %rcx
	movl	$866, %r8d
	call	_assert
	movslq	80(%rbx), %rax
	jmp	.L1408
.L1424:
	movl	%edi, %esi
.L1395:
	movslq	%esi, %rcx
	salq	$5, %rcx
	call	_ZN5ImGui8MemAllocEy
	movq	144(%rbx), %rcx
	movq	%rax, %r12
	testq	%rcx, %rcx
	je	.L1396
	movslq	136(%rbx), %r8
	movq	%rcx, %rdx
	movq	%rax, %rcx
	salq	$5, %r8
	call	memcpy
	movq	144(%rbx), %rcx
.L1396:
	call	_ZN5ImGui7MemFreeEPv
	movq	%r12, 144(%rbx)
	movl	%esi, 140(%rbx)
	jmp	.L1393
.L1456:
	movl	%edx, %esi
	jmp	.L1395
	.seh_endproc
	.align 2
	.p2align 4,,15
	.globl	_ZN10ImDrawList13ChannelsMergeEv
	.def	_ZN10ImDrawList13ChannelsMergeEv;	.scl	2;	.type	32;	.endef
	.seh_proc	_ZN10ImDrawList13ChannelsMergeEv
_ZN10ImDrawList13ChannelsMergeEv:
.LFB421:
	pushq	%r13
	.seh_pushreg	%r13
	pushq	%r12
	.seh_pushreg	%r12
	pushq	%rbp
	.seh_pushreg	%rbp
	pushq	%rdi
	.seh_pushreg	%rdi
	pushq	%rsi
	.seh_pushreg	%rsi
	pushq	%rbx
	.seh_pushreg	%rbx
	subq	$40, %rsp
	.seh_stackalloc	40
	.seh_endprologue
	cmpl	$1, 132(%rcx)
	movq	%rcx, %rbx
	jle	.L1457
	movslq	128(%rcx), %rax
	testl	%eax, %eax
	je	.L1459
	salq	$5, %rax
	addq	144(%rcx), %rax
	movq	(%rcx), %r9
	movq	8(%rcx), %r10
	movq	%r9, (%rax)
	movq	%r10, 8(%rax)
	movslq	128(%rcx), %rax
	movq	16(%rcx), %r9
	movq	24(%rcx), %r10
	salq	$5, %rax
	addq	144(%rcx), %rax
	movq	%r9, 16(%rax)
	movq	%r10, 24(%rax)
	movq	144(%rcx), %rax
	movl	$0, 128(%rcx)
	movq	(%rax), %r9
	movq	8(%rax), %r10
	movq	%r9, (%rcx)
	movq	%r10, 8(%rcx)
	movq	16(%rax), %rdx
	movq	24(%rax), %rcx
	movslq	%edx, %rax
	movq	%rdx, 16(%rbx)
	movq	%rcx, 24(%rbx)
	leaq	(%rcx,%rax,2), %rax
	movq	%rax, 72(%rbx)
.L1459:
	movl	(%rbx), %eax
	cmpl	$0, %eax
	jne	.L1528
.L1484:
	cmpl	$1, 132(%rbx)
	jle	.L1490
	movl	$32, %r12d
	movl	$1, %esi
	xorl	%r13d, %r13d
	xorl	%ebp, %ebp
	jmp	.L1468
	.p2align 4,,7
.L1464:
	movq	%r12, %rdi
	addq	144(%rbx), %rdi
	movl	(%rdi), %eax
	cmpl	$0, %eax
	jne	.L1529
.L1487:
	addl	%eax, %ebp
	addl	16(%rdi), %r13d
	incl	%esi
	addq	$32, %r12
	cmpl	%esi, 132(%rbx)
	jle	.L1530
.L1468:
	cmpl	%esi, 136(%rbx)
	jg	.L1464
	leaq	.LC35(%rip), %rdx
	leaq	.LC36(%rip), %rcx
	movl	$856, %r8d
	call	_assert
	jmp	.L1464
	.p2align 4,,7
.L1529:
	jle	.L1531
	movslq	%eax, %rdx
	movq	%rdx, %rcx
	salq	$6, %rdx
	salq	$4, %rcx
	subq	%rcx, %rdx
	addq	8(%rdi), %rdx
	movl	-48(%rdx), %edx
	testl	%edx, %edx
	jne	.L1487
.L1488:
	decl	%eax
	movl	%eax, (%rdi)
	jmp	.L1487
	.p2align 4,,7
.L1482:
	movq	%rbx, %rcx
	call	_ZN10ImDrawList10AddDrawCmdEv
	movl	$1, 132(%rbx)
.L1457:
	addq	$40, %rsp
	popq	%rbx
	popq	%rsi
	popq	%rdi
	popq	%rbp
	popq	%r12
	popq	%r13
	ret
	.p2align 4,,7
.L1530:
	movslq	%ebp, %rsi
.L1463:
	addl	(%rbx), %ebp
	movl	4(%rbx), %eax
	cmpl	%eax, %ebp
	jle	.L1469
	testl	%eax, %eax
	movl	$8, %edx
	je	.L1470
	movl	%eax, %edx
	shrl	$31, %edx
	addl	%eax, %edx
	sarl	%edx
	addl	%eax, %edx
.L1470:
	cmpl	%edx, %ebp
	jl	.L1532
	movl	%ebp, %edi
.L1471:
	movslq	%edi, %rcx
	movq	%rcx, %rax
	salq	$6, %rcx
	salq	$4, %rax
	subq	%rax, %rcx
	call	_ZN5ImGui8MemAllocEy
	movq	8(%rbx), %rcx
	movq	%rax, %r12
	testq	%rcx, %rcx
	je	.L1472
	movslq	(%rbx), %r8
	movq	%rcx, %rdx
	movq	%r12, %rcx
	movq	%r8, %rax
	salq	$6, %r8
	salq	$4, %rax
	subq	%rax, %r8
	call	memcpy
	movq	8(%rbx), %rcx
.L1472:
	call	_ZN5ImGui7MemFreeEPv
	movq	%r12, 8(%rbx)
	movl	%edi, 4(%rbx)
.L1469:
	movslq	16(%rbx), %rdi
	movl	20(%rbx), %eax
	movl	%ebp, (%rbx)
	addl	%edi, %r13d
	cmpl	%r13d, %eax
	jge	.L1523
	testl	%eax, %eax
	movl	$8, %edx
	je	.L1475
	movl	%eax, %edx
	shrl	$31, %edx
	addl	%eax, %edx
	sarl	%edx
	addl	%eax, %edx
.L1475:
	cmpl	%edx, %r13d
	jl	.L1533
	movl	%r13d, %ebp
.L1476:
	movslq	%ebp, %rcx
	addq	%rcx, %rcx
	call	_ZN5ImGui8MemAllocEy
	movq	24(%rbx), %rcx
	movq	%rax, %r12
	testq	%rcx, %rcx
	je	.L1477
	movslq	16(%rbx), %r8
	movq	%rcx, %rdx
	movq	%rax, %rcx
	addq	%r8, %r8
	call	memcpy
	movq	24(%rbx), %rcx
.L1477:
	call	_ZN5ImGui7MemFreeEPv
	movl	%ebp, 20(%rbx)
	movq	%r12, 24(%rbx)
	movq	%r12, %rax
	movl	(%rbx), %ebp
	jmp	.L1474
	.p2align 4,,7
.L1533:
	cmpl	%edx, %eax
	jl	.L1495
.L1523:
	movq	24(%rbx), %rax
.L1474:
	movslq	%ebp, %rbp
	leaq	(%rax,%rdi,2), %rax
	movl	%r13d, 16(%rbx)
	subq	%rsi, %rbp
	movl	$32, %r13d
	movq	%rbp, %rdx
	salq	$6, %rbp
	movq	%rax, 72(%rbx)
	salq	$4, %rdx
	subq	%rdx, %rbp
	movq	%rbp, %rsi
	addq	8(%rbx), %rsi
	cmpl	$1, 132(%rbx)
	movl	$1, %ebp
	jg	.L1520
	jmp	.L1482
	.p2align 4,,7
.L1479:
	movq	%r13, %r12
	addq	144(%rbx), %r12
	movl	(%r12), %r8d
	testl	%r8d, %r8d
	jne	.L1534
.L1480:
	movslq	16(%r12), %r8
	testl	%r8d, %r8d
	jne	.L1535
.L1481:
	incl	%ebp
	addq	$32, %r13
	cmpl	%ebp, 132(%rbx)
	jle	.L1482
.L1520:
	cmpl	%ebp, 136(%rbx)
	jg	.L1479
	leaq	.LC35(%rip), %rdx
	leaq	.LC36(%rip), %rcx
	movl	$856, %r8d
	call	_assert
	jmp	.L1479
	.p2align 4,,7
.L1535:
	leaq	(%r8,%r8), %rdi
	movq	72(%rbx), %rcx
	movq	24(%r12), %rdx
	movq	%rdi, %r8
	call	memcpy
	addq	%rdi, 72(%rbx)
	jmp	.L1481
	.p2align 4,,7
.L1534:
	movslq	%r8d, %rdi
	movq	8(%r12), %rdx
	movq	%rsi, %rcx
	movq	%rdi, %rax
	salq	$6, %rdi
	salq	$4, %rax
	subq	%rax, %rdi
	movq	%rdi, %r8
	addq	%rdi, %rsi
	call	memcpy
	jmp	.L1480
	.p2align 4,,7
.L1532:
	cmpl	%edx, %eax
	jge	.L1469
	movl	%edx, %edi
	.p2align 4,,7
	jmp	.L1471
	.p2align 4,,7
.L1528:
	.p2align 4,,7
	jle	.L1536
	movslq	%eax, %rdx
	movq	%rdx, %rcx
	salq	$6, %rdx
	salq	$4, %rcx
	subq	%rcx, %rdx
	addq	8(%rbx), %rdx
	movl	-48(%rdx), %ecx
	testl	%ecx, %ecx
	jne	.L1484
.L1485:
	decl	%eax
	movl	%eax, (%rbx)
	jmp	.L1484
	.p2align 4,,7
.L1531:
	leaq	.LC35(%rip), %rdx
	leaq	.LC38(%rip), %rcx
	movl	$866, %r8d
	call	_assert
	movslq	(%rdi), %rdx
	movq	%rdx, %rcx
	movq	%rdx, %rax
	salq	$6, %rdx
	salq	$4, %rcx
	subq	%rcx, %rdx
	addq	8(%rdi), %rdx
	movl	-48(%rdx), %r8d
	testl	%r8d, %r8d
	jne	.L1487
	testl	%eax, %eax
	jg	.L1488
	leaq	.LC35(%rip), %rdx
	leaq	.LC38(%rip), %rcx
	movl	$885, %r8d
	call	_assert
	movl	(%rdi), %eax
	jmp	.L1488
.L1490:
	xorl	%esi, %esi
	xorl	%r13d, %r13d
	xorl	%ebp, %ebp
	jmp	.L1463
.L1536:
	leaq	.LC35(%rip), %rdx
	leaq	.LC38(%rip), %rcx
	movl	$866, %r8d
	call	_assert
	movslq	(%rbx), %rdx
	movq	%rdx, %rcx
	movq	%rdx, %rax
	salq	$6, %rdx
	salq	$4, %rcx
	subq	%rcx, %rdx
	addq	8(%rbx), %rdx
	movl	-48(%rdx), %r9d
	testl	%r9d, %r9d
	jne	.L1484
	testl	%eax, %eax
	jg	.L1485
	leaq	.LC35(%rip), %rdx
	leaq	.LC38(%rip), %rcx
	movl	$885, %r8d
	call	_assert
	movl	(%rbx), %eax
	jmp	.L1485
.L1495:
	movl	%edx, %ebp
	jmp	.L1476
	.seh_endproc
	.section .rdata,"dr"
.LC42:
	.ascii "idx < _ChannelsCount\0"
	.text
	.align 2
	.p2align 4,,15
	.globl	_ZN10ImDrawList18ChannelsSetCurrentEi
	.def	_ZN10ImDrawList18ChannelsSetCurrentEi;	.scl	2;	.type	32;	.endef
	.seh_proc	_ZN10ImDrawList18ChannelsSetCurrentEi
_ZN10ImDrawList18ChannelsSetCurrentEi:
.LFB422:
	pushq	%rsi
	.seh_pushreg	%rsi
	pushq	%rbx
	.seh_pushreg	%rbx
	subq	$40, %rsp
	.seh_stackalloc	40
	.seh_endprologue
	movslq	%edx, %rsi
	cmpl	%esi, 132(%rcx)
	movq	%rcx, %rbx
	jle	.L1540
.L1538:
	movslq	128(%rbx), %rax
	cmpl	%eax, %esi
	je	.L1537
	salq	$5, %rax
	addq	144(%rbx), %rax
	movq	(%rbx), %r9
	movq	8(%rbx), %r10
	movq	%r9, (%rax)
	movq	%r10, 8(%rax)
	movslq	128(%rbx), %rax
	movq	16(%rbx), %r9
	movq	24(%rbx), %r10
	salq	$5, %rax
	addq	144(%rbx), %rax
	movq	%r9, 16(%rax)
	movq	%r10, 24(%rax)
	movl	%esi, 128(%rbx)
	salq	$5, %rsi
	addq	144(%rbx), %rsi
	movq	(%rsi), %rax
	movq	8(%rsi), %rdx
	movq	%rax, (%rbx)
	movq	%rdx, 8(%rbx)
	movq	16(%rsi), %rdx
	movq	24(%rsi), %rcx
	movslq	%edx, %rax
	movq	%rdx, 16(%rbx)
	movq	%rcx, 24(%rbx)
	leaq	(%rcx,%rax,2), %rax
	movq	%rax, 72(%rbx)
.L1537:
	addq	$40, %rsp
	popq	%rbx
	popq	%rsi
	ret
	.p2align 4,,7
.L1540:
	leaq	.LC5(%rip), %rdx
	leaq	.LC42(%rip), %rcx
	movl	$346, %r8d
	call	_assert
	jmp	.L1538
	.seh_endproc
	.align 2
	.p2align 4,,15
	.globl	_ZN10ImDrawList11PrimReserveEii
	.def	_ZN10ImDrawList11PrimReserveEii;	.scl	2;	.type	32;	.endef
	.seh_proc	_ZN10ImDrawList11PrimReserveEii
_ZN10ImDrawList11PrimReserveEii:
.LFB423:
	pushq	%r13
	.seh_pushreg	%r13
	pushq	%r12
	.seh_pushreg	%r12
	pushq	%rbp
	.seh_pushreg	%rbp
	pushq	%rdi
	.seh_pushreg	%rdi
	pushq	%rsi
	.seh_pushreg	%rsi
	pushq	%rbx
	.seh_pushreg	%rbx
	subq	$40, %rsp
	.seh_stackalloc	40
	.seh_endprologue
	movslq	(%rcx), %rax
	movslq	32(%rcx), %rdi
	movl	%edx, %esi
	movq	%rcx, %rbx
	movq	%rax, %rdx
	salq	$6, %rax
	leal	(%rdi,%r8), %r12d
	salq	$4, %rdx
	subq	%rdx, %rax
	movq	8(%rcx), %rdx
	addl	%esi, -48(%rdx,%rax)
	movl	36(%rcx), %eax
	cmpl	%eax, %r12d
	jle	.L1546
	testl	%eax, %eax
	movl	$8, %edx
	je	.L1544
	movl	%eax, %edx
	shrl	$31, %edx
	addl	%eax, %edx
	sarl	%edx
	addl	%eax, %edx
.L1544:
	cmpl	%edx, %r12d
	jl	.L1566
	movl	%r12d, %ebp
.L1545:
	movslq	%ebp, %rax
	movq	%rax, %rdx
	salq	$4, %rdx
	leaq	(%rdx,%rax,4), %rcx
	call	_ZN5ImGui8MemAllocEy
	movq	40(%rbx), %rcx
	movq	%rax, %r13
	testq	%rcx, %rcx
	je	.L1547
	movslq	32(%rbx), %rax
	movq	%rax, %rdx
	salq	$4, %rdx
	leaq	(%rdx,%rax,4), %r8
	movq	%rcx, %rdx
	movq	%r13, %rcx
	call	memcpy
	movq	40(%rbx), %rcx
.L1547:
	call	_ZN5ImGui7MemFreeEPv
	movq	%r13, 40(%rbx)
	movl	%ebp, 36(%rbx)
	movq	%r13, %rax
	jmp	.L1543
	.p2align 4,,7
.L1566:
	cmpl	%edx, %eax
	jl	.L1567
.L1546:
	movq	40(%rbx), %rax
.L1543:
	movq	%rdi, %rdx
	movl	%r12d, 32(%rbx)
	salq	$4, %rdx
	leaq	(%rdx,%rdi,4), %rdx
	movslq	16(%rbx), %rdi
	addq	%rdx, %rax
	movq	%rax, 64(%rbx)
	movl	20(%rbx), %eax
	addl	%edi, %esi
	cmpl	%eax, %esi
	jle	.L1552
	testl	%eax, %eax
	movl	$8, %edx
	je	.L1550
	movl	%eax, %edx
	shrl	$31, %edx
	addl	%eax, %edx
	sarl	%edx
	addl	%eax, %edx
.L1550:
	cmpl	%edx, %esi
	jl	.L1568
	movl	%esi, %ebp
.L1551:
	movslq	%ebp, %rcx
	addq	%rcx, %rcx
	call	_ZN5ImGui8MemAllocEy
	movq	24(%rbx), %rcx
	movq	%rax, %r12
	testq	%rcx, %rcx
	je	.L1553
	movslq	16(%rbx), %r8
	movq	%rcx, %rdx
	movq	%rax, %rcx
	addq	%r8, %r8
	call	memcpy
	movq	24(%rbx), %rcx
.L1553:
	call	_ZN5ImGui7MemFreeEPv
	movq	%r12, 24(%rbx)
	movl	%ebp, 20(%rbx)
	movq	%r12, %rax
	jmp	.L1549
	.p2align 4,,7
.L1568:
	cmpl	%edx, %eax
	jl	.L1569
.L1552:
	movq	24(%rbx), %rax
.L1549:
	leaq	(%rax,%rdi,2), %rax
	movl	%esi, 16(%rbx)
	movq	%rax, 72(%rbx)
	addq	$40, %rsp
	popq	%rbx
	popq	%rsi
	popq	%rdi
	popq	%rbp
	popq	%r12
	popq	%r13
	ret
.L1569:
	movl	%edx, %ebp
	jmp	.L1551
.L1567:
	movl	%edx, %ebp
	jmp	.L1545
	.seh_endproc
	.align 2
	.p2align 4,,15
	.globl	_ZN10ImDrawList8PrimRectERK6ImVec2S2_j
	.def	_ZN10ImDrawList8PrimRectERK6ImVec2S2_j;	.scl	2;	.type	32;	.endef
	.seh_proc	_ZN10ImDrawList8PrimRectERK6ImVec2S2_j
_ZN10ImDrawList8PrimRectERK6ImVec2S2_j:
.LFB424:
	.seh_endprologue
	movq	.refptr.GImGui(%rip), %rax
	movl	56(%rcx), %r11d
	movq	72(%rcx), %r10
	movss	4(%rdx), %xmm4
	movss	4(%r8), %xmm2
	movq	(%rax), %rax
	movss	(%rdx), %xmm3
	movss	(%r8), %xmm5
	movq	(%rdx), %rdx
	addq	$12, %r10
	movss	5952(%rax), %xmm1
	movss	5956(%rax), %xmm0
	leal	1(%r11), %eax
	movw	%r11w, -12(%r10)
	movw	%r11w, -6(%r10)
	movw	%ax, -10(%r10)
	leal	2(%r11), %eax
	movw	%ax, -8(%r10)
	movw	%ax, -4(%r10)
	leal	3(%r11), %eax
	addl	$4, %r11d
	movw	%ax, -2(%r10)
	movq	64(%rcx), %rax
	movq	%rdx, (%rax)
	movss	%xmm1, 8(%rax)
	movl	%r9d, 16(%rax)
	movss	%xmm0, 12(%rax)
	movl	%r9d, 36(%rax)
	addq	$80, %rax
	movss	%xmm5, -60(%rax)
	movss	%xmm4, -56(%rax)
	movss	%xmm1, -52(%rax)
	movss	%xmm0, -48(%rax)
	movq	(%r8), %rdx
	movss	%xmm1, -32(%rax)
	movl	%r9d, -24(%rax)
	movss	%xmm0, -28(%rax)
	movq	%rdx, -40(%rax)
	movss	%xmm3, -20(%rax)
	movss	%xmm2, -16(%rax)
	movl	%r9d, -4(%rax)
	movss	%xmm1, -12(%rax)
	movss	%xmm0, -8(%rax)
	movq	%rax, 64(%rcx)
	movl	%r11d, 56(%rcx)
	movq	%r10, 72(%rcx)
	ret
	.seh_endproc
	.align 2
	.p2align 4,,15
	.globl	_ZN10ImDrawList10PrimRectUVERK6ImVec2S2_S2_S2_j
	.def	_ZN10ImDrawList10PrimRectUVERK6ImVec2S2_S2_S2_j;	.scl	2;	.type	32;	.endef
	.seh_proc	_ZN10ImDrawList10PrimRectUVERK6ImVec2S2_S2_S2_j
_ZN10ImDrawList10PrimRectUVERK6ImVec2S2_S2_S2_j:
.LFB425:
	pushq	%rsi
	.seh_pushreg	%rsi
	pushq	%rbx
	.seh_pushreg	%rbx
	subq	$40, %rsp
	.seh_stackalloc	40
	movaps	%xmm6, (%rsp)
	.seh_savexmm	%xmm6, 0
	movaps	%xmm7, 16(%rsp)
	.seh_savexmm	%xmm7, 16
	.seh_endprologue
	movl	56(%rcx), %r11d
	movq	72(%rcx), %r10
	movq	96(%rsp), %rsi
	movss	(%rdx), %xmm3
	movss	4(%rdx), %xmm6
	movq	(%rdx), %rdx
	leal	1(%r11), %eax
	movss	(%r8), %xmm7
	movss	4(%r8), %xmm2
	movl	104(%rsp), %ebx
	movss	4(%rsi), %xmm0
	addq	$12, %r10
	movss	(%r9), %xmm1
	movss	4(%r9), %xmm4
	movss	(%rsi), %xmm5
	movw	%ax, -10(%r10)
	leal	2(%r11), %eax
	movw	%r11w, -12(%r10)
	movw	%r11w, -6(%r10)
	movw	%ax, -8(%r10)
	movw	%ax, -4(%r10)
	leal	3(%r11), %eax
	addl	$4, %r11d
	movw	%ax, -2(%r10)
	movq	64(%rcx), %rax
	movq	%rdx, (%rax)
	movq	(%r9), %rdx
	movss	%xmm7, 20(%rax)
	movss	%xmm6, 24(%rax)
	movl	%ebx, 16(%rax)
	movl	%ebx, 36(%rax)
	movss	%xmm5, 28(%rax)
	addq	$80, %rax
	movq	%rdx, -72(%rax)
	movss	%xmm4, -48(%rax)
	movq	(%r8), %rdx
	movq	%rdx, -40(%rax)
	movq	(%rsi), %rdx
	movq	%rdx, -32(%rax)
	movss	%xmm3, -20(%rax)
	movl	%ebx, -24(%rax)
	movss	%xmm2, -16(%rax)
	movl	%ebx, -4(%rax)
	movss	%xmm1, -12(%rax)
	movss	%xmm0, -8(%rax)
	movq	%rax, 64(%rcx)
	movl	%r11d, 56(%rcx)
	movq	%r10, 72(%rcx)
	movaps	(%rsp), %xmm6
	movaps	16(%rsp), %xmm7
	addq	$40, %rsp
	popq	%rbx
	popq	%rsi
	ret
	.seh_endproc
	.align 2
	.p2align 4,,15
	.globl	_ZN10ImDrawList10PrimQuadUVERK6ImVec2S2_S2_S2_S2_S2_S2_S2_j
	.def	_ZN10ImDrawList10PrimQuadUVERK6ImVec2S2_S2_S2_S2_S2_S2_S2_j;	.scl	2;	.type	32;	.endef
	.seh_proc	_ZN10ImDrawList10PrimQuadUVERK6ImVec2S2_S2_S2_S2_S2_S2_S2_j
_ZN10ImDrawList10PrimQuadUVERK6ImVec2S2_S2_S2_S2_S2_S2_S2_j:
.LFB426:
	pushq	%rbx
	.seh_pushreg	%rbx
	.seh_endprologue
	movl	56(%rcx), %r11d
	movq	72(%rcx), %r10
	movq	(%rdx), %rdx
	movl	88(%rsp), %ebx
	leal	1(%r11), %eax
	movw	%r11w, (%r10)
	movw	%r11w, 6(%r10)
	addq	$12, %r10
	movw	%ax, -10(%r10)
	leal	2(%r11), %eax
	movw	%ax, -8(%r10)
	movw	%ax, -4(%r10)
	leal	3(%r11), %eax
	addl	$4, %r11d
	movw	%ax, -2(%r10)
	movq	64(%rcx), %rax
	movq	%rdx, (%rax)
	movq	56(%rsp), %rdx
	addq	$80, %rax
	movq	(%rdx), %rdx
	movl	%ebx, -64(%rax)
	movq	%rdx, -72(%rax)
	movq	(%r8), %rdx
	movq	%rdx, -60(%rax)
	movq	64(%rsp), %rdx
	movq	(%rdx), %rdx
	movl	%ebx, -44(%rax)
	movq	%rdx, -52(%rax)
	movq	(%r9), %rdx
	movq	%rdx, -40(%rax)
	movq	72(%rsp), %rdx
	movq	(%rdx), %rdx
	movl	%ebx, -24(%rax)
	movq	%rdx, -32(%rax)
	movq	48(%rsp), %rdx
	movq	(%rdx), %rdx
	movq	%rdx, -20(%rax)
	movq	80(%rsp), %rdx
	movq	(%rdx), %rdx
	movl	%ebx, -4(%rax)
	movq	%rdx, -12(%rax)
	movq	%rax, 64(%rcx)
	movl	%r11d, 56(%rcx)
	movq	%r10, 72(%rcx)
	popq	%rbx
	ret
	.seh_endproc
	.align 2
	.p2align 4,,15
	.globl	_ZN10ImDrawList11AddPolylineEPK6ImVec2ijbfb
	.def	_ZN10ImDrawList11AddPolylineEPK6ImVec2ijbfb;	.scl	2;	.type	32;	.endef
	.seh_proc	_ZN10ImDrawList11AddPolylineEPK6ImVec2ijbfb
_ZN10ImDrawList11AddPolylineEPK6ImVec2ijbfb:
.LFB427:
	pushq	%rbp
	.seh_pushreg	%rbp
	pushq	%r15
	.seh_pushreg	%r15
	pushq	%r14
	.seh_pushreg	%r14
	pushq	%r13
	.seh_pushreg	%r13
	pushq	%r12
	.seh_pushreg	%r12
	pushq	%rdi
	.seh_pushreg	%rdi
	pushq	%rsi
	.seh_pushreg	%rsi
	pushq	%rbx
	.seh_pushreg	%rbx
	subq	$248, %rsp
	.seh_stackalloc	248
	leaq	128(%rsp), %rbp
	.seh_setframe	%rbp, 128
	movaps	%xmm6, -32(%rbp)
	.seh_savexmm	%xmm6, 96
	movaps	%xmm7, -16(%rbp)
	.seh_savexmm	%xmm7, 112
	movaps	%xmm8, 0(%rbp)
	.seh_savexmm	%xmm8, 128
	movaps	%xmm9, 16(%rbp)
	.seh_savexmm	%xmm9, 144
	movaps	%xmm10, 32(%rbp)
	.seh_savexmm	%xmm10, 160
	movaps	%xmm11, 48(%rbp)
	.seh_savexmm	%xmm11, 176
	movaps	%xmm12, 64(%rbp)
	.seh_savexmm	%xmm12, 192
	movaps	%xmm13, 80(%rbp)
	.seh_savexmm	%xmm13, 208
	movaps	%xmm14, 96(%rbp)
	.seh_savexmm	%xmm14, 224
	.seh_endprologue
	cmpl	$1, %r8d
	movq	%rcx, %rsi
	movq	%rdx, 200(%rbp)
	movl	%r8d, 208(%rbp)
	movl	%r9d, 216(%rbp)
	movl	224(%rbp), %r12d
	movss	232(%rbp), %xmm11
	movl	240(%rbp), %eax
	jle	.L1573
	movq	.refptr.GImGui(%rip), %rdx
	movl	%r8d, %edi
	movq	(%rdx), %rdx
	andb	5240(%rdx), %al
	cmpb	$1, %r12b
	sbbl	$0, %edi
	movss	5952(%rdx), %xmm9
	movss	5956(%rdx), %xmm8
	movl	%edi, -40(%rbp)
	testb	%al, %al
	je	.L1577
	movl	%r9d, %eax
	movss	.LC24(%rip), %xmm10
	andl	$16777215, %eax
	ucomiss	%xmm10, %xmm11
	movl	%eax, -56(%rbp)
	jbe	.L1639
	movl	%edi, %eax
	sall	$4, %eax
	leal	(%rax,%rdi,2), %edx
.L1580:
	movl	208(%rbp), %eax
	movq	%rsi, %rcx
	sall	$2, %eax
	movl	%eax, %r8d
	movl	%eax, %ebx
	movl	%eax, -52(%rbp)
	call	_ZN10ImDrawList11PrimReserveEii
	movl	208(%rbp), %eax
	addl	%ebx, %eax
.L1583:
	cltq
	leaq	30(,%rax,8), %rax
	andq	$-16, %rax
	call	___chkstk_ms
	movslq	208(%rbp), %rcx
	movq	200(%rbp), %rdi
	movss	.LC29(%rip), %xmm13
	subq	%rax, %rsp
	xorps	%xmm12, %xmm12
	leaq	32(%rsp), %rax
	movaps	%xmm10, %xmm14
	leaq	4(%rdi), %r15
	xorl	%edx, %edx
	movl	$1, %edi
	salq	$3, %rcx
	movq	%rax, %r14
	movq	%rax, -48(%rbp)
	leaq	(%rax,%rcx), %rbx
	movq	%rax, %r13
	movl	-40(%rbp), %r8d
	movl	$1, %eax
	movq	200(%rbp), %r9
	movl	208(%rbp), %r10d
	jmp	.L1585
	.p2align 4,,7
.L1591:
	incl	%edi
	movl	%edx, %eax
	cmpl	%edi, %r10d
	cmovne	%edi, %eax
	addq	$8, %r15
	addq	$8, %r14
.L1585:
	cltq
	leaq	(%r9,%rax,8), %rax
	movss	4(%rax), %xmm7
	movss	(%rax), %xmm6
	subss	(%r15), %xmm7
	subss	-4(%r15), %xmm6
	movaps	%xmm7, %xmm0
	movaps	%xmm6, %xmm1
	mulss	%xmm7, %xmm0
	mulss	%xmm6, %xmm1
	addss	%xmm0, %xmm1
	movaps	%xmm14, %xmm0
	ucomiss	%xmm12, %xmm1
	jbe	.L1587
	sqrtss	%xmm1, %xmm0
	ucomiss	%xmm0, %xmm0
	jp	.L1645
.L1589:
	movaps	%xmm10, %xmm5
	divss	%xmm0, %xmm5
	movaps	%xmm5, %xmm0
.L1587:
	mulss	%xmm0, %xmm6
	cmpl	%edi, %r8d
	mulss	%xmm0, %xmm7
	xorps	%xmm13, %xmm6
	movss	%xmm7, (%r14)
	movss	%xmm6, 4(%r14)
	jne	.L1591
	testb	%r12b, %r12b
	jne	.L1592
	movq	-48(%rbp), %rdi
	leaq	-8(%rcx), %rdx
	movq	%rdi, %rax
	movq	-16(%rdi,%rcx), %rcx
	addq	%rdx, %rax
	ucomiss	%xmm10, %xmm11
	movq	%rcx, (%rax)
	jbe	.L1646
	subss	%xmm10, %xmm11
	movss	.LC1(%rip), %xmm7
	movq	200(%rbp), %rdi
	movq	200(%rbp), %rcx
	addq	200(%rbp), %rdx
	mulss	%xmm7, %xmm11
	movss	4(%rdi), %xmm0
	movq	-48(%rbp), %rdi
	movss	(%rcx), %xmm1
	movaps	%xmm0, %xmm5
	movaps	%xmm11, %xmm4
	movss	4(%rdi), %xmm2
	addss	%xmm10, %xmm4
	movss	(%rdi), %xmm3
	mulss	%xmm4, %xmm2
	mulss	%xmm4, %xmm3
	addss	%xmm0, %xmm2
	addss	%xmm1, %xmm3
	movss	%xmm2, 4(%rbx)
	movss	%xmm3, (%rbx)
	movss	4(%rdi), %xmm2
	movss	(%rdi), %xmm3
	mulss	%xmm11, %xmm2
	mulss	%xmm11, %xmm3
	addss	%xmm0, %xmm2
	addss	%xmm1, %xmm3
	movss	%xmm2, 12(%rbx)
	movss	%xmm3, 8(%rbx)
	movss	4(%rdi), %xmm2
	mulss	%xmm11, %xmm2
	movss	(%rdi), %xmm3
	mulss	%xmm11, %xmm3
	subss	%xmm2, %xmm5
	movaps	%xmm5, %xmm2
	movaps	%xmm1, %xmm5
	movss	%xmm2, 20(%rbx)
	subss	%xmm3, %xmm5
	movss	%xmm5, 16(%rbx)
	movss	4(%rdi), %xmm2
	mulss	%xmm4, %xmm2
	subss	%xmm2, %xmm0
	movss	(%rdi), %xmm2
	mulss	%xmm4, %xmm2
	movl	208(%rbp), %edi
	movss	%xmm0, 28(%rbx)
	decl	%edi
	subss	%xmm2, %xmm1
	movss	4(%rdx), %xmm0
	leal	0(,%rdi,4), %ecx
	movl	%edi, -60(%rbp)
	movaps	%xmm0, %xmm5
	movslq	%ecx, %rcx
	movss	%xmm1, 24(%rbx)
	leaq	(%rbx,%rcx,8), %r8
	movss	(%rdx), %xmm1
	leaq	8(,%rcx,8), %rdx
	movss	4(%rax), %xmm2
	movss	(%rax), %xmm3
	mulss	%xmm4, %xmm2
	leaq	(%rbx,%rdx), %rcx
	mulss	%xmm4, %xmm3
	addss	%xmm0, %xmm2
	addss	%xmm1, %xmm3
	movss	%xmm2, 4(%r8)
	movss	%xmm3, (%r8)
	movss	4(%rax), %xmm2
	movss	(%rax), %xmm3
	mulss	%xmm11, %xmm2
	mulss	%xmm11, %xmm3
	addss	%xmm0, %xmm2
	addss	%xmm1, %xmm3
	movss	%xmm2, 4(%rcx)
	movss	%xmm3, (%rcx)
	leaq	8(%rbx,%rdx), %rcx
	leaq	16(%rbx,%rdx), %rdx
	movss	4(%rax), %xmm2
	mulss	%xmm11, %xmm2
	movss	(%rax), %xmm3
	mulss	%xmm11, %xmm3
	subss	%xmm2, %xmm5
	movaps	%xmm5, %xmm2
	movaps	%xmm1, %xmm5
	movss	%xmm2, 4(%rcx)
	subss	%xmm3, %xmm5
	movss	%xmm5, (%rcx)
	movss	4(%rax), %xmm2
	mulss	%xmm4, %xmm2
	subss	%xmm2, %xmm0
	movss	(%rax), %xmm2
	mulss	%xmm4, %xmm2
	movss	%xmm0, 4(%rdx)
	subss	%xmm2, %xmm1
	movss	%xmm1, (%rdx)
.L1619:
	movl	56(%rsi), %eax
	movss	.LC43(%rip), %xmm5
	xorl	%r9d, %r9d
	movl	$8, %r15d
	xorl	%r14d, %r14d
	movaps	%xmm5, %xmm6
	movq	%rsi, 192(%rbp)
	movl	%eax, %edx
	movl	%eax, -64(%rbp)
	movq	72(%rsi), %rax
	movq	%rax, -72(%rbp)
	jmp	.L1605
	.p2align 4,,7
.L1628:
	movl	%r8d, %edx
.L1605:
	incl	%r14d
	cmpl	%r14d, 208(%rbp)
	je	.L1647
	leaq	32(%r9), %r12
	leal	4(%rdx), %r8d
	leaq	40(%r9), %rsi
	leaq	48(%r9), %r11
	leaq	56(%r9), %r10
	movq	%r15, %rcx
	movq	%r12, %rdi
.L1616:
	movq	-48(%rbp), %r9
	movss	4(%r13), %xmm0
	movss	0(%r13), %xmm1
	addq	%rcx, %r9
	addss	4(%r9), %xmm0
	addss	(%r9), %xmm1
	mulss	%xmm7, %xmm0
	mulss	%xmm7, %xmm1
	movaps	%xmm0, %xmm2
	movaps	%xmm1, %xmm3
	mulss	%xmm0, %xmm2
	mulss	%xmm1, %xmm3
	addss	%xmm3, %xmm2
	ucomiss	.LC44(%rip), %xmm2
	jbe	.L1602
	movaps	%xmm10, %xmm3
	divss	%xmm2, %xmm3
	movaps	%xmm3, %xmm2
	movaps	%xmm6, %xmm3
	cmpnltss	%xmm2, %xmm3
	andps	%xmm3, %xmm2
	andnps	%xmm5, %xmm3
	orps	%xmm3, %xmm2
	mulss	%xmm2, %xmm1
	mulss	%xmm2, %xmm0
.L1602:
	addq	200(%rbp), %rcx
	movaps	%xmm1, %xmm13
	movaps	%xmm0, %xmm12
	addq	%rbx, %rdi
	mulss	%xmm4, %xmm13
	addq	%rbx, %rsi
	addq	%rbx, %r11
	mulss	%xmm4, %xmm12
	addq	%rbx, %r10
	leal	2(%r8), %r9d
	movss	(%rcx), %xmm3
	mulss	%xmm11, %xmm1
	movaps	%xmm3, %xmm14
	mulss	%xmm11, %xmm0
	movss	4(%rcx), %xmm2
	movw	%dx, 16(%rax)
	addss	%xmm13, %xmm14
	movw	%dx, 18(%rax)
	leal	1(%r8), %ecx
	movw	%r9w, 8(%rax)
	movw	%r9w, 24(%rax)
	addq	$8, %r15
	movw	%r9w, 34(%rax)
	movw	%cx, (%rax)
	addq	$8, %r13
	movw	%cx, 10(%rax)
	movw	%cx, 12(%rax)
	addq	$36, %rax
	movss	%xmm14, (%rdi)
	movaps	%xmm2, %xmm14
	movw	%r8w, -16(%rax)
	movw	%cx, -14(%rax)
	movq	%r12, %r9
	addss	%xmm12, %xmm14
	movss	%xmm14, 4(%rdi)
	movaps	%xmm3, %xmm14
	addss	%xmm1, %xmm14
	movss	%xmm14, (%rsi)
	movaps	%xmm2, %xmm14
	addss	%xmm0, %xmm14
	movss	%xmm14, 4(%rsi)
	movaps	%xmm3, %xmm14
	subss	%xmm13, %xmm3
	subss	%xmm1, %xmm14
	movaps	%xmm2, %xmm1
	subss	%xmm12, %xmm2
	subss	%xmm0, %xmm1
	movss	%xmm14, (%r11)
	movss	%xmm1, 4(%r11)
	leal	1(%rdx), %r11d
	movss	%xmm3, (%r10)
	movss	%xmm2, 4(%r10)
	leal	2(%rdx), %r10d
	addl	$3, %edx
	movw	%dx, -8(%rax)
	movw	%dx, -6(%rax)
	leal	3(%r8), %edx
	movw	%r11w, -34(%rax)
	movw	%r10w, -32(%rax)
	movw	%r10w, -30(%rax)
	movw	%r11w, -22(%rax)
	movw	%r10w, -10(%rax)
	movw	%dx, -4(%rax)
	cmpl	%r14d, -40(%rbp)
	jne	.L1628
	movl	-40(%rbp), %eax
	movl	-60(%rbp), %ecx
	movq	192(%rbp), %rsi
	movl	216(%rbp), %r8d
	decl	%eax
	incq	%rax
	incq	%rcx
	movq	%rax, %rdx
	salq	$5, %rdx
	leaq	(%rdx,%rax,4), %rax
	addq	-72(%rbp), %rax
	movq	%rcx, %rdx
	salq	$4, %rdx
	salq	$6, %rcx
	addq	%rdx, %rcx
	movl	-56(%rbp), %edx
	movq	%rax, 72(%rsi)
	movq	64(%rsi), %rax
	addq	%rax, %rcx
	.p2align 4,,7
.L1606:
	movq	(%rbx), %r9
	movss	%xmm9, 8(%rax)
	movl	%edx, 16(%rax)
	movss	%xmm8, 12(%rax)
	movl	%r8d, 36(%rax)
	movl	%r8d, 56(%rax)
	movss	%xmm9, 28(%rax)
	movl	%edx, 76(%rax)
	addq	$80, %rax
	movq	%r9, -80(%rax)
	movss	%xmm8, -48(%rax)
	addq	$32, %rbx
	movq	-24(%rbx), %r9
	movss	%xmm9, -32(%rax)
	movss	%xmm8, -28(%rax)
	movss	%xmm9, -12(%rax)
	movq	%r9, -60(%rax)
	movss	%xmm8, -8(%rax)
	movq	-16(%rbx), %r9
	movq	%r9, -40(%rax)
	movq	-8(%rbx), %r9
	movq	%r9, -20(%rax)
	cmpq	%rcx, %rax
	movq	%rax, 64(%rsi)
	jne	.L1606
	movl	-64(%rbp), %r12d
.L1599:
	movzwl	-52(%rbp), %eax
	addl	%eax, %r12d
	movl	%r12d, 56(%rsi)
.L1573:
	movaps	-32(%rbp), %xmm6
	movaps	-16(%rbp), %xmm7
	movaps	0(%rbp), %xmm8
	movaps	16(%rbp), %xmm9
	movaps	32(%rbp), %xmm10
	movaps	48(%rbp), %xmm11
	movaps	64(%rbp), %xmm12
	movaps	80(%rbp), %xmm13
	movaps	96(%rbp), %xmm14
	leaq	120(%rbp), %rsp
	popq	%rbx
	popq	%rsi
	popq	%rdi
	popq	%r12
	popq	%r13
	popq	%r14
	popq	%r15
	popq	%rbp
	ret
	.p2align 4,,7
.L1592:
	ucomiss	%xmm10, %xmm11
	jbe	.L1648
	subss	%xmm10, %xmm11
	movss	.LC1(%rip), %xmm7
	movl	208(%rbp), %eax
	mulss	%xmm7, %xmm11
	decl	%eax
	movl	%eax, -60(%rbp)
	movaps	%xmm11, %xmm4
	addss	%xmm10, %xmm4
	jmp	.L1619
	.p2align 4,,7
.L1577:
	movl	%edi, %edx
	movl	$6, %ecx
	leal	0(,%rdi,4), %r8d
	imull	%ecx, %edx
	movq	%rsi, %rcx
	movl	%edi, %r14d
	xorps	%xmm12, %xmm12
	movl	$1, %edi
	xorl	%r12d, %r12d
	call	_ZN10ImDrawList11PrimReserveEii
	movq	200(%rbp), %rax
	movss	.LC24(%rip), %xmm10
	movss	.LC1(%rip), %xmm7
	movq	200(%rbp), %r15
	movaps	%xmm10, %xmm13
	movl	208(%rbp), %ecx
	leaq	4(%rax), %rbx
	movl	216(%rbp), %r13d
	movl	$1, %eax
	jmp	.L1607
	.p2align 4,,7
.L1650:
	sqrtss	%xmm1, %xmm0
	ucomiss	%xmm0, %xmm0
	jp	.L1649
.L1611:
	movaps	%xmm10, %xmm1
	divss	%xmm0, %xmm1
.L1609:
	movaps	%xmm14, %xmm2
	movq	64(%rsi), %rax
	movaps	%xmm11, %xmm0
	movss	%xmm9, 8(%rax)
	movl	%r13d, 16(%rax)
	addq	$80, %rax
	movss	%xmm8, -68(%rax)
	mulss	%xmm1, %xmm2
	mulss	%xmm7, %xmm0
	mulss	%xmm1, %xmm6
	mulss	%xmm0, %xmm2
	mulss	%xmm6, %xmm0
	subss	%xmm2, %xmm3
	addss	%xmm0, %xmm4
	movss	%xmm3, -76(%rax)
	movss	%xmm4, -80(%rax)
	movss	(%rdx), %xmm1
	addss	%xmm0, %xmm1
	movss	%xmm1, -60(%rax)
	movss	4(%rdx), %xmm1
	movl	%r13d, -44(%rax)
	subss	%xmm2, %xmm1
	movss	%xmm9, -52(%rax)
	movss	%xmm8, -48(%rax)
	movss	%xmm1, -56(%rax)
	movss	(%rdx), %xmm1
	subss	%xmm0, %xmm1
	movss	%xmm1, -40(%rax)
	movss	4(%rdx), %xmm1
	movl	56(%rsi), %edx
	addss	%xmm2, %xmm1
	movss	%xmm9, -32(%rax)
	movl	%r13d, -24(%rax)
	movss	%xmm8, -28(%rax)
	leal	1(%rdx), %r8d
	movss	%xmm1, -36(%rax)
	movss	-4(%rbx), %xmm1
	subss	%xmm0, %xmm1
	movss	%xmm1, -20(%rax)
	addss	(%rbx), %xmm2
	movss	%xmm9, -12(%rax)
	movss	%xmm8, -8(%rax)
	movl	%r13d, -4(%rax)
	movss	%xmm2, -16(%rax)
	movq	%rax, 64(%rsi)
	movq	72(%rsi), %rax
	movw	%r8w, 2(%rax)
	leal	2(%rdx), %r8d
	movw	%dx, (%rax)
	addq	$12, %rax
	movw	%r8w, -8(%rax)
	movw	%r8w, -4(%rax)
	leal	3(%rdx), %r8d
	movw	%dx, -6(%rax)
	addl	$4, %edx
	movw	%r8w, -2(%rax)
	cmpl	%edi, %r14d
	movq	%rax, 72(%rsi)
	movl	%edx, 56(%rsi)
	je	.L1573
	incl	%edi
	movl	%r12d, %eax
	cmpl	%edi, %ecx
	cmovne	%edi, %eax
	addq	$8, %rbx
.L1607:
	cltq
	movss	(%rbx), %xmm3
	leaq	(%r15,%rax,8), %rdx
	movss	-4(%rbx), %xmm4
	movss	4(%rdx), %xmm6
	movss	(%rdx), %xmm2
	subss	%xmm3, %xmm6
	subss	%xmm4, %xmm2
	movaps	%xmm6, %xmm0
	movaps	%xmm2, %xmm1
	movaps	%xmm2, %xmm14
	mulss	%xmm6, %xmm0
	mulss	%xmm2, %xmm1
	addss	%xmm0, %xmm1
	ucomiss	%xmm12, %xmm1
	ja	.L1650
	movaps	%xmm13, %xmm1
	jmp	.L1609
	.p2align 4,,7
.L1639:
	movl	-40(%rbp), %eax
	movl	$12, %r9d
	imull	%r9d, %eax
	ucomiss	%xmm10, %xmm11
	movl	%eax, %edx
	ja	.L1580
	leal	(%r8,%r8,2), %ebx
	movl	%eax, %edx
	movl	%ebx, %r8d
	movl	%ebx, -52(%rbp)
	call	_ZN10ImDrawList11PrimReserveEii
	ucomiss	%xmm10, %xmm11
	ja	.L1651
	movl	-52(%rbp), %eax
	jmp	.L1583
	.p2align 4,,7
.L1648:
	movl	208(%rbp), %eax
	decl	%eax
	movl	%eax, -60(%rbp)
.L1617:
	movq	72(%rsi), %r13
	movq	-48(%rbp), %rdi
	xorl	%r10d, %r10d
	movl	56(%rsi), %r12d
	movss	.LC43(%rip), %xmm4
	movq	%rsi, 192(%rbp)
	movss	.LC1(%rip), %xmm7
	movq	%r13, %rax
	movq	%r13, -48(%rbp)
	leaq	4(%rdi), %r11
	movl	%r12d, %r8d
	movaps	%xmm4, %xmm5
	movl	-40(%rbp), %esi
	movq	200(%rbp), %r13
	movq	%rdi, %r15
	movl	208(%rbp), %r14d
	jmp	.L1598
	.p2align 4,,7
.L1625:
	movl	%r9d, %r8d
.L1598:
	incl	%r10d
	cmpl	%r10d, %r14d
	je	.L1652
	leal	3(%r8), %r9d
	movl	%r10d, %edx
.L1615:
	movslq	%edx, %rcx
	movss	(%r11), %xmm0
	salq	$3, %rcx
	movss	-4(%r11), %xmm1
	leaq	(%r15,%rcx), %rdi
	addss	4(%rdi), %xmm0
	addss	(%rdi), %xmm1
	mulss	%xmm7, %xmm0
	mulss	%xmm7, %xmm1
	movaps	%xmm0, %xmm2
	movaps	%xmm1, %xmm3
	mulss	%xmm0, %xmm2
	mulss	%xmm1, %xmm3
	addss	%xmm3, %xmm2
	ucomiss	.LC44(%rip), %xmm2
	jbe	.L1595
	movaps	%xmm10, %xmm6
	movaps	%xmm5, %xmm3
	divss	%xmm2, %xmm6
	cmpnltss	%xmm6, %xmm3
	movaps	%xmm6, %xmm2
	andps	%xmm3, %xmm2
	andnps	%xmm4, %xmm3
	orps	%xmm3, %xmm2
	mulss	%xmm2, %xmm1
	mulss	%xmm2, %xmm0
.L1595:
	addq	%r13, %rcx
	movaps	%xmm1, %xmm6
	movss	(%rcx), %xmm3
	addl	%edx, %edx
	addss	%xmm3, %xmm6
	movslq	%edx, %rdx
	addq	$24, %rax
	leaq	(%rbx,%rdx,8), %rdi
	movss	4(%rcx), %xmm2
	subss	%xmm1, %xmm3
	leaq	8(%rbx,%rdx,8), %rdx
	leal	1(%r8), %ecx
	movw	%r9w, -24(%rax)
	movw	%r8w, -22(%rax)
	addq	$8, %r11
	movss	%xmm6, (%rdi)
	movaps	%xmm2, %xmm6
	subss	%xmm0, %xmm2
	movw	%r9w, -14(%rax)
	movw	%cx, -10(%rax)
	addss	%xmm0, %xmm6
	movw	%r8w, -8(%rax)
	movw	%r8w, -6(%rax)
	movw	%r9w, -4(%rax)
	movss	%xmm6, 4(%rdi)
	movss	%xmm3, (%rdx)
	movss	%xmm2, 4(%rdx)
	leal	2(%r8), %edx
	movw	%dx, -20(%rax)
	movw	%dx, -18(%rax)
	leal	2(%r9), %edx
	movw	%dx, -16(%rax)
	leal	1(%r9), %edx
	movw	%dx, -12(%rax)
	movw	%dx, -2(%rax)
	cmpl	%r10d, %esi
	jne	.L1625
	movl	-40(%rbp), %eax
	movq	192(%rbp), %rsi
	movq	-48(%rbp), %r13
	movl	-56(%rbp), %ecx
	movq	200(%rbp), %r10
	movl	216(%rbp), %r11d
	decl	%eax
	incq	%rax
	leaq	0(,%rax,8), %rdx
	salq	$5, %rax
	subq	%rdx, %rax
	movl	-60(%rbp), %edx
	addq	%rax, %r13
	movq	64(%rsi), %rax
	movq	%r13, 72(%rsi)
	leaq	8(,%rdx,8), %r8
	xorl	%edx, %edx
	.p2align 4,,7
.L1600:
	movq	(%r10,%rdx), %r9
	addq	$60, %rax
	movss	%xmm9, -52(%rax)
	movss	%xmm8, -48(%rax)
	movl	%r11d, -44(%rax)
	movl	%ecx, -24(%rax)
	movss	%xmm9, -32(%rax)
	movl	%ecx, -4(%rax)
	movq	%r9, -60(%rax)
	movss	%xmm8, -28(%rax)
	movq	(%rbx,%rdx,2), %r9
	movss	%xmm9, -12(%rax)
	movss	%xmm8, -8(%rax)
	movq	%r9, -40(%rax)
	movq	8(%rbx,%rdx,2), %r9
	addq	$8, %rdx
	movq	%r9, -20(%rax)
	cmpq	%r8, %rdx
	movq	%rax, 64(%rsi)
	jne	.L1600
	jmp	.L1599
	.p2align 4,,7
.L1646:
	movq	200(%rbp), %rdi
	movq	200(%rbp), %rcx
	addq	200(%rbp), %rdx
	movss	4(%rdi), %xmm0
	movq	-48(%rbp), %rdi
	movss	(%rcx), %xmm1
	movss	4(%rdi), %xmm2
	movss	(%rdi), %xmm3
	addss	%xmm0, %xmm2
	addss	%xmm1, %xmm3
	movss	%xmm2, 4(%rbx)
	movss	%xmm3, (%rbx)
	subss	4(%rdi), %xmm0
	subss	(%rdi), %xmm1
	movl	208(%rbp), %edi
	decl	%edi
	leal	(%rdi,%rdi), %ecx
	movl	%edi, -60(%rbp)
	movss	%xmm0, 12(%rbx)
	movss	%xmm1, 8(%rbx)
	movslq	%ecx, %rcx
	movss	4(%rdx), %xmm0
	leaq	(%rbx,%rcx,8), %r8
	movss	4(%rax), %xmm2
	movss	(%rax), %xmm3
	addss	%xmm0, %xmm2
	movss	(%rdx), %xmm1
	leaq	8(%rbx,%rcx,8), %rdx
	addss	%xmm1, %xmm3
	movss	%xmm2, 4(%r8)
	movss	%xmm3, (%r8)
	subss	4(%rax), %xmm0
	subss	(%rax), %xmm1
	movss	%xmm0, 4(%rdx)
	movss	%xmm1, (%rdx)
	jmp	.L1617
.L1645:
	movaps	%xmm1, %xmm0
	movl	%r10d, -84(%rbp)
	movq	%r9, -80(%rbp)
	movq	%rcx, -72(%rbp)
	movl	%r8d, -64(%rbp)
	movl	%edx, -60(%rbp)
	call	sqrtf
	movl	-84(%rbp), %r10d
	movq	-80(%rbp), %r9
	movq	-72(%rbp), %rcx
	movl	-64(%rbp), %r8d
	movl	-60(%rbp), %edx
	jmp	.L1589
.L1649:
	movaps	%xmm1, %xmm0
	movl	%ecx, -48(%rbp)
	movq	%rdx, -40(%rbp)
	call	sqrtf
	movss	(%rbx), %xmm3
	movl	-48(%rbp), %ecx
	movss	-4(%rbx), %xmm4
	movq	-40(%rbp), %rdx
	jmp	.L1611
.L1647:
	movl	-64(%rbp), %r8d
	movl	$24, %r10d
	movl	$16, %r11d
	movl	$8, %esi
	xorl	%edi, %edi
	xorl	%ecx, %ecx
	leaq	32(%r9), %r12
	jmp	.L1616
.L1652:
	movl	%r12d, %r9d
	xorl	%edx, %edx
	jmp	.L1615
.L1651:
	imull	$5, 208(%rbp), %eax
	jmp	.L1583
	.seh_endproc
	.align 2
	.p2align 4,,15
	.globl	_ZN10ImDrawList19AddConvexPolyFilledEPK6ImVec2ijb
	.def	_ZN10ImDrawList19AddConvexPolyFilledEPK6ImVec2ijb;	.scl	2;	.type	32;	.endef
	.seh_proc	_ZN10ImDrawList19AddConvexPolyFilledEPK6ImVec2ijb
_ZN10ImDrawList19AddConvexPolyFilledEPK6ImVec2ijb:
.LFB428:
	pushq	%rbp
	.seh_pushreg	%rbp
	pushq	%r15
	.seh_pushreg	%r15
	pushq	%r14
	.seh_pushreg	%r14
	pushq	%r13
	.seh_pushreg	%r13
	pushq	%r12
	.seh_pushreg	%r12
	pushq	%rdi
	.seh_pushreg	%rdi
	pushq	%rsi
	.seh_pushreg	%rsi
	pushq	%rbx
	.seh_pushreg	%rbx
	subq	$216, %rsp
	.seh_stackalloc	216
	leaq	128(%rsp), %rbp
	.seh_setframe	%rbp, 128
	movaps	%xmm6, -48(%rbp)
	.seh_savexmm	%xmm6, 80
	movaps	%xmm7, -32(%rbp)
	.seh_savexmm	%xmm7, 96
	movaps	%xmm8, -16(%rbp)
	.seh_savexmm	%xmm8, 112
	movaps	%xmm9, 0(%rbp)
	.seh_savexmm	%xmm9, 128
	movaps	%xmm10, 16(%rbp)
	.seh_savexmm	%xmm10, 144
	movaps	%xmm11, 32(%rbp)
	.seh_savexmm	%xmm11, 160
	movaps	%xmm12, 48(%rbp)
	.seh_savexmm	%xmm12, 176
	movaps	%xmm13, 64(%rbp)
	.seh_savexmm	%xmm13, 192
	.seh_endprologue
	movq	%rdx, %rbx
	movl	%r8d, %esi
	movq	.refptr.GImGui(%rip), %rax
	movq	%rcx, 160(%rbp)
	movl	%r9d, 184(%rbp)
	movl	192(%rbp), %edx
	movq	(%rax), %rax
	cmpb	$0, 5241(%rax)
	movss	5952(%rax), %xmm9
	movss	5956(%rax), %xmm8
	je	.L1654
	testb	%dl, %dl
	je	.L1654
	movl	%r9d, %eax
	leal	-6(%r8,%r8,8), %edx
	andl	$16777215, %eax
	movl	%eax, -80(%rbp)
	leal	(%r8,%r8), %eax
	movl	%eax, %r8d
	movl	%eax, -72(%rbp)
	call	_ZN10ImDrawList11PrimReserveEii
	movq	160(%rbp), %rax
	movl	56(%rax), %eax
	movl	%eax, -64(%rbp)
	incl	%eax
	cmpl	$2, %esi
	movl	%eax, -84(%rbp)
	jle	.L1697
	movq	160(%rbp), %rax
	leal	-9(%rsi), %edi
	cmpl	$12, %esi
	movzwl	-64(%rbp), %edx
	movl	%edi, -56(%rbp)
	movq	72(%rax), %rax
	movq	%rax, -96(%rbp)
	jle	.L1682
	movl	$3, %r15d
	movq	%rbx, 168(%rbp)
	movl	$9, %r13d
	movl	$8, %r12d
	movl	$7, %edi
	movl	$6, %r11d
	movl	$5, %r10d
	movl	$4, %r9d
	xorl	%r8d, %r8d
	movl	$2, %ecx
	movl	%r15d, %ebx
	.p2align 4,,7
.L1659:
	leal	2(%rdx,%r8,2), %r14d
	leal	(%rdx,%r13,2), %r15d
	movw	%dx, (%rax)
	movw	%dx, 6(%rax)
	movw	%dx, 12(%rax)
	prefetcht0	102(%rax)
	movw	%r14w, 2(%rax)
	leal	(%rdx,%rcx,2), %r14d
	movw	%r15w, 46(%rax)
	movw	%r15w, 50(%rax)
	movw	%dx, 18(%rax)
	prefetcht0	104(%rax)
	movw	%r14w, 4(%rax)
	movw	%r14w, 8(%rax)
	leal	(%rdx,%rbx,2), %r14d
	movw	%dx, 24(%rax)
	movw	%dx, 30(%rax)
	prefetcht0	106(%rax)
	movw	%r14w, 10(%rax)
	movw	%r14w, 14(%rax)
	leal	(%rdx,%r9,2), %r14d
	movw	%dx, 36(%rax)
	movw	%dx, 42(%rax)
	addl	$10, %ecx
	movw	%r14w, 16(%rax)
	movw	%r14w, 20(%rax)
	leal	(%rdx,%r10,2), %r14d
	movw	%dx, 48(%rax)
	movw	%dx, 54(%rax)
	addl	$10, %ebx
	movw	%r14w, 22(%rax)
	movw	%r14w, 26(%rax)
	leal	(%rdx,%r11,2), %r14d
	addq	$60, %rax
	addl	$10, %r9d
	addl	$10, %r10d
	movw	%r14w, -32(%rax)
	movw	%r14w, -28(%rax)
	leal	(%rdx,%rdi,2), %r14d
	addl	$10, %r11d
	addl	$10, %edi
	addl	$10, %r13d
	movw	%r14w, -26(%rax)
	movw	%r14w, -22(%rax)
	leal	(%rdx,%r12,2), %r14d
	addl	$10, %r12d
	movw	%r14w, -20(%rax)
	movw	%r14w, -16(%rax)
	leal	10(%r8), %r14d
	leal	22(%rdx,%r8,2), %r8d
	leal	(%rdx,%r14,2), %r15d
	movw	%r15w, -8(%rax)
	movw	%r15w, -4(%rax)
	movw	%r8w, -2(%rax)
	cmpl	-56(%rbp), %ebx
	movl	%r14d, %r8d
	jl	.L1659
	movq	168(%rbp), %rbx
.L1658:
	leal	-1(%rcx), %r8d
	.p2align 4,,7
.L1661:
	leal	(%rdx,%r8,2), %r9d
	movw	%dx, (%rax)
	incl	%r8d
	addq	$6, %rax
	movw	%r9w, -4(%rax)
	leal	(%rdx,%rcx,2), %r9d
	incl	%ecx
	movw	%r9w, -2(%rax)
	cmpl	%ecx, %esi
	jg	.L1661
	movq	-96(%rbp), %rdi
	leal	-3(%rsi), %eax
	movslq	%esi, %r14
	salq	$3, %r14
	incq	%rax
	leaq	(%rax,%rax), %rdx
	leaq	(%rdi,%rax,8), %rax
	movq	160(%rbp), %rdi
	subq	%rdx, %rax
	movq	%rax, 72(%rdi)
	leaq	30(%r14), %rax
	andq	$-16, %rax
	call	___chkstk_ms
	subq	%rax, %rsp
	leal	-1(%rsi), %r12d
	leaq	32(%rsp), %r8
	movl	%r12d, %edx
.L1657:
	movss	.LC24(%rip), %xmm10
	xorps	%xmm12, %xmm12
	movl	%r12d, %edi
	movss	.LC29(%rip), %xmm11
	subq	$8, %r14
	movaps	%xmm10, %xmm13
	incq	%rdi
	xorl	%r13d, %r13d
	.p2align 4,,7
.L1666:
	movslq	%r12d, %rax
	movss	4(%rbx,%r13,8), %xmm7
	leaq	0(,%rax,8), %r12
	movss	(%rbx,%r13,8), %xmm6
	movl	%r13d, %r15d
	leaq	(%rbx,%r12), %rcx
	subss	4(%rcx), %xmm7
	subss	(%rcx), %xmm6
	movaps	%xmm7, %xmm0
	movaps	%xmm6, %xmm1
	mulss	%xmm7, %xmm0
	mulss	%xmm6, %xmm1
	addss	%xmm0, %xmm1
	movaps	%xmm13, %xmm0
	ucomiss	%xmm12, %xmm1
	jbe	.L1662
	sqrtss	%xmm1, %xmm0
	ucomiss	%xmm0, %xmm0
	jp	.L1698
.L1664:
	movaps	%xmm10, %xmm5
	divss	%xmm0, %xmm5
	movaps	%xmm5, %xmm0
.L1662:
	mulss	%xmm0, %xmm6
	leaq	(%r8,%r12), %rax
	incq	%r13
	mulss	%xmm0, %xmm7
	cmpq	%rdi, %r13
	movl	%r15d, %r12d
	xorps	%xmm11, %xmm6
	movss	%xmm7, (%rax)
	movss	%xmm6, 4(%rax)
	jne	.L1666
	movq	160(%rbp), %rax
	addq	%r8, %r14
	movzwl	-64(%rbp), %r12d
	movss	.LC43(%rip), %xmm7
	movzwl	-84(%rbp), %r11d
	movss	4(%r14), %xmm0
	xorl	%r10d, %r10d
	movq	64(%rax), %r15
	movq	72(%rax), %rax
	movss	(%r14), %xmm1
	movaps	%xmm7, %xmm11
	movl	-80(%rbp), %r14d
	movss	.LC1(%rip), %xmm4
	movq	%rax, -56(%rbp)
	movq	%rax, %rcx
	movq	%r15, -80(%rbp)
	movq	%r15, %rax
	movq	%rdi, -64(%rbp)
	movl	184(%rbp), %r15d
	jmp	.L1670
	.p2align 4,,7
.L1685:
	movl	%r9d, %r10d
.L1670:
	movss	4(%r8), %xmm6
	movss	(%r8), %xmm5
	addss	%xmm6, %xmm0
	addss	%xmm5, %xmm1
	mulss	%xmm4, %xmm0
	mulss	%xmm4, %xmm1
	movaps	%xmm0, %xmm2
	movaps	%xmm1, %xmm3
	mulss	%xmm0, %xmm2
	mulss	%xmm1, %xmm3
	addss	%xmm3, %xmm2
	ucomiss	.LC44(%rip), %xmm2
	jbe	.L1667
	movaps	%xmm10, %xmm3
	divss	%xmm2, %xmm3
	movaps	%xmm3, %xmm2
	movaps	%xmm11, %xmm3
	cmpnltss	%xmm2, %xmm3
	andps	%xmm3, %xmm2
	andnps	%xmm7, %xmm3
	orps	%xmm3, %xmm2
	mulss	%xmm2, %xmm1
	mulss	%xmm2, %xmm0
.L1667:
	mulss	%xmm4, %xmm1
	movss	4(%rbx), %xmm2
	mulss	%xmm4, %xmm0
	movss	(%rbx), %xmm3
	movss	%xmm9, 8(%rax)
	leal	(%r10,%r10), %r9d
	addl	%edx, %edx
	movss	%xmm8, 12(%rax)
	movl	%r15d, 16(%rax)
	leal	(%rdx,%r12), %r13d
	subss	%xmm1, %xmm3
	leal	(%r9,%r12), %edi
	addl	%r11d, %r9d
	subss	%xmm0, %xmm2
	addl	%r11d, %edx
	addq	$40, %rax
	addq	$12, %rcx
	addq	$8, %r8
	addq	$8, %rbx
	movss	%xmm3, -40(%rax)
	movss	%xmm2, -36(%rax)
	addss	-4(%rbx), %xmm0
	addss	-8(%rbx), %xmm1
	movss	%xmm9, -12(%rax)
	movl	%r14d, -4(%rax)
	movss	%xmm8, -8(%rax)
	movss	%xmm0, -16(%rax)
	movaps	%xmm6, %xmm0
	movss	%xmm1, -20(%rax)
	movw	%r9w, -4(%rcx)
	leal	1(%r10), %r9d
	movw	%dx, -8(%rcx)
	movaps	%xmm5, %xmm1
	movw	%dx, -6(%rcx)
	movl	%r10d, %edx
	movw	%di, -12(%rcx)
	movw	%r13w, -10(%rcx)
	movw	%di, -2(%rcx)
	cmpl	%r9d, %esi
	jne	.L1685
	movq	-64(%rbp), %rdi
	movq	-80(%rbp), %r15
	movq	%rdi, %rax
	salq	$5, %rax
	leaq	(%rax,%rdi,8), %rax
	addq	%rax, %r15
	movq	160(%rbp), %rax
	movq	%r15, 64(%rax)
	leaq	0(,%rdi,4), %rax
	salq	$4, %rdi
	subq	%rax, %rdi
	movq	160(%rbp), %rax
	addq	-56(%rbp), %rdi
	movl	56(%rax), %r12d
	movq	%rdi, 72(%rax)
.L1656:
	movzwl	-72(%rbp), %eax
	addl	%eax, %r12d
	movq	160(%rbp), %rax
	movl	%r12d, 56(%rax)
	jmp	.L1653
	.p2align 4,,7
.L1654:
	leal	-6(%rsi,%rsi,2), %edx
	movl	%esi, %r8d
	call	_ZN10ImDrawList11PrimReserveEii
	testl	%esi, %esi
	jle	.L1672
	movq	160(%rbp), %rax
	movq	160(%rbp), %r8
	xorl	%edx, %edx
	movl	184(%rbp), %r9d
	movq	64(%rax), %rax
	.p2align 4,,7
.L1677:
	movq	(%rbx,%rdx,8), %rcx
	incq	%rdx
	movss	%xmm9, 8(%rax)
	movss	%xmm8, 12(%rax)
	movl	%r9d, 16(%rax)
	addq	$20, %rax
	movq	%rcx, -20(%rax)
	cmpl	%edx, %esi
	movq	%rax, 64(%r8)
	jg	.L1677
	cmpl	$2, %esi
	jle	.L1672
	movq	160(%rbp), %rdi
	movq	160(%rbp), %rax
	cmpl	$12, %esi
	movl	56(%rdi), %edi
	movq	72(%rax), %rax
	movl	%edi, %ecx
	movl	%edi, -64(%rbp)
	movl	%edi, %edx
	leal	-9(%rsi), %edi
	movq	%rax, -72(%rbp)
	movl	%edi, -56(%rbp)
	jle	.L1686
	movl	%ecx, %r15d
	movl	%ecx, %edi
	movl	%ecx, %ebx
	movl	%ecx, %r11d
	movl	%ecx, %r10d
	leal	8(%r15), %r9d
	leal	2(%rdi), %r13d
	leal	3(%rdi), %r12d
	movl	%ecx, %r8d
	addl	$4, %edi
	addl	$5, %ebx
	addl	$6, %r11d
	addl	$7, %r10d
	movl	$2, %ecx
	.p2align 4,,7
.L1679:
	leal	1(%r8), %r14d
	leal	10(%r8), %r15d
	movw	%r13w, 4(%rax)
	movw	%r13w, 8(%rax)
	movw	%r12w, 10(%rax)
	prefetcht0	138(%rax)
	movw	%r14w, 2(%rax)
	leal	9(%r8), %r14d
	addl	$11, %r8d
	movw	%r12w, 14(%rax)
	movw	%di, 16(%rax)
	prefetcht0	140(%rax)
	movw	%r14w, 46(%rax)
	movw	%r14w, 50(%rax)
	movl	%ecx, %r14d
	movw	%di, 20(%rax)
	movw	%bx, 22(%rax)
	prefetcht0	142(%rax)
	movw	%bx, 26(%rax)
	movw	%r11w, 28(%rax)
	addl	$10, %ecx
	movw	%r11w, 32(%rax)
	movw	%r10w, 34(%rax)
	addl	$10, %r13d
	movw	%r10w, 38(%rax)
	movw	%r9w, 40(%rax)
	addl	$10, %r12d
	movw	%r9w, 44(%rax)
	movw	%dx, (%rax)
	addl	$10, %edi
	movw	%dx, 6(%rax)
	movw	%dx, 12(%rax)
	addl	$10, %ebx
	movw	%dx, 18(%rax)
	movw	%dx, 24(%rax)
	addl	$10, %r11d
	movw	%dx, 30(%rax)
	movw	%dx, 36(%rax)
	addl	$10, %r10d
	movw	%dx, 42(%rax)
	movw	%dx, 48(%rax)
	addl	$10, %r9d
	movw	%r15w, 52(%rax)
	movw	%dx, 54(%rax)
	addl	$11, %r14d
	movw	%r15w, 56(%rax)
	movw	%r8w, 58(%rax)
	addq	$60, %rax
	cmpl	%r14d, -56(%rbp)
	movl	%r15d, %r8d
	jg	.L1679
.L1678:
	leal	(%rdx,%rcx), %r8d
	.p2align 4,,7
.L1680:
	leal	-1(%r8), %r9d
	incl	%ecx
	movw	%r8w, 4(%rax)
	movw	%dx, (%rax)
	incl	%r8d
	addq	$6, %rax
	movw	%r9w, -4(%rax)
	cmpl	%ecx, %esi
	jg	.L1680
	movq	-72(%rbp), %rdi
	leal	-3(%rsi), %eax
	incq	%rax
	leaq	(%rax,%rax), %rdx
	leaq	(%rdi,%rax,8), %rax
	movq	160(%rbp), %rdi
	subq	%rdx, %rax
	movq	%rax, 72(%rdi)
	movq	%rdi, %rax
.L1675:
	movzwl	%si, %esi
	addl	-64(%rbp), %esi
	movl	%esi, 56(%rax)
.L1653:
	movaps	-48(%rbp), %xmm6
	movaps	-32(%rbp), %xmm7
	movaps	-16(%rbp), %xmm8
	movaps	0(%rbp), %xmm9
	movaps	16(%rbp), %xmm10
	movaps	32(%rbp), %xmm11
	movaps	48(%rbp), %xmm12
	movaps	64(%rbp), %xmm13
	leaq	88(%rbp), %rsp
	popq	%rbx
	popq	%rsi
	popq	%rdi
	popq	%r12
	popq	%r13
	popq	%r14
	popq	%r15
	popq	%rbp
	ret
.L1672:
	movq	160(%rbp), %rax
	movl	56(%rax), %eax
	movl	%eax, -64(%rbp)
	movq	160(%rbp), %rax
	jmp	.L1675
.L1697:
	movslq	%esi, %r14
	salq	$3, %r14
	leaq	30(%r14), %rax
	andq	$-16, %rax
	call	___chkstk_ms
	leal	-1(%rsi), %r12d
	subq	%rax, %rsp
	testl	%esi, %esi
	leaq	32(%rsp), %r8
	movl	%r12d, %edx
	jg	.L1657
	movl	-64(%rbp), %r12d
	jmp	.L1656
.L1686:
	movl	$2, %ecx
	jmp	.L1678
.L1682:
	movl	$2, %ecx
	jmp	.L1658
.L1698:
	movaps	%xmm1, %xmm0
	movq	%r8, -96(%rbp)
	movl	%edx, -56(%rbp)
	call	sqrtf
	movq	-96(%rbp), %r8
	movl	-56(%rbp), %edx
	jmp	.L1664
	.seh_endproc
	.align 2
	.p2align 4,,15
	.globl	_ZN10ImDrawList23AddRectFilledMultiColorERK6ImVec2S2_jjjj
	.def	_ZN10ImDrawList23AddRectFilledMultiColorERK6ImVec2S2_jjjj;	.scl	2;	.type	32;	.endef
	.seh_proc	_ZN10ImDrawList23AddRectFilledMultiColorERK6ImVec2S2_jjjj
_ZN10ImDrawList23AddRectFilledMultiColorERK6ImVec2S2_jjjj:
.LFB437:
	pushq	%r13
	.seh_pushreg	%r13
	pushq	%r12
	.seh_pushreg	%r12
	pushq	%rbp
	.seh_pushreg	%rbp
	pushq	%rdi
	.seh_pushreg	%rdi
	pushq	%rsi
	.seh_pushreg	%rsi
	pushq	%rbx
	.seh_pushreg	%rbx
	subq	$88, %rsp
	.seh_stackalloc	88
	movaps	%xmm6, 48(%rsp)
	.seh_savexmm	%xmm6, 48
	movaps	%xmm7, 64(%rsp)
	.seh_savexmm	%xmm7, 64
	.seh_endprologue
	movq	%rcx, %rbx
	movq	%rdx, %r12
	movq	%r8, %r13
	movl	184(%rsp), %edi
	movl	192(%rsp), %esi
	movl	176(%rsp), %ebp
	movl	%edi, %eax
	orl	%esi, %eax
	orl	%ebp, %eax
	orl	%r9d, %eax
	testl	$-16777216, %eax
	je	.L1699
	movq	.refptr.GImGui(%rip), %rax
	movl	$6, %edx
	movl	$4, %r8d
	movl	%r9d, 44(%rsp)
	movq	(%rax), %rax
	movss	5952(%rax), %xmm7
	movss	5956(%rax), %xmm6
	call	_ZN10ImDrawList11PrimReserveEii
	movl	56(%rbx), %edx
	movq	72(%rbx), %rax
	movl	44(%rsp), %r9d
	leal	1(%rdx), %ecx
	movw	%dx, (%rax)
	movw	%dx, 6(%rax)
	addq	$12, %rax
	movw	%cx, -10(%rax)
	leal	2(%rdx), %ecx
	addl	$3, %edx
	movw	%dx, -2(%rax)
	movq	(%r12), %rdx
	movw	%cx, -8(%rax)
	movw	%cx, -4(%rax)
	movq	%rax, 72(%rbx)
	movq	64(%rbx), %rax
	movss	%xmm7, 8(%rax)
	movq	%rdx, (%rax)
	movl	%r9d, 16(%rax)
	movss	%xmm6, 12(%rax)
	incl	56(%rbx)
	addq	$80, %rax
	movss	4(%r12), %xmm0
	movss	0(%r13), %xmm1
	movss	%xmm1, -60(%rax)
	movl	%ebp, -44(%rax)
	movss	%xmm0, -56(%rax)
	movss	%xmm7, -52(%rax)
	movss	%xmm6, -48(%rax)
	movq	0(%r13), %rdx
	incl	56(%rbx)
	movss	%xmm7, -32(%rax)
	movss	%xmm6, -28(%rax)
	movl	%edi, -24(%rax)
	movq	%rdx, -40(%rax)
	incl	56(%rbx)
	movss	4(%r13), %xmm0
	movss	(%r12), %xmm1
	movl	%esi, -4(%rax)
	movss	%xmm1, -20(%rax)
	movss	%xmm0, -16(%rax)
	movss	%xmm7, -12(%rax)
	movss	%xmm6, -8(%rax)
	incl	56(%rbx)
	movq	%rax, 64(%rbx)
.L1699:
	movaps	48(%rsp), %xmm6
	movaps	64(%rsp), %xmm7
	addq	$88, %rsp
	popq	%rbx
	popq	%rsi
	popq	%rdi
	popq	%rbp
	popq	%r12
	popq	%r13
	ret
	.seh_endproc
	.section .rdata,"dr"
	.align 8
.LC45:
	.ascii "font->ContainerAtlas->TexID == _TextureIdStack.back()\0"
	.text
	.align 2
	.p2align 4,,15
	.globl	_ZN10ImDrawList7AddTextERK6ImVec2jPKcS4_
	.def	_ZN10ImDrawList7AddTextERK6ImVec2jPKcS4_;	.scl	2;	.type	32;	.endef
	.seh_proc	_ZN10ImDrawList7AddTextERK6ImVec2jPKcS4_
_ZN10ImDrawList7AddTextERK6ImVec2jPKcS4_:
.LFB446:
	pushq	%r15
	.seh_pushreg	%r15
	pushq	%r14
	.seh_pushreg	%r14
	pushq	%r13
	.seh_pushreg	%r13
	pushq	%r12
	.seh_pushreg	%r12
	pushq	%rbp
	.seh_pushreg	%rbp
	pushq	%rdi
	.seh_pushreg	%rdi
	pushq	%rsi
	.seh_pushreg	%rsi
	pushq	%rbx
	.seh_pushreg	%rbx
	subq	$248, %rsp
	.seh_stackalloc	248
	movaps	%xmm6, 80(%rsp)
	.seh_savexmm	%xmm6, 80
	movaps	%xmm7, 96(%rsp)
	.seh_savexmm	%xmm7, 96
	movaps	%xmm8, 112(%rsp)
	.seh_savexmm	%xmm8, 112
	movaps	%xmm9, 128(%rsp)
	.seh_savexmm	%xmm9, 128
	movaps	%xmm10, 144(%rsp)
	.seh_savexmm	%xmm10, 144
	movaps	%xmm11, 160(%rsp)
	.seh_savexmm	%xmm11, 160
	movaps	%xmm12, 176(%rsp)
	.seh_savexmm	%xmm12, 176
	movaps	%xmm13, 192(%rsp)
	.seh_savexmm	%xmm13, 192
	movaps	%xmm14, 208(%rsp)
	.seh_savexmm	%xmm14, 208
	movaps	%xmm15, 224(%rsp)
	.seh_savexmm	%xmm15, 224
	.seh_endprologue
	testl	$-16777216, %r8d
	movq	%rcx, %r15
	movq	%rdx, %rbp
	movl	%r8d, %r12d
	movq	%r9, %rbx
	movq	352(%rsp), %rsi
	je	.L1704
	testq	%rsi, %rsi
	je	.L1798
.L1706:
	cmpq	%rsi, %rbx
	je	.L1704
	movq	.refptr.GImGui(%rip), %rax
	movq	(%rax), %rax
	movq	5936(%rax), %rdi
	movss	5944(%rax), %xmm7
	movq	88(%rdi), %rax
	movq	(%rax), %r13
	movslq	96(%r15), %rax
	testl	%eax, %eax
	jle	.L1799
.L1707:
	movq	104(%r15), %rdx
	cmpq	-8(%rdx,%rax,8), %r13
	je	.L1708
	leaq	.LC5(%rip), %rdx
	leaq	.LC45(%rip), %rcx
	movl	$943, %r8d
	call	_assert
.L1708:
	movslq	80(%r15), %rax
	testl	%eax, %eax
	jle	.L1800
.L1709:
	movq	88(%r15), %rdx
	salq	$4, %rax
	testq	%rsi, %rsi
	movss	4(%rbp), %xmm6
	leaq	-16(%rdx,%rax), %r13
	movss	12(%r13), %xmm14
	je	.L1801
.L1710:
	cvttss2si	%xmm6, %eax
	cvtsi2ss	%eax, %xmm9
	addss	12(%rdi), %xmm9
	ucomiss	%xmm14, %xmm9
	ja	.L1704
	movss	(%rdi), %xmm0
	movaps	%xmm9, %xmm8
	divss	%xmm0, %xmm7
	movss	4(%r13), %xmm12
	movss	0(%r13), %xmm5
	movss	%xmm5, 56(%rsp)
	movss	8(%r13), %xmm11
	movss	0(%rbp), %xmm10
	movss	8(%rdi), %xmm6
	mulss	%xmm7, %xmm0
	addss	%xmm0, %xmm8
	movaps	%xmm0, %xmm13
	ucomiss	%xmm8, %xmm12
	ja	.L1802
	movq	%rsi, %r8
	movl	$6, %r9d
	movl	16(%r15), %eax
	subq	%rbx, %r8
	movq	%r15, %rcx
	movl	%r8d, %edx
	sall	$2, %r8d
	imull	%r9d, %edx
	addl	%edx, %eax
	movl	%eax, 60(%rsp)
	call	_ZN10ImDrawList11PrimReserveEii
	cmpq	%rsi, %rbx
	movq	64(%r15), %r13
	movq	72(%r15), %rbp
	movl	56(%r15), %r14d
	jnb	.L1718
.L1719:
	cvttss2si	%xmm10, %eax
	movss	%xmm13, 52(%rsp)
	movss	%xmm14, 48(%rsp)
	cvtsi2ss	%eax, %xmm10
	leaq	76(%rsp), %rax
	movq	%rax, 40(%rsp)
	addss	%xmm6, %xmm10
	movaps	%xmm10, %xmm6
	jmp	.L1720
	.p2align 4,,7
.L1805:
	incq	%rbx
.L1722:
	cmpl	$31, %eax
	ja	.L1724
	cmpl	$10, %eax
	je	.L1803
	cmpl	$13, %eax
	je	.L1736
.L1724:
	movzwl	%ax, %edx
	cmpl	48(%rdi), %edx
	jl	.L1804
.L1731:
	movq	64(%rdi), %rdx
.L1732:
	testq	%rdx, %rdx
	xorps	%xmm0, %xmm0
	je	.L1733
	movss	4(%rdx), %xmm0
	cmpl	$32, %eax
	mulss	%xmm7, %xmm0
	je	.L1733
	cmpl	$9, %eax
	je	.L1733
	movss	8(%rdx), %xmm1
	mulss	%xmm7, %xmm1
	addss	%xmm6, %xmm1
	ucomiss	%xmm1, %xmm11
	jb	.L1733
	movss	16(%rdx), %xmm2
	mulss	%xmm7, %xmm2
	addss	%xmm6, %xmm2
	ucomiss	56(%rsp), %xmm2
	jb	.L1733
	movss	20(%rdx), %xmm4
	leal	1(%r14), %eax
	addq	$80, %r13
	mulss	%xmm7, %xmm4
	movss	12(%rdx), %xmm3
	mulss	%xmm7, %xmm3
	movss	24(%rdx), %xmm13
	movss	28(%rdx), %xmm15
	addq	$12, %rbp
	movss	32(%rdx), %xmm5
	addss	%xmm9, %xmm4
	addss	%xmm9, %xmm3
	movaps	%xmm4, %xmm14
	movss	36(%rdx), %xmm4
	movw	%ax, -10(%rbp)
	leal	2(%r14), %eax
	movw	%r14w, -12(%rbp)
	movw	%r14w, -6(%rbp)
	movw	%ax, -8(%rbp)
	movw	%ax, -4(%rbp)
	leal	3(%r14), %eax
	addl	$4, %r14d
	movw	%ax, -2(%rbp)
	movss	%xmm1, -80(%r13)
	movl	%r12d, -64(%r13)
	movss	%xmm3, -76(%r13)
	movl	%r12d, -44(%r13)
	movl	%r12d, -24(%r13)
	movss	%xmm13, -72(%r13)
	movl	%r12d, -4(%r13)
	movss	%xmm15, -68(%r13)
	movss	%xmm2, -60(%r13)
	movss	%xmm3, -56(%r13)
	movss	%xmm5, -52(%r13)
	movss	%xmm15, -48(%r13)
	movss	%xmm2, -40(%r13)
	movss	%xmm14, -36(%r13)
	movss	%xmm5, -32(%r13)
	movss	%xmm4, -28(%r13)
	movss	%xmm1, -20(%r13)
	movss	%xmm14, -16(%r13)
	movss	%xmm13, -12(%r13)
	movss	%xmm4, -8(%r13)
	.p2align 4,,7
.L1733:
	addss	%xmm0, %xmm6
.L1736:
	cmpq	%rbx, %rsi
	jbe	.L1718
.L1720:
	movsbl	(%rbx), %eax
	cmpl	$127, %eax
	movl	%eax, 76(%rsp)
	jbe	.L1805
	movq	40(%rsp), %rcx
	movq	%rbx, %rdx
	movq	%rsi, %r8
	call	_Z18ImTextCharFromUtf8PjPKcS1_
	cltq
	addq	%rax, %rbx
	movl	76(%rsp), %eax
	testl	%eax, %eax
	jne	.L1722
	.p2align 4,,7
.L1718:
	movq	%r13, %rbx
	subq	40(%r15), %rbx
	movabsq	$-3689348814741910323, %rax
	sarq	$2, %rbx
	imulq	%rax, %rbx
	movl	36(%r15), %eax
	cmpl	%eax, %ebx
	movl	%ebx, %esi
	jle	.L1737
	testl	%eax, %eax
	movl	$8, %edx
	je	.L1738
	movl	%eax, %edx
	shrl	$31, %edx
	addl	%eax, %edx
	sarl	%edx
	addl	%eax, %edx
.L1738:
	cmpl	%edx, %ebx
	jge	.L1754
	cmpl	%edx, %eax
	jl	.L1806
.L1737:
	movl	%ebx, 32(%r15)
	movq	%rbp, %rbx
	subq	24(%r15), %rbx
	movl	20(%r15), %eax
	sarq	%rbx
	cmpl	%eax, %ebx
	jle	.L1741
	testl	%eax, %eax
	movl	$8, %edx
	je	.L1742
	movl	%eax, %edx
	shrl	$31, %edx
	addl	%eax, %edx
	sarl	%edx
	addl	%eax, %edx
.L1742:
	cmpl	%edx, %ebx
	jge	.L1756
	cmpl	%edx, %eax
	jl	.L1807
.L1741:
	movl	(%r15), %eax
	movl	%ebx, 16(%r15)
	decl	%eax
	cltq
	movq	%rax, %rdx
	salq	$6, %rax
	salq	$4, %rdx
	subq	%rdx, %rax
	addq	8(%r15), %rax
	movl	60(%rsp), %edx
	subl	%ebx, %edx
	subl	%edx, (%rax)
	movq	%r13, 64(%r15)
	movq	%rbp, 72(%r15)
	movl	%esi, 56(%r15)
.L1704:
	movaps	80(%rsp), %xmm6
	movaps	96(%rsp), %xmm7
	movaps	112(%rsp), %xmm8
	movaps	128(%rsp), %xmm9
	movaps	144(%rsp), %xmm10
	movaps	160(%rsp), %xmm11
	movaps	176(%rsp), %xmm12
	movaps	192(%rsp), %xmm13
	movaps	208(%rsp), %xmm14
	movaps	224(%rsp), %xmm15
	addq	$248, %rsp
	popq	%rbx
	popq	%rsi
	popq	%rdi
	popq	%rbp
	popq	%r12
	popq	%r13
	popq	%r14
	popq	%r15
	ret
	.p2align 4,,7
.L1802:
	cmpq	%rsi, %rbx
	jb	.L1788
	jmp	.L1713
	.p2align 4,,7
.L1809:
	incq	%rbx
	cmpq	%rbx, %rsi
	.p2align 4,,2
	je	.L1808
.L1788:
	cmpb	$10, (%rbx)
	.p2align 4,,2
	jne	.L1809
	movq	%rsi, %r8
	movl	$6, %ecx
	movl	16(%r15), %eax
	subq	%rbx, %r8
	movl	%r8d, %edx
	sall	$2, %r8d
	imull	%ecx, %edx
	movq	%r15, %rcx
	addl	%edx, %eax
	movl	%eax, 60(%rsp)
	call	_ZN10ImDrawList11PrimReserveEii
	movq	64(%r15), %r13
	movq	72(%r15), %rbp
	movl	56(%r15), %r14d
	jmp	.L1719
	.p2align 4,,7
.L1798:
	movq	%r9, %rcx
	call	strlen
	leaq	(%rbx,%rax), %rsi
	jmp	.L1706
	.p2align 4,,7
.L1804:
	movq	56(%rdi), %rcx
	movzwl	%ax, %edx
	movzwl	(%rcx,%rdx,2), %edx
	cmpw	$-1, %dx
	je	.L1731
	movq	%rdx, %rcx
	salq	$5, %rcx
	leaq	(%rcx,%rdx,8), %rdx
	addq	24(%rdi), %rdx
	jmp	.L1732
	.p2align 4,,7
.L1803:
	ucomiss	48(%rsp), %xmm8
	movaps	%xmm8, %xmm9
	ja	.L1718
	addss	52(%rsp), %xmm8
	ucomiss	%xmm8, %xmm12
	jbe	.L1794
	cmpq	%rbx, %rsi
	ja	.L1790
	jmp	.L1794
	.p2align 4,,7
.L1811:
	incq	%rbx
	cmpq	%rbx, %rsi
	.p2align 4,,2
	je	.L1810
.L1790:
	cmpb	$10, (%rbx)
	.p2align 4,,2
	jne	.L1811
.L1794:
	movaps	%xmm10, %xmm6
	jmp	.L1736
	.p2align 4,,7
.L1810:
	movq	%rsi, %rbx
	movaps	%xmm10, %xmm6
	jmp	.L1736
	.p2align 4,,7
.L1756:
	movl	%ebx, %esi
.L1743:
	movslq	%esi, %rcx
	addq	%rcx, %rcx
	call	_ZN5ImGui8MemAllocEy
	movq	24(%r15), %rcx
	movq	%rax, %rdi
	testq	%rcx, %rcx
	je	.L1744
	movslq	16(%r15), %r8
	movq	%rcx, %rdx
	movq	%rax, %rcx
	addq	%r8, %r8
	call	memcpy
	movq	24(%r15), %rcx
.L1744:
	call	_ZN5ImGui7MemFreeEPv
	movl	%esi, 20(%r15)
	movq	%rdi, 24(%r15)
	movl	32(%r15), %esi
	jmp	.L1741
	.p2align 4,,7
.L1754:
	movl	%ebx, %edi
.L1739:
	movslq	%edi, %rax
	movq	%rax, %rdx
	salq	$4, %rdx
	leaq	(%rdx,%rax,4), %rcx
	call	_ZN5ImGui8MemAllocEy
	movq	40(%r15), %rcx
	movq	%rax, %r12
	testq	%rcx, %rcx
	je	.L1740
	movslq	32(%r15), %rax
	movq	%rax, %rdx
	salq	$4, %rdx
	leaq	(%rdx,%rax,4), %r8
	movq	%rcx, %rdx
	movq	%r12, %rcx
	call	memcpy
	movq	40(%r15), %rcx
.L1740:
	call	_ZN5ImGui7MemFreeEPv
	movq	%r12, 40(%r15)
	movl	%edi, 36(%r15)
	jmp	.L1737
	.p2align 4,,7
.L1808:
	movq	%rsi, %rbx
.L1713:
	subq	%rbx, %rsi
	movl	$6, %eax
	movq	%r15, %rcx
	movl	%esi, %edx
	movq	%rsi, %r8
	imull	%eax, %edx
	movl	16(%r15), %eax
	sall	$2, %r8d
	addl	%edx, %eax
	movl	%eax, 60(%rsp)
	call	_ZN10ImDrawList11PrimReserveEii
	movq	64(%r15), %r13
	movq	72(%r15), %rbp
	jmp	.L1718
	.p2align 4,,7
.L1801:
	movq	%rbx, %rcx
	call	strlen
	leaq	(%rbx,%rax), %rsi
	jmp	.L1710
.L1799:
	leaq	.LC35(%rip), %rdx
	leaq	.LC38(%rip), %rcx
	movl	$866, %r8d
	call	_assert
	movslq	96(%r15), %rax
	jmp	.L1707
.L1800:
	leaq	.LC35(%rip), %rdx
	leaq	.LC38(%rip), %rcx
	movl	$866, %r8d
	call	_assert
	movslq	80(%r15), %rax
	jmp	.L1709
.L1807:
	movl	%edx, %esi
	jmp	.L1743
.L1806:
	movl	%edx, %edi
	.p2align 4,,3
	jmp	.L1739
	.seh_endproc
	.align 2
	.p2align 4,,15
	.globl	_ZN10ImDrawList8AddImageEPvRK6ImVec2S3_S3_S3_j
	.def	_ZN10ImDrawList8AddImageEPvRK6ImVec2S3_S3_S3_j;	.scl	2;	.type	32;	.endef
	.seh_proc	_ZN10ImDrawList8AddImageEPvRK6ImVec2S3_S3_S3_j
_ZN10ImDrawList8AddImageEPvRK6ImVec2S3_S3_S3_j:
.LFB447:
	pushq	%r15
	.seh_pushreg	%r15
	pushq	%r14
	.seh_pushreg	%r14
	pushq	%r13
	.seh_pushreg	%r13
	pushq	%r12
	.seh_pushreg	%r12
	pushq	%rbp
	.seh_pushreg	%rbp
	pushq	%rdi
	.seh_pushreg	%rdi
	pushq	%rsi
	.seh_pushreg	%rsi
	pushq	%rbx
	.seh_pushreg	%rbx
	subq	$88, %rsp
	.seh_stackalloc	88
	movaps	%xmm6, 48(%rsp)
	.seh_savexmm	%xmm6, 48
	movaps	%xmm7, 64(%rsp)
	.seh_savexmm	%xmm7, 64
	.seh_endprologue
	movq	%rcx, %rbx
	movq	%rdx, %r15
	movq	%r8, %rbp
	movl	208(%rsp), %edi
	movq	%r9, %r12
	movq	192(%rsp), %r13
	movq	200(%rsp), %r14
	testl	$-16777216, %edi
	je	.L1812
	movl	96(%rcx), %eax
	xorl	%edx, %edx
	testl	%eax, %eax
	jne	.L1837
	movl	100(%rbx), %eax
	cmpl	%edx, %eax
	je	.L1825
.L1841:
	movq	104(%rbx), %rsi
	leal	1(%rdx), %ecx
.L1820:
	movl	%ecx, 96(%rbx)
	movq	%r15, (%rsi,%rdx,8)
	movq	%rbx, %rcx
	movl	$1, %esi
	call	_ZN10ImDrawList15UpdateTextureIDEv
.L1817:
	movl	$4, %r8d
	movl	$6, %edx
	movq	%rbx, %rcx
	call	_ZN10ImDrawList11PrimReserveEii
	movl	56(%rbx), %ecx
	movq	72(%rbx), %rdx
	movss	4(%r12), %xmm2
	movq	0(%rbp), %r8
	movss	4(%r14), %xmm0
	leal	1(%rcx), %eax
	movss	0(%r13), %xmm1
	movss	4(%rbp), %xmm6
	addq	$12, %rdx
	movss	(%r12), %xmm7
	movss	0(%rbp), %xmm3
	movss	4(%r13), %xmm4
	movss	(%r14), %xmm5
	movw	%ax, -10(%rdx)
	leal	2(%rcx), %eax
	movw	%cx, -12(%rdx)
	movw	%cx, -6(%rdx)
	movw	%ax, -8(%rdx)
	movw	%ax, -4(%rdx)
	leal	3(%rcx), %eax
	addl	$4, %ecx
	movw	%ax, -2(%rdx)
	movq	64(%rbx), %rax
	movq	%r8, (%rax)
	movq	0(%r13), %r8
	movss	%xmm7, 20(%rax)
	movss	%xmm6, 24(%rax)
	movl	%edi, 16(%rax)
	movl	%edi, 36(%rax)
	movss	%xmm5, 28(%rax)
	addq	$80, %rax
	movq	%r8, -72(%rax)
	movss	%xmm4, -48(%rax)
	movq	(%r12), %r8
	movq	%r8, -40(%rax)
	movq	(%r14), %r8
	movl	%edi, -24(%rax)
	movq	%r8, -32(%rax)
	movss	%xmm3, -20(%rax)
	movl	%edi, -4(%rax)
	movss	%xmm2, -16(%rax)
	movss	%xmm1, -12(%rax)
	movss	%xmm0, -8(%rax)
	testb	%sil, %sil
	movq	%rax, 64(%rbx)
	movl	%ecx, 56(%rbx)
	movq	%rdx, 72(%rbx)
	je	.L1812
	movl	96(%rbx), %eax
	testl	%eax, %eax
	jle	.L1838
.L1823:
	movl	96(%rbx), %eax
	testl	%eax, %eax
	jle	.L1839
.L1824:
	movaps	48(%rsp), %xmm6
	decl	%eax
	movq	%rbx, %rcx
	movl	%eax, 96(%rbx)
	movaps	64(%rsp), %xmm7
	addq	$88, %rsp
	popq	%rbx
	popq	%rsi
	popq	%rdi
	popq	%rbp
	popq	%r12
	popq	%r13
	popq	%r14
	popq	%r15
	jmp	_ZN10ImDrawList15UpdateTextureIDEv
	.p2align 4,,7
.L1812:
	movaps	48(%rsp), %xmm6
	movaps	64(%rsp), %xmm7
	addq	$88, %rsp
	popq	%rbx
	popq	%rsi
	popq	%rdi
	popq	%rbp
	popq	%r12
	popq	%r13
	popq	%r14
	popq	%r15
	ret
	.p2align 4,,7
.L1825:
	testl	%edx, %edx
	leal	1(%rdx), %ecx
	movl	$8, %r8d
	je	.L1818
	movl	%edx, %r8d
	shrl	$31, %r8d
	addl	%edx, %r8d
	sarl	%r8d
	addl	%edx, %r8d
.L1818:
	cmpl	%r8d, %ecx
	movl	%r8d, %esi
	cmovge	%ecx, %esi
	cmpl	%esi, %eax
	jl	.L1819
	movq	104(%rbx), %rsi
	movslq	%eax, %rdx
	jmp	.L1820
	.p2align 4,,7
.L1837:
	movslq	%eax, %rdx
	testl	%edx, %edx
	jle	.L1840
.L1816:
	movq	104(%rbx), %rcx
	movslq	%edx, %rax
	xorl	%esi, %esi
	cmpq	%r15, -8(%rcx,%rax,8)
	je	.L1817
	movl	100(%rbx), %eax
	cmpl	%edx, %eax
	jne	.L1841
	jmp	.L1825
	.p2align 4,,7
.L1839:
	leaq	.LC35(%rip), %rdx
	leaq	.LC38(%rip), %rcx
	movl	$885, %r8d
	call	_assert
	movl	96(%rbx), %eax
	jmp	.L1824
	.p2align 4,,7
.L1819:
	movslq	%esi, %rcx
	salq	$3, %rcx
	call	_ZN5ImGui8MemAllocEy
	movq	104(%rbx), %rcx
	movq	%rax, 40(%rsp)
	testq	%rcx, %rcx
	je	.L1821
	movslq	96(%rbx), %r8
	movq	%rcx, %rdx
	movq	%rax, %rcx
	salq	$3, %r8
	call	memcpy
	movq	104(%rbx), %rcx
.L1821:
	call	_ZN5ImGui7MemFreeEPv
	movslq	96(%rbx), %rdx
	movq	40(%rsp), %rax
	movl	%esi, 100(%rbx)
	movq	%rax, 104(%rbx)
	movq	%rax, %rsi
	leal	1(%rdx), %ecx
	jmp	.L1820
	.p2align 4,,7
.L1838:
	leaq	.LC5(%rip), %rdx
	leaq	.LC40(%rip), %rcx
	movl	$272, %r8d
	call	_assert
	jmp	.L1823
	.p2align 4,,7
.L1840:
	leaq	.LC35(%rip), %rdx
	leaq	.LC38(%rip), %rcx
	movl	$866, %r8d
	call	_assert
	movslq	96(%rbx), %rdx
	jmp	.L1816
	.seh_endproc
	.align 2
	.p2align 4,,15
	.globl	_ZN10ImDrawList12AddImageQuadEPvRK6ImVec2S3_S3_S3_S3_S3_S3_S3_j
	.def	_ZN10ImDrawList12AddImageQuadEPvRK6ImVec2S3_S3_S3_S3_S3_S3_S3_j;	.scl	2;	.type	32;	.endef
	.seh_proc	_ZN10ImDrawList12AddImageQuadEPvRK6ImVec2S3_S3_S3_S3_S3_S3_S3_j
_ZN10ImDrawList12AddImageQuadEPvRK6ImVec2S3_S3_S3_S3_S3_S3_S3_j:
.LFB448:
	pushq	%r15
	.seh_pushreg	%r15
	pushq	%r14
	.seh_pushreg	%r14
	pushq	%r13
	.seh_pushreg	%r13
	pushq	%r12
	.seh_pushreg	%r12
	pushq	%rbp
	.seh_pushreg	%rbp
	pushq	%rdi
	.seh_pushreg	%rdi
	pushq	%rsi
	.seh_pushreg	%rsi
	pushq	%rbx
	.seh_pushreg	%rbx
	subq	$88, %rsp
	.seh_stackalloc	88
	.seh_endprologue
	movl	240(%rsp), %esi
	movq	192(%rsp), %r12
	movq	%r9, %rbp
	movq	%rcx, %rbx
	movq	%rdx, %r15
	movq	%r8, %rdi
	movq	200(%rsp), %r13
	movq	208(%rsp), %r14
	testl	$-16777216, %esi
	movq	216(%rsp), %r9
	movq	224(%rsp), %r10
	movq	232(%rsp), %r11
	je	.L1842
	movl	96(%rcx), %eax
	testl	%eax, %eax
	jne	.L1867
	movl	100(%rcx), %eax
	testl	%eax, %eax
	je	.L1860
	movq	104(%rbx), %rdx
	xorl	%eax, %eax
	xorl	%ecx, %ecx
.L1857:
	leal	1(%rax), %r8d
.L1850:
	movl	%r8d, 96(%rbx)
	movq	%r15, (%rdx,%rcx,8)
	movq	%rbx, %rcx
	movq	%r11, 56(%rsp)
	movq	%r10, 48(%rsp)
	movl	$1, %r15d
	movq	%r9, 40(%rsp)
	call	_ZN10ImDrawList15UpdateTextureIDEv
	movq	56(%rsp), %r11
	movq	48(%rsp), %r10
	movq	40(%rsp), %r9
.L1848:
	movl	$4, %r8d
	movl	$6, %edx
	movq	%rbx, %rcx
	movq	%r11, 56(%rsp)
	movq	%r10, 48(%rsp)
	movq	%r9, 40(%rsp)
	call	_ZN10ImDrawList11PrimReserveEii
	movl	56(%rbx), %ecx
	movq	72(%rbx), %rdx
	movq	(%rdi), %r8
	movq	40(%rsp), %r9
	movq	48(%rsp), %r10
	movq	56(%rsp), %r11
	leal	1(%rcx), %eax
	movw	%cx, (%rdx)
	movw	%cx, 6(%rdx)
	addq	$12, %rdx
	movw	%ax, -10(%rdx)
	leal	2(%rcx), %eax
	movw	%ax, -8(%rdx)
	movw	%ax, -4(%rdx)
	leal	3(%rcx), %eax
	addl	$4, %ecx
	movw	%ax, -2(%rdx)
	movq	64(%rbx), %rax
	movq	%r8, (%rax)
	movq	(%r14), %r8
	addq	$80, %rax
	movl	%esi, -64(%rax)
	movq	%r8, -72(%rax)
	movq	0(%rbp), %r8
	movq	%r8, -60(%rax)
	movq	(%r9), %r8
	movl	%esi, -44(%rax)
	movq	%r8, -52(%rax)
	movq	(%r12), %r8
	movq	%r8, -40(%rax)
	movq	(%r10), %r8
	movl	%esi, -24(%rax)
	movq	%r8, -32(%rax)
	movq	0(%r13), %r8
	movq	%r8, -20(%rax)
	movq	(%r11), %r8
	movl	%esi, -4(%rax)
	movq	%r8, -12(%rax)
	testb	%r15b, %r15b
	movq	%rax, 64(%rbx)
	movl	%ecx, 56(%rbx)
	movq	%rdx, 72(%rbx)
	je	.L1842
	movl	96(%rbx), %eax
	testl	%eax, %eax
	jle	.L1868
.L1853:
	movl	96(%rbx), %eax
	testl	%eax, %eax
	jle	.L1869
.L1854:
	decl	%eax
	movq	%rbx, %rcx
	movl	%eax, 96(%rbx)
	addq	$88, %rsp
	popq	%rbx
	popq	%rsi
	popq	%rdi
	popq	%rbp
	popq	%r12
	popq	%r13
	popq	%r14
	popq	%r15
	jmp	_ZN10ImDrawList15UpdateTextureIDEv
	.p2align 4,,7
.L1842:
	addq	$88, %rsp
	popq	%rbx
	popq	%rsi
	popq	%rdi
	popq	%rbp
	popq	%r12
	popq	%r13
	popq	%r14
	popq	%r15
	ret
	.p2align 4,,7
.L1867:
	testl	%eax, %eax
	jle	.L1870
.L1846:
	movq	104(%rbx), %rdx
	movslq	%eax, %rcx
	cmpq	%r15, -8(%rdx,%rcx,8)
	je	.L1871
	cmpl	%eax, 100(%rbx)
	jne	.L1857
	testl	%eax, %eax
	leal	1(%rax), %r8d
	je	.L1859
	movl	%eax, %edx
	shrl	$31, %edx
	addl	%eax, %edx
	sarl	%edx
	addl	%eax, %edx
.L1856:
	cmpl	%r8d, %edx
	cmovl	%r8d, %edx
	cmpl	%eax, %edx
	movl	%edx, 40(%rsp)
	jg	.L1849
	movq	104(%rbx), %rdx
	movslq	%eax, %rcx
	jmp	.L1850
	.p2align 4,,7
.L1869:
	leaq	.LC35(%rip), %rdx
	leaq	.LC38(%rip), %rcx
	movl	$885, %r8d
	call	_assert
	movl	96(%rbx), %eax
	jmp	.L1854
	.p2align 4,,7
.L1860:
	movl	$1, %r8d
	movl	$8, %edx
	jmp	.L1856
	.p2align 4,,7
.L1868:
	leaq	.LC5(%rip), %rdx
	leaq	.LC40(%rip), %rcx
	movl	$272, %r8d
	call	_assert
	jmp	.L1853
	.p2align 4,,7
.L1871:
	xorl	%r15d, %r15d
	jmp	.L1848
.L1859:
	movl	$8, 40(%rsp)
	.p2align 4,,7
.L1849:
	movslq	40(%rsp), %rcx
	movq	%r11, 72(%rsp)
	movq	%r10, 64(%rsp)
	movq	%r9, 56(%rsp)
	salq	$3, %rcx
	call	_ZN5ImGui8MemAllocEy
	movq	104(%rbx), %rcx
	movq	%rax, 48(%rsp)
	movq	56(%rsp), %r9
	movq	64(%rsp), %r10
	movq	72(%rsp), %r11
	testq	%rcx, %rcx
	je	.L1851
	movslq	96(%rbx), %r8
	movq	%rcx, %rdx
	movq	%rax, %rcx
	salq	$3, %r8
	call	memcpy
	movq	104(%rbx), %rcx
	movq	72(%rsp), %r11
	movq	64(%rsp), %r10
	movq	56(%rsp), %r9
.L1851:
	movq	%r11, 72(%rsp)
	movq	%r10, 64(%rsp)
	movq	%r9, 56(%rsp)
	call	_ZN5ImGui7MemFreeEPv
	movslq	96(%rbx), %rcx
	movq	48(%rsp), %rdx
	movl	40(%rsp), %eax
	movq	72(%rsp), %r11
	movq	64(%rsp), %r10
	movq	56(%rsp), %r9
	movq	%rdx, 104(%rbx)
	movl	%eax, 100(%rbx)
	leal	1(%rcx), %r8d
	jmp	.L1850
	.p2align 4,,7
.L1870:
	leaq	.LC35(%rip), %rdx
	leaq	.LC38(%rip), %rcx
	movl	$866, %r8d
	movq	%r11, 56(%rsp)
	movq	%r10, 48(%rsp)
	movq	%r9, 40(%rsp)
	call	_assert
	movl	96(%rbx), %eax
	movq	56(%rsp), %r11
	movq	48(%rsp), %r10
	movq	40(%rsp), %r9
	jmp	.L1846
	.seh_endproc
	.align 2
	.p2align 4,,15
	.globl	_ZN10ImDrawData17DeIndexAllBuffersEv
	.def	_ZN10ImDrawData17DeIndexAllBuffersEv;	.scl	2;	.type	32;	.endef
	.seh_proc	_ZN10ImDrawData17DeIndexAllBuffersEv
_ZN10ImDrawData17DeIndexAllBuffersEv:
.LFB449:
	pushq	%r15
	.seh_pushreg	%r15
	pushq	%r14
	.seh_pushreg	%r14
	pushq	%r13
	.seh_pushreg	%r13
	pushq	%r12
	.seh_pushreg	%r12
	pushq	%rbp
	.seh_pushreg	%rbp
	pushq	%rdi
	.seh_pushreg	%rdi
	pushq	%rsi
	.seh_pushreg	%rsi
	pushq	%rbx
	.seh_pushreg	%rbx
	subq	$72, %rsp
	.seh_stackalloc	72
	.seh_endprologue
	movl	16(%rcx), %edx
	movq	%rcx, %r15
	movl	$0, 24(%rcx)
	movl	$0, 20(%rcx)
	testl	%edx, %edx
	jle	.L1872
	xorl	%r14d, %r14d
	movq	$0, 48(%rsp)
	movl	$0, 60(%rsp)
	xorl	%ebp, %ebp
	movl	$0, 40(%rsp)
	jmp	.L1894
	.p2align 4,,7
.L1875:
	incl	40(%rsp)
	addq	$8, %r14
	movl	40(%rsp), %eax
	cmpl	%edx, %eax
	jge	.L1932
.L1894:
	movq	8(%r15), %rax
	movq	(%rax,%r14), %rdi
	movl	16(%rdi), %r13d
	testl	%r13d, %r13d
	je	.L1875
	movl	60(%rsp), %edx
	cmpl	%edx, %r13d
	jle	.L1901
	testl	%edx, %edx
	movl	$8, %eax
	je	.L1877
	movl	%edx, %eax
	shrl	$31, %eax
	addl	%edx, %eax
	sarl	%eax
	addl	%edx, %eax
.L1877:
	cmpl	%eax, %r13d
	jge	.L1900
	cmpl	%eax, 60(%rsp)
	jl	.L1933
.L1901:
	movq	48(%rsp), %rdx
	movl	%r13d, %eax
	xorl	%r12d, %r12d
	xorl	%ebp, %ebp
	testl	%eax, %eax
	leaq	80(%rdx), %rbx
	jg	.L1924
	jmp	.L1934
	.p2align 4,,7
.L1938:
	cmpl	%ebp, 16(%rdi)
	jle	.L1935
.L1883:
	movq	24(%rdi), %rax
	movzwl	(%rax,%r12), %eax
	cmpl	32(%rdi), %eax
	movq	%rax, %rsi
	jge	.L1936
.L1886:
	movq	%rsi, %rax
	movq	40(%rdi), %rdx
	prefetcht0	(%rbx)
	salq	$4, %rax
	incl	%ebp
	addq	$20, %rbx
	leaq	(%rax,%rsi,4), %rax
	addq	$2, %r12
	addq	%rdx, %rax
	movq	(%rax), %rcx
	movq	%rcx, -100(%rbx)
	movq	8(%rax), %rcx
	movq	%rcx, -92(%rbx)
	movl	16(%rax), %eax
	movl	%eax, -84(%rbx)
	cmpl	%ebp, 16(%rdi)
	jle	.L1937
.L1924:
	cmpl	%ebp, %r13d
	jg	.L1938
	leaq	.LC35(%rip), %rdx
	leaq	.LC36(%rip), %rcx
	movl	$856, %r8d
.LEHB0:
	call	_assert
	cmpl	%ebp, 16(%rdi)
	jg	.L1883
.L1935:
	leaq	.LC35(%rip), %rdx
	leaq	.LC36(%rip), %rcx
	movl	$856, %r8d
	call	_assert
	jmp	.L1883
	.p2align 4,,7
.L1936:
	leaq	.LC35(%rip), %rdx
	leaq	.LC36(%rip), %rcx
	movl	$856, %r8d
	call	_assert
.LEHE0:
	jmp	.L1886
	.p2align 4,,7
.L1937:
	movq	%rdx, %rbx
.L1881:
	movl	60(%rsp), %eax
	movl	36(%rdi), %esi
	movslq	32(%rdi), %rbp
	movl	%r13d, 32(%rdi)
	movl	%eax, 36(%rdi)
	movq	48(%rsp), %rax
	movq	%rax, 40(%rdi)
	movl	20(%rdi), %eax
	testl	%eax, %eax
	jns	.L1889
	xorl	%ecx, %ecx
.LEHB1:
	call	_ZN5ImGui8MemAllocEy
.LEHE1:
	movq	24(%rdi), %rcx
	movq	%rax, %r12
	testq	%rcx, %rcx
	je	.L1893
	movslq	16(%rdi), %r8
	movq	%rcx, %rdx
	movq	%rax, %rcx
	addq	%r8, %r8
	call	memcpy
	movq	24(%rdi), %rcx
.L1893:
.LEHB2:
	call	_ZN5ImGui7MemFreeEPv
.LEHE2:
	movl	32(%rdi), %r13d
	movq	%r12, 24(%rdi)
	movl	$0, 20(%rdi)
.L1889:
	incl	40(%rsp)
	movl	16(%r15), %edx
	addq	$8, %r14
	movl	40(%rsp), %eax
	movl	$0, 16(%rdi)
	addl	%r13d, 20(%r15)
	movq	%rbx, 48(%rsp)
	movl	%esi, 60(%rsp)
	cmpl	%edx, %eax
	jl	.L1894
.L1932:
	movq	48(%rsp), %rax
	testq	%rax, %rax
	je	.L1872
	movq	%rax, %rcx
	addq	$72, %rsp
	popq	%rbx
	popq	%rsi
	popq	%rdi
	popq	%rbp
	popq	%r12
	popq	%r13
	popq	%r14
	popq	%r15
	jmp	_ZN5ImGui7MemFreeEPv
.L1900:
	movl	%r13d, 60(%rsp)
.L1878:
	movslq	60(%rsp), %rax
	movq	%rax, %rdx
	salq	$4, %rdx
	leaq	(%rdx,%rax,4), %rcx
.LEHB3:
	call	_ZN5ImGui8MemAllocEy
	movq	48(%rsp), %rdx
	movq	%rax, %rbx
	testq	%rdx, %rdx
	je	.L1879
	movq	%rbp, %rax
	movq	%rbx, %rcx
	salq	$4, %rax
	leaq	(%rax,%rbp,4), %r8
	call	memcpy
.L1879:
	movq	48(%rsp), %rcx
	call	_ZN5ImGui7MemFreeEPv
.LEHE3:
	movl	16(%rdi), %eax
	movq	%rbx, %rdx
	xorl	%r12d, %r12d
	xorl	%ebp, %ebp
	movq	%rbx, 48(%rsp)
	leaq	80(%rdx), %rbx
	testl	%eax, %eax
	jg	.L1924
.L1934:
	movq	40(%rdi), %rbx
	jmp	.L1881
.L1872:
	addq	$72, %rsp
	popq	%rbx
	popq	%rsi
	popq	%rdi
	popq	%rbp
	popq	%r12
	popq	%r13
	popq	%r14
	popq	%r15
	ret
.L1933:
	movl	%eax, 60(%rsp)
	jmp	.L1878
.L1904:
	movq	48(%rsp), %rdx
.L1892:
	testq	%rdx, %rdx
	je	.L1897
	movq	%rdx, %rcx
	movq	%rax, 40(%rsp)
	call	_ZN5ImGui7MemFreeEPv
	movq	40(%rsp), %rax
.L1897:
	movq	%rax, %rcx
.LEHB4:
	call	_Unwind_Resume
.LEHE4:
.L1906:
.L1928:
	movq	%rbx, 48(%rsp)
	movq	%rbx, %rdx
	jmp	.L1892
.L1905:
	jmp	.L1928
	.def	__gxx_personality_seh0;	.scl	2;	.type	32;	.endef
	.seh_handler	__gxx_personality_seh0, @unwind, @except
	.seh_handlerdata
.LLSDA449:
	.byte	0xff
	.byte	0xff
	.byte	0x1
	.uleb128 .LLSDACSE449-.LLSDACSB449
.LLSDACSB449:
	.uleb128 .LEHB0-.LFB449
	.uleb128 .LEHE0-.LEHB0
	.uleb128 .L1904-.LFB449
	.uleb128 0
	.uleb128 .LEHB1-.LFB449
	.uleb128 .LEHE1-.LEHB1
	.uleb128 .L1906-.LFB449
	.uleb128 0
	.uleb128 .LEHB2-.LFB449
	.uleb128 .LEHE2-.LEHB2
	.uleb128 .L1905-.LFB449
	.uleb128 0
	.uleb128 .LEHB3-.LFB449
	.uleb128 .LEHE3-.LEHB3
	.uleb128 .L1904-.LFB449
	.uleb128 0
	.uleb128 .LEHB4-.LFB449
	.uleb128 .LEHE4-.LEHB4
	.uleb128 0
	.uleb128 0
.LLSDACSE449:
	.text
	.seh_endproc
	.align 2
	.p2align 4,,15
	.globl	_ZN10ImDrawData14ScaleClipRectsERK6ImVec2
	.def	_ZN10ImDrawData14ScaleClipRectsERK6ImVec2;	.scl	2;	.type	32;	.endef
	.seh_proc	_ZN10ImDrawData14ScaleClipRectsERK6ImVec2
_ZN10ImDrawData14ScaleClipRectsERK6ImVec2:
.LFB450:
	pushq	%rbx
	.seh_pushreg	%rbx
	.seh_endprologue
	movl	16(%rcx), %r11d
	testl	%r11d, %r11d
	jle	.L1939
	movq	8(%rcx), %rbx
	xorl	%r10d, %r10d
	.p2align 4,,7
.L1943:
	movq	(%rbx,%r10,8), %r9
	movl	(%r9), %eax
	testl	%eax, %eax
	jle	.L1944
	leal	-1(%rax), %r8d
	movss	4(%rdx), %xmm1
	movss	(%rdx), %xmm0
	xorl	%ecx, %ecx
	incq	%r8
	movq	%r8, %rax
	salq	$6, %r8
	salq	$4, %rax
	subq	%rax, %r8
	.p2align 4,,7
.L1945:
	movq	%rcx, %rax
	addq	8(%r9), %rax
	addq	$48, %rcx
	cmpq	%r8, %rcx
	movss	16(%rax), %xmm2
	movss	12(%rax), %xmm3
	mulss	%xmm1, %xmm2
	movss	8(%rax), %xmm4
	mulss	%xmm0, %xmm3
	movss	4(%rax), %xmm5
	mulss	%xmm1, %xmm4
	mulss	%xmm0, %xmm5
	movss	%xmm2, 16(%rax)
	movss	%xmm3, 12(%rax)
	movss	%xmm4, 8(%rax)
	movss	%xmm5, 4(%rax)
	jne	.L1945
.L1944:
	incq	%r10
	cmpl	%r10d, %r11d
	jg	.L1943
.L1939:
	popq	%rbx
	ret
	.seh_endproc
	.align 2
	.p2align 4,,15
	.globl	_ZN12ImFontConfigC2Ev
	.def	_ZN12ImFontConfigC2Ev;	.scl	2;	.type	32;	.endef
	.seh_proc	_ZN12ImFontConfigC2Ev
_ZN12ImFontConfigC2Ev:
.LFB452:
	.seh_endprologue
	xorps	%xmm0, %xmm0
	movq	$0, (%rcx)
	movl	$0, 8(%rcx)
	movb	$1, 12(%rcx)
	movl	$0, 16(%rcx)
	movss	%xmm0, 40(%rcx)
	movl	$3, 24(%rcx)
	movl	$1, 28(%rcx)
	movss	%xmm0, 36(%rcx)
	movb	$0, 32(%rcx)
	movq	$0, 56(%rcx)
	movss	%xmm0, 48(%rcx)
	movb	$0, 64(%rcx)
	movss	%xmm0, 44(%rcx)
	movq	$0, 104(%rcx)
	movss	%xmm0, 20(%rcx)
	movq	$0, 65(%rcx)
	movq	$0, 73(%rcx)
	movq	$0, 81(%rcx)
	movq	$0, 89(%rcx)
	ret
	.seh_endproc
	.globl	_ZN12ImFontConfigC1Ev
	.def	_ZN12ImFontConfigC1Ev;	.scl	2;	.type	32;	.endef
	.set	_ZN12ImFontConfigC1Ev,_ZN12ImFontConfigC2Ev
	.align 2
	.p2align 4,,15
	.globl	_ZN11ImFontAtlasC2Ev
	.def	_ZN11ImFontAtlasC2Ev;	.scl	2;	.type	32;	.endef
	.seh_proc	_ZN11ImFontAtlasC2Ev
_ZN11ImFontAtlasC2Ev:
.LFB455:
	.seh_endprologue
	xorps	%xmm0, %xmm0
	movl	$0, 52(%rcx)
	movl	$0, 48(%rcx)
	movq	$0, 56(%rcx)
	movl	$0, 68(%rcx)
	movss	%xmm0, 40(%rcx)
	movl	$0, 64(%rcx)
	movq	$0, 72(%rcx)
	movss	%xmm0, 36(%rcx)
	movq	$0, (%rcx)
	movq	$0, 8(%rcx)
	movq	$0, 16(%rcx)
	movl	$0, 32(%rcx)
	movl	$0, 28(%rcx)
	movl	$0, 24(%rcx)
	ret
	.seh_endproc
	.globl	_ZN11ImFontAtlasC1Ev
	.def	_ZN11ImFontAtlasC1Ev;	.scl	2;	.type	32;	.endef
	.set	_ZN11ImFontAtlasC1Ev,_ZN11ImFontAtlasC2Ev
	.align 2
	.p2align 4,,15
	.globl	_ZN11ImFontAtlas14ClearInputDataEv
	.def	_ZN11ImFontAtlas14ClearInputDataEv;	.scl	2;	.type	32;	.endef
	.seh_proc	_ZN11ImFontAtlas14ClearInputDataEv
_ZN11ImFontAtlas14ClearInputDataEv:
.LFB460:
	pushq	%rdi
	.seh_pushreg	%rdi
	pushq	%rsi
	.seh_pushreg	%rsi
	pushq	%rbx
	.seh_pushreg	%rbx
	subq	$32, %rsp
	.seh_stackalloc	32
	.seh_endprologue
	movl	64(%rcx), %edx
	xorl	%edi, %edi
	xorl	%esi, %esi
	movq	%rcx, %rbx
	movq	72(%rcx), %rax
	testl	%edx, %edx
	jg	.L1957
	jmp	.L1956
	.p2align 4,,7
.L1953:
	cmpb	$0, 12(%r8)
	je	.L1964
.L1966:
	.p2align 4,,6
	call	_ZN5ImGui7MemFreeEPv
	movl	64(%rbx), %edx
	cmpl	%edx, %esi
	jge	.L1978
.L1955:
	movq	72(%rbx), %rax
	movq	$0, (%rax,%rdi)
	movq	72(%rbx), %rax
.L1964:
	incl	%esi
	addq	$112, %rdi
	cmpl	%edx, %esi
	jge	.L1956
.L1957:
	leaq	(%rax,%rdi), %r8
	movq	(%r8), %rcx
	testq	%rcx, %rcx
	je	.L1964
	cmpl	%edx, %esi
	jl	.L1953
	leaq	.LC35(%rip), %rdx
	leaq	.LC36(%rip), %rcx
	movl	$856, %r8d
	call	_assert
	movq	72(%rbx), %rax
	leaq	(%rax,%rdi), %rdx
	cmpb	$0, 12(%rdx)
	jne	.L1954
	movl	64(%rbx), %edx
	incl	%esi
	addq	$112, %rdi
	cmpl	%edx, %esi
	jl	.L1957
	.p2align 4,,7
.L1956:
	movl	48(%rbx), %ecx
	testl	%ecx, %ecx
	jle	.L1950
	xorl	%edi, %edi
	xorl	%esi, %esi
	movq	56(%rbx), %r9
	jmp	.L1962
	.p2align 4,,7
.L1959:
	movslq	64(%rbx), %rdx
	movq	%rdx, %r11
	salq	$7, %rdx
	salq	$4, %r11
	subq	%r11, %rdx
	addq	%rax, %rdx
	cmpq	%rdx, %r10
	jnb	.L1969
.L1967:
	movq	$0, 80(%r8)
.L1961:
	movq	56(%rbx), %r9
	movq	(%r9,%rdi), %rax
	movw	$0, 78(%rax)
	movq	72(%rbx), %rax
.L1969:
	incl	%esi
	addq	$8, %rdi
	cmpl	%ecx, %esi
	jge	.L1950
.L1962:
	movq	(%r9,%rdi), %r8
	movq	80(%r8), %r10
	cmpq	%rax, %r10
	jb	.L1969
	cmpl	%ecx, %esi
	jl	.L1959
	leaq	.LC35(%rip), %rdx
	leaq	.LC36(%rip), %rcx
	movl	$856, %r8d
	call	_assert
	movslq	64(%rbx), %rdx
	movq	56(%rbx), %r9
	movq	72(%rbx), %rax
	movq	(%r9,%rdi), %r8
	movq	%rdx, %rcx
	salq	$7, %rdx
	salq	$4, %rcx
	subq	%rcx, %rdx
	movl	48(%rbx), %ecx
	addq	%rax, %rdx
	cmpq	%rdx, 80(%r8)
	jnb	.L1969
	cmpl	%ecx, %esi
	jl	.L1967
	leaq	.LC36(%rip), %rcx
	leaq	.LC35(%rip), %rdx
	movl	$856, %r8d
	call	_assert
	movq	56(%rbx), %rax
	movl	48(%rbx), %ecx
	movq	(%rax,%rdi), %rax
	cmpl	%ecx, %esi
	movq	$0, 80(%rax)
	jl	.L1961
	leaq	.LC36(%rip), %rcx
	leaq	.LC35(%rip), %rdx
	movl	$856, %r8d
	call	_assert
	movl	48(%rbx), %ecx
	jmp	.L1961
	.p2align 4,,7
.L1954:
	cmpl	64(%rbx), %esi
	jl	.L1979
	leaq	.LC35(%rip), %rdx
	leaq	.LC36(%rip), %rcx
	movl	$856, %r8d
	call	_assert
	movq	72(%rbx), %rax
	movq	(%rax,%rdi), %rcx
	call	_ZN5ImGui7MemFreeEPv
	movl	64(%rbx), %edx
	cmpl	%edx, %esi
	jl	.L1955
.L1978:
	leaq	.LC35(%rip), %rdx
	leaq	.LC36(%rip), %rcx
	movl	$856, %r8d
	call	_assert
	movl	64(%rbx), %edx
	jmp	.L1955
	.p2align 4,,7
.L1950:
	testq	%rax, %rax
	je	.L1948
	movl	$0, 68(%rbx)
	movl	$0, 64(%rbx)
	movq	%rax, %rcx
	call	_ZN5ImGui7MemFreeEPv
	movq	$0, 72(%rbx)
.L1948:
	addq	$32, %rsp
	popq	%rbx
	popq	%rsi
	popq	%rdi
	ret
	.p2align 4,,7
.L1979:
	movq	(%rdx), %rcx
	jmp	.L1966
	.seh_endproc
	.align 2
	.p2align 4,,15
	.globl	_ZN11ImFontAtlas12ClearTexDataEv
	.def	_ZN11ImFontAtlas12ClearTexDataEv;	.scl	2;	.type	32;	.endef
	.seh_proc	_ZN11ImFontAtlas12ClearTexDataEv
_ZN11ImFontAtlas12ClearTexDataEv:
.LFB461:
	pushq	%rbx
	.seh_pushreg	%rbx
	subq	$32, %rsp
	.seh_stackalloc	32
	.seh_endprologue
	movq	%rcx, %rbx
	movq	8(%rcx), %rcx
	testq	%rcx, %rcx
	je	.L1981
	call	_ZN5ImGui7MemFreeEPv
.L1981:
	movq	16(%rbx), %rcx
	testq	%rcx, %rcx
	je	.L1982
	call	_ZN5ImGui7MemFreeEPv
.L1982:
	movq	$0, 8(%rbx)
	movq	$0, 16(%rbx)
	addq	$32, %rsp
	popq	%rbx
	ret
	.seh_endproc
	.align 2
	.p2align 4,,15
	.globl	_ZN11ImFontAtlas10ClearFontsEv
	.def	_ZN11ImFontAtlas10ClearFontsEv;	.scl	2;	.type	32;	.endef
	.seh_proc	_ZN11ImFontAtlas10ClearFontsEv
_ZN11ImFontAtlas10ClearFontsEv:
.LFB462:
	pushq	%rbp
	.seh_pushreg	%rbp
	pushq	%rdi
	.seh_pushreg	%rdi
	pushq	%rsi
	.seh_pushreg	%rsi
	pushq	%rbx
	.seh_pushreg	%rbx
	subq	$40, %rsp
	.seh_stackalloc	40
	.seh_endprologue
	movl	48(%rcx), %eax
	xorl	%ebp, %ebp
	xorl	%edi, %edi
	movq	%rcx, %rsi
	testl	%eax, %eax
	jg	.L2014
	jmp	.L1998
	.p2align 4,,7
.L1997:
	movq	56(%rsi), %rax
	incl	%edi
	movq	(%rax,%rbp), %rcx
	addq	$8, %rbp
.LEHB5:
	call	_ZN5ImGui7MemFreeEPv
.LEHE5:
	cmpl	%edi, 48(%rsi)
	jle	.L1998
.L2014:
	movq	56(%rsi), %rax
	movq	(%rax,%rbp), %rbx
	movq	24(%rbx), %rcx
	movl	$0x00000000, (%rbx)
	movl	$0x00000000, 8(%rbx)
	movl	$0x3f800000, 12(%rbx)
	testq	%rcx, %rcx
	je	.L1993
	movl	$0, 20(%rbx)
	movl	$0, 16(%rbx)
	call	_ZN5ImGui7MemFreeEPv
	movq	$0, 24(%rbx)
.L1993:
	movq	40(%rbx), %rcx
	testq	%rcx, %rcx
	je	.L1994
	movl	$0, 36(%rbx)
	movl	$0, 32(%rbx)
	call	_ZN5ImGui7MemFreeEPv
	movq	$0, 40(%rbx)
.L1994:
	movq	56(%rbx), %rcx
	testq	%rcx, %rcx
	je	.L1995
	movl	$0, 52(%rbx)
	movl	$0, 48(%rbx)
	call	_ZN5ImGui7MemFreeEPv
.L1995:
	movq	40(%rbx), %rcx
	movq	$0, 64(%rbx)
	movl	$0x00000000, 72(%rbx)
	movw	$0, 78(%rbx)
	movq	$0, 80(%rbx)
	movq	$0, 88(%rbx)
	testq	%rcx, %rcx
	movl	$0x00000000, 100(%rbx)
	movl	$0x00000000, 96(%rbx)
	movl	$0, 104(%rbx)
	je	.L2001
	call	_ZN5ImGui7MemFreeEPv
.L2001:
	movq	24(%rbx), %rcx
	testq	%rcx, %rcx
	je	.L1996
	call	_ZN5ImGui7MemFreeEPv
.L1996:
	cmpl	%edi, 48(%rsi)
	jg	.L1997
	leaq	.LC35(%rip), %rdx
	leaq	.LC36(%rip), %rcx
	movl	$856, %r8d
.LEHB6:
	call	_assert
	jmp	.L1997
	.p2align 4,,7
.L1998:
	movq	56(%rsi), %rcx
	testq	%rcx, %rcx
	je	.L1989
	movl	$0, 52(%rsi)
	movl	$0, 48(%rsi)
	call	_ZN5ImGui7MemFreeEPv
.LEHE6:
	movq	$0, 56(%rsi)
.L1989:
	addq	$40, %rsp
	popq	%rbx
	popq	%rsi
	popq	%rdi
	popq	%rbp
	ret
	.seh_handler	__gxx_personality_seh0, @unwind, @except
	.seh_handlerdata
.LLSDA462:
	.byte	0xff
	.byte	0xff
	.byte	0x1
	.uleb128 .LLSDACSE462-.LLSDACSB462
.LLSDACSB462:
	.uleb128 .LEHB5-.LFB462
	.uleb128 .LEHE5-.LEHB5
	.uleb128 0
	.uleb128 0
	.uleb128 .LEHB6-.LFB462
	.uleb128 .LEHE6-.LEHB6
	.uleb128 0
	.uleb128 0
.LLSDACSE462:
	.text
	.seh_endproc
	.align 2
	.p2align 4,,15
	.globl	_ZN11ImFontAtlasD2Ev
	.def	_ZN11ImFontAtlasD2Ev;	.scl	2;	.type	32;	.endef
	.seh_proc	_ZN11ImFontAtlasD2Ev
_ZN11ImFontAtlasD2Ev:
.LFB458:
	pushq	%rbx
	.seh_pushreg	%rbx
	subq	$32, %rsp
	.seh_stackalloc	32
	.seh_endprologue
	movq	%rcx, %rbx
	call	_ZN11ImFontAtlas14ClearInputDataEv
	movq	8(%rbx), %rcx
	testq	%rcx, %rcx
	je	.L2016
	call	_ZN5ImGui7MemFreeEPv
.L2016:
	movq	16(%rbx), %rcx
	testq	%rcx, %rcx
	je	.L2017
	call	_ZN5ImGui7MemFreeEPv
.L2017:
	movq	%rbx, %rcx
	movq	$0, 8(%rbx)
	movq	$0, 16(%rbx)
	call	_ZN11ImFontAtlas10ClearFontsEv
	movq	72(%rbx), %rcx
	testq	%rcx, %rcx
	je	.L2018
	call	_ZN5ImGui7MemFreeEPv
.L2018:
	movq	56(%rbx), %rcx
	testq	%rcx, %rcx
	je	.L2015
	addq	$32, %rsp
	popq	%rbx
	jmp	_ZN5ImGui7MemFreeEPv
	.p2align 4,,7
.L2015:
	addq	$32, %rsp
	popq	%rbx
	ret
	.seh_handler	__gxx_personality_seh0, @unwind, @except
	.seh_handlerdata
.LLSDA458:
	.byte	0xff
	.byte	0xff
	.byte	0x1
	.uleb128 .LLSDACSE458-.LLSDACSB458
.LLSDACSB458:
.LLSDACSE458:
	.text
	.seh_endproc
	.globl	_ZN11ImFontAtlasD1Ev
	.def	_ZN11ImFontAtlasD1Ev;	.scl	2;	.type	32;	.endef
	.set	_ZN11ImFontAtlasD1Ev,_ZN11ImFontAtlasD2Ev
	.align 2
	.p2align 4,,15
	.globl	_ZN11ImFontAtlas5ClearEv
	.def	_ZN11ImFontAtlas5ClearEv;	.scl	2;	.type	32;	.endef
	.seh_proc	_ZN11ImFontAtlas5ClearEv
_ZN11ImFontAtlas5ClearEv:
.LFB463:
	pushq	%rbx
	.seh_pushreg	%rbx
	subq	$32, %rsp
	.seh_stackalloc	32
	.seh_endprologue
	movq	%rcx, %rbx
	call	_ZN11ImFontAtlas14ClearInputDataEv
	movq	8(%rbx), %rcx
	testq	%rcx, %rcx
	je	.L2030
	call	_ZN5ImGui7MemFreeEPv
.L2030:
	movq	16(%rbx), %rcx
	testq	%rcx, %rcx
	je	.L2031
	call	_ZN5ImGui7MemFreeEPv
.L2031:
	movq	%rbx, %rcx
	movq	$0, 8(%rbx)
	movq	$0, 16(%rbx)
	addq	$32, %rsp
	popq	%rbx
	jmp	_ZN11ImFontAtlas10ClearFontsEv
	.seh_endproc
	.section .rdata,"dr"
	.align 8
.LC46:
	.ascii "..-         -XXXXXXX-    X    -           X           -XXXXXXX          -          XXXXXXX..-         -X.....X-   X.X   -          X.X          -X.....X          -          X.....X---         -XXX.XXX-  X...X  -         X...X         -X....X           -           X....XX           -  X.X  - X.....X -        X.....X        -X...X            -            X...XXX          -  X.X  -X.......X-       X.......X       -X..X.X           -           X.X..XX.X         -  X.X  -XXXX.XXXX-       XXXX.XXXX       -X.X X.X          -          X.X X.XX..X        -  X.X  -   X.X   -          X.X          -XX   X.X         -         X.X   XXX...X       -  X.X  -   X.X   -    XX    X.X    XX    -      X.X        -        X.X      X....X      -  X.X  -   X.X   -   X.X    X.X    X.X   -       X.X       -       X.X       X.....X     -  X.X  -   X.X   -  X..X    X.X    X..X  -        X.X      -      X.X        X......X    -  X.X  -   X.X   - X...XXXXXX.XXXXXX...X -         X.X   XX-XX   X.X         X.......X   -  X.X  -   X.X   -X.....................X-          X.X X.X-X.X X.X          X........X  -  X.X  -   X.X   - X...XXXXXX.XXXXXX...X -           X.X..X-X..X.X           X.........X -XXX.XXX-   X.X   -  X..X    X.X    X..X  -            X...X-X...X            X..........X-X.....X-   X.X   -   X.X    X.X    X.X   -           X....X-X....X           X......XXXXX-XXXXXXX-   X.X   -    XX    X.X    XX    -          X.....X-X.....X          X...X..X    ---------   X.X   -          X.X          -          XXXXXXX-XXXXXXX          X..X X..X   -       -XXXX.XXXX-       XXXX.XXXX       ------------------------------------X.X  X..X   -       -X.......X-       X.......X       -    XX           XX    -           XX    X..X  -       - X.....X -        X.....X        -   X.X           X.X   -                 X..X          -  X...X  -         X...X         -  X..X           X..X  -                  XX           -   X.X   -          X.X          - X...XXXXXXXXXXXXX...X -           ------------        "
	.ascii "-    X    -           X           -X.....................X-                               ----------------------------------- X...XXXXXXXXXXXXX...X -                                                                 -  X..X           X..X  -                                                                 -   X.X           X.X   -                                                                 -    XX           XX    -           \0"
	.text
	.align 2
	.p2align 4,,15
	.globl	_ZN11ImFontAtlas19RenderCustomTexDataEiPv
	.def	_ZN11ImFontAtlas19RenderCustomTexDataEiPv;	.scl	2;	.type	32;	.endef
	.seh_proc	_ZN11ImFontAtlas19RenderCustomTexDataEiPv
_ZN11ImFontAtlas19RenderCustomTexDataEiPv:
.LFB475:
	pushq	%rbp
	.seh_pushreg	%rbp
	pushq	%rdi
	.seh_pushreg	%rdi
	pushq	%rsi
	.seh_pushreg	%rsi
	pushq	%rbx
	.seh_pushreg	%rbx
	subq	$2792, %rsp
	.seh_stackalloc	2792
	movaps	%xmm6, 2640(%rsp)
	.seh_savexmm	%xmm6, 2640
	movaps	%xmm7, 2656(%rsp)
	.seh_savexmm	%xmm7, 2656
	movaps	%xmm8, 2672(%rsp)
	.seh_savexmm	%xmm8, 2672
	movaps	%xmm9, 2688(%rsp)
	.seh_savexmm	%xmm9, 2688
	movaps	%xmm10, 2704(%rsp)
	.seh_savexmm	%xmm10, 2704
	movaps	%xmm11, 2720(%rsp)
	.seh_savexmm	%xmm11, 2720
	movaps	%xmm12, 2736(%rsp)
	.seh_savexmm	%xmm12, 2736
	movaps	%xmm13, 2752(%rsp)
	.seh_savexmm	%xmm13, 2752
	movaps	%xmm14, 2768(%rsp)
	.seh_savexmm	%xmm14, 2768
	.seh_endprologue
	leaq	.LC46(%rip), %rsi
	movq	%rcx, %rbx
	leaq	208(%rsp), %rdi
	movl	$303, %ecx
	rep movsq
	testl	%edx, %edx
	movq	%r8, %rbp
	movl	(%rsi), %ecx
	movl	%ecx, (%rdi)
	movzwl	2428+.LC46(%rip), %ecx
	movw	%cx, 4(%rdi)
	movzbl	2430+.LC46(%rip), %ecx
	movb	%cl, 6(%rdi)
	je	.L2058
	decl	%edx
	je	.L2059
.L2038:
	movaps	2640(%rsp), %xmm6
	movaps	2656(%rsp), %xmm7
	movaps	2672(%rsp), %xmm8
	movaps	2688(%rsp), %xmm9
	movaps	2704(%rsp), %xmm10
	movaps	2720(%rsp), %xmm11
	movaps	2736(%rsp), %xmm12
	movaps	2752(%rsp), %xmm13
	movaps	2768(%rsp), %xmm14
	addq	$2792, %rsp
	popq	%rbx
	popq	%rsi
	popq	%rdi
	popq	%rbp
	ret
.L2059:
	movl	(%r8), %eax
	testl	%eax, %eax
	jle	.L2060
.L2046:
	movq	8(%rbp), %r8
	xorl	%r9d, %r9d
	xorl	%r10d, %r10d
	.p2align 4,,7
.L2049:
	xorl	%ecx, %ecx
	jmp	.L2048
	.p2align 4,,7
.L2062:
	movb	$0, (%rax)
	movslq	%edx, %rax
	addq	8(%rbx), %rax
	cmpb	$88, %r11b
	sete	%dl
	incl	%ecx
	negl	%edx
	cmpl	$90, %ecx
	movb	%dl, (%rax)
	je	.L2061
.L2048:
	movzwl	10(%r8), %eax
	leal	(%r9,%rcx), %r11d
	movzwl	8(%r8), %edx
	movslq	%r11d, %r11
	movzbl	208(%rsp,%r11), %r11d
	addl	%r10d, %eax
	addl	%ecx, %edx
	imull	24(%rbx), %eax
	addl	%edx, %eax
	leal	91(%rax), %edx
	cltq
	addq	8(%rbx), %rax
	cmpb	$46, %r11b
	jne	.L2062
	movb	$-1, (%rax)
	movslq	%edx, %rax
	addq	8(%rbx), %rax
	incl	%ecx
	xorl	%edx, %edx
	cmpl	$90, %ecx
	movb	%dl, (%rax)
	jne	.L2048
.L2061:
	addl	$90, %r9d
	incl	%r10d
	cmpl	$2430, %r9d
	jne	.L2049
	cvtsi2ss	24(%rbx), %xmm2
	movzwl	8(%r8), %edx
	movss	.LC24(%rip), %xmm0
	movzwl	10(%r8), %eax
	movaps	%xmm0, %xmm5
	cvtsi2ss	28(%rbx), %xmm1
	movl	$0x00000000, 32(%rsp)
	movss	.LC1(%rip), %xmm3
	movl	$0x40400000, 36(%rsp)
	cvtsi2ss	%edx, %xmm6
	movl	$0x00000000, 48(%rsp)
	movss	.LC56(%rip), %xmm4
	movl	$0x00000000, 52(%rsp)
	divss	%xmm2, %xmm0
	movss	.LC48(%rip), %xmm9
	movss	.LC49(%rip), %xmm12
	movl	$0x41500000, 56(%rsp)
	movss	.LC51(%rip), %xmm8
	movl	$0x00000000, 60(%rsp)
	movss	.LC52(%rip), %xmm11
	movl	$0x40800000, 72(%rsp)
	movss	%xmm9, 40(%rsp)
	movl	$0x41000000, 76(%rsp)
	movl	$0x41f80000, 80(%rsp)
	movss	%xmm12, 44(%rsp)
	movl	$0x00000000, 84(%rsp)
	movl	$0x41300000, 96(%rsp)
	movss	%xmm8, 64(%rsp)
	movl	$0x41300000, 100(%rsp)
	movss	%xmm11, 68(%rsp)
	movl	$0x41a80000, 104(%rsp)
	movss	%xmm4, 88(%rsp)
	movaps	%xmm6, %xmm2
	movss	%xmm4, 92(%rsp)
	addss	%xmm3, %xmm2
	divss	%xmm1, %xmm5
	movaps	%xmm0, %xmm14
	mulss	%xmm0, %xmm2
	movaps	%xmm5, %xmm1
	movss	%xmm2, 36(%rbx)
	cvtsi2ss	%eax, %xmm2
	movaps	%xmm1, %xmm13
	addss	%xmm2, %xmm3
	mulss	%xmm5, %xmm3
	movss	%xmm3, 40(%rbx)
	movl	$0x00000000, 108(%rsp)
	movq	.refptr.GImGui(%rip), %rax
	movss	36(%rsp), %xmm7
	movq	48(%rsp), %rdx
	addss	%xmm2, %xmm7
	movss	32(%rsp), %xmm10
	movq	(%rax), %rax
	addss	%xmm6, %xmm10
	movss	%xmm4, 116(%rsp)
	movss	.LC64(%rip), %xmm5
	movl	$0x40a00000, 120(%rsp)
	movss	.LC59(%rip), %xmm3
	mulss	%xmm7, %xmm13
	addss	%xmm12, %xmm7
	movss	%xmm12, 6564(%rax)
	movss	%xmm3, 112(%rsp)
	movl	$0x41300000, 124(%rsp)
	movl	$0x425c0000, 128(%rsp)
	movss	%xmm4, 136(%rsp)
	movl	$0x41900000, 132(%rsp)
	mulss	%xmm10, %xmm14
	movss	%xmm3, 140(%rsp)
	movl	$0x41300000, 144(%rsp)
	mulss	%xmm1, %xmm7
	movss	%xmm3, 168(%rsp)
	movl	$0x40a00000, 148(%rsp)
	movss	%xmm3, 172(%rsp)
	movl	$0x42920000, 152(%rsp)
	movss	%xmm3, 192(%rsp)
	movl	$0x00000000, 156(%rsp)
	movss	%xmm3, 196(%rsp)
	movl	$0x425c0000, 176(%rsp)
	movaps	%xmm7, %xmm12
	movaps	%xmm9, %xmm7
	movss	%xmm9, 6560(%rax)
	movl	$0x00000000, 180(%rsp)
	addss	%xmm10, %xmm7
	movss	%xmm5, 160(%rsp)
	movl	$0, 6548(%rax)
	movss	%xmm5, 164(%rsp)
	movss	%xmm5, 184(%rsp)
	movss	%xmm5, 188(%rsp)
	movq	%rdx, 6552(%rax)
	mulss	%xmm0, %xmm7
	movss	%xmm14, 6568(%rax)
	movq	72(%rsp), %rdx
	movaps	%xmm0, %xmm14
	movss	%xmm12, 6588(%rax)
	movss	%xmm12, 6596(%rax)
	movaps	%xmm1, %xmm12
	movss	%xmm13, 6572(%rax)
	movq	%rdx, 6604(%rax)
	movss	%xmm7, 6584(%rax)
	movq	96(%rsp), %rdx
	movss	.LC65(%rip), %xmm7
	addss	%xmm7, %xmm10
	movss	%xmm13, 6580(%rax)
	movl	$1, 6600(%rax)
	movss	%xmm11, 6616(%rax)
	movaps	%xmm0, %xmm13
	movss	%xmm8, 6612(%rax)
	movq	%rdx, 6656(%rax)
	movss	%xmm4, 6664(%rax)
	movl	$2, 6652(%rax)
	addss	%xmm10, %xmm9
	mulss	%xmm10, %xmm14
	movss	%xmm4, 6668(%rax)
	movss	60(%rsp), %xmm10
	addss	%xmm2, %xmm10
	mulss	%xmm0, %xmm9
	movss	%xmm14, 6576(%rax)
	mulss	%xmm10, %xmm12
	addss	%xmm11, %xmm10
	movaps	%xmm8, %xmm11
	movss	%xmm9, 6592(%rax)
	movss	56(%rsp), %xmm9
	addss	%xmm6, %xmm9
	mulss	%xmm1, %xmm10
	movss	%xmm12, 6624(%rax)
	movss	%xmm12, 6632(%rax)
	mulss	%xmm9, %xmm13
	addss	%xmm9, %xmm11
	movss	%xmm10, 6640(%rax)
	addss	%xmm7, %xmm9
	movss	%xmm10, 6648(%rax)
	movaps	%xmm0, %xmm10
	mulss	%xmm0, %xmm11
	movss	%xmm13, 6620(%rax)
	addss	%xmm9, %xmm8
	movss	%xmm11, 6636(%rax)
	movaps	%xmm0, %xmm11
	mulss	%xmm0, %xmm8
	mulss	%xmm9, %xmm11
	movss	84(%rsp), %xmm9
	addss	%xmm2, %xmm9
	movss	%xmm8, 6644(%rax)
	movss	80(%rsp), %xmm8
	addss	%xmm6, %xmm8
	movss	%xmm11, 6628(%rax)
	addss	%xmm4, %xmm9
	movaps	%xmm0, %xmm11
	mulss	%xmm8, %xmm10
	mulss	%xmm1, %xmm9
	movss	%xmm10, 6672(%rax)
	movaps	%xmm4, %xmm10
	movss	%xmm12, 6676(%rax)
	movq	120(%rsp), %rdx
	movl	$3, 6704(%rax)
	addss	%xmm8, %xmm10
	movss	%xmm9, 6692(%rax)
	movl	$4, 6756(%rax)
	addss	%xmm7, %xmm8
	movss	%xmm9, 6700(%rax)
	movss	108(%rsp), %xmm9
	addss	%xmm2, %xmm9
	movss	%xmm3, 6716(%rax)
	movq	%rdx, 6708(%rax)
	mulss	%xmm0, %xmm10
	movss	%xmm3, 6772(%rax)
	movq	144(%rsp), %rdx
	movss	%xmm4, 6720(%rax)
	movss	%xmm4, 6768(%rax)
	addss	%xmm4, %xmm9
	movq	%rdx, 6760(%rax)
	movss	%xmm12, 6684(%rax)
	movss	%xmm10, 6688(%rax)
	movaps	%xmm0, %xmm10
	movss	%xmm12, 6728(%rax)
	mulss	%xmm8, %xmm10
	addss	%xmm4, %xmm8
	movss	%xmm12, 6736(%rax)
	mulss	%xmm1, %xmm9
	mulss	%xmm0, %xmm8
	movss	%xmm10, 6680(%rax)
	movaps	%xmm0, %xmm10
	movss	%xmm9, 6744(%rax)
	movss	%xmm9, 6752(%rax)
	movss	132(%rsp), %xmm9
	movss	%xmm8, 6696(%rax)
	addss	%xmm2, %xmm9
	movss	104(%rsp), %xmm8
	addss	%xmm6, %xmm8
	mulss	%xmm8, %xmm10
	movss	%xmm10, 6724(%rax)
	movaps	%xmm8, %xmm10
	addss	%xmm7, %xmm8
	addss	%xmm3, %xmm10
	mulss	%xmm0, %xmm10
	movss	%xmm10, 6740(%rax)
	movaps	%xmm0, %xmm10
	mulss	%xmm8, %xmm10
	addss	%xmm3, %xmm8
	addss	%xmm9, %xmm3
	mulss	%xmm0, %xmm8
	movss	%xmm10, 6732(%rax)
	movaps	%xmm1, %xmm10
	mulss	%xmm1, %xmm3
	mulss	%xmm9, %xmm10
	movss	%xmm8, 6748(%rax)
	movss	128(%rsp), %xmm8
	addss	%xmm6, %xmm8
	movss	%xmm3, 6796(%rax)
	movss	%xmm10, 6780(%rax)
	movaps	%xmm8, %xmm9
	mulss	%xmm8, %xmm11
	addss	%xmm7, %xmm8
	addss	%xmm4, %xmm9
	movss	%xmm11, 6776(%rax)
	addss	%xmm8, %xmm4
	mulss	%xmm0, %xmm9
	mulss	%xmm0, %xmm4
	movss	%xmm9, 6792(%rax)
	movaps	%xmm0, %xmm9
	mulss	%xmm8, %xmm9
	movaps	%xmm0, %xmm8
	movss	%xmm9, 6784(%rax)
	movq	168(%rsp), %rdx
	movl	$5, 6808(%rax)
	movss	%xmm4, 6800(%rax)
	movl	$6, 6860(%rax)
	movss	156(%rsp), %xmm4
	addss	%xmm2, %xmm4
	movss	%xmm3, 6804(%rax)
	movq	%rdx, 6812(%rax)
	addss	180(%rsp), %xmm2
	movss	152(%rsp), %xmm3
	addss	%xmm6, %xmm3
	movq	192(%rsp), %rdx
	movss	%xmm10, 6788(%rax)
	addss	176(%rsp), %xmm6
	movss	%xmm5, 6820(%rax)
	addss	%xmm5, %xmm4
	movss	%xmm5, 6824(%rax)
	movss	%xmm12, 6832(%rax)
	movq	%rdx, 6864(%rax)
	mulss	%xmm3, %xmm8
	movss	%xmm12, 6840(%rax)
	addss	%xmm5, %xmm2
	movss	%xmm5, 6872(%rax)
	mulss	%xmm1, %xmm4
	movss	%xmm5, 6876(%rax)
	movss	%xmm11, 6880(%rax)
	movss	%xmm8, 6828(%rax)
	movaps	%xmm3, %xmm8
	mulss	%xmm2, %xmm1
	movaps	%xmm6, %xmm2
	addss	%xmm5, %xmm8
	movss	%xmm4, 6848(%rax)
	addss	%xmm5, %xmm2
	movss	%xmm4, 6856(%rax)
	addss	%xmm7, %xmm3
	movss	%xmm12, 6884(%rax)
	addss	%xmm7, %xmm6
	movss	%xmm1, 6900(%rax)
	mulss	%xmm0, %xmm8
	movss	%xmm12, 6892(%rax)
	mulss	%xmm0, %xmm2
	movss	%xmm8, 6844(%rax)
	movaps	%xmm0, %xmm8
	movss	%xmm2, 6896(%rax)
	movaps	%xmm0, %xmm2
	mulss	%xmm3, %xmm8
	addss	%xmm5, %xmm3
	mulss	%xmm6, %xmm2
	addss	%xmm5, %xmm6
	mulss	%xmm0, %xmm3
	movss	%xmm8, 6836(%rax)
	mulss	%xmm6, %xmm0
	movss	%xmm2, 6888(%rax)
	movss	%xmm3, 6852(%rax)
	movss	%xmm0, 6904(%rax)
	movss	%xmm1, 6908(%rax)
	jmp	.L2038
.L2058:
	movslq	(%r8), %rax
	movq	$0, 32(%rsp)
	cmpl	4(%r8), %eax
	movq	$0, 40(%rsp)
	movw	$181, 36(%rsp)
	movw	$28, 38(%rsp)
	je	.L2040
	movq	8(%r8), %rsi
	leal	1(%rax), %edx
.L2041:
	movq	32(%rsp), %rcx
	movq	40(%rsp), %rbx
	salq	$4, %rax
	movl	%edx, 0(%rbp)
	movq	%rcx, (%rsi,%rax)
	movq	%rbx, 8(%rsi,%rax)
	jmp	.L2038
.L2060:
	leaq	.LC35(%rip), %rdx
	leaq	.LC36(%rip), %rcx
	movl	$856, %r8d
	call	_assert
	jmp	.L2046
.L2040:
	testl	%eax, %eax
	leal	1(%rax), %edx
	movl	$8, %ebx
	je	.L2042
	movl	%eax, %ebx
	shrl	$31, %ebx
	addl	%eax, %ebx
	sarl	%ebx
	addl	%eax, %ebx
.L2042:
	cmpl	%ebx, %edx
	cmovge	%edx, %ebx
	cmpl	%eax, %ebx
	jg	.L2043
	movq	8(%rbp), %rsi
	jmp	.L2041
.L2043:
	movslq	%ebx, %rcx
	salq	$4, %rcx
	call	_ZN5ImGui8MemAllocEy
	movq	8(%rbp), %rdx
	movq	%rax, %rsi
	testq	%rdx, %rdx
	je	.L2044
	movslq	0(%rbp), %r8
	movq	%rax, %rcx
	salq	$4, %r8
	call	memcpy
	movq	8(%rbp), %rdx
.L2044:
	movq	%rdx, %rcx
	call	_ZN5ImGui7MemFreeEPv
	movslq	0(%rbp), %rax
	movq	%rsi, 8(%rbp)
	movl	%ebx, 4(%rbp)
	leal	1(%rax), %edx
	jmp	.L2041
	.seh_endproc
	.align 2
	.p2align 4,,15
	.globl	_ZN11ImFontAtlas21GetGlyphRangesDefaultEv
	.def	_ZN11ImFontAtlas21GetGlyphRangesDefaultEv;	.scl	2;	.type	32;	.endef
	.seh_proc	_ZN11ImFontAtlas21GetGlyphRangesDefaultEv
_ZN11ImFontAtlas21GetGlyphRangesDefaultEv:
.LFB476:
	.seh_endprologue
	leaq	_ZZN11ImFontAtlas21GetGlyphRangesDefaultEvE6ranges(%rip), %rax
	ret
	.seh_endproc
	.align 2
	.p2align 4,,15
	.globl	_ZN11ImFontAtlas20GetGlyphRangesKoreanEv
	.def	_ZN11ImFontAtlas20GetGlyphRangesKoreanEv;	.scl	2;	.type	32;	.endef
	.seh_proc	_ZN11ImFontAtlas20GetGlyphRangesKoreanEv
_ZN11ImFontAtlas20GetGlyphRangesKoreanEv:
.LFB477:
	.seh_endprologue
	leaq	_ZZN11ImFontAtlas20GetGlyphRangesKoreanEvE6ranges(%rip), %rax
	ret
	.seh_endproc
	.align 2
	.p2align 4,,15
	.globl	_ZN11ImFontAtlas21GetGlyphRangesChineseEv
	.def	_ZN11ImFontAtlas21GetGlyphRangesChineseEv;	.scl	2;	.type	32;	.endef
	.seh_proc	_ZN11ImFontAtlas21GetGlyphRangesChineseEv
_ZN11ImFontAtlas21GetGlyphRangesChineseEv:
.LFB478:
	.seh_endprologue
	leaq	_ZZN11ImFontAtlas21GetGlyphRangesChineseEvE6ranges(%rip), %rax
	ret
	.seh_endproc
	.align 2
	.p2align 4,,15
	.globl	_ZN11ImFontAtlas22GetGlyphRangesJapaneseEv
	.def	_ZN11ImFontAtlas22GetGlyphRangesJapaneseEv;	.scl	2;	.type	32;	.endef
	.seh_proc	_ZN11ImFontAtlas22GetGlyphRangesJapaneseEv
_ZN11ImFontAtlas22GetGlyphRangesJapaneseEv:
.LFB479:
	.seh_endprologue
	cmpb	$0, _ZZN11ImFontAtlas22GetGlyphRangesJapaneseEvE20full_ranges_unpacked(%rip)
	jne	.L2067
	movq	_ZZN11ImFontAtlas22GetGlyphRangesJapaneseEvE11base_ranges(%rip), %rax
	movq	8+_ZZN11ImFontAtlas22GetGlyphRangesJapaneseEvE11base_ranges(%rip), %rdx
	leaq	_ZZN11ImFontAtlas22GetGlyphRangesJapaneseEvE19offsets_from_0x4E00(%rip), %r9
	leaq	7760+_ZZN11ImFontAtlas22GetGlyphRangesJapaneseEvE11full_ranges(%rip), %r10
	xorl	%ecx, %ecx
	movq	%r9, %r8
	movq	%rax, _ZZN11ImFontAtlas22GetGlyphRangesJapaneseEvE11full_ranges(%rip)
	leaq	16+_ZZN11ImFontAtlas22GetGlyphRangesJapaneseEvE11full_ranges(%rip), %rax
	movq	%rdx, 8+_ZZN11ImFontAtlas22GetGlyphRangesJapaneseEvE11full_ranges(%rip)
	movl	$19968, %edx
	.p2align 4,,7
.L2068:
	movswl	(%r8), %r11d
	prefetcht0	40(%r8)
	prefetcht0	82(%rax)
	prefetcht0	80(%rax)
	addq	$64, %rax
	addl	$16, %ecx
	addq	$32, %r8
	leal	1(%rdx,%r11), %edx
	movswl	-30(%r8), %r11d
	movw	%dx, -62(%rax)
	movw	%dx, -64(%rax)
	leal	1(%rdx,%r11), %edx
	movswl	-28(%r8), %r11d
	movw	%dx, -58(%rax)
	movw	%dx, -60(%rax)
	leal	1(%rdx,%r11), %edx
	movswl	-26(%r8), %r11d
	movw	%dx, -54(%rax)
	movw	%dx, -56(%rax)
	leal	1(%rdx,%r11), %edx
	movswl	-24(%r8), %r11d
	movw	%dx, -50(%rax)
	movw	%dx, -52(%rax)
	leal	1(%rdx,%r11), %edx
	movswl	-22(%r8), %r11d
	movw	%dx, -46(%rax)
	movw	%dx, -48(%rax)
	leal	1(%rdx,%r11), %edx
	movswl	-20(%r8), %r11d
	movw	%dx, -42(%rax)
	movw	%dx, -44(%rax)
	leal	1(%rdx,%r11), %edx
	movswl	-18(%r8), %r11d
	movw	%dx, -38(%rax)
	movw	%dx, -40(%rax)
	leal	1(%rdx,%r11), %edx
	movswl	-16(%r8), %r11d
	movw	%dx, -34(%rax)
	movw	%dx, -36(%rax)
	leal	1(%rdx,%r11), %edx
	movswl	-14(%r8), %r11d
	movw	%dx, -30(%rax)
	movw	%dx, -32(%rax)
	leal	1(%rdx,%r11), %edx
	movw	%dx, -26(%rax)
	movw	%dx, -28(%rax)
	movswl	-12(%r8), %r11d
	leal	1(%rdx,%r11), %edx
	movswl	-10(%r8), %r11d
	movw	%dx, -22(%rax)
	movw	%dx, -24(%rax)
	leal	1(%rdx,%r11), %edx
	movswl	-8(%r8), %r11d
	movw	%dx, -18(%rax)
	movw	%dx, -20(%rax)
	leal	1(%rdx,%r11), %edx
	movswl	-6(%r8), %r11d
	movw	%dx, -14(%rax)
	movw	%dx, -16(%rax)
	leal	1(%rdx,%r11), %edx
	movswl	-4(%r8), %r11d
	movw	%dx, -10(%rax)
	movw	%dx, -12(%rax)
	leal	1(%rdx,%r11), %edx
	movswl	-2(%r8), %r11d
	movw	%dx, -6(%rax)
	movw	%dx, -8(%rax)
	leal	1(%rdx,%r11), %edx
	movw	%dx, -2(%rax)
	movw	%dx, -4(%rax)
	cmpq	%r10, %rax
	jne	.L2068
	.p2align 4,,7
.L2069:
	movslq	%ecx, %r8
	incl	%ecx
	addq	$4, %rax
	movswl	(%r9,%r8,2), %r8d
	leal	1(%rdx,%r8), %edx
	movw	%dx, -2(%rax)
	movw	%dx, -4(%rax)
	cmpl	$1946, %ecx
	jne	.L2069
	movw	$0, 7800+_ZZN11ImFontAtlas22GetGlyphRangesJapaneseEvE11full_ranges(%rip)
	movb	$1, _ZZN11ImFontAtlas22GetGlyphRangesJapaneseEvE20full_ranges_unpacked(%rip)
.L2067:
	leaq	_ZZN11ImFontAtlas22GetGlyphRangesJapaneseEvE11full_ranges(%rip), %rax
	ret
	.seh_endproc
	.align 2
	.p2align 4,,15
	.globl	_ZN11ImFontAtlas22GetGlyphRangesCyrillicEv
	.def	_ZN11ImFontAtlas22GetGlyphRangesCyrillicEv;	.scl	2;	.type	32;	.endef
	.seh_proc	_ZN11ImFontAtlas22GetGlyphRangesCyrillicEv
_ZN11ImFontAtlas22GetGlyphRangesCyrillicEv:
.LFB480:
	.seh_endprologue
	leaq	_ZZN11ImFontAtlas22GetGlyphRangesCyrillicEvE6ranges(%rip), %rax
	ret
	.seh_endproc
	.align 2
	.p2align 4,,15
	.globl	_ZN11ImFontAtlas18GetGlyphRangesThaiEv
	.def	_ZN11ImFontAtlas18GetGlyphRangesThaiEv;	.scl	2;	.type	32;	.endef
	.seh_proc	_ZN11ImFontAtlas18GetGlyphRangesThaiEv
_ZN11ImFontAtlas18GetGlyphRangesThaiEv:
.LFB481:
	.seh_endprologue
	leaq	_ZZN11ImFontAtlas18GetGlyphRangesThaiEvE6ranges(%rip), %rax
	ret
	.seh_endproc
	.align 2
	.p2align 4,,15
	.globl	_ZN6ImFontC2Ev
	.def	_ZN6ImFontC2Ev;	.scl	2;	.type	32;	.endef
	.seh_proc	_ZN6ImFontC2Ev
_ZN6ImFontC2Ev:
.LFB483:
	.seh_endprologue
	xorps	%xmm0, %xmm0
	movss	.LC24(%rip), %xmm1
	movl	$0, 20(%rcx)
	movl	$0, 16(%rcx)
	movq	$0, 24(%rcx)
	movss	%xmm1, 4(%rcx)
	movss	%xmm0, 8(%rcx)
	movl	$0, 36(%rcx)
	movl	$0, 32(%rcx)
	movq	$0, 40(%rcx)
	movss	%xmm0, (%rcx)
	movl	$0, 52(%rcx)
	movss	%xmm1, 12(%rcx)
	movl	$0, 48(%rcx)
	movss	%xmm0, 72(%rcx)
	movq	$0, 56(%rcx)
	movss	%xmm0, 100(%rcx)
	movw	$63, 76(%rcx)
	movss	%xmm0, 96(%rcx)
	movq	$0, 64(%rcx)
	movw	$0, 78(%rcx)
	movq	$0, 80(%rcx)
	movq	$0, 88(%rcx)
	movl	$0, 104(%rcx)
	ret
	.seh_endproc
	.globl	_ZN6ImFontC1Ev
	.def	_ZN6ImFontC1Ev;	.scl	2;	.type	32;	.endef
	.set	_ZN6ImFontC1Ev,_ZN6ImFontC2Ev
	.section .rdata,"dr"
	.align 8
.LC66:
	.ascii "font_cfg->FontData != __null && font_cfg->FontDataSize > 0\0"
.LC67:
	.ascii "font_cfg->SizePixels > 0.0f\0"
.LC68:
	.ascii "!Fonts.empty()\0"
	.text
	.align 2
	.p2align 4,,15
	.globl	_ZN11ImFontAtlas7AddFontEPK12ImFontConfig
	.def	_ZN11ImFontAtlas7AddFontEPK12ImFontConfig;	.scl	2;	.type	32;	.endef
	.seh_proc	_ZN11ImFontAtlas7AddFontEPK12ImFontConfig
_ZN11ImFontAtlas7AddFontEPK12ImFontConfig:
.LFB466:
	pushq	%r12
	.seh_pushreg	%r12
	pushq	%rbp
	.seh_pushreg	%rbp
	pushq	%rdi
	.seh_pushreg	%rdi
	pushq	%rsi
	.seh_pushreg	%rsi
	pushq	%rbx
	.seh_pushreg	%rbx
	subq	$32, %rsp
	.seh_stackalloc	32
	.seh_endprologue
	cmpq	$0, (%rdx)
	movq	%rcx, %rbx
	movq	%rdx, %rbp
	je	.L2076
	movl	8(%rdx), %edx
	testl	%edx, %edx
	jle	.L2076
	movss	20(%rbp), %xmm0
	ucomiss	.LC28(%rip), %xmm0
	jbe	.L2113
.L2078:
	cmpb	$0, 64(%rbp)
	je	.L2114
.L2079:
	movl	48(%rbx), %eax
	testl	%eax, %eax
	je	.L2115
.L2085:
	movslq	64(%rbx), %rdx
	cmpl	68(%rbx), %edx
	je	.L2086
	movq	72(%rbx), %rax
	leal	1(%rdx), %r8d
.L2087:
	movq	%rdx, %rcx
	salq	$7, %rdx
	movl	%r8d, 64(%rbx)
	salq	$4, %rcx
	movq	%rbp, %rsi
	subq	%rcx, %rdx
	movl	$14, %ecx
	addq	%rdx, %rax
	movq	%rax, %rdi
	rep movsq
	movslq	64(%rbx), %rax
	testl	%eax, %eax
	jle	.L2116
.L2091:
	movq	%rax, %rdx
	salq	$7, %rax
	salq	$4, %rdx
	subq	%rdx, %rax
	movq	72(%rbx), %rdx
	leaq	-112(%rdx,%rax), %rsi
	cmpq	$0, 104(%rsi)
	je	.L2117
.L2092:
	cmpb	$0, 12(%rsi)
	jne	.L2094
	movslq	8(%rsi), %rcx
	call	_ZN5ImGui8MemAllocEy
	movslq	8(%rsi), %r8
	movq	%rax, (%rsi)
	movq	%rax, %rcx
	movq	0(%rbp), %rdx
	movb	$1, 12(%rsi)
	call	memcpy
.L2094:
	movq	8(%rbx), %rcx
	testq	%rcx, %rcx
	je	.L2095
	call	_ZN5ImGui7MemFreeEPv
.L2095:
	movq	16(%rbx), %rcx
	testq	%rcx, %rcx
	je	.L2096
	call	_ZN5ImGui7MemFreeEPv
.L2096:
	movq	104(%rsi), %rax
	movq	$0, 8(%rbx)
	movq	$0, 16(%rbx)
	addq	$32, %rsp
	popq	%rbx
	popq	%rsi
	popq	%rdi
	popq	%rbp
	popq	%r12
	ret
	.p2align 4,,7
.L2086:
	testl	%edx, %edx
	leal	1(%rdx), %r8d
	movl	$8, %eax
	jne	.L2118
	cmpl	%eax, %r8d
	cmovge	%r8d, %eax
	cmpl	%edx, %eax
	movl	%eax, %edi
	jg	.L2089
.L2119:
	movq	72(%rbx), %rax
	jmp	.L2087
	.p2align 4,,7
.L2076:
	leaq	.LC5(%rip), %rdx
	leaq	.LC66(%rip), %rcx
	movl	$1152, %r8d
	call	_assert
	movss	20(%rbp), %xmm0
	ucomiss	.LC28(%rip), %xmm0
	ja	.L2078
.L2113:
	leaq	.LC5(%rip), %rdx
	leaq	.LC67(%rip), %rcx
	movl	$1153, %r8d
	call	_assert
	cmpb	$0, 64(%rbp)
	jne	.L2079
	.p2align 4,,7
.L2114:
	movl	$112, %ecx
	call	_ZN5ImGui8MemAllocEy
	movq	%rax, %rcx
	movq	%rax, %rdi
	call	_ZN6ImFontC1Ev
	movslq	48(%rbx), %rdx
	cmpl	52(%rbx), %edx
	je	.L2080
	movq	56(%rbx), %rax
	leal	1(%rdx), %r8d
.L2081:
	movl	%r8d, 48(%rbx)
	movq	%rdi, (%rax,%rdx,8)
	jmp	.L2085
	.p2align 4,,7
.L2115:
	leaq	.LC5(%rip), %rdx
	leaq	.LC68(%rip), %rcx
	movl	$1164, %r8d
	call	_assert
	jmp	.L2085
	.p2align 4,,7
.L2118:
	movl	%edx, %eax
	shrl	$31, %eax
	addl	%edx, %eax
	sarl	%eax
	addl	%edx, %eax
	cmpl	%eax, %r8d
	cmovge	%r8d, %eax
	cmpl	%edx, %eax
	movl	%eax, %edi
	jle	.L2119
.L2089:
	movslq	%eax, %rcx
	movq	%rcx, %rax
	salq	$7, %rcx
	salq	$4, %rax
	subq	%rax, %rcx
	call	_ZN5ImGui8MemAllocEy
	movq	72(%rbx), %rcx
	movq	%rax, %rsi
	testq	%rcx, %rcx
	je	.L2090
	movslq	64(%rbx), %r8
	movq	%rcx, %rdx
	movq	%rsi, %rcx
	movq	%r8, %rax
	salq	$7, %r8
	salq	$4, %rax
	subq	%rax, %r8
	call	memcpy
	movq	72(%rbx), %rcx
.L2090:
	call	_ZN5ImGui7MemFreeEPv
	movslq	64(%rbx), %rdx
	movq	%rsi, 72(%rbx)
	movq	%rsi, %rax
	movl	%edi, 68(%rbx)
	leal	1(%rdx), %r8d
	jmp	.L2087
	.p2align 4,,7
.L2080:
	testl	%edx, %edx
	leal	1(%rdx), %r8d
	movl	$8, %eax
	je	.L2082
	movl	%edx, %eax
	shrl	$31, %eax
	addl	%edx, %eax
	sarl	%eax
	addl	%edx, %eax
.L2082:
	cmpl	%eax, %r8d
	cmovge	%r8d, %eax
	cmpl	%edx, %eax
	movl	%eax, %esi
	jg	.L2083
	movq	56(%rbx), %rax
	jmp	.L2081
	.p2align 4,,7
.L2116:
	leaq	.LC35(%rip), %rdx
	leaq	.LC38(%rip), %rcx
	movl	$866, %r8d
	call	_assert
	movslq	64(%rbx), %rax
	jmp	.L2091
	.p2align 4,,7
.L2117:
	movslq	48(%rbx), %rax
	testl	%eax, %eax
	jle	.L2120
.L2093:
	movq	56(%rbx), %rdx
	movq	-8(%rdx,%rax,8), %rax
	movq	%rax, 104(%rsi)
	jmp	.L2092
	.p2align 4,,7
.L2083:
	movslq	%eax, %rcx
	salq	$3, %rcx
	call	_ZN5ImGui8MemAllocEy
	movq	56(%rbx), %rcx
	movq	%rax, %r12
	testq	%rcx, %rcx
	je	.L2084
	movslq	48(%rbx), %r8
	movq	%rcx, %rdx
	movq	%rax, %rcx
	salq	$3, %r8
	call	memcpy
	movq	56(%rbx), %rcx
.L2084:
	call	_ZN5ImGui7MemFreeEPv
	movslq	48(%rbx), %rdx
	movq	%r12, 56(%rbx)
	movq	%r12, %rax
	movl	%esi, 52(%rbx)
	leal	1(%rdx), %r8d
	jmp	.L2081
.L2120:
	leaq	.LC35(%rip), %rdx
	leaq	.LC38(%rip), %rcx
	movl	$866, %r8d
	call	_assert
	movslq	48(%rbx), %rax
	jmp	.L2093
	.seh_endproc
	.section .rdata,"dr"
.LC69:
	.ascii "font_cfg.FontData == __null\0"
	.text
	.align 2
	.p2align 4,,15
	.globl	_ZN11ImFontAtlas20AddFontFromMemoryTTFEPvifPK12ImFontConfigPKt
	.def	_ZN11ImFontAtlas20AddFontFromMemoryTTFEPvifPK12ImFontConfigPKt;	.scl	2;	.type	32;	.endef
	.seh_proc	_ZN11ImFontAtlas20AddFontFromMemoryTTFEPvifPK12ImFontConfigPKt
_ZN11ImFontAtlas20AddFontFromMemoryTTFEPvifPK12ImFontConfigPKt:
.LFB471:
	pushq	%r14
	.seh_pushreg	%r14
	pushq	%r13
	.seh_pushreg	%r13
	pushq	%r12
	.seh_pushreg	%r12
	pushq	%rbp
	.seh_pushreg	%rbp
	pushq	%rdi
	.seh_pushreg	%rdi
	pushq	%rsi
	.seh_pushreg	%rsi
	pushq	%rbx
	.seh_pushreg	%rbx
	subq	$160, %rsp
	.seh_stackalloc	160
	movaps	%xmm6, 144(%rsp)
	.seh_savexmm	%xmm6, 144
	.seh_endprologue
	movq	%rcx, %r12
	movq	%rdx, %r14
	movl	%r8d, %r13d
	movq	256(%rsp), %rsi
	movaps	%xmm3, %xmm6
	movq	264(%rsp), %rbp
	testq	%rsi, %rsi
	je	.L2122
	leaq	32(%rsp), %rbx
	movl	$14, %ecx
	movq	%rbx, %rdi
	rep movsq
	cmpq	$0, 32(%rsp)
	je	.L2123
	leaq	.LC5(%rip), %rdx
	leaq	.LC69(%rip), %rcx
	movl	$1239, %r8d
	call	_assert
.L2123:
	testq	%rbp, %rbp
	movq	%r14, 32(%rsp)
	movl	%r13d, 40(%rsp)
	movss	%xmm6, 52(%rsp)
	je	.L2125
	movq	%rbp, 88(%rsp)
.L2125:
	movq	%rbx, %rdx
	movq	%r12, %rcx
	call	_ZN11ImFontAtlas7AddFontEPK12ImFontConfig
	movaps	144(%rsp), %xmm6
	addq	$160, %rsp
	popq	%rbx
	popq	%rsi
	popq	%rdi
	popq	%rbp
	popq	%r12
	popq	%r13
	popq	%r14
	ret
	.p2align 4,,7
.L2122:
	leaq	32(%rsp), %rbx
	movq	$0, 136(%rsp)
	movq	$0, 97(%rsp)
	movl	$0x00000000, 72(%rsp)
	movl	$0x00000000, 68(%rsp)
	movl	$0x00000000, 80(%rsp)
	movl	$0x00000000, 76(%rsp)
	movb	$1, 44(%rsp)
	movl	$0, 48(%rsp)
	movl	$3, 56(%rsp)
	movl	$1, 60(%rsp)
	movb	$0, 64(%rsp)
	movq	$0, 88(%rsp)
	movb	$0, 96(%rsp)
	movq	$0, 73(%rbx)
	movq	$0, 81(%rbx)
	movq	$0, 89(%rbx)
	jmp	.L2123
	.seh_endproc
	.section .rdata,"dr"
.LC70:
	.ascii "stb__dout == output + olen\0"
.LC71:
	.ascii "stb__dout <= output + olen\0"
	.text
	.align 2
	.p2align 4,,15
	.globl	_ZN11ImFontAtlas30AddFontFromMemoryCompressedTTFEPKvifPK12ImFontConfigPKt
	.def	_ZN11ImFontAtlas30AddFontFromMemoryCompressedTTFEPKvifPK12ImFontConfigPKt;	.scl	2;	.type	32;	.endef
	.seh_proc	_ZN11ImFontAtlas30AddFontFromMemoryCompressedTTFEPKvifPK12ImFontConfigPKt
_ZN11ImFontAtlas30AddFontFromMemoryCompressedTTFEPKvifPK12ImFontConfigPKt:
.LFB472:
	pushq	%r15
	.seh_pushreg	%r15
	pushq	%r14
	.seh_pushreg	%r14
	pushq	%r13
	.seh_pushreg	%r13
	pushq	%r12
	.seh_pushreg	%r12
	pushq	%rbp
	.seh_pushreg	%rbp
	pushq	%rdi
	.seh_pushreg	%rdi
	pushq	%rsi
	.seh_pushreg	%rsi
	pushq	%rbx
	.seh_pushreg	%rbx
	subq	$296, %rsp
	.seh_stackalloc	296
	movaps	%xmm6, 272(%rsp)
	.seh_savexmm	%xmm6, 272
	.seh_endprologue
	movq	%rcx, %r15
	movq	%rdx, %rsi
	movzbl	8(%rdx), %eax
	movaps	%xmm3, %xmm6
	movq	408(%rsp), %r13
	sall	$24, %eax
	movl	%eax, %ebx
	movzbl	9(%rdx), %eax
	sall	$16, %eax
	addl	%ebx, %eax
	movzbl	10(%rdx), %ebx
	sall	$8, %ebx
	addl	%ebx, %eax
	movzbl	11(%rdx), %ebx
	leal	(%rbx,%rax), %ecx
	movq	%rcx, %rbx
	call	_ZN5ImGui8MemAllocEy
	movzbl	2(%rsi), %edx
	movq	%rax, %r14
	movzbl	3(%rsi), %ecx
	movzbl	1(%rsi), %eax
	sall	$8, %edx
	sall	$16, %eax
	addl	%ecx, %edx
	addl	%eax, %edx
	movzbl	(%rsi), %eax
	sall	$24, %eax
	addl	%edx, %eax
	cmpl	$1471938560, %eax
	je	.L2204
.L2132:
	cmpq	$0, 400(%rsp)
	je	.L2172
	leaq	48(%rsp), %r12
	movl	$14, %ecx
	movq	400(%rsp), %rsi
	movq	%r12, %rdi
	rep movsq
	cmpq	$0, 48(%rsp)
	je	.L2173
	leaq	.LC5(%rip), %rdx
	leaq	.LC69(%rip), %rcx
	leaq	160(%rsp), %rbp
	movl	$1255, %r8d
	movq	%r12, %rsi
	call	_assert
	movq	%rbp, %rdi
	movb	$1, 60(%rsp)
	movl	$14, %ecx
	leaq	.LC5(%rip), %rdx
	movl	$1239, %r8d
	rep movsq
	leaq	.LC69(%rip), %rcx
	call	_assert
.L2176:
	testq	%r13, %r13
	movq	%r14, 160(%rsp)
	movl	%ebx, 168(%rsp)
	movss	%xmm6, 180(%rsp)
	je	.L2175
	movq	%r13, 216(%rsp)
.L2175:
	movq	%rbp, %rdx
	movq	%r15, %rcx
	call	_ZN11ImFontAtlas7AddFontEPK12ImFontConfig
	movaps	272(%rsp), %xmm6
	addq	$296, %rsp
	popq	%rbx
	popq	%rsi
	popq	%rdi
	popq	%rbp
	popq	%r12
	popq	%r13
	popq	%r14
	popq	%r15
	ret
	.p2align 4,,7
.L2204:
	movzbl	6(%rsi), %eax
	movzbl	7(%rsi), %ecx
	sall	$8, %eax
	leal	(%rax,%rcx), %edx
	movzbl	5(%rsi), %eax
	sall	$16, %eax
	addl	%edx, %eax
	movzbl	4(%rsi), %edx
	sall	$24, %edx
	addl	%edx, %eax
	jne	.L2132
	movzbl	8(%rsi), %edx
	movzbl	9(%rsi), %eax
	leaq	16(%rsi), %rbp
	movq	%rsi, _ZL13stb__barrier2(%rip)
	movq	%r14, _ZL13stb__barrier4(%rip)
	movq	%r14, _ZL9stb__dout(%rip)
	sall	$16, %eax
	sall	$24, %edx
	addl	%eax, %edx
	movzbl	10(%rsi), %eax
	sall	$8, %eax
	addl	%edx, %eax
	movzbl	11(%rsi), %edx
	leal	(%rax,%rdx), %r12d
	movl	%r12d, 44(%rsp)
	addq	%r14, %r12
	movq	%r12, _ZL12stb__barrier(%rip)
	jmp	.L2170
	.p2align 4,,7
.L2207:
	testb	%al, %al
	js	.L2205
	cmpb	$63, %al
	jbe	.L2137
	movzbl	1(%rbp), %ecx
	sall	$8, %eax
	movzbl	2(%rbp), %edx
	leaq	3(%rbp), %rsi
	addl	%ecx, %eax
	movl	$16383, %ecx
	incl	%edx
	cltq
	subq	%rax, %rcx
	addq	_ZL9stb__dout(%rip), %rcx
	call	_ZL10stb__matchPhj
.L2136:
	cmpq	%rsi, %rbp
	je	.L2206
	cmpq	_ZL9stb__dout(%rip), %r12
	jb	.L2169
.L2171:
	movq	%rsi, %rbp
.L2170:
	movzbl	0(%rbp), %eax
	cmpb	$31, %al
	ja	.L2207
	cmpb	$23, %al
	ja	.L2208
	cmpb	$15, %al
	ja	.L2209
	cmpb	$7, %al
	.p2align 4,,5
	ja	.L2210
	.p2align 4,,7
	je	.L2211
	cmpb	$6, %al
	.p2align 4,,7
	je	.L2212
	cmpb	$4, %al
	.p2align 4,,7
	je	.L2213
.L2162:
	cmpb	$5, %al
	.p2align 4,,5
	jne	.L2164
	cmpb	$-6, 1(%rbp)
	.p2align 4,,3
	je	.L2214
.L2164:
	leaq	.LC5(%rip), %rdx
	leaq	.LC7(%rip), %rcx
