	.file	"imgui.cpp"
	.text
	.p2align 4,,15
	.def	_ZL19ChildWindowComparerPKvS0_;	.scl	3;	.type	32;	.endef
	.seh_proc	_ZL19ChildWindowComparerPKvS0_
_ZL19ChildWindowComparerPKvS0_:
.LFB680:
	.seh_endprologue
	movq	(%rcx), %r10
	movq	(%rdx), %r9
	movl	12(%r10), %ecx
	movl	12(%r9), %edx
	movl	%ecx, %eax
	movl	%edx, %r8d
	andl	$33554432, %eax
	andl	$33554432, %r8d
	subl	%r8d, %eax
	jne	.L1
	movl	%ecx, %eax
	movl	%edx, %r8d
	andl	$16777216, %eax
	andl	$16777216, %r8d
	subl	%r8d, %eax
	jne	.L1
	movl	%ecx, %eax
	andl	$8388608, %edx
	andl	$8388608, %eax
	subl	%edx, %eax
	jne	.L1
	movl	16(%r10), %eax
	subl	16(%r9), %eax
.L1:
	ret
	.seh_endproc
	.p2align 4,,15
	.def	_ZL22FindBestPopupWindowPosRK6ImVec2S1_PiRK6ImRect;	.scl	3;	.type	32;	.endef
	.seh_proc	_ZL22FindBestPopupWindowPosRK6ImVec2S1_PiRK6ImRect
_ZL22FindBestPopupWindowPosRK6ImVec2S1_PiRK6ImRect:
.LFB763:
	subq	$168, %rsp
	.seh_stackalloc	168
	movaps	%xmm6, (%rsp)
	.seh_savexmm	%xmm6, 0
	movaps	%xmm7, 16(%rsp)
	.seh_savexmm	%xmm7, 16
	movaps	%xmm8, 32(%rsp)
	.seh_savexmm	%xmm8, 32
	movaps	%xmm9, 48(%rsp)
	.seh_savexmm	%xmm9, 48
	movaps	%xmm10, 64(%rsp)
	.seh_savexmm	%xmm10, 64
	movaps	%xmm11, 80(%rsp)
	.seh_savexmm	%xmm11, 80
	movaps	%xmm12, 96(%rsp)
	.seh_savexmm	%xmm12, 96
	movaps	%xmm13, 112(%rsp)
	.seh_savexmm	%xmm13, 112
	movaps	%xmm14, 128(%rsp)
	.seh_savexmm	%xmm14, 128
	movaps	%xmm15, 144(%rsp)
	.seh_savexmm	%xmm15, 144
	.seh_endprologue
	movq	GImGui(%rip), %rax
	movss	176(%rax), %xmm4
	movss	184(%rax), %xmm3
	movss	5232(%rax), %xmm2
	ucomiss	%xmm4, %xmm3
	movss	5236(%rax), %xmm0
	jp	.L61
	jne	.L61
.L5:
	movss	12(%rax), %xmm10
	pxor	%xmm1, %xmm1
	pxor	%xmm4, %xmm4
	movss	8(%rax), %xmm3
.L7:
	movaps	%xmm10, %xmm5
	movss	4(%rdx), %xmm7
	subss	%xmm1, %xmm5
	movaps	%xmm7, %xmm6
	subss	%xmm5, %xmm6
	movaps	%xmm0, %xmm5
	addss	%xmm0, %xmm5
	ucomiss	%xmm5, %xmm6
	jbe	.L76
	subss	%xmm0, %xmm10
.L8:
	movaps	%xmm3, %xmm5
	movss	(%rdx), %xmm6
	subss	%xmm4, %xmm5
	movaps	%xmm6, %xmm8
	subss	%xmm5, %xmm8
	movaps	%xmm2, %xmm5
	addss	%xmm2, %xmm5
	ucomiss	%xmm5, %xmm8
	jbe	.L77
	subss	%xmm2, %xmm3
.L10:
	addss	%xmm0, %xmm1
	movss	4(%rcx), %xmm11
	movaps	%xmm10, %xmm14
	movaps	%xmm3, %xmm15
	addss	%xmm4, %xmm2
	subss	%xmm7, %xmm14
	ucomiss	%xmm11, %xmm1
	movaps	%xmm1, %xmm9
	subss	%xmm6, %xmm15
	ja	.L12
	movaps	%xmm14, %xmm9
	minss	%xmm11, %xmm9
.L12:
	movss	(%rcx), %xmm12
	movaps	%xmm2, %xmm0
	ucomiss	%xmm12, %xmm2
	ja	.L14
	movaps	%xmm15, %xmm0
	minss	%xmm12, %xmm0
.L14:
	movl	(%r8), %eax
	xorl	%ecx, %ecx
	cmpl	$-1, %eax
	setne	%cl
	jne	.L85
	xorl	%edx, %edx
.L79:
	movss	8(%r9), %xmm8
	movaps	%xmm1, %xmm13
	movaps	%xmm3, %xmm4
	movaps	%xmm10, %xmm5
.L18:
	subss	%xmm8, %xmm4
	ucomiss	%xmm4, %xmm6
	ja	.L21
	subss	%xmm13, %xmm5
	ucomiss	%xmm5, %xmm7
	ja	.L21
.L22:
	cmpl	$1, %edx
	movl	%edx, (%r8)
	je	.L52
.L33:
	cmpl	$2, %edx
	je	.L86
.L35:
	testl	%edx, %edx
	jne	.L36
	movss	8(%r9), %xmm0
.L34:
	movd	%xmm9, %eax
	movd	%xmm0, %edx
	movq	%rax, %rcx
	movl	%edx, %eax
	salq	$32, %rcx
	orq	%rcx, %rax
.L81:
	movaps	(%rsp), %xmm6
	movaps	16(%rsp), %xmm7
	movaps	32(%rsp), %xmm8
	movaps	48(%rsp), %xmm9
	movaps	64(%rsp), %xmm10
	movaps	80(%rsp), %xmm11
	movaps	96(%rsp), %xmm12
	movaps	112(%rsp), %xmm13
	movaps	128(%rsp), %xmm14
	movaps	144(%rsp), %xmm15
	addq	$168, %rsp
	ret
	.p2align 4,,10
.L61:
	movss	180(%rax), %xmm1
	movss	188(%rax), %xmm10
	ucomiss	%xmm1, %xmm10
	jp	.L7
	jne	.L7
	jmp	.L5
	.p2align 4,,10
.L21:
	movl	$1, %edx
	subl	%ecx, %edx
	cmpl	$1, %edx
	jne	.L87
	movss	12(%r9), %xmm5
	movaps	%xmm2, %xmm4
.L23:
	movaps	%xmm3, %xmm13
	subss	%xmm4, %xmm13
	ucomiss	%xmm13, %xmm6
	ja	.L24
	movaps	%xmm10, %xmm4
	subss	%xmm5, %xmm4
	ucomiss	%xmm4, %xmm7
	ja	.L24
	cmpl	$1, %edx
	movl	%edx, (%r8)
	jne	.L35
.L52:
	movss	12(%r9), %xmm9
	jmp	.L34
	.p2align 4,,10
.L77:
	pxor	%xmm2, %xmm2
	jmp	.L10
	.p2align 4,,10
.L76:
	pxor	%xmm0, %xmm0
	jmp	.L8
	.p2align 4,,10
.L24:
	movl	$2, %edx
	subl	%ecx, %edx
	cmpl	$2, %edx
	jne	.L88
	movss	4(%r9), %xmm4
	movaps	%xmm1, %xmm8
.L26:
	movaps	%xmm3, %xmm5
	subss	%xmm2, %xmm5
	ucomiss	%xmm5, %xmm6
	ja	.L27
	subss	%xmm8, %xmm4
	ucomiss	%xmm4, %xmm7
	jbe	.L22
.L27:
	movl	$3, %edx
	subl	%ecx, %edx
	cmpl	$2, %edx
	jne	.L89
	movss	4(%r9), %xmm5
	movaps	%xmm3, %xmm4
.L28:
	subss	%xmm2, %xmm4
	ucomiss	%xmm4, %xmm6
	ja	.L29
	movaps	%xmm5, %xmm4
	subss	%xmm1, %xmm4
	ucomiss	%xmm4, %xmm7
	ja	.L29
.L30:
	movl	%edx, (%r8)
	jmp	.L33
.L87:
	movss	8(%r9), %xmm4
	movaps	%xmm1, %xmm5
	jmp	.L23
	.p2align 4,,10
.L88:
	movss	12(%r9), %xmm8
	movaps	%xmm10, %xmm4
	jmp	.L26
	.p2align 4,,10
.L29:
	cmpl	$-1, %eax
	je	.L32
	movss	(%r9), %xmm4
	subss	%xmm2, %xmm4
	ucomiss	%xmm4, %xmm6
	ja	.L32
	movaps	%xmm10, %xmm4
	movl	$3, %edx
	subss	%xmm1, %xmm4
	ucomiss	%xmm4, %xmm7
	jbe	.L30
.L32:
	addss	%xmm6, %xmm12
	movl	$-1, (%r8)
	ucomiss	%xmm12, %xmm3
	jbe	.L38
	subss	%xmm6, %xmm12
	movaps	%xmm12, %xmm15
.L38:
	ucomiss	%xmm2, %xmm15
	jb	.L40
	movaps	%xmm15, %xmm2
.L40:
	addss	%xmm7, %xmm11
	ucomiss	%xmm11, %xmm10
	jbe	.L42
	subss	%xmm7, %xmm11
	movaps	%xmm11, %xmm14
.L42:
	ucomiss	%xmm1, %xmm14
	jb	.L44
	movaps	%xmm14, %xmm1
.L44:
	movd	%xmm1, %eax
	movd	%xmm2, %edx
	movq	%rax, %rcx
	movl	%edx, %eax
	salq	$32, %rcx
	orq	%rcx, %rax
	jmp	.L81
	.p2align 4,,10
.L86:
	movss	4(%r9), %xmm9
	subss	%xmm7, %xmm9
	jmp	.L34
	.p2align 4,,10
.L89:
	movss	(%r9), %xmm4
	movaps	%xmm10, %xmm5
	jmp	.L28
	.p2align 4,,10
.L85:
	cmpl	$2, %eax
	jne	.L90
	movss	4(%r9), %xmm5
	movl	$2, %edx
	movaps	%xmm1, %xmm13
	movaps	%xmm3, %xmm4
	movaps	%xmm2, %xmm8
	jmp	.L18
.L36:
	cmpl	$3, %edx
	jne	.L34
	movss	(%r9), %xmm0
	subss	%xmm6, %xmm0
	jmp	.L34
.L90:
	cmpl	$3, %eax
	movl	%eax, %edx
	jne	.L91
	movss	(%r9), %xmm4
	movaps	%xmm1, %xmm13
	movaps	%xmm10, %xmm5
	movaps	%xmm2, %xmm8
	jmp	.L18
.L91:
	cmpl	$1, %eax
	jne	.L20
	movss	12(%r9), %xmm13
	movaps	%xmm3, %xmm4
	movaps	%xmm10, %xmm5
	movaps	%xmm2, %xmm8
	jmp	.L18
.L20:
	testl	%eax, %eax
	je	.L79
	movaps	%xmm1, %xmm13
	movaps	%xmm3, %xmm4
	movaps	%xmm10, %xmm5
	movaps	%xmm2, %xmm8
	jmp	.L18
	.seh_endproc
	.p2align 4,,15
	.def	_ZL27ApplySizeFullWithConstraintP11ImGuiWindow6ImVec2;	.scl	3;	.type	32;	.endef
	.seh_proc	_ZL27ApplySizeFullWithConstraintP11ImGuiWindow6ImVec2
_ZL27ApplySizeFullWithConstraintP11ImGuiWindow6ImVec2:
.LFB766:
	pushq	%rsi
	.seh_pushreg	%rsi
	pushq	%rbx
	.seh_pushreg	%rbx
	subq	$88, %rsp
	.seh_stackalloc	88
	movaps	%xmm6, 64(%rsp)
	.seh_savexmm	%xmm6, 64
	.seh_endprologue
	movq	GImGui(%rip), %rbx
	movd	%edx, %xmm1
	shrq	$32, %rdx
	cmpb	$0, 6296(%rbx)
	movq	%rcx, %rsi
	movd	%edx, %xmm0
	je	.L93
	movss	6260(%rbx), %xmm3
	pxor	%xmm2, %xmm2
	movss	6264(%rbx), %xmm4
	ucomiss	%xmm2, %xmm3
	movss	6268(%rbx), %xmm6
	movss	6272(%rbx), %xmm5
	jb	.L94
	ucomiss	%xmm2, %xmm6
	jb	.L94
	ucomiss	%xmm1, %xmm3
	ja	.L97
	minss	%xmm1, %xmm6
	ucomiss	%xmm2, %xmm4
	movaps	%xmm6, %xmm3
	jnb	.L111
	.p2align 4,,10
.L98:
	movss	48(%rsi), %xmm4
.L101:
	movq	6280(%rbx), %rax
	testq	%rax, %rax
	je	.L106
	movq	6288(%rbx), %rdx
	movss	%xmm3, 56(%rsp)
	leaq	32(%rsp), %rcx
	movss	%xmm4, 60(%rsp)
	movq	%rdx, 32(%rsp)
	movq	28(%rsi), %rdx
	movq	%rdx, 40(%rsp)
	movq	44(%rsi), %rdx
	movq	%rdx, 48(%rsp)
	call	*%rax
	movss	56(%rsp), %xmm1
	movss	60(%rsp), %xmm0
.L93:
	testl	$1048640, 12(%rsi)
	jne	.L102
	movss	5136(%rbx), %xmm2
	ucomiss	%xmm2, %xmm0
	jb	.L112
	movss	5132(%rbx), %xmm2
	ucomiss	%xmm2, %xmm1
	jnb	.L102
.L113:
	movaps	%xmm2, %xmm1
.L102:
	movaps	64(%rsp), %xmm6
	movss	%xmm1, 44(%rsi)
	movss	%xmm0, 48(%rsi)
	addq	$88, %rsp
	popq	%rbx
	popq	%rsi
	ret
	.p2align 4,,10
.L112:
	movaps	%xmm2, %xmm0
	movss	5132(%rbx), %xmm2
	ucomiss	%xmm2, %xmm1
	jb	.L113
	jmp	.L102
	.p2align 4,,10
.L94:
	movss	44(%rsi), %xmm3
.L97:
	ucomiss	%xmm2, %xmm4
	jb	.L98
.L111:
	ucomiss	%xmm2, %xmm5
	jb	.L98
	ucomiss	%xmm0, %xmm4
	ja	.L101
	minss	%xmm0, %xmm5
	movaps	%xmm5, %xmm4
	jmp	.L101
	.p2align 4,,10
.L106:
	movaps	%xmm4, %xmm0
	movaps	%xmm3, %xmm1
	jmp	.L93
	.seh_endproc
	.p2align 4,,15
	.def	_ZL16Plot_ArrayGetterPvi;	.scl	3;	.type	32;	.endef
	.seh_proc	_ZL16Plot_ArrayGetterPvi
_ZL16Plot_ArrayGetterPvi:
.LFB957:
	.seh_endprologue
	movslq	8(%rcx), %rax
	movslq	%edx, %rdx
	imulq	%rax, %rdx
	movq	(%rcx), %rax
	movss	(%rax,%rdx), %xmm0
	ret
	.seh_endproc
	.p2align 4,,15
	.def	_ZL17Items_ArrayGetterPviPPKc;	.scl	3;	.type	32;	.endef
	.seh_proc	_ZL17Items_ArrayGetterPviPPKc
_ZL17Items_ArrayGetterPviPPKc:
.LFB1024:
	.seh_endprologue
	testq	%r8, %r8
	je	.L116
	movslq	%edx, %rdx
	movq	(%rcx,%rdx,8), %rax
	movq	%rax, (%r8)
.L116:
	movl	$1, %eax
	ret
	.seh_endproc
	.p2align 4,,15
	.def	__tcf_0;	.scl	3;	.type	32;	.endef
	.seh_proc	__tcf_0
__tcf_0:
.LFB6218:
	.seh_endprologue
	movq	8+_ZZL30GetClipboardTextFn_DefaultImplPvE9buf_local(%rip), %rcx
	testq	%rcx, %rcx
	je	.L120
	movq	GImGui(%rip), %rax
	subl	$1, 844(%rax)
	rex.W jmp	*240(%rax)
	.p2align 4,,10
.L120:
	ret
	.def	__gxx_personality_seh0;	.scl	2;	.type	32;	.endef
	.seh_handler	__gxx_personality_seh0, @unwind, @except
	.seh_handlerdata
.LLSDA6218:
	.byte	0xff
	.byte	0xff
	.byte	0x1
	.uleb128 .LLSDACSE6218-.LLSDACSB6218
.LLSDACSB6218:
.LLSDACSE6218:
	.text
	.seh_endproc
	.p2align 4,,15
	.def	_ZL34ImeSetInputScreenPosFn_DefaultImplii;	.scl	3;	.type	32;	.endef
	.seh_proc	_ZL34ImeSetInputScreenPosFn_DefaultImplii
_ZL34ImeSetInputScreenPosFn_DefaultImplii:
.LFB6220:
	.seh_endprologue
	ret
	.seh_endproc
	.p2align 4,,15
	.def	_ZL24Items_SingleStringGetterPviPPKc;	.scl	3;	.type	32;	.endef
	.seh_proc	_ZL24Items_SingleStringGetterPviPPKc
_ZL24Items_SingleStringGetterPviPPKc:
.LFB1025:
	pushq	%rbp
	.seh_pushreg	%rbp
	pushq	%rdi
	.seh_pushreg	%rdi
	pushq	%rsi
	.seh_pushreg	%rsi
	pushq	%rbx
	.seh_pushreg	%rbx
	subq	$40, %rsp
	.seh_stackalloc	40
	.seh_endprologue
	cmpb	$0, (%rcx)
	movq	%rcx, %rbx
	movq	%r8, %rbp
	je	.L130
	testl	%edx, %edx
	je	.L125
	leal	-1(%rdx), %edi
	xorl	%esi, %esi
	addq	$1, %rdi
	jmp	.L126
	.p2align 4,,10
.L134:
	addq	$1, %rsi
	cmpq	%rsi, %rdi
	je	.L125
.L126:
	movq	%rbx, %rcx
	call	strlen
	leaq	1(%rbx,%rax), %rbx
	cmpb	$0, (%rbx)
	jne	.L134
.L130:
	xorl	%eax, %eax
	addq	$40, %rsp
	popq	%rbx
	popq	%rsi
	popq	%rdi
	popq	%rbp
	ret
	.p2align 4,,10
.L125:
	testq	%rbp, %rbp
	je	.L135
	movl	$1, %eax
	movq	%rbx, 0(%rbp)
	addq	$40, %rsp
	popq	%rbx
	popq	%rsi
	popq	%rdi
	popq	%rbp
	ret
	.p2align 4,,10
.L135:
	movl	$1, %eax
	addq	$40, %rsp
	popq	%rbx
	popq	%rsi
	popq	%rdi
	popq	%rbp
	ret
	.seh_endproc
	.section .rdata,"dr"
	.align 8
.LC2:
	.ascii "C:/libraries/include/imgui/imgui.h\0"
.LC3:
	.ascii "i < Size\0"
	.text
	.p2align 4,,15
	.def	_ZN8ImGuiStbL21STB_TEXTEDIT_GETWIDTHEP18ImGuiTextEditStateii;	.scl	3;	.type	32;	.endef
	.seh_proc	_ZN8ImGuiStbL21STB_TEXTEDIT_GETWIDTHEP18ImGuiTextEditStateii
_ZN8ImGuiStbL21STB_TEXTEDIT_GETWIDTHEP18ImGuiTextEditStateii:
.LFB971:
	pushq	%rsi
	.seh_pushreg	%rsi
	pushq	%rbx
	.seh_pushreg	%rbx
	subq	$40, %rsp
	.seh_stackalloc	40
	.seh_endprologue
	leal	(%rdx,%r8), %ebx
	cmpl	8(%rcx), %ebx
	movq	%rcx, %rsi
	jge	.L142
.L137:
	movq	16(%rsi), %rax
	movslq	%ebx, %rbx
	movzwl	(%rax,%rbx,2), %eax
	cmpw	$10, %ax
	je	.L141
	movq	GImGui(%rip), %rcx
	movzwl	%ax, %r8d
	movq	5936(%rcx), %rdx
	cmpl	32(%rdx), %r8d
	jl	.L143
	movss	72(%rdx), %xmm1
.L140:
	movss	5944(%rcx), %xmm0
	divss	(%rdx), %xmm0
	mulss	%xmm1, %xmm0
	addq	$40, %rsp
	popq	%rbx
	popq	%rsi
	ret
	.p2align 4,,10
.L143:
	movq	40(%rdx), %r8
	movss	(%r8,%rax,4), %xmm1
	jmp	.L140
	.p2align 4,,10
.L142:
	leaq	.LC2(%rip), %rdx
	movl	$856, %r8d
	leaq	.LC3(%rip), %rcx
	call	_assert
	jmp	.L137
	.p2align 4,,10
.L141:
	movss	.LC1(%rip), %xmm0
	addq	$40, %rsp
	popq	%rbx
	popq	%rsi
	ret
	.seh_endproc
	.p2align 4,,15
	.def	_ZL17FindHoveredWindow6ImVec2b;	.scl	3;	.type	32;	.endef
	.seh_proc	_ZL17FindHoveredWindow6ImVec2b
_ZL17FindHoveredWindow6ImVec2b:
.LFB700:
	pushq	%rbp
	.seh_pushreg	%rbp
	pushq	%rdi
	.seh_pushreg	%rdi
	pushq	%rsi
	.seh_pushreg	%rsi
	pushq	%rbx
	.seh_pushreg	%rbx
	subq	$56, %rsp
	.seh_stackalloc	56
	movaps	%xmm6, 32(%rsp)
	.seh_savexmm	%xmm6, 32
	.seh_endprologue
	movq	GImGui(%rip), %rsi
	movl	5976(%rsi), %eax
	movq	%rcx, %rbp
	movl	%eax, %ebx
	subl	$1, %ebx
	js	.L145
	movslq	%ebx, %rdi
	shrq	$32, %rcx
	salq	$3, %rdi
	testb	%dl, %dl
	movd	%ecx, %xmm6
	je	.L154
	cmpl	%eax, %ebx
	jge	.L173
	.p2align 4,,10
.L155:
	movq	5984(%rsi), %rax
	movq	(%rax,%rdi), %rax
	cmpb	$0, 136(%rax)
	je	.L156
	movl	12(%rax), %edx
	testb	$2, %dh
	jne	.L156
	andl	$1048576, %edx
	jne	.L156
	movss	5184(%rsi), %xmm1
	movd	%ebp, %xmm2
	movss	528(%rax), %xmm0
	subss	%xmm1, %xmm0
	ucomiss	%xmm0, %xmm2
	jb	.L156
	movss	5188(%rsi), %xmm3
	movss	532(%rax), %xmm0
	subss	%xmm3, %xmm0
	ucomiss	%xmm0, %xmm6
	jb	.L156
	addss	536(%rax), %xmm1
	ucomiss	%xmm2, %xmm1
	ja	.L174
	.p2align 4,,10
.L156:
	subl	$1, %ebx
	subq	$8, %rdi
	cmpl	$-1, %ebx
	je	.L145
	movl	5976(%rsi), %eax
	cmpl	%eax, %ebx
	jl	.L155
.L173:
	leaq	.LC2(%rip), %rdx
	movl	$856, %r8d
	leaq	.LC3(%rip), %rcx
	call	_assert
	jmp	.L155
	.p2align 4,,10
.L176:
	addss	540(%rax), %xmm3
	ucomiss	%xmm6, %xmm3
	ja	.L144
	.p2align 4,,10
.L148:
	subl	$1, %ebx
	subq	$8, %rdi
	cmpl	$-1, %ebx
	je	.L145
	movl	5976(%rsi), %eax
.L154:
	cmpl	%ebx, %eax
	jle	.L175
.L147:
	movq	5984(%rsi), %rax
	movq	(%rax,%rdi), %rax
	cmpb	$0, 136(%rax)
	je	.L148
	testb	$2, 13(%rax)
	jne	.L148
	movss	5184(%rsi), %xmm1
	movd	%ebp, %xmm2
	movss	528(%rax), %xmm0
	subss	%xmm1, %xmm0
	ucomiss	%xmm0, %xmm2
	jb	.L148
	movss	5188(%rsi), %xmm3
	movss	532(%rax), %xmm0
	subss	%xmm3, %xmm0
	ucomiss	%xmm0, %xmm6
	jb	.L148
	addss	536(%rax), %xmm1
	ucomiss	%xmm2, %xmm1
	jbe	.L148
	jmp	.L176
	.p2align 4,,10
.L175:
	leaq	.LC2(%rip), %rdx
	movl	$856, %r8d
	leaq	.LC3(%rip), %rcx
	call	_assert
	jmp	.L147
	.p2align 4,,10
.L145:
	xorl	%eax, %eax
.L144:
	movaps	32(%rsp), %xmm6
	addq	$56, %rsp
	popq	%rbx
	popq	%rsi
	popq	%rdi
	popq	%rbp
	ret
	.p2align 4,,10
.L174:
	addss	540(%rax), %xmm3
	ucomiss	%xmm6, %xmm3
	jbe	.L156
	jmp	.L144
	.seh_endproc
	.section .rdata,"dr"
.LC4:
	.ascii "Size > 0\0"
	.align 8
.LC5:
	.ascii "C:/libraries/include/imgui/imgui.cpp\0"
	.align 8
.LC6:
	.ascii "draw_list->VtxBuffer.Size == 0 || draw_list->_VtxWritePtr == draw_list->VtxBuffer.Data + draw_list->VtxBuffer.Size\0"
	.align 8
.LC7:
	.ascii "draw_list->IdxBuffer.Size == 0 || draw_list->_IdxWritePtr == draw_list->IdxBuffer.Data + draw_list->IdxBuffer.Size\0"
	.align 8
.LC8:
	.ascii "(int)draw_list->_VtxCurrentIdx == draw_list->VtxBuffer.Size\0"
	.align 8
.LC9:
	.ascii "(int64_t)draw_list->_VtxCurrentIdx <= ((int64_t)1L << (sizeof(ImDrawIdx)*8))\0"
	.text
	.p2align 4,,15
	.def	_ZL23AddDrawListToRenderListR8ImVectorIP10ImDrawListES1_;	.scl	3;	.type	32;	.endef
	.seh_proc	_ZL23AddDrawListToRenderListR8ImVectorIP10ImDrawListES1_
_ZL23AddDrawListToRenderListR8ImVectorIP10ImDrawListES1_:
.LFB682:
	pushq	%rbp
	.seh_pushreg	%rbp
	pushq	%rdi
	.seh_pushreg	%rdi
	pushq	%rsi
	.seh_pushreg	%rsi
	pushq	%rbx
	.seh_pushreg	%rbx
	subq	$40, %rsp
	.seh_stackalloc	40
	.seh_endprologue
	movl	(%rdx), %eax
	cmpl	$0, %eax
	movq	%rcx, %rsi
	movq	%rdx, %rbx
	jne	.L209
.L177:
	addq	$40, %rsp
	popq	%rbx
	popq	%rsi
	popq	%rdi
	popq	%rbp
	ret
	.p2align 4,,10
.L209:
	jle	.L210
.L180:
	movq	8(%rbx), %rcx
	movslq	%eax, %rdx
	leaq	(%rdx,%rdx,2), %rdx
	salq	$4, %rdx
	leaq	-48(%rcx,%rdx), %rdx
	movl	(%rdx), %ecx
	testl	%ecx, %ecx
	jne	.L184
	cmpq	$0, 32(%rdx)
	jne	.L184
	testl	%eax, %eax
	jle	.L211
.L185:
	subl	$1, %eax
	testl	%eax, %eax
	movl	%eax, (%rbx)
	je	.L177
	.p2align 4,,10
.L184:
	movslq	32(%rbx), %rax
	testl	%eax, %eax
	je	.L182
	leaq	(%rax,%rax,4), %rdx
	movq	40(%rbx), %rax
	leaq	(%rax,%rdx,4), %rax
	cmpq	%rax, 64(%rbx)
	je	.L182
	leaq	.LC5(%rip), %rdx
	movl	$2601, %r8d
	leaq	.LC6(%rip), %rcx
	call	_assert
.L182:
	movslq	16(%rbx), %rax
	testl	%eax, %eax
	je	.L187
	movq	24(%rbx), %rdx
	leaq	(%rdx,%rax,2), %rax
	cmpq	%rax, 72(%rbx)
	je	.L187
	leaq	.LC5(%rip), %rdx
	movl	$2602, %r8d
	leaq	.LC7(%rip), %rcx
	call	_assert
.L187:
	movl	56(%rbx), %eax
	cmpl	32(%rbx), %eax
	jne	.L212
	cmpl	$65536, %eax
	ja	.L213
.L189:
	movslq	(%rsi), %rax
	cmpl	4(%rsi), %eax
	je	.L190
.L214:
	movq	8(%rsi), %rdi
.L191:
	leal	1(%rax), %edx
	movl	%edx, (%rsi)
	movl	32(%rbx), %edx
	movq	%rbx, (%rdi,%rax,8)
	movq	GImGui(%rip), %rax
	addl	%edx, 848(%rax)
	movl	16(%rbx), %edx
	addl	%edx, 852(%rax)
	addq	$40, %rsp
	popq	%rbx
	popq	%rsi
	popq	%rdi
	popq	%rbp
	ret
	.p2align 4,,10
.L212:
	leaq	.LC5(%rip), %rdx
	movl	$2603, %r8d
	leaq	.LC8(%rip), %rcx
	call	_assert
	movl	56(%rbx), %eax
	cmpl	$65536, %eax
	jbe	.L189
.L213:
	leaq	.LC5(%rip), %rdx
	movl	$2607, %r8d
	leaq	.LC9(%rip), %rcx
	call	_assert
	movslq	(%rsi), %rax
	cmpl	4(%rsi), %eax
	jne	.L214
.L190:
	leal	1(%rax), %ebp
	testl	%eax, %eax
	movl	$8, %edx
	je	.L192
	movl	%eax, %edx
	shrl	$31, %edx
	addl	%eax, %edx
	sarl	%edx
	addl	%eax, %edx
.L192:
	cmpl	%edx, %ebp
	movq	GImGui(%rip), %rax
	cmovl	%edx, %ebp
	movslq	%ebp, %rcx
	addl	$1, 844(%rax)
	salq	$3, %rcx
	call	*232(%rax)
	movq	8(%rsi), %rcx
	movq	%rax, %rdi
	movq	GImGui(%rip), %rax
	testq	%rcx, %rcx
	je	.L195
	movslq	(%rsi), %r8
	movq	%rcx, %rdx
	movq	%rdi, %rcx
	salq	$3, %r8
	call	memcpy
	movq	8(%rsi), %rcx
	movq	GImGui(%rip), %rax
	testq	%rcx, %rcx
	je	.L195
	subl	$1, 844(%rax)
.L195:
	call	*240(%rax)
	movq	%rdi, 8(%rsi)
	movslq	(%rsi), %rax
	movl	%ebp, 4(%rsi)
	jmp	.L191
	.p2align 4,,10
.L210:
	leaq	.LC2(%rip), %rdx
	movl	$866, %r8d
	leaq	.LC4(%rip), %rcx
	call	_assert
	movl	(%rbx), %eax
	jmp	.L180
	.p2align 4,,10
.L211:
	leaq	.LC2(%rip), %rdx
	movl	$885, %r8d
	leaq	.LC4(%rip), %rcx
	call	_assert
	movl	(%rbx), %eax
	jmp	.L185
	.seh_endproc
	.p2align 4,,15
	.def	_ZL21AddWindowToRenderListR8ImVectorIP10ImDrawListEP11ImGuiWindow;	.scl	3;	.type	32;	.endef
	.seh_proc	_ZL21AddWindowToRenderListR8ImVectorIP10ImDrawListEP11ImGuiWindow
_ZL21AddWindowToRenderListR8ImVectorIP10ImDrawListEP11ImGuiWindow:
.LFB683:
	pushq	%rdi
	.seh_pushreg	%rdi
	pushq	%rsi
	.seh_pushreg	%rsi
	pushq	%rbx
	.seh_pushreg	%rbx
	subq	$32, %rsp
	.seh_stackalloc	32
	.seh_endprologue
	movq	%rdx, %rsi
	movq	656(%rdx), %rdx
	movq	%rcx, %rdi
	call	_ZL23AddDrawListToRenderListR8ImVectorIP10ImDrawListES1_
	movl	280(%rsi), %eax
	testl	%eax, %eax
	jle	.L215
	xorl	%ebx, %ebx
.L219:
	movq	288(%rsi), %rdx
	movq	(%rdx,%rbx,8), %rdx
	cmpb	$0, 136(%rdx)
	je	.L217
	testb	$2, 15(%rdx)
	je	.L218
	movl	168(%rdx), %ecx
	testl	%ecx, %ecx
	jle	.L218
.L217:
	leal	1(%rbx), %edx
	addq	$1, %rbx
	cmpl	%eax, %edx
	jl	.L219
.L215:
	addq	$32, %rsp
	popq	%rbx
	popq	%rsi
	popq	%rdi
	ret
	.p2align 4,,10
.L218:
	movq	%rdi, %rcx
	call	_ZL21AddWindowToRenderListR8ImVectorIP10ImDrawListEP11ImGuiWindow
	movl	280(%rsi), %eax
	jmp	.L217
	.seh_endproc
	.p2align 4,,15
	.def	_ZL24InputTextFilterCharacterPjiPFiP25ImGuiTextEditCallbackDataEPv;	.scl	3;	.type	32;	.endef
	.seh_proc	_ZL24InputTextFilterCharacterPjiPFiP25ImGuiTextEditCallbackDataEPv
_ZL24InputTextFilterCharacterPjiPFiP25ImGuiTextEditCallbackDataEPv:
.LFB1009:
	pushq	%rbp
	.seh_pushreg	%rbp
	pushq	%rdi
	.seh_pushreg	%rdi
	pushq	%rsi
	.seh_pushreg	%rsi
	pushq	%rbx
	.seh_pushreg	%rbx
	subq	$120, %rsp
	.seh_stackalloc	120
	.seh_endprologue
	movl	(%rcx), %ebx
	cmpl	$127, %ebx
	movq	%rcx, %rbp
	movl	%edx, %esi
	ja	.L225
	cmpl	$32, %ebx
	je	.L225
	movq	%r9, 40(%rsp)
	movl	%ebx, %ecx
	movq	%r8, 32(%rsp)
	call	*__imp_isprint(%rip)
	movq	32(%rsp), %r8
	testl	%eax, %eax
	movq	40(%rsp), %r9
	jne	.L225
	cmpl	$10, %ebx
	je	.L261
	cmpl	$9, %ebx
	jne	.L234
	testl	$1024, %esi
	je	.L234
	.p2align 4,,10
.L227:
	testb	$15, %sil
	je	.L230
	testb	$1, %sil
	je	.L231
	leal	-45(%rbx), %eax
	cmpl	$12, %eax
	jbe	.L231
	leal	-42(%rbx), %eax
	cmpl	$1, %eax
	ja	.L234
	.p2align 4,,10
.L231:
	testb	$2, %sil
	je	.L232
	leal	-48(%rbx), %eax
	cmpl	$9, %eax
	jbe	.L232
	movl	%ebx, %eax
	andl	$-33, %eax
	subl	$65, %eax
	cmpl	$5, %eax
	ja	.L234
	.p2align 4,,10
.L232:
	testb	$4, %sil
	je	.L233
	leal	-97(%rbx), %eax
	cmpl	$25, %eax
	jbe	.L262
.L233:
	testb	$8, %sil
	je	.L230
	cmpl	$32, %ebx
	sete	%dl
	cmpl	$9, %ebx
	sete	%al
	orb	%al, %dl
	jne	.L234
	cmpl	$12288, %ebx
	je	.L234
	.p2align 4,,10
.L230:
	testl	$512, %esi
	movl	$1, %edi
	je	.L224
	leaq	48(%rsp), %rcx
	movl	$512, 48(%rsp)
	movq	$0, 64(%rsp)
	movl	%esi, 52(%rsp)
	movq	$0, 24(%rcx)
	movq	$0, 32(%rcx)
	movq	$0, 40(%rcx)
	movq	$0, 48(%rcx)
	movw	%bx, 66(%rsp)
	movq	%r9, 56(%rsp)
	call	*%r8
	testl	%eax, %eax
	jne	.L234
	movzwl	66(%rsp), %edx
	testw	%dx, %dx
	movl	%edx, 0(%rbp)
	jne	.L224
	.p2align 4,,10
.L234:
	xorl	%edi, %edi
.L224:
	movl	%edi, %eax
	addq	$120, %rsp
	popq	%rbx
	popq	%rsi
	popq	%rdi
	popq	%rbp
	ret
	.p2align 4,,10
.L225:
	leal	-57344(%rbx), %eax
	cmpl	$6399, %eax
	jbe	.L234
	jmp	.L227
	.p2align 4,,10
.L261:
	testl	$1048576, %esi
	jne	.L227
	jmp	.L234
	.p2align 4,,10
.L262:
	subl	$32, %ebx
	movl	%ebx, 0(%rbp)
	jmp	.L233
	.seh_endproc
	.p2align 4,,15
	.def	__tcf_1;	.scl	3;	.type	32;	.endef
	.seh_proc	__tcf_1
__tcf_1:
.LFB6488:
	.seh_endprologue
	leaq	_ZL19GImDefaultFontAtlas(%rip), %rcx
	jmp	_ZN11ImFontAtlasD1Ev
	.seh_endproc
	.p2align 4,,15
	.def	_ZN8ImGuiStbL25stb_textedit_move_to_lastEP18ImGuiTextEditStatePNS_17STB_TexteditStateE.part.7;	.scl	3;	.type	32;	.endef
	.seh_proc	_ZN8ImGuiStbL25stb_textedit_move_to_lastEP18ImGuiTextEditStatePNS_17STB_TexteditStateE.part.7
_ZN8ImGuiStbL25stb_textedit_move_to_lastEP18ImGuiTextEditStatePNS_17STB_TexteditStateE.part.7:
.LFB6498:
	.seh_endprologue
	movl	4(%rdx), %r8d
	movl	8(%rdx), %eax
	cmpl	%eax, %r8d
	je	.L265
	movl	60(%rcx), %ecx
	cmpl	%r8d, %ecx
	jge	.L270
	movl	%ecx, 4(%rdx)
.L270:
	cmpl	%eax, %ecx
	jge	.L265
	movl	%ecx, 8(%rdx)
	movl	%ecx, %eax
.L265:
	movl	%eax, (%rdx)
	movl	%eax, 4(%rdx)
	movb	$0, 15(%rdx)
	ret
	.seh_endproc
	.p2align 4,,15
	.def	_ZN5ImGui8SameLineEff.constprop.126;	.scl	3;	.type	32;	.endef
	.seh_proc	_ZN5ImGui8SameLineEff.constprop.126
_ZN5ImGui8SameLineEff.constprop.126:
.LFB6620:
	.seh_endprologue
	movq	GImGui(%rip), %rdx
	movq	6008(%rdx), %rax
	movb	$1, 138(%rax)
	movq	6008(%rdx), %rax
	cmpb	$0, 140(%rax)
	jne	.L271
	pxor	%xmm1, %xmm1
	ucomiss	%xmm0, %xmm1
	ja	.L276
.L273:
	addss	200(%rax), %xmm0
	movss	%xmm0, 192(%rax)
	movss	204(%rax), %xmm0
	movss	%xmm0, 196(%rax)
	movss	232(%rax), %xmm0
	movss	%xmm0, 224(%rax)
	movss	236(%rax), %xmm0
	movss	%xmm0, 228(%rax)
.L271:
	ret
	.p2align 4,,10
.L276:
	movss	5168(%rdx), %xmm0
	jmp	.L273
	.seh_endproc
	.p2align 4,,15
	.def	_ZL22InputTextCalcTextSizeWPKtS0_PS0_P6ImVec2b.constprop.136;	.scl	3;	.type	32;	.endef
	.seh_proc	_ZL22InputTextCalcTextSizeWPKtS0_PS0_P6ImVec2b.constprop.136
_ZL22InputTextCalcTextSizeWPKtS0_PS0_P6ImVec2b.constprop.136:
.LFB6610:
	subq	$24, %rsp
	.seh_stackalloc	24
	movaps	%xmm6, (%rsp)
	.seh_savexmm	%xmm6, 0
	.seh_endprologue
	movq	GImGui(%rip), %rax
	movq	5936(%rax), %r10
	movss	5944(%rax), %xmm4
	cmpq	%rcx, %rdx
	movaps	%xmm4, %xmm5
	divss	(%r10), %xmm5
	jbe	.L301
	testb	%r9b, %r9b
	pxor	%xmm3, %xmm3
	pxor	%xmm2, %xmm2
	je	.L318
.L279:
	addq	$2, %rcx
	movzwl	-2(%rcx), %eax
	cmpl	$10, %eax
	movq	%rax, %r9
	je	.L319
	cmpl	$13, %eax
	je	.L293
	cmpl	32(%r10), %eax
	jge	.L294
	movq	40(%r10), %rax
	movss	(%rax,%r9,4), %xmm0
.L295:
	mulss	%xmm5, %xmm0
	addss	%xmm0, %xmm2
.L293:
	cmpq	%rcx, %rdx
	ja	.L279
	pxor	%xmm1, %xmm1
	pxor	%xmm0, %xmm0
.L289:
	movaps	%xmm2, %xmm6
	ucomiss	%xmm3, %xmm2
	maxss	%xmm0, %xmm6
	movaps	%xmm6, %xmm0
	jbe	.L292
.L278:
	addss	%xmm4, %xmm1
.L298:
	testq	%r8, %r8
	je	.L300
	movq	%rcx, (%r8)
.L300:
	movd	%xmm1, %eax
	movd	%xmm0, %edx
	movaps	(%rsp), %xmm6
	movq	%rax, %rcx
	movl	%edx, %eax
	salq	$32, %rcx
	orq	%rcx, %rax
	addq	$24, %rsp
	ret
	.p2align 4,,10
.L319:
	ucomiss	%xmm2, %xmm3
	movaps	%xmm4, %xmm1
	pxor	%xmm0, %xmm0
	addss	%xmm3, %xmm1
	jnb	.L292
	movaps	%xmm3, %xmm0
	maxss	%xmm2, %xmm0
.L292:
	ucomiss	%xmm3, %xmm1
	jp	.L298
	jne	.L298
	addss	%xmm4, %xmm1
	jmp	.L298
	.p2align 4,,10
.L294:
	movss	72(%r10), %xmm0
	jmp	.L295
	.p2align 4,,10
.L318:
	movq	%rcx, %rax
	pxor	%xmm3, %xmm3
	pxor	%xmm1, %xmm1
	pxor	%xmm0, %xmm0
	pxor	%xmm2, %xmm2
.L288:
	addq	$2, %rax
	movzwl	-2(%rax), %r9d
	cmpl	$10, %r9d
	movq	%r9, %r11
	je	.L280
	cmpl	$13, %r9d
	je	.L281
	cmpl	%r9d, 32(%r10)
	jle	.L320
	movq	40(%r10), %r9
	movss	(%r9,%r11,4), %xmm6
.L284:
	mulss	%xmm5, %xmm6
	addss	%xmm6, %xmm2
.L281:
	cmpq	%rax, %rdx
	ja	.L288
	movq	%rcx, %rax
	notq	%rax
	addq	%rax, %rdx
	shrq	%rdx
	leaq	2(%rcx,%rdx,2), %rcx
	jmp	.L289
	.p2align 4,,10
.L280:
	ucomiss	%xmm2, %xmm0
	jb	.L285
	movaps	%xmm0, %xmm2
.L285:
	movaps	%xmm2, %xmm0
	addss	%xmm4, %xmm1
	pxor	%xmm2, %xmm2
	jmp	.L281
	.p2align 4,,10
.L320:
	movss	72(%r10), %xmm6
	jmp	.L284
	.p2align 4,,10
.L301:
	pxor	%xmm0, %xmm0
	pxor	%xmm1, %xmm1
	jmp	.L278
	.seh_endproc
	.p2align 4,,15
	.def	_Z6ImHashPKvij.constprop.146;	.scl	3;	.type	32;	.endef
	.seh_proc	_Z6ImHashPKvij.constprop.146
_Z6ImHashPKvij.constprop.146:
.LFB6600:
	subq	$40, %rsp
	.seh_stackalloc	40
	movaps	%xmm6, (%rsp)
	.seh_savexmm	%xmm6, 0
	movaps	%xmm7, 16(%rsp)
	.seh_savexmm	%xmm7, 16
	.seh_endprologue
	movl	4+_ZZ6ImHashPKvijE9crc32_lut(%rip), %eax
	leaq	_ZZ6ImHashPKvijE9crc32_lut(%rip), %r10
	testl	%eax, %eax
	jne	.L322
	movdqa	.LC10(%rip), %xmm5
	movq	%r10, %rax
	pxor	%xmm2, %xmm2
	movdqa	.LC11(%rip), %xmm6
	leaq	1024(%r10), %r8
	movdqa	.LC12(%rip), %xmm4
	movdqa	.LC13(%rip), %xmm3
	.p2align 4,,10
.L323:
	movdqa	%xmm5, %xmm0
	movdqa	%xmm2, %xmm1
	movdqa	%xmm2, %xmm7
	pand	%xmm4, %xmm0
	psubd	%xmm0, %xmm1
	addq	$16, %rax
	movdqa	%xmm1, %xmm0
	movdqa	%xmm5, %xmm1
	paddd	%xmm6, %xmm5
	psrld	$1, %xmm1
	pand	%xmm3, %xmm0
	pxor	%xmm1, %xmm0
	movdqa	%xmm0, %xmm1
	psrld	$1, %xmm0
	pand	%xmm4, %xmm1
	psubd	%xmm1, %xmm7
	movdqa	%xmm7, %xmm1
	movdqa	%xmm2, %xmm7
	pand	%xmm3, %xmm1
	pxor	%xmm0, %xmm1
	movdqa	%xmm1, %xmm0
	psrld	$1, %xmm1
	pand	%xmm4, %xmm0
	psubd	%xmm0, %xmm7
	movdqa	%xmm7, %xmm0
	movdqa	%xmm2, %xmm7
	pand	%xmm3, %xmm0
	pxor	%xmm1, %xmm0
	movdqa	%xmm0, %xmm1
	psrld	$1, %xmm0
	pand	%xmm4, %xmm1
	psubd	%xmm1, %xmm7
	movdqa	%xmm7, %xmm1
	movdqa	%xmm2, %xmm7
	pand	%xmm3, %xmm1
	pxor	%xmm0, %xmm1
	movdqa	%xmm1, %xmm0
	psrld	$1, %xmm1
	pand	%xmm4, %xmm0
	psubd	%xmm0, %xmm7
	movdqa	%xmm7, %xmm0
	movdqa	%xmm2, %xmm7
	pand	%xmm3, %xmm0
	pxor	%xmm1, %xmm0
	movdqa	%xmm0, %xmm1
	psrld	$1, %xmm0
	pand	%xmm4, %xmm1
	psubd	%xmm1, %xmm7
	movdqa	%xmm7, %xmm1
	movdqa	%xmm2, %xmm7
	pand	%xmm3, %xmm1
	pxor	%xmm0, %xmm1
	movdqa	%xmm1, %xmm0
	psrld	$1, %xmm1
	pand	%xmm4, %xmm0
	psubd	%xmm0, %xmm7
	movdqa	%xmm7, %xmm0
	movdqa	%xmm2, %xmm7
	pand	%xmm3, %xmm0
	pxor	%xmm1, %xmm0
	movdqa	%xmm0, %xmm1
	psrld	$1, %xmm0
	pand	%xmm4, %xmm1
	psubd	%xmm1, %xmm7
	movdqa	%xmm7, %xmm1
	pand	%xmm3, %xmm1
	pxor	%xmm1, %xmm0
	movaps	%xmm0, -16(%rax)
	cmpq	%rax, %r8
	jne	.L323
.L322:
	movzbl	(%rcx), %r8d
	notl	%edx
	testb	%r8b, %r8b
	je	.L330
	addq	$2, %rcx
	movl	%edx, %eax
	jmp	.L325
	.p2align 4,,10
.L326:
	xorl	%eax, %r8d
	movl	%eax, %r11d
	movzbl	%r8b, %eax
	shrl	$8, %r11d
	xorl	(%r10,%rax,4), %r11d
	testb	%r9b, %r9b
	movl	%r11d, %eax
	je	.L324
.L329:
	addq	$1, %rcx
	movl	%r9d, %r8d
.L325:
	cmpb	$35, %r8b
	movzbl	-1(%rcx), %r9d
	jne	.L326
	cmpb	$35, %r9b
	jne	.L326
	cmpb	$35, (%rcx)
	cmove	%edx, %eax
	movl	%eax, %r8d
	movzbl	%al, %eax
	xorq	$35, %rax
	shrl	$8, %r8d
	xorl	(%r10,%rax,4), %r8d
	movl	%r8d, %eax
	jmp	.L329
	.p2align 4,,10
.L330:
	movl	%edx, %eax
.L324:
	movaps	(%rsp), %xmm6
	notl	%eax
	movaps	16(%rsp), %xmm7
	addq	$40, %rsp
	ret
	.seh_endproc
	.p2align 4,,15
	.def	_ZL18FindWindowSettingsPKc;	.scl	3;	.type	32;	.endef
	.seh_proc	_ZL18FindWindowSettingsPKc
_ZL18FindWindowSettingsPKc:
.LFB675:
	pushq	%r12
	.seh_pushreg	%r12
	pushq	%rbp
	.seh_pushreg	%rbp
	pushq	%rdi
	.seh_pushreg	%rdi
	pushq	%rsi
	.seh_pushreg	%rsi
	pushq	%rbx
	.seh_pushreg	%rbx
	subq	$32, %rsp
	.seh_stackalloc	32
	.seh_endprologue
	movq	GImGui(%rip), %rsi
	xorl	%edx, %edx
	call	_Z6ImHashPKvij.constprop.146
	movl	6112(%rsi), %edx
	movl	%eax, %r12d
	testl	%edx, %edx
	je	.L334
	leaq	.LC2(%rip), %rbp
	xorl	%ebx, %ebx
	leaq	.LC3(%rip), %rdi
	jmp	.L337
	.p2align 4,,10
.L335:
	movq	6120(%rsi), %rax
	movq	%rbx, %rdx
	salq	$5, %rdx
	addq	%rdx, %rax
	cmpl	%r12d, 8(%rax)
	je	.L333
	movl	6112(%rsi), %edx
	leal	1(%rbx), %ecx
	addq	$1, %rbx
	cmpl	%ecx, %edx
	je	.L334
.L337:
	cmpl	%ebx, %edx
	jg	.L335
	movl	$856, %r8d
	movq	%rbp, %rdx
	movq	%rdi, %rcx
	call	_assert
	jmp	.L335
	.p2align 4,,10
.L334:
	xorl	%eax, %eax
.L333:
	addq	$32, %rsp
	popq	%rbx
	popq	%rsi
	popq	%rdi
	popq	%rbp
	popq	%r12
	ret
	.seh_endproc
	.section .rdata,"dr"
	.align 8
.LC14:
	.ascii "%s %04d { pos = (%8.2f,%8.2f), uv = (%.6f,%.6f), col = %08X }\12\0"
	.text
	.p2align 4,,15
	.def	_Z7sprintfPcPKcz.constprop.149;	.scl	3;	.type	32;	.endef
	.seh_proc	_Z7sprintfPcPKcz.constprop.149
_Z7sprintfPcPKcz.constprop.149:
.LFB6597:
	subq	$56, %rsp
	.seh_stackalloc	56
	.seh_endprologue
	leaq	.LC14(%rip), %rdx
	movq	%r8, 80(%rsp)
	leaq	80(%rsp), %r8
	movq	%r9, 88(%rsp)
	movq	%r8, 40(%rsp)
	call	__mingw_vsprintf
	addq	$56, %rsp
	ret
	.seh_endproc
	.p2align 4,,15
	.def	_ZN5ImGui13PopStyleColorEi.constprop.142;	.scl	3;	.type	32;	.endef
	.seh_proc	_ZN5ImGui13PopStyleColorEi.constprop.142
_ZN5ImGui13PopStyleColorEi.constprop.142:
.LFB6604:
	pushq	%rbx
	.seh_pushreg	%rbx
	subq	$32, %rsp
	.seh_stackalloc	32
	.seh_endprologue
	movq	GImGui(%rip), %rbx
	movl	6136(%rbx), %eax
	testl	%eax, %eax
	jle	.L347
	movslq	%eax, %rdx
	leaq	(%rdx,%rdx,4), %rcx
	movq	6144(%rbx), %rdx
	leaq	-20(%rdx,%rcx,4), %rcx
	movslq	(%rcx), %rdx
	movq	4(%rcx), %r9
	movq	12(%rcx), %r10
	addq	$328, %rdx
	salq	$4, %rdx
	movq	%r9, (%rbx,%rdx)
	movq	%r10, 8(%rbx,%rdx)
.L345:
	subl	$1, %eax
	movl	%eax, 6136(%rbx)
	addq	$32, %rsp
	popq	%rbx
	ret
	.p2align 4,,10
.L347:
	leaq	.LC2(%rip), %rdx
	movl	$866, %r8d
	leaq	.LC4(%rip), %rcx
	call	_assert
	movslq	6136(%rbx), %rdx
	leaq	(%rdx,%rdx,4), %rcx
	movq	%rdx, %rax
	movq	6144(%rbx), %rdx
	leaq	-20(%rdx,%rcx,4), %rcx
	movslq	(%rcx), %rdx
	movq	4(%rcx), %r9
	movq	12(%rcx), %r10
	addq	$328, %rdx
	salq	$4, %rdx
	testl	%eax, %eax
	movq	%r9, (%rbx,%rdx)
	movq	%r10, 8(%rbx,%rdx)
	jg	.L345
	leaq	.LC2(%rip), %rdx
	movl	$885, %r8d
	leaq	.LC4(%rip), %rcx
	call	_assert
	movl	6136(%rbx), %eax
	subl	$1, %eax
	movl	%eax, 6136(%rbx)
	addq	$32, %rsp
	popq	%rbx
	ret
	.seh_endproc
	.section .rdata,"dr"
	.align 8
.LC15:
	.ascii "idx >= 0 && idx < ImGuiStyleVar_Count_\0"
	.text
	.p2align 4,,15
	.def	_ZN5ImGui11PopStyleVarEi.constprop.141;	.scl	3;	.type	32;	.endef
	.seh_proc	_ZN5ImGui11PopStyleVarEi.constprop.141
_ZN5ImGui11PopStyleVarEi.constprop.141:
.LFB6605:
	pushq	%rdi
	.seh_pushreg	%rdi
	pushq	%rsi
	.seh_pushreg	%rsi
	pushq	%rbx
	.seh_pushreg	%rbx
	subq	$32, %rsp
	.seh_stackalloc	32
	.seh_endprologue
	movq	GImGui(%rip), %rsi
	movslq	6152(%rsi), %rax
	testl	%eax, %eax
	jle	.L355
.L349:
	leaq	(%rax,%rax,2), %rdx
	movq	6160(%rsi), %rax
	leaq	-12(%rax,%rdx,4), %rdi
	movslq	(%rdi), %rbx
	cmpl	$11, %ebx
	ja	.L356
.L350:
	leaq	_ZL13GStyleVarInfo(%rip), %rax
	leaq	(%rax,%rbx,8), %rdx
	movl	(%rax,%rbx,8), %eax
	cmpl	$1, %eax
	je	.L351
	cmpl	$2, %eax
	je	.L352
	testl	%eax, %eax
	jne	.L353
	movl	4(%rdx), %eax
	movl	4(%rdi), %ecx
	movq	GImGui(%rip), %rdx
	movl	%ecx, 5120(%rdx,%rax)
.L353:
	movl	6152(%rsi), %eax
	testl	%eax, %eax
	jle	.L357
.L354:
	subl	$1, %eax
	movl	%eax, 6152(%rsi)
	addq	$32, %rsp
	popq	%rbx
	popq	%rsi
	popq	%rdi
	ret
	.p2align 4,,10
.L352:
	movl	4(%rdx), %eax
	movq	GImGui(%rip), %rdx
	movss	8(%rdi), %xmm0
	movss	4(%rdi), %xmm1
	leaq	5120(%rdx,%rax), %rax
	movss	%xmm1, (%rax)
	movss	%xmm0, 4(%rax)
	movl	6152(%rsi), %eax
	testl	%eax, %eax
	jg	.L354
.L357:
	leaq	.LC2(%rip), %rdx
	movl	$885, %r8d
	leaq	.LC4(%rip), %rcx
	call	_assert
	movl	6152(%rsi), %eax
	jmp	.L354
	.p2align 4,,10
.L351:
	movl	4(%rdx), %eax
	movq	GImGui(%rip), %rdx
	movss	4(%rdi), %xmm0
	movss	%xmm0, 5120(%rdx,%rax)
	jmp	.L353
	.p2align 4,,10
.L356:
	leaq	.LC5(%rip), %rdx
	movl	$4761, %r8d
	leaq	.LC15(%rip), %rcx
	call	_assert
	jmp	.L350
	.p2align 4,,10
.L355:
	leaq	.LC2(%rip), %rdx
	movl	$866, %r8d
	leaq	.LC4(%rip), %rcx
	call	_assert
	movslq	6152(%rsi), %rax
	jmp	.L349
	.seh_endproc
	.p2align 4,,15
	.def	_ZN5ImGui11PopStyleVarEi.constprop.140;	.scl	3;	.type	32;	.endef
	.seh_proc	_ZN5ImGui11PopStyleVarEi.constprop.140
_ZN5ImGui11PopStyleVarEi.constprop.140:
.LFB6606:
	pushq	%rbp
	.seh_pushreg	%rbp
	pushq	%rdi
	.seh_pushreg	%rdi
	pushq	%rsi
	.seh_pushreg	%rsi
	pushq	%rbx
	.seh_pushreg	%rbx
	subq	$40, %rsp
	.seh_stackalloc	40
	.seh_endprologue
	movq	GImGui(%rip), %rbx
	movslq	6152(%rbx), %rax
	testl	%eax, %eax
	jle	.L371
.L359:
	leaq	(%rax,%rax,2), %rdx
	movq	6160(%rbx), %rax
	leaq	-12(%rax,%rdx,4), %rbp
	movslq	0(%rbp), %rsi
	cmpl	$11, %esi
	ja	.L372
.L360:
	leaq	_ZL13GStyleVarInfo(%rip), %rdi
	movl	(%rdi,%rsi,8), %eax
	leaq	(%rdi,%rsi,8), %rdx
	cmpl	$1, %eax
	je	.L361
	cmpl	$2, %eax
	je	.L362
	testl	%eax, %eax
	jne	.L363
	movl	4(%rdx), %eax
	movl	4(%rbp), %ecx
	movq	GImGui(%rip), %rdx
	movl	%ecx, 5120(%rdx,%rax)
.L363:
	movl	6152(%rbx), %eax
	testl	%eax, %eax
	jle	.L373
.L364:
	subl	$1, %eax
	testl	%eax, %eax
	movl	%eax, 6152(%rbx)
	jle	.L374
.L365:
	cltq
	leaq	(%rax,%rax,2), %rdx
	movq	6160(%rbx), %rax
	leaq	-12(%rax,%rdx,4), %rbp
	movslq	0(%rbp), %rsi
	cmpl	$11, %esi
	ja	.L375
.L366:
	movl	(%rdi,%rsi,8), %eax
	leaq	(%rdi,%rsi,8), %rdx
	cmpl	$1, %eax
	je	.L376
	cmpl	$2, %eax
	je	.L377
	testl	%eax, %eax
	jne	.L368
	movl	4(%rdx), %eax
	movl	4(%rbp), %ecx
	movq	GImGui(%rip), %rdx
	movl	%ecx, 5120(%rdx,%rax)
.L368:
	movl	6152(%rbx), %eax
	testl	%eax, %eax
	jle	.L378
.L370:
	subl	$1, %eax
	movl	%eax, 6152(%rbx)
	addq	$40, %rsp
	popq	%rbx
	popq	%rsi
	popq	%rdi
	popq	%rbp
	ret
	.p2align 4,,10
.L362:
	movl	4(%rdx), %eax
	movq	GImGui(%rip), %rdx
	movss	8(%rbp), %xmm0
	movss	4(%rbp), %xmm1
	leaq	5120(%rdx,%rax), %rax
	movss	%xmm1, (%rax)
	movss	%xmm0, 4(%rax)
	movl	6152(%rbx), %eax
	testl	%eax, %eax
	jg	.L364
.L373:
	leaq	.LC2(%rip), %rdx
	movl	$885, %r8d
	leaq	.LC4(%rip), %rcx
	call	_assert
	movl	6152(%rbx), %eax
	subl	$1, %eax
	testl	%eax, %eax
	movl	%eax, 6152(%rbx)
	jg	.L365
.L374:
	leaq	.LC2(%rip), %rdx
	movl	$866, %r8d
	leaq	.LC4(%rip), %rcx
	call	_assert
	movl	6152(%rbx), %eax
	jmp	.L365
	.p2align 4,,10
.L376:
	movl	4(%rdx), %eax
	movq	GImGui(%rip), %rdx
	movss	4(%rbp), %xmm0
	movss	%xmm0, 5120(%rdx,%rax)
	movl	6152(%rbx), %eax
	testl	%eax, %eax
	jg	.L370
.L378:
	leaq	.LC2(%rip), %rdx
	movl	$885, %r8d
	leaq	.LC4(%rip), %rcx
	call	_assert
	movl	6152(%rbx), %eax
	jmp	.L370
	.p2align 4,,10
.L361:
	movl	4(%rdx), %eax
	movq	GImGui(%rip), %rdx
	movss	4(%rbp), %xmm0
	movss	%xmm0, 5120(%rdx,%rax)
	jmp	.L363
	.p2align 4,,10
.L372:
	leaq	.LC5(%rip), %rdx
	movl	$4761, %r8d
	leaq	.LC15(%rip), %rcx
	call	_assert
	jmp	.L360
	.p2align 4,,10
.L375:
	leaq	.LC5(%rip), %rdx
	movl	$4761, %r8d
	leaq	.LC15(%rip), %rcx
	call	_assert
	jmp	.L366
	.p2align 4,,10
.L371:
	leaq	.LC2(%rip), %rdx
	movl	$866, %r8d
	leaq	.LC4(%rip), %rcx
	call	_assert
	movslq	6152(%rbx), %rax
	jmp	.L359
	.p2align 4,,10
.L377:
	movl	4(%rdx), %eax
	movq	GImGui(%rip), %rdx
	movss	8(%rbp), %xmm0
	movss	4(%rbp), %xmm1
	leaq	5120(%rdx,%rax), %rax
	movss	%xmm1, (%rax)
	movss	%xmm0, 4(%rax)
	jmp	.L368
	.seh_endproc
	.p2align 4,,15
	.def	_ZN8ImGuiStbL30STB_TEXTEDIT_MOVEWORDLEFT_IMPLEP18ImGuiTextEditStatei;	.scl	3;	.type	32;	.endef
	.seh_proc	_ZN8ImGuiStbL30STB_TEXTEDIT_MOVEWORDLEFT_IMPLEP18ImGuiTextEditStatei
_ZN8ImGuiStbL30STB_TEXTEDIT_MOVEWORDLEFT_IMPLEP18ImGuiTextEditStatei:
.LFB976:
	pushq	%r13
	.seh_pushreg	%r13
	pushq	%r12
	.seh_pushreg	%r12
	pushq	%rbp
	.seh_pushreg	%rbp
	pushq	%rdi
	.seh_pushreg	%rdi
	pushq	%rsi
	.seh_pushreg	%rsi
	pushq	%rbx
	.seh_pushreg	%rbx
	subq	$40, %rsp
	.seh_stackalloc	40
	.seh_endprologue
	movl	%edx, %ebx
	movq	%rcx, %r12
	subl	$1, %ebx
	js	.L390
	je	.L390
	leaq	.LC2(%rip), %rbp
	movslq	%ebx, %rax
	movabsq	$20895015895552, %r13
	leaq	-2(%rax,%rax), %rdi
	.p2align 4,,10
.L382:
	leal	-1(%rbx), %esi
	cmpl	8(%r12), %esi
	jge	.L408
.L383:
	movq	16(%r12), %rax
	movq	%r13, %r8
	movl	$0, %edx
	movzwl	(%rax,%rdi), %ecx
	shrq	%cl, %r8
	andl	$1, %r8d
	cmpw	$45, %cx
	cmovnb	%edx, %r8d
	cmpw	$12288, %cx
	je	.L385
	testb	%r8b, %r8b
	jne	.L385
	leal	-59(%rcx), %edx
	testw	$-33, %dx
	je	.L385
	leal	-123(%rcx), %edx
	cmpw	$2, %dx
	jbe	.L385
	cmpw	$93, %cx
	jne	.L386
	.p2align 4,,10
.L385:
	cmpl	%ebx, 8(%r12)
	jle	.L409
.L387:
	movzwl	2(%rax,%rdi), %ecx
	movq	%r13, %rax
	shrq	%cl, %rax
	movl	%ecx, %edx
	andl	$1, %eax
	cmpw	$45, %cx
	movl	$0, %ecx
	cmovnb	%ecx, %eax
	cmpw	$12288, %dx
	je	.L386
	testb	%al, %al
	jne	.L386
	leal	-59(%rdx), %eax
	testw	$-33, %ax
	je	.L386
	leal	-123(%rdx), %eax
	cmpw	$2, %ax
	jbe	.L386
	cmpw	$93, %dx
	jne	.L379
	.p2align 4,,10
.L386:
	cmpl	$-1, %esi
	je	.L390
	subq	$2, %rdi
	testl	%esi, %esi
	movl	%esi, %ebx
	jne	.L382
.L390:
	xorl	%ebx, %ebx
.L379:
	movl	%ebx, %eax
	addq	$40, %rsp
	popq	%rbx
	popq	%rsi
	popq	%rdi
	popq	%rbp
	popq	%r12
	popq	%r13
	ret
	.p2align 4,,10
.L408:
	leaq	.LC3(%rip), %rcx
	movl	$856, %r8d
	movq	%rbp, %rdx
	call	_assert
	jmp	.L383
	.p2align 4,,10
.L409:
	leaq	.LC3(%rip), %rcx
	movl	$856, %r8d
	movq	%rbp, %rdx
	call	_assert
	movq	16(%r12), %rax
	jmp	.L387
	.seh_endproc
	.p2align 4,,15
	.def	_ZN8ImGuiStbL31STB_TEXTEDIT_MOVEWORDRIGHT_IMPLEP18ImGuiTextEditStatei;	.scl	3;	.type	32;	.endef
	.seh_proc	_ZN8ImGuiStbL31STB_TEXTEDIT_MOVEWORDRIGHT_IMPLEP18ImGuiTextEditStatei
_ZN8ImGuiStbL31STB_TEXTEDIT_MOVEWORDRIGHT_IMPLEP18ImGuiTextEditStatei:
.LFB977:
	pushq	%r13
	.seh_pushreg	%r13
	pushq	%r12
	.seh_pushreg	%r12
	pushq	%rbp
	.seh_pushreg	%rbp
	pushq	%rdi
	.seh_pushreg	%rdi
	pushq	%rsi
	.seh_pushreg	%rsi
	pushq	%rbx
	.seh_pushreg	%rbx
	subq	$40, %rsp
	.seh_stackalloc	40
	.seh_endprologue
	movl	60(%rcx), %esi
	leal	1(%rdx), %ebx
	movq	%rcx, %rbp
	cmpl	%esi, %ebx
	jge	.L411
	testl	%ebx, %ebx
	jle	.L410
	leaq	.LC2(%rip), %rdi
	movslq	%ebx, %rax
	movabsq	$20895015895552, %r13
	leaq	-2(%rax,%rax), %r12
	leal	-1(%rbx), %eax
	cmpl	8(%rbp), %eax
	jge	.L432
	.p2align 4,,10
.L413:
	movq	16(%rbp), %rax
	movq	%r13, %r8
	movl	$0, %edx
	movzwl	(%rax,%r12), %ecx
	shrq	%cl, %r8
	andl	$1, %r8d
	cmpw	$45, %cx
	cmovnb	%edx, %r8d
	cmpw	$12288, %cx
	je	.L415
	testb	%r8b, %r8b
	jne	.L415
	leal	-59(%rcx), %edx
	testw	$-33, %dx
	je	.L415
	leal	-123(%rcx), %edx
	cmpw	$2, %dx
	jbe	.L415
	cmpw	$93, %cx
	jne	.L416
	.p2align 4,,10
.L415:
	cmpl	%ebx, 8(%rbp)
	jle	.L433
.L417:
	movzwl	2(%rax,%r12), %ecx
	movq	%r13, %rax
	shrq	%cl, %rax
	movl	%ecx, %edx
	andl	$1, %eax
	cmpw	$45, %cx
	movl	$0, %ecx
	cmovnb	%ecx, %eax
	cmpw	$12288, %dx
	je	.L416
	testb	%al, %al
	jne	.L416
	leal	-59(%rdx), %eax
	testw	$-33, %ax
	je	.L416
	leal	-123(%rdx), %eax
	cmpw	$2, %ax
	jbe	.L416
	cmpw	$93, %dx
	jne	.L410
	.p2align 4,,10
.L416:
	addl	$1, %ebx
	cmpl	%ebx, %esi
	je	.L434
	leal	-1(%rbx), %eax
	addq	$2, %r12
	cmpl	8(%rbp), %eax
	jl	.L413
.L432:
	leaq	.LC3(%rip), %rcx
	movl	$856, %r8d
	movq	%rdi, %rdx
	call	_assert
	jmp	.L413
	.p2align 4,,10
.L433:
	leaq	.LC3(%rip), %rcx
	movl	$856, %r8d
	movq	%rdi, %rdx
	call	_assert
	movq	16(%rbp), %rax
	jmp	.L417
	.p2align 4,,10
.L434:
	movl	%esi, %ebx
.L411:
	cmpl	%esi, %ebx
	cmovg	%esi, %ebx
.L410:
	movl	%ebx, %eax
	addq	$40, %rsp
	popq	%rbx
	popq	%rsi
	popq	%rdi
	popq	%rbp
	popq	%r12
	popq	%r13
	ret
	.seh_endproc
	.p2align 4,,15
	.def	_ZL17AddWindowSettingsPKc;	.scl	3;	.type	32;	.endef
	.seh_proc	_ZL17AddWindowSettingsPKc
_ZL17AddWindowSettingsPKc:
.LFB676:
	pushq	%r12
	.seh_pushreg	%r12
	pushq	%rbp
	.seh_pushreg	%rbp
	pushq	%rdi
	.seh_pushreg	%rdi
	pushq	%rsi
	.seh_pushreg	%rsi
	pushq	%rbx
	.seh_pushreg	%rbx
	subq	$32, %rsp
	.seh_stackalloc	32
	.seh_endprologue
	movq	GImGui(%rip), %rbx
	movl	6112(%rbx), %eax
	movq	%rbx, %rbp
	movq	%rcx, %rdi
	leal	1(%rax), %esi
	movl	6116(%rbx), %eax
	cmpl	%eax, %esi
	jle	.L436
	testl	%eax, %eax
	movl	$8, %r12d
	je	.L437
	movl	%eax, %r12d
	shrl	$31, %r12d
	addl	%eax, %r12d
	sarl	%r12d
	addl	%eax, %r12d
.L437:
	cmpl	%r12d, %esi
	jl	.L450
	movl	%esi, %r12d
.L438:
	addl	$1, 844(%rbx)
	movslq	%r12d, %rcx
	salq	$5, %rcx
	call	*232(%rbx)
	movq	6120(%rbx), %rcx
	movq	%rax, %rbp
	movq	GImGui(%rip), %rax
	testq	%rcx, %rcx
	je	.L441
	movslq	6112(%rbx), %r8
	movq	%rcx, %rdx
	movq	%rbp, %rcx
	salq	$5, %r8
	call	memcpy
	movq	6120(%rbx), %rcx
	movq	GImGui(%rip), %rax
	testq	%rcx, %rcx
	je	.L441
	subl	$1, 844(%rax)
.L441:
	call	*240(%rax)
	movq	%rbp, 6120(%rbx)
	movq	GImGui(%rip), %rbp
	movl	%r12d, 6116(%rbx)
.L436:
	movl	%esi, 6112(%rbx)
	movslq	6112(%rbp), %rax
	movq	%rbp, %r12
	testl	%eax, %eax
	jle	.L451
.L442:
	movq	6120(%rbp), %rdx
	salq	$5, %rax
	movq	%rdi, %rcx
	leaq	-32(%rdx,%rax), %rbx
	call	strlen
	addl	$1, 844(%r12)
	leaq	1(%rax), %rsi
	movq	%rsi, %rcx
	call	*232(%r12)
	movq	%rsi, %r8
	movq	%rdi, %rdx
	movq	%rax, %rcx
	call	memcpy
	xorl	%edx, %edx
	movq	%rdi, %rcx
	movq	%rax, (%rbx)
	call	_Z6ImHashPKvij.constprop.146
	movaps	.LC16(%rip), %xmm0
	movb	$0, 28(%rbx)
	movl	%eax, 8(%rbx)
	movq	%rbx, %rax
	movlps	%xmm0, 12(%rbx)
	movq	$0, 20(%rbx)
	addq	$32, %rsp
	popq	%rbx
	popq	%rsi
	popq	%rdi
	popq	%rbp
	popq	%r12
	ret
	.p2align 4,,10
.L450:
	cmpl	%r12d, %eax
	movq	%rbx, %rbp
	jl	.L438
	jmp	.L436
	.p2align 4,,10
.L451:
	leaq	.LC2(%rip), %rdx
	movl	$866, %r8d
	leaq	.LC4(%rip), %rcx
	call	_assert
	movq	GImGui(%rip), %r12
	movslq	6112(%rbp), %rax
	jmp	.L442
	.seh_endproc
	.p2align 4,,15
	.def	_ZN8ImGuiStbL27stb_text_create_undo_recordEPNS_12StbUndoStateEi;	.scl	3;	.type	32;	.endef
	.seh_proc	_ZN8ImGuiStbL27stb_text_create_undo_recordEPNS_12StbUndoStateEi
_ZN8ImGuiStbL27stb_text_create_undo_recordEPNS_12StbUndoStateEi:
.LFB997:
	pushq	%r13
	.seh_pushreg	%r13
	pushq	%r12
	.seh_pushreg	%r12
	pushq	%rbp
	.seh_pushreg	%rbp
	pushq	%rdi
	.seh_pushreg	%rdi
	pushq	%rsi
	.seh_pushreg	%rsi
	pushq	%rbx
	.seh_pushreg	%rbx
	subq	$40, %rsp
	.seh_stackalloc	40
	.seh_endprologue
	movl	$999, %r8d
	movq	%rcx, %rbx
	movl	$99, %ecx
	movl	%edx, %r12d
	movzwl	3186(%rbx), %eax
	movw	%cx, 3188(%rbx)
	movw	%r8w, 3192(%rbx)
	cmpw	$99, %ax
	je	.L468
.L453:
	leaq	1188(%rbx), %rdi
	cmpl	$999, %r12d
	leaq	20(%rbx), %rbp
	leaq	12(%rbx), %rsi
	jg	.L469
.L457:
	movswl	3190(%rbx), %edx
	movswq	3186(%rbx), %rax
	movl	%edx, %r8d
	addl	%r12d, %edx
	cmpl	$999, %edx
	jle	.L459
	testw	%ax, %ax
	jg	.L460
.L461:
	jmp	.L461
	.p2align 4,,10
.L460:
	cmpw	$0, 8(%rbx)
	jns	.L470
.L462:
	subl	$1, %eax
	movq	%rsi, %rdx
	movq	%rbx, %rcx
	movw	%ax, 3186(%rbx)
	movswq	%ax, %rax
	leaq	(%rax,%rax,2), %r8
	salq	$2, %r8
	call	memmove
	jmp	.L457
	.p2align 4,,10
.L459:
	leal	1(%rax), %edx
	leaq	(%rax,%rax,2), %rax
	movw	%dx, 3186(%rbx)
	leaq	(%rbx,%rax,4), %rax
.L452:
	addq	$40, %rsp
	popq	%rbx
	popq	%rsi
	popq	%rdi
	popq	%rbp
	popq	%r12
	popq	%r13
	ret
	.p2align 4,,10
.L470:
	movswq	4(%rbx), %rax
	movq	%rdi, %rcx
	leaq	(%rdi,%rax,2), %rdx
	subl	%eax, %r8d
	movq	%rax, %r13
	movw	%r8w, 3190(%rbx)
	movswq	%r8w, %r8
	addq	%r8, %r8
	call	memmove
	movzwl	3186(%rbx), %eax
	testw	%ax, %ax
	jle	.L462
	leaq	8(%rbx), %rdx
	movswl	%ax, %ecx
	subl	$1, %ecx
	leaq	(%rcx,%rcx,2), %rcx
	leaq	0(%rbp,%rcx,4), %r8
	.p2align 4,,10
.L464:
	movzwl	(%rdx), %ecx
	testw	%cx, %cx
	js	.L463
	subl	%r13d, %ecx
	movw	%cx, (%rdx)
.L463:
	addq	$12, %rdx
	cmpq	%rdx, %r8
	jne	.L464
	jmp	.L462
	.p2align 4,,10
.L468:
	cmpw	$0, 8(%rbx)
	jns	.L471
.L454:
	leaq	12(%rbx), %rdx
	subl	$1, %eax
	movq	%rbx, %rcx
	movw	%ax, 3186(%rbx)
	movswq	%ax, %rax
	leaq	(%rax,%rax,2), %r8
	salq	$2, %r8
	call	memmove
	jmp	.L453
	.p2align 4,,10
.L471:
	movswq	4(%rbx), %rdx
	leaq	1188(%rbx), %rcx
	movzwl	3190(%rbx), %eax
	movq	%rdx, %rsi
	subl	%edx, %eax
	movw	%ax, 3190(%rbx)
	leaq	(%rcx,%rdx,2), %rdx
	movswq	%ax, %rax
	leaq	(%rax,%rax), %r8
	call	memmove
	movzwl	3186(%rbx), %eax
	testw	%ax, %ax
	jle	.L454
	leaq	8(%rbx), %rdx
	movswl	%ax, %ecx
	subl	$1, %ecx
	leaq	(%rcx,%rcx,2), %rcx
	leaq	20(%rbx,%rcx,4), %r8
	.p2align 4,,10
.L456:
	movzwl	(%rdx), %ecx
	testw	%cx, %cx
	js	.L455
	subl	%esi, %ecx
	movw	%cx, (%rdx)
.L455:
	addq	$12, %rdx
	cmpq	%rdx, %r8
	jne	.L456
	jmp	.L454
	.p2align 4,,10
.L469:
	xorl	%eax, %eax
	xorl	%edx, %edx
	movw	%ax, 3186(%rbx)
	xorl	%eax, %eax
	movw	%dx, 3190(%rbx)
	jmp	.L452
	.seh_endproc
	.p2align 4,,15
	.def	_ZN8ImGuiStbL19stb_textedit_deleteEP18ImGuiTextEditStatePNS_17STB_TexteditStateEii;	.scl	3;	.type	32;	.endef
	.seh_proc	_ZN8ImGuiStbL19stb_textedit_deleteEP18ImGuiTextEditStatePNS_17STB_TexteditStateEii
_ZN8ImGuiStbL19stb_textedit_deleteEP18ImGuiTextEditStatePNS_17STB_TexteditStateEii:
.LFB985:
	pushq	%r15
	.seh_pushreg	%r15
	pushq	%r14
	.seh_pushreg	%r14
	pushq	%r13
	.seh_pushreg	%r13
	pushq	%r12
	.seh_pushreg	%r12
	pushq	%rbp
	.seh_pushreg	%rbp
	pushq	%rdi
	.seh_pushreg	%rdi
	pushq	%rsi
	.seh_pushreg	%rsi
	pushq	%rbx
	.seh_pushreg	%rbx
	subq	$56, %rsp
	.seh_stackalloc	56
	.seh_endprologue
	movl	$99, %r10d
	movl	$999, %r11d
	movzwl	3210(%rdx), %eax
	cmpw	$99, %ax
	movq	%rcx, %rdi
	movq	%rdx, %rsi
	movw	%r10w, 3212(%rdx)
	movl	%r8d, %ebx
	movl	%r9d, %ebp
	movw	%r11w, 3216(%rdx)
	leaq	24(%rdx), %r12
	je	.L514
.L473:
	leaq	1212(%rsi), %r14
	cmpl	$999, %ebp
	leaq	44(%rsi), %r15
	leaq	36(%rsi), %r13
	jg	.L515
.L477:
	movswq	3214(%rsi), %rdx
	movswq	3210(%rsi), %rax
	movq	%rdx, %r8
	addl	%ebp, %edx
	cmpl	$999, %edx
	jle	.L479
	testw	%ax, %ax
	jg	.L480
.L481:
	jmp	.L481
	.p2align 4,,10
.L480:
	cmpw	$0, 32(%rsi)
	jns	.L516
.L482:
	subl	$1, %eax
	movq	%r13, %rdx
	movq	%r12, %rcx
	movw	%ax, 3210(%rsi)
	movswq	%ax, %rax
	leaq	(%rax,%rax,2), %r8
	salq	$2, %r8
	call	memmove
	jmp	.L477
	.p2align 4,,10
.L479:
	leal	1(%rax), %edx
	xorl	%ecx, %ecx
	testl	%ebp, %ebp
	leaq	(%rax,%rax,2), %rax
	movw	%dx, 3210(%rsi)
	leaq	(%rsi,%rax,4), %rax
	movl	%ebx, 24(%rax)
	movw	%bp, 28(%rax)
	movw	%cx, 30(%rax)
	je	.L517
	movw	%r8w, 32(%rax)
	leal	(%r8,%rbp), %eax
	movslq	%ebx, %r13
	movw	%ax, 3214(%rsi)
	leal	-1(%rbp), %eax
	subq	%r13, %r8
	movq	%r13, %r15
	leaq	1(%rax,%r13), %rax
	leaq	(%r13,%r13), %rbx
	leaq	(%rax,%rax), %r14
	leaq	1188(%r12,%r8,2), %r12
	.p2align 4,,10
.L486:
	cmpl	8(%rdi), %r15d
	jge	.L518
	movq	16(%rdi), %r9
	addl	$1, %r15d
	movzwl	(%r9,%rbx), %edx
	movw	%dx, (%r12,%rbx)
	addq	$2, %rbx
	cmpq	%rbx, %r14
	jne	.L486
.L478:
	leaq	(%r9,%r13,2), %rcx
	movslq	%ebp, %rbx
	leaq	(%rcx,%rbx,2), %r10
	movq	%rcx, %rdx
	testq	%r10, %r10
	setne	%r11b
	xorl	%r8d, %r8d
.L490:
	cmpq	%rdx, %r10
	ja	.L500
	testb	%r11b, %r11b
	jne	.L491
.L500:
	movzwl	(%rdx), %eax
	testw	%ax, %ax
	je	.L491
	addq	$2, %rdx
	cmpl	$127, %eax
	ja	.L493
	addl	$1, %r8d
	cmpq	%rdx, %r10
	ja	.L500
	testb	%r11b, %r11b
	je	.L500
.L491:
	subl	%r8d, 56(%rdi)
	addq	%r13, %rbx
	subl	%ebp, 60(%rdi)
	leaq	(%r9,%rbx,2), %rax
	leaq	2(%rax), %rdx
	movzwl	(%rax), %eax
	testw	%ax, %ax
	je	.L498
	.p2align 4,,10
.L499:
	addq	$2, %rcx
	addq	$2, %rdx
	movw	%ax, -2(%rcx)
	movzwl	-2(%rdx), %eax
	testw	%ax, %ax
	jne	.L499
.L498:
	xorl	%eax, %eax
	movw	%ax, (%rcx)
	movb	$0, 15(%rsi)
	addq	$56, %rsp
	popq	%rbx
	popq	%rsi
	popq	%rdi
	popq	%rbp
	popq	%r12
	popq	%r13
	popq	%r14
	popq	%r15
	ret
	.p2align 4,,10
.L493:
	cmpl	$2047, %eax
	ja	.L495
	addl	$2, %r8d
	jmp	.L490
	.p2align 4,,10
.L495:
	leal	-56320(%rax), %r12d
	cmpl	$1023, %r12d
	jbe	.L490
	subl	$55296, %eax
	cmpl	$1024, %eax
	adcl	$3, %r8d
	jmp	.L490
	.p2align 4,,10
.L518:
	leaq	.LC2(%rip), %rdx
	movl	$857, %r8d
	addl	$1, %r15d
	leaq	.LC3(%rip), %rcx
	call	_assert
	movq	16(%rdi), %r9
	movzwl	(%r9,%rbx), %edx
	movw	%dx, (%r12,%rbx)
	addq	$2, %rbx
	cmpq	%r14, %rbx
	jne	.L486
	jmp	.L478
	.p2align 4,,10
.L516:
	movswq	28(%rsi), %rax
	movq	%r14, %rcx
	leaq	(%r14,%rax,2), %rdx
	subl	%eax, %r8d
	movl	%eax, 44(%rsp)
	movw	%r8w, 3214(%rsi)
	movswq	%r8w, %r8
	addq	%r8, %r8
	call	memmove
	movzwl	3210(%rsi), %eax
	testw	%ax, %ax
	jle	.L482
	movl	44(%rsp), %r9d
	leaq	32(%rsi), %rdx
	movswl	%ax, %ecx
	subl	$1, %ecx
	leaq	(%rcx,%rcx,2), %rcx
	leaq	(%r15,%rcx,4), %r8
	.p2align 4,,10
.L484:
	movzwl	(%rdx), %ecx
	testw	%cx, %cx
	js	.L483
	subl	%r9d, %ecx
	movw	%cx, (%rdx)
.L483:
	addq	$12, %rdx
	cmpq	%rdx, %r8
	jne	.L484
	jmp	.L482
	.p2align 4,,10
.L514:
	cmpw	$0, 32(%rdx)
	jns	.L519
.L474:
	leaq	36(%rsi), %rdx
	subl	$1, %eax
	movq	%r12, %rcx
	movw	%ax, 3210(%rsi)
	movswq	%ax, %rax
	leaq	(%rax,%rax,2), %r8
	salq	$2, %r8
	call	memmove
	jmp	.L473
	.p2align 4,,10
.L519:
	movswq	28(%rdx), %rdx
	leaq	1212(%rsi), %rcx
	movzwl	3214(%rsi), %eax
	movq	%rdx, %r13
	subl	%edx, %eax
	movw	%ax, 3214(%rsi)
	leaq	(%rcx,%rdx,2), %rdx
	movswq	%ax, %rax
	leaq	(%rax,%rax), %r8
	call	memmove
	movzwl	3210(%rsi), %eax
	testw	%ax, %ax
	jle	.L474
	leaq	32(%rsi), %rdx
	movswl	%ax, %ecx
	subl	$1, %ecx
	leaq	(%rcx,%rcx,2), %rcx
	leaq	44(%rsi,%rcx,4), %r8
	.p2align 4,,10
.L476:
	movzwl	(%rdx), %ecx
	testw	%cx, %cx
	js	.L475
	subl	%r13d, %ecx
	movw	%cx, (%rdx)
.L475:
	addq	$12, %rdx
	cmpq	%rdx, %r8
	jne	.L476
	jmp	.L474
	.p2align 4,,10
.L515:
	xorl	%r9d, %r9d
	xorl	%r8d, %r8d
	movslq	%ebx, %r13
	movw	%r9w, 3214(%rsi)
	movq	16(%rdi), %r9
	movw	%r8w, 3210(%rsi)
	jmp	.L478
	.p2align 4,,10
.L517:
	movl	$-1, %edx
	movq	16(%rdi), %r9
	movslq	%ebx, %r13
	movw	%dx, 32(%rax)
	jmp	.L478
	.seh_endproc
	.p2align 4,,15
	.def	_ZN8ImGuiStbL29stb_textedit_delete_selectionEP18ImGuiTextEditStatePNS_17STB_TexteditStateE;	.scl	3;	.type	32;	.endef
	.seh_proc	_ZN8ImGuiStbL29stb_textedit_delete_selectionEP18ImGuiTextEditStatePNS_17STB_TexteditStateE
_ZN8ImGuiStbL29stb_textedit_delete_selectionEP18ImGuiTextEditStatePNS_17STB_TexteditStateE:
.LFB986:
	pushq	%rbx
	.seh_pushreg	%rbx
	subq	$32, %rsp
	.seh_stackalloc	32
	.seh_endprologue
	movq	%rdx, %rbx
	movl	60(%rcx), %edx
	movl	4(%rbx), %eax
	movl	8(%rbx), %r8d
	cmpl	%r8d, %eax
	je	.L521
	cmpl	%eax, %edx
	jge	.L522
	cmpl	%r8d, %edx
	movl	%edx, 4(%rbx)
	jl	.L536
	movl	%r8d, %eax
	movl	%edx, %r8d
	cmpl	%r8d, %eax
	je	.L537
.L524:
	cmpl	(%rbx), %edx
	jge	.L526
	movl	%edx, (%rbx)
	jmp	.L526
	.p2align 4,,10
.L522:
	cmpl	%r8d, %edx
	jge	.L538
	movl	%eax, %r8d
	jmp	.L533
	.p2align 4,,10
.L521:
	movl	(%rbx), %r9d
.L525:
	cmpl	%r9d, %edx
	jge	.L520
	cmpl	%eax, %r8d
	movl	%edx, (%rbx)
	je	.L520
.L526:
	cmpl	%r8d, %eax
	jle	.L528
	subl	%r8d, %eax
	movq	%rbx, %rdx
	movl	%eax, %r9d
	call	_ZN8ImGuiStbL19stb_textedit_deleteEP18ImGuiTextEditStatePNS_17STB_TexteditStateEii
	movl	4(%rbx), %eax
	movl	%eax, (%rbx)
	movl	%eax, 8(%rbx)
.L529:
	movb	$0, 15(%rbx)
.L520:
	addq	$32, %rsp
	popq	%rbx
	ret
	.p2align 4,,10
.L528:
	movl	%r8d, %r9d
	movq	%rbx, %rdx
	movl	%eax, %r8d
	subl	%eax, %r9d
	call	_ZN8ImGuiStbL19stb_textedit_deleteEP18ImGuiTextEditStatePNS_17STB_TexteditStateEii
	movl	8(%rbx), %eax
	movl	%eax, (%rbx)
	movl	%eax, 4(%rbx)
	jmp	.L529
	.p2align 4,,10
.L536:
	movl	%edx, %r8d
.L533:
	movl	%edx, %eax
	movl	%edx, 8(%rbx)
	cmpl	%r8d, %eax
	jne	.L524
.L537:
	movl	%eax, (%rbx)
	movl	%eax, %r9d
	jmp	.L525
	.p2align 4,,10
.L538:
	movl	%eax, %r9d
	movl	%r8d, %eax
	movl	%r9d, %r8d
	jmp	.L524
	.seh_endproc
	.p2align 4,,15
	.def	_ZN8ImGuiStbL22STB_TEXTEDIT_LAYOUTROWEPNS_14StbTexteditRowEP18ImGuiTextEditStatei.isra.36;	.scl	3;	.type	32;	.endef
	.seh_proc	_ZN8ImGuiStbL22STB_TEXTEDIT_LAYOUTROWEPNS_14StbTexteditRowEP18ImGuiTextEditStatei.isra.36
_ZN8ImGuiStbL22STB_TEXTEDIT_LAYOUTROWEPNS_14StbTexteditRowEP18ImGuiTextEditStatei.isra.36:
.LFB6527:
	.seh_endprologue
	movq	GImGui(%rip), %r10
	movss	5944(%r10), %xmm3
	movslq	%r8d, %r8
	movslq	%r9d, %r9
	leaq	(%rdx,%r8,2), %r11
	leaq	(%rdx,%r9,2), %r9
	cmpq	%r9, %r11
	jbe	.L551
	movzwl	(%r9), %edx
	leaq	2(%r9), %rax
	cmpl	$10, %edx
	movq	%rdx, %r8
	je	.L560
	movq	5936(%r10), %r10
	pxor	%xmm2, %xmm2
	pxor	%xmm0, %xmm0
	movss	(%r10), %xmm5
.L544:
	cmpl	$13, %edx
	je	.L546
	cmpl	32(%r10), %edx
	jge	.L547
	movq	40(%r10), %rdx
	movss	(%rdx,%r8,4), %xmm4
.L548:
	movaps	%xmm3, %xmm1
	divss	%xmm5, %xmm1
	mulss	%xmm4, %xmm1
	addss	%xmm1, %xmm0
.L546:
	cmpq	%rax, %r11
	jbe	.L543
	addq	$2, %rax
	movzwl	-2(%rax), %edx
	cmpl	$10, %edx
	movq	%rdx, %r8
	jne	.L544
	subq	%r9, %rax
	movaps	%xmm3, %xmm1
	sarq	%rax
	ucomiss	%xmm0, %xmm2
	addss	%xmm2, %xmm1
	jnb	.L552
	movaps	%xmm2, %xmm5
	maxss	%xmm0, %xmm5
	movaps	%xmm5, %xmm0
.L542:
	ucomiss	%xmm2, %xmm1
	jp	.L549
	je	.L540
.L549:
	movl	$0x00000000, (%rcx)
	movss	%xmm0, 4(%rcx)
	movss	%xmm1, 8(%rcx)
	movl	$0x00000000, 12(%rcx)
	movss	%xmm1, 16(%rcx)
	movl	%eax, 20(%rcx)
	ret
	.p2align 4,,10
.L547:
	movss	72(%r10), %xmm4
	jmp	.L548
	.p2align 4,,10
.L543:
	subq	%r9, %rax
	sarq	%rax
	ucomiss	%xmm2, %xmm0
	jbe	.L561
	pxor	%xmm1, %xmm1
.L540:
	addss	%xmm3, %xmm1
	jmp	.L549
	.p2align 4,,10
.L560:
	movaps	%xmm3, %xmm1
	pxor	%xmm2, %xmm2
	movl	$1, %eax
	pxor	%xmm0, %xmm0
	addss	%xmm2, %xmm1
	jmp	.L542
	.p2align 4,,10
.L552:
	pxor	%xmm0, %xmm0
	jmp	.L542
	.p2align 4,,10
.L551:
	xorl	%eax, %eax
	pxor	%xmm0, %xmm0
	pxor	%xmm1, %xmm1
	jmp	.L540
.L561:
	movaps	%xmm2, %xmm0
	movaps	%xmm2, %xmm1
	ja	.L540
	jmp	.L542
	.seh_endproc
	.section	.text.unlikely,"x"
	.def	_ZN8ImGuiStbL25stb_textedit_find_charposEPNS_12StbFindStateEP18ImGuiTextEditStateii;	.scl	3;	.type	32;	.endef
	.seh_proc	_ZN8ImGuiStbL25stb_textedit_find_charposEPNS_12StbFindStateEP18ImGuiTextEditStateii
_ZN8ImGuiStbL25stb_textedit_find_charposEPNS_12StbFindStateEP18ImGuiTextEditStateii:
.LFB983:
	pushq	%r13
	.seh_pushreg	%r13
	pushq	%r12
	.seh_pushreg	%r12
	pushq	%rbp
	.seh_pushreg	%rbp
	pushq	%rdi
	.seh_pushreg	%rdi
	pushq	%rsi
	.seh_pushreg	%rsi
	pushq	%rbx
	.seh_pushreg	%rbx
	subq	$72, %rsp
	.seh_stackalloc	72
	.seh_endprologue
	cmpl	60(%rdx), %r8d
	movq	%rcx, %rbx
	movq	%rdx, %rdi
	movl	%r8d, %ebp
	jne	.L563
	testl	%r9d, %r9d
	je	.L564
	movq	16(%rdx), %rdx
	leaq	32(%rsp), %rcx
	xorl	%r9d, %r9d
	call	_ZN8ImGuiStbL22STB_TEXTEDIT_LAYOUTROWEPNS_14StbTexteditRowEP18ImGuiTextEditStatei.isra.36
	movss	48(%rsp), %xmm0
	movl	$0x00000000, 4(%rbx)
	subss	44(%rsp), %xmm0
	movl	$0, 12(%rbx)
	movl	%ebp, 16(%rbx)
	movss	%xmm0, 8(%rbx)
	movss	36(%rsp), %xmm0
	movss	%xmm0, (%rbx)
	jmp	.L562
.L564:
	movq	$0, (%rcx)
	leaq	32(%rsp), %r12
	xorl	%esi, %esi
	movl	$1065353216, 8(%rcx)
.L567:
	cmpl	%ebp, %esi
	jge	.L566
	movq	16(%rdi), %rdx
	movl	%esi, %r9d
	movq	%r12, %rcx
	movl	60(%rdi), %r8d
	call	_ZN8ImGuiStbL22STB_TEXTEDIT_LAYOUTROWEPNS_14StbTexteditRowEP18ImGuiTextEditStatei.isra.36
	movl	%esi, %r9d
	addl	52(%rsp), %esi
	jmp	.L567
.L566:
	movl	%esi, 12(%rbx)
	movl	$0, 16(%rbx)
	movl	%r9d, 20(%rbx)
	jmp	.L562
.L563:
	movl	$0x00000000, 4(%rcx)
	leaq	32(%rsp), %r13
	xorl	%esi, %esi
	xorl	%r12d, %r12d
.L569:
	movq	16(%rdi), %rdx
	movl	%esi, %r9d
	movq	%r13, %rcx
	movl	60(%rdi), %r8d
	call	_ZN8ImGuiStbL22STB_TEXTEDIT_LAYOUTROWEPNS_14StbTexteditRowEP18ImGuiTextEditStatei.isra.36
	movl	52(%rsp), %eax
	leal	(%rax,%rsi), %edx
	cmpl	%ebp, %edx
	jg	.L568
	movss	4(%rbx), %xmm0
	movl	%esi, %r12d
	movl	%edx, %esi
	addss	40(%rsp), %xmm0
	movss	%xmm0, 4(%rbx)
	jmp	.L569
.L568:
	movss	48(%rsp), %xmm0
	movl	%r12d, 20(%rbx)
	xorl	%r12d, %r12d
	subss	44(%rsp), %xmm0
	movl	%esi, 12(%rbx)
	movl	%eax, 16(%rbx)
	movss	%xmm0, 8(%rbx)
	movss	32(%rsp), %xmm0
	movss	%xmm0, (%rbx)
.L570:
	leal	(%r12,%rsi), %eax
	cmpl	%eax, %ebp
	jle	.L562
	movl	%r12d, %r8d
	movl	%esi, %edx
	movq	%rdi, %rcx
	call	_ZN8ImGuiStbL21STB_TEXTEDIT_GETWIDTHEP18ImGuiTextEditStateii
	addss	(%rbx), %xmm0
	incl	%r12d
	movss	%xmm0, (%rbx)
	jmp	.L570
.L562:
	addq	$72, %rsp
	popq	%rbx
	popq	%rsi
	popq	%rdi
	popq	%rbp
	popq	%r12
	popq	%r13
	ret
	.seh_endproc
	.text
	.p2align 4,,15
	.def	_ZL23AddWindowToSortedBufferR8ImVectorIP11ImGuiWindowES1_;	.scl	3;	.type	32;	.endef
	.seh_proc	_ZL23AddWindowToSortedBufferR8ImVectorIP11ImGuiWindowES1_
_ZL23AddWindowToSortedBufferR8ImVectorIP11ImGuiWindowES1_:
.LFB681:
	pushq	%r13
	.seh_pushreg	%r13
	pushq	%r12
	.seh_pushreg	%r12
	pushq	%rbp
	.seh_pushreg	%rbp
	pushq	%rdi
	.seh_pushreg	%rdi
	pushq	%rsi
	.seh_pushreg	%rsi
	pushq	%rbx
	.seh_pushreg	%rbx
	subq	$40, %rsp
	.seh_stackalloc	40
	.seh_endprologue
	movslq	(%rcx), %rax
	cmpl	4(%rcx), %eax
	movq	%rcx, %rdi
	movq	%rdx, %rsi
	je	.L572
	movq	8(%rcx), %rbx
.L573:
	cmpb	$0, 136(%rsi)
	leal	1(%rax), %edx
	movl	%edx, (%rdi)
	movq	%rsi, (%rbx,%rax,8)
	je	.L571
	movl	280(%rsi), %ebx
	cmpl	$1, %ebx
	jg	.L589
	testl	%ebx, %ebx
	jg	.L580
.L571:
	addq	$40, %rsp
	popq	%rbx
	popq	%rsi
	popq	%rdi
	popq	%rbp
	popq	%r12
	popq	%r13
	ret
	.p2align 4,,10
.L589:
	movq	288(%rsi), %rcx
	movslq	%ebx, %rdx
	movl	$8, %r8d
	leaq	_ZL19ChildWindowComparerPKvS0_(%rip), %r9
	call	qsort
.L580:
	leal	-1(%rbx), %ebp
	xorl	%ebx, %ebx
	leaq	.LC2(%rip), %r13
	addq	$1, %rbp
	cmpl	%ebx, 280(%rsi)
	leaq	.LC3(%rip), %r12
	jle	.L590
	.p2align 4,,10
.L581:
	movq	288(%rsi), %rax
	movq	(%rax,%rbx,8), %rdx
	cmpb	$0, 136(%rdx)
	jne	.L591
.L582:
	addq	$1, %rbx
	cmpq	%rbx, %rbp
	je	.L571
	cmpl	%ebx, 280(%rsi)
	jg	.L581
.L590:
	movl	$856, %r8d
	movq	%r13, %rdx
	movq	%r12, %rcx
	call	_assert
	jmp	.L581
	.p2align 4,,10
.L572:
	leal	1(%rax), %ebp
	testl	%eax, %eax
	movl	$8, %edx
	jne	.L592
.L574:
	cmpl	%edx, %ebp
	movq	GImGui(%rip), %rax
	cmovl	%edx, %ebp
	movslq	%ebp, %rcx
	addl	$1, 844(%rax)
	salq	$3, %rcx
	call	*232(%rax)
	movq	8(%rdi), %rcx
	movq	%rax, %rbx
	movq	GImGui(%rip), %rax
	testq	%rcx, %rcx
	je	.L577
	movslq	(%rdi), %r8
	movq	%rcx, %rdx
	movq	%rbx, %rcx
	salq	$3, %r8
	call	memcpy
	movq	8(%rdi), %rcx
	movq	GImGui(%rip), %rax
	testq	%rcx, %rcx
	je	.L577
	subl	$1, 844(%rax)
.L577:
	call	*240(%rax)
	movq	%rbx, 8(%rdi)
	movslq	(%rdi), %rax
	movl	%ebp, 4(%rdi)
	jmp	.L573
	.p2align 4,,10
.L592:
	movl	%eax, %edx
	shrl	$31, %edx
	addl	%eax, %edx
	sarl	%edx
	addl	%eax, %edx
	jmp	.L574
	.p2align 4,,10
.L591:
	movq	%rdi, %rcx
	call	_ZL23AddWindowToSortedBufferR8ImVectorIP11ImGuiWindowES1_
	jmp	.L582
	.seh_endproc
	.p2align 4,,15
	.def	_ZN8ImGuiStbL24STB_TEXTEDIT_DELETECHARSEP18ImGuiTextEditStateii;	.scl	3;	.type	32;	.endef
	.seh_proc	_ZN8ImGuiStbL24STB_TEXTEDIT_DELETECHARSEP18ImGuiTextEditStateii
_ZN8ImGuiStbL24STB_TEXTEDIT_DELETECHARSEP18ImGuiTextEditStateii:
.LFB978:
	pushq	%r12
	.seh_pushreg	%r12
	pushq	%rbp
	.seh_pushreg	%rbp
	pushq	%rdi
	.seh_pushreg	%rdi
	pushq	%rsi
	.seh_pushreg	%rsi
	pushq	%rbx
	.seh_pushreg	%rbx
	.seh_endprologue
	movq	16(%rcx), %rdi
	movslq	%edx, %rdx
	movslq	%r8d, %rbp
	leaq	(%rdi,%rdx,2), %r10
	leaq	(%r10,%rbp,2), %rbx
	movq	%r10, %r9
	testq	%rbx, %rbx
	setne	%sil
	xorl	%r11d, %r11d
.L594:
	cmpq	%r9, %rbx
	ja	.L604
	testb	%sil, %sil
	jne	.L595
.L604:
	movzwl	(%r9), %eax
	testw	%ax, %ax
	je	.L595
	addq	$2, %r9
	cmpl	$127, %eax
	ja	.L597
	addl	$1, %r11d
	cmpq	%r9, %rbx
	ja	.L604
	testb	%sil, %sil
	je	.L604
.L595:
	subl	%r11d, 56(%rcx)
	addq	%rbp, %rdx
	subl	%r8d, 60(%rcx)
	leaq	(%rdi,%rdx,2), %rax
	leaq	2(%rax), %rdx
	movzwl	(%rax), %eax
	testw	%ax, %ax
	je	.L602
	.p2align 4,,10
.L603:
	addq	$2, %r10
	addq	$2, %rdx
	movw	%ax, -2(%r10)
	movzwl	-2(%rdx), %eax
	testw	%ax, %ax
	jne	.L603
.L602:
	xorl	%eax, %eax
	movw	%ax, (%r10)
	popq	%rbx
	popq	%rsi
	popq	%rdi
	popq	%rbp
	popq	%r12
	ret
	.p2align 4,,10
.L597:
	cmpl	$2047, %eax
	ja	.L599
	addl	$2, %r11d
	jmp	.L594
	.p2align 4,,10
.L599:
	leal	-56320(%rax), %r12d
	cmpl	$1023, %r12d
	jbe	.L594
	subl	$55296, %eax
	cmpl	$1024, %eax
	adcl	$3, %r11d
	jmp	.L594
	.seh_endproc
	.p2align 4,,15
	.def	_ZN8ImGuiStbL21stb_text_locate_coordEP18ImGuiTextEditStateff;	.scl	3;	.type	32;	.endef
	.seh_proc	_ZN8ImGuiStbL21stb_text_locate_coordEP18ImGuiTextEditStateff
_ZN8ImGuiStbL21stb_text_locate_coordEP18ImGuiTextEditStateff:
.LFB980:
	pushq	%r14
	.seh_pushreg	%r14
	pushq	%r13
	.seh_pushreg	%r13
	pushq	%r12
	.seh_pushreg	%r12
	pushq	%rbp
	.seh_pushreg	%rbp
	pushq	%rdi
	.seh_pushreg	%rdi
	pushq	%rsi
	.seh_pushreg	%rsi
	pushq	%rbx
	.seh_pushreg	%rbx
	subq	$96, %rsp
	.seh_stackalloc	96
	movaps	%xmm6, 48(%rsp)
	.seh_savexmm	%xmm6, 48
	movaps	%xmm7, 64(%rsp)
	.seh_savexmm	%xmm7, 64
	movaps	%xmm8, 80(%rsp)
	.seh_savexmm	%xmm8, 80
	.seh_endprologue
	movl	60(%rcx), %eax
	testl	%eax, %eax
	movq	%rcx, %rbp
	jle	.L615
	movq	16(%rcx), %r11
	movslq	%eax, %rdx
	xorl	%esi, %esi
	pxor	%xmm4, %xmm4
	pxor	%xmm5, %xmm5
	leaq	(%r11,%rdx,2), %r10
	movq	GImGui(%rip), %rdx
	movq	5936(%rdx), %r9
	movss	5944(%rdx), %xmm6
	movaps	%xmm6, %xmm7
	divss	(%r9), %xmm7
	.p2align 4,,10
.L629:
	movslq	%esi, %rdi
	addq	%rdi, %rdi
	leaq	(%r11,%rdi), %rbx
	cmpq	%r10, %rbx
	jnb	.L641
	movzwl	(%rbx), %ecx
	leaq	2(%rbx), %rdx
	pxor	%xmm0, %xmm0
	cmpl	$10, %ecx
	movq	%rcx, %r8
	je	.L660
.L618:
	cmpl	$13, %ecx
	je	.L622
	cmpl	32(%r9), %ecx
	jge	.L623
	movq	40(%r9), %rcx
	movss	(%rcx,%r8,4), %xmm3
.L624:
	mulss	%xmm7, %xmm3
	addss	%xmm3, %xmm0
.L622:
	cmpq	%r10, %rdx
	jnb	.L620
	addq	$2, %rdx
	movzwl	-2(%rdx), %ecx
	cmpl	$10, %ecx
	movq	%rcx, %r8
	jne	.L618
	subq	%rbx, %rdx
	movaps	%xmm6, %xmm3
	movq	%rdx, %rbx
	addss	%xmm4, %xmm3
	sarq	%rbx
	ucomiss	%xmm0, %xmm4
	jnb	.L643
	movaps	%xmm4, %xmm8
	maxss	%xmm0, %xmm8
	movaps	%xmm8, %xmm0
.L619:
	ucomiss	%xmm4, %xmm3
	jp	.L625
	je	.L617
	.p2align 4,,10
.L625:
	testl	%ebx, %ebx
	jle	.L615
	testl	%esi, %esi
	jne	.L627
	movaps	%xmm5, %xmm8
	addss	%xmm4, %xmm8
	ucomiss	%xmm2, %xmm8
	ja	.L646
.L627:
	addss	%xmm3, %xmm5
	ucomiss	%xmm2, %xmm5
	ja	.L628
	addl	%ebx, %esi
	cmpl	%eax, %esi
	jl	.L629
.L615:
	movaps	48(%rsp), %xmm6
	movaps	64(%rsp), %xmm7
	movaps	80(%rsp), %xmm8
	addq	$96, %rsp
	popq	%rbx
	popq	%rsi
	popq	%rdi
	popq	%rbp
	popq	%r12
	popq	%r13
	popq	%r14
	ret
	.p2align 4,,10
.L620:
	subq	%rbx, %rdx
	movq	%rdx, %rbx
	sarq	%rbx
	ucomiss	%xmm4, %xmm0
	jbe	.L661
	pxor	%xmm3, %xmm3
.L617:
	addss	%xmm6, %xmm3
	jmp	.L625
	.p2align 4,,10
.L623:
	movss	72(%r9), %xmm3
	jmp	.L624
	.p2align 4,,10
.L660:
	movaps	%xmm6, %xmm3
	movl	$1, %ebx
	addss	%xmm4, %xmm3
	jmp	.L619
	.p2align 4,,10
.L643:
	pxor	%xmm0, %xmm0
	jmp	.L619
	.p2align 4,,10
.L641:
	pxor	%xmm3, %xmm3
	xorl	%ebx, %ebx
	pxor	%xmm0, %xmm0
	addss	%xmm6, %xmm3
	jmp	.L625
	.p2align 4,,10
.L628:
	ucomiss	%xmm1, %xmm4
	movl	%esi, %eax
	ja	.L615
	ucomiss	%xmm1, %xmm0
	jbe	.L630
	xorl	%r14d, %r14d
	pxor	%xmm6, %xmm6
	movss	.LC1(%rip), %xmm7
	leaq	.LC2(%rip), %r13
	leaq	.LC3(%rip), %r12
	jmp	.L638
	.p2align 4,,10
.L664:
	movq	40(%rcx), %r9
	movss	(%r9,%rdx,4), %xmm2
.L635:
	movss	5944(%r8), %xmm0
	divss	(%rcx), %xmm0
	mulss	%xmm2, %xmm0
.L633:
	movaps	%xmm0, %xmm2
	addss	%xmm6, %xmm2
	ucomiss	%xmm1, %xmm2
	ja	.L662
	addq	$1, %r14
	addq	$2, %rdi
	movaps	%xmm2, %xmm6
	cmpl	%r14d, %ebx
	jle	.L630
.L638:
	leal	(%rsi,%r14), %eax
	cmpl	%eax, 8(%rbp)
	jle	.L663
.L632:
	movzwl	(%r11,%rdi), %edx
	movaps	%xmm7, %xmm0
	cmpw	$10, %dx
	je	.L633
	movq	GImGui(%rip), %r8
	movzwl	%dx, %r9d
	movq	5936(%r8), %rcx
	cmpl	32(%rcx), %r9d
	jl	.L664
	movss	72(%rcx), %xmm2
	jmp	.L635
	.p2align 4,,10
.L663:
	movl	$856, %r8d
	movq	%r13, %rdx
	movq	%r12, %rcx
	movl	%eax, 40(%rsp)
	movss	%xmm1, 44(%rsp)
	call	_assert
	movq	16(%rbp), %r11
	movss	44(%rsp), %xmm1
	movl	40(%rsp), %eax
	jmp	.L632
	.p2align 4,,10
.L646:
	xorl	%eax, %eax
	jmp	.L615
.L630:
	leal	(%rsi,%rbx), %eax
	leal	-1(%rax), %ebx
	cmpl	8(%rbp), %ebx
	jge	.L665
.L639:
	movslq	%ebx, %rdx
	cmpw	$10, (%r11,%rdx,2)
	cmove	%ebx, %eax
	jmp	.L615
.L665:
	movl	$857, %r8d
	movl	%eax, 40(%rsp)
	leaq	.LC2(%rip), %rdx
	leaq	.LC3(%rip), %rcx
	call	_assert
	movq	16(%rbp), %r11
	movl	40(%rsp), %eax
	jmp	.L639
.L662:
	mulss	.LC17(%rip), %xmm0
	xorl	%edx, %edx
	addss	%xmm6, %xmm0
	ucomiss	%xmm1, %xmm0
	setbe	%dl
	addl	%edx, %eax
	jmp	.L615
.L661:
	movaps	%xmm4, %xmm0
	movaps	%xmm4, %xmm3
	ja	.L617
	jmp	.L619
	.seh_endproc
	.p2align 4,,15
	.def	_ZN5ImGui11GetColorU32Eif.constprop.144;	.scl	3;	.type	32;	.endef
	.seh_proc	_ZN5ImGui11GetColorU32Eif.constprop.144
_ZN5ImGui11GetColorU32Eif.constprop.144:
.LFB6602:
	.seh_endprologue
	movq	GImGui(%rip), %rdx
	pxor	%xmm1, %xmm1
	movss	5120(%rdx), %xmm0
	movslq	%ecx, %rax
	addq	$328, %rax
	salq	$4, %rax
	addq	%rdx, %rax
	movss	(%rax), %xmm4
	movss	4(%rax), %xmm3
	movss	8(%rax), %xmm2
	mulss	12(%rax), %xmm0
	xorl	%eax, %eax
	ucomiss	%xmm4, %xmm1
	ja	.L667
	ucomiss	.LC18(%rip), %xmm4
	movl	$255, %eax
	jbe	.L685
.L667:
	ucomiss	%xmm3, %xmm1
	ja	.L668
	ucomiss	.LC18(%rip), %xmm3
	jbe	.L682
	orb	$-1, %ah
.L668:
	ucomiss	%xmm2, %xmm1
	ja	.L671
	ucomiss	.LC18(%rip), %xmm2
	jbe	.L683
	orl	$16711680, %eax
.L671:
	ucomiss	%xmm0, %xmm1
	ja	.L666
	ucomiss	.LC18(%rip), %xmm0
	jbe	.L684
	orl	$-16777216, %eax
.L666:
	ret
	.p2align 4,,10
.L684:
	mulss	.LC19(%rip), %xmm0
	addss	.LC17(%rip), %xmm0
	cvttss2si	%xmm0, %edx
	sall	$24, %edx
	orl	%edx, %eax
	ret
	.p2align 4,,10
.L685:
	mulss	.LC19(%rip), %xmm4
	addss	.LC17(%rip), %xmm4
	cvttss2si	%xmm4, %eax
	jmp	.L667
	.p2align 4,,10
.L682:
	mulss	.LC19(%rip), %xmm3
	addss	.LC17(%rip), %xmm3
	cvttss2si	%xmm3, %edx
	sall	$8, %edx
	orl	%edx, %eax
	jmp	.L668
	.p2align 4,,10
.L683:
	mulss	.LC19(%rip), %xmm2
	addss	.LC17(%rip), %xmm2
	cvttss2si	%xmm2, %edx
	sall	$16, %edx
	orl	%edx, %eax
	jmp	.L671
	.seh_endproc
	.section	.text$_ZN10ImDrawListC1Ev,"x"
	.linkonce discard
	.align 2
	.p2align 4,,15
	.globl	_ZN10ImDrawListC1Ev
	.def	_ZN10ImDrawListC1Ev;	.scl	2;	.type	32;	.endef
	.seh_proc	_ZN10ImDrawListC1Ev
_ZN10ImDrawListC1Ev:
.LFB145:
	pushq	%rsi
	.seh_pushreg	%rsi
	pushq	%rbx
	.seh_pushreg	%rbx
	subq	$40, %rsp
	.seh_stackalloc	40
	.seh_endprologue
	movq	$0, 80(%rcx)
	movq	%rcx, %rbx
	movq	$0, 88(%rcx)
	movq	$0, 96(%rcx)
	movq	$0, 104(%rcx)
	movq	$0, 112(%rcx)
	movq	$0, 120(%rcx)
	movq	$0, 136(%rcx)
	movq	$0, 144(%rcx)
	movq	$0, (%rcx)
	movq	$0, 8(%rcx)
	movq	$0, 16(%rcx)
	movq	$0, 24(%rcx)
	movq	$0, 32(%rcx)
	movq	$0, 40(%rcx)
	movq	$0, 48(%rcx)
.LEHB0:
	call	_ZN10ImDrawList5ClearEv
.LEHE0:
	nop
	addq	$40, %rsp
	popq	%rbx
	popq	%rsi
	ret
.L695:
	movq	144(%rbx), %rcx
	movq	%rax, %rsi
	testq	%rcx, %rcx
	je	.L688
	movq	GImGui(%rip), %rax
	subl	$1, 844(%rax)
	call	*240(%rax)
.L688:
	movq	120(%rbx), %rcx
	testq	%rcx, %rcx
	je	.L689
	movq	GImGui(%rip), %rax
	subl	$1, 844(%rax)
	call	*240(%rax)
.L689:
	movq	104(%rbx), %rcx
	testq	%rcx, %rcx
	je	.L690
	movq	GImGui(%rip), %rax
	subl	$1, 844(%rax)
	call	*240(%rax)
.L690:
	movq	88(%rbx), %rcx
	testq	%rcx, %rcx
	je	.L691
	movq	GImGui(%rip), %rax
	subl	$1, 844(%rax)
	call	*240(%rax)
.L691:
	movq	40(%rbx), %rcx
	testq	%rcx, %rcx
	je	.L692
	movq	GImGui(%rip), %rax
	subl	$1, 844(%rax)
	call	*240(%rax)
.L692:
	movq	24(%rbx), %rcx
	testq	%rcx, %rcx
	je	.L693
	movq	GImGui(%rip), %rax
	subl	$1, 844(%rax)
	call	*240(%rax)
.L693:
	movq	8(%rbx), %rcx
	testq	%rcx, %rcx
	je	.L694
	movq	GImGui(%rip), %rax
	subl	$1, 844(%rax)
	call	*240(%rax)
.L694:
	movq	%rsi, %rcx
.LEHB1:
	call	_Unwind_Resume
	nop
.LEHE1:
	.seh_handler	__gxx_personality_seh0, @unwind, @except
	.seh_handlerdata
.LLSDA145:
	.byte	0xff
	.byte	0xff
	.byte	0x1
	.uleb128 .LLSDACSE145-.LLSDACSB145
.LLSDACSB145:
	.uleb128 .LEHB0-.LFB145
	.uleb128 .LEHE0-.LEHB0
	.uleb128 .L695-.LFB145
	.uleb128 0
	.uleb128 .LEHB1-.LFB145
	.uleb128 .LEHE1-.LEHB1
	.uleb128 0
	.uleb128 0
.LLSDACSE145:
	.section	.text$_ZN10ImDrawListC1Ev,"x"
	.linkonce discard
	.seh_endproc
	.section	.text$_ZN10ImDrawListD1Ev,"x"
	.linkonce discard
	.align 2
	.p2align 4,,15
	.globl	_ZN10ImDrawListD1Ev
	.def	_ZN10ImDrawListD1Ev;	.scl	2;	.type	32;	.endef
	.seh_proc	_ZN10ImDrawListD1Ev
_ZN10ImDrawListD1Ev:
.LFB148:
	pushq	%rbx
	.seh_pushreg	%rbx
	subq	$32, %rsp
	.seh_stackalloc	32
	.seh_endprologue
	movq	%rcx, %rbx
	call	_ZN10ImDrawList15ClearFreeMemoryEv
	movq	144(%rbx), %rcx
	testq	%rcx, %rcx
	je	.L719
	movq	GImGui(%rip), %rax
	subl	$1, 844(%rax)
	call	*240(%rax)
.L719:
	movq	120(%rbx), %rcx
	testq	%rcx, %rcx
	je	.L720
	movq	GImGui(%rip), %rax
	subl	$1, 844(%rax)
	call	*240(%rax)
.L720:
	movq	104(%rbx), %rcx
	testq	%rcx, %rcx
	je	.L721
	movq	GImGui(%rip), %rax
	subl	$1, 844(%rax)
	call	*240(%rax)
.L721:
	movq	88(%rbx), %rcx
	testq	%rcx, %rcx
	je	.L722
	movq	GImGui(%rip), %rax
	subl	$1, 844(%rax)
	call	*240(%rax)
.L722:
	movq	40(%rbx), %rcx
	testq	%rcx, %rcx
	je	.L723
	movq	GImGui(%rip), %rax
	subl	$1, 844(%rax)
	call	*240(%rax)
.L723:
	movq	24(%rbx), %rcx
	testq	%rcx, %rcx
	je	.L724
	movq	GImGui(%rip), %rax
	subl	$1, 844(%rax)
	call	*240(%rax)
.L724:
	movq	8(%rbx), %rcx
	testq	%rcx, %rcx
	je	.L718
	movq	GImGui(%rip), %rax
	subl	$1, 844(%rax)
	movq	240(%rax), %rax
	addq	$32, %rsp
	popq	%rbx
	rex.W jmp	*%rax
	.p2align 4,,10
.L718:
	addq	$32, %rsp
	popq	%rbx
	ret
	.seh_handler	__gxx_personality_seh0, @unwind, @except
	.seh_handlerdata
.LLSDA148:
	.byte	0xff
	.byte	0xff
	.byte	0x1
	.uleb128 .LLSDACSE148-.LLSDACSB148
.LLSDACSB148:
.LLSDACSE148:
	.section	.text$_ZN10ImDrawListD1Ev,"x"
	.linkonce discard
	.seh_endproc
	.section	.text$_Z6sscanfPKcS0_z,"x"
	.linkonce discard
	.p2align 4,,15
	.globl	_Z6sscanfPKcS0_z
	.def	_Z6sscanfPKcS0_z;	.scl	2;	.type	32;	.endef
	.seh_proc	_Z6sscanfPKcS0_z
_Z6sscanfPKcS0_z:
.LFB163:
	subq	$56, %rsp
	.seh_stackalloc	56
	.seh_endprologue
	movq	%r8, 80(%rsp)
	leaq	80(%rsp), %r8
	movq	%r9, 88(%rsp)
	movq	%r8, 40(%rsp)
	call	__mingw_vsscanf
	addq	$56, %rsp
	ret
	.seh_endproc
	.section .rdata,"dr"
.LC20:
	.ascii "%d\0"
.LC21:
	.ascii "%f\0"
	.text
	.p2align 4,,15
	.def	_ZL23DataTypeApplyOpFromTextPKcS0_13ImGuiDataTypePvS0_;	.scl	3;	.type	32;	.endef
	.seh_proc	_ZL23DataTypeApplyOpFromTextPKcS0_13ImGuiDataTypePvS0_
_ZL23DataTypeApplyOpFromTextPKcS0_13ImGuiDataTypePvS0_:
.LFB921:
	pushq	%r12
	.seh_pushreg	%r12
	pushq	%rbp
	.seh_pushreg	%rbp
	pushq	%rdi
	.seh_pushreg	%rdi
	pushq	%rsi
	.seh_pushreg	%rsi
	pushq	%rbx
	.seh_pushreg	%rbx
	subq	$80, %rsp
	.seh_stackalloc	80
	movaps	%xmm6, 64(%rsp)
	.seh_savexmm	%xmm6, 64
	.seh_endprologue
	movq	%rcx, %rbx
	movq	%rdx, %rcx
	movsbl	(%rbx), %eax
	cmpl	$9, %eax
	movl	%eax, %esi
	jne	.L793
	.p2align 4,,10
.L788:
	addq	$1, %rbx
	movsbl	(%rbx), %eax
	cmpl	$9, %eax
	movl	%eax, %esi
	je	.L788
.L793:
	cmpl	$32, %eax
	je	.L788
	leal	-42(%rsi), %eax
	cmpb	$1, %al
	jbe	.L783
	cmpb	$47, %sil
	je	.L783
	movl	%esi, %eax
	xorl	%esi, %esi
.L749:
	xorl	%edi, %edi
	testb	%al, %al
	je	.L745
	testl	%r8d, %r8d
	jne	.L754
	movl	(%r9), %ebp
	leaq	.LC20(%rip), %rax
	cmpq	$0, 160(%rsp)
	cmovne	160(%rsp), %rax
	testb	%sil, %sil
	movq	%rax, 160(%rsp)
	movl	%ebp, 56(%rsp)
	jne	.L796
	movl	$0x00000000, 60(%rsp)
	leaq	56(%rsp), %r12
.L763:
	movq	160(%rsp), %rdx
	movq	%r12, %r8
	movq	%rbx, %rcx
	movq	%r9, 40(%rsp)
	call	_Z6sscanfPKcS0_z
	movq	40(%rsp), %r9
	cmpl	$1, %eax
	je	.L767
.L795:
	movl	(%r9), %eax
.L760:
	cmpl	%eax, %ebp
	setne	%dil
.L745:
	movaps	64(%rsp), %xmm6
	movl	%edi, %eax
	addq	$80, %rsp
	popq	%rbx
	popq	%rsi
	popq	%rdi
	popq	%rbp
	popq	%r12
	ret
	.p2align 4,,10
.L783:
	movsbl	1(%rbx), %edx
	leaq	1(%rbx), %r10
	cmpl	$9, %edx
	movl	%edx, %eax
	je	.L784
	cmpl	$32, %edx
	movq	%r10, %rbx
	jne	.L749
.L784:
	movq	%r10, %rbx
	.p2align 4,,10
.L789:
	addq	$1, %rbx
	movsbl	(%rbx), %edx
	cmpl	$32, %edx
	movl	%edx, %eax
	je	.L789
	cmpl	$9, %edx
	je	.L789
	jmp	.L749
	.p2align 4,,10
.L754:
	cmpl	$1, %r8d
	jne	.L745
	movss	(%r9), %xmm6
	testb	%sil, %sil
	movq	%r9, 40(%rsp)
	movss	%xmm6, 56(%rsp)
	je	.L768
	leaq	56(%rsp), %r8
	leaq	.LC21(%rip), %rdx
	call	_Z6sscanfPKcS0_z
	movq	40(%rsp), %r9
	testl	%eax, %eax
	jle	.L771
	leaq	60(%rsp), %r8
	movq	%rbx, %rcx
	movq	%r9, 40(%rsp)
	leaq	.LC21(%rip), %rdx
	movl	$0x00000000, 60(%rsp)
	call	_Z6sscanfPKcS0_z
	testl	%eax, %eax
	jle	.L771
	cmpb	$43, %sil
	movss	60(%rsp), %xmm0
	movq	40(%rsp), %r9
	jne	.L772
	addss	56(%rsp), %xmm0
	movss	%xmm0, (%r9)
.L773:
	ucomiss	%xmm0, %xmm6
	movl	$1, %eax
	setp	%dil
	cmovne	%eax, %edi
	jmp	.L745
	.p2align 4,,10
.L796:
	leaq	56(%rsp), %r12
	movq	%rax, %rdx
	movq	%r9, 40(%rsp)
	movq	%r12, %r8
	call	_Z6sscanfPKcS0_z
	testl	%eax, %eax
	jle	.L745
	cmpb	$43, %sil
	movl	$0x00000000, 60(%rsp)
	movq	40(%rsp), %r9
	jne	.L758
	leaq	60(%rsp), %r8
	movq	%rbx, %rcx
	leaq	.LC21(%rip), %rdx
	call	_Z6sscanfPKcS0_z
	movq	40(%rsp), %r9
	cmpl	$1, %eax
	jne	.L795
	pxor	%xmm0, %xmm0
	cvtsi2ss	56(%rsp), %xmm0
	addss	60(%rsp), %xmm0
	cvttss2si	%xmm0, %eax
	movl	%eax, (%r9)
	jmp	.L760
.L768:
	leaq	60(%rsp), %r8
	movq	%rbx, %rcx
	movl	$0x00000000, 60(%rsp)
	leaq	.LC21(%rip), %rdx
	call	_Z6sscanfPKcS0_z
	movss	60(%rsp), %xmm0
	testl	%eax, %eax
	movq	40(%rsp), %r9
	jg	.L775
.L771:
	xorl	%edi, %edi
	jmp	.L745
.L775:
	movss	%xmm0, (%r9)
	jmp	.L773
.L758:
	cmpb	$42, %sil
	je	.L797
	cmpb	$47, %sil
	jne	.L763
	leaq	60(%rsp), %r8
	movq	%rbx, %rcx
	movq	%r9, 40(%rsp)
	leaq	.LC21(%rip), %rdx
	call	_Z6sscanfPKcS0_z
	movq	40(%rsp), %r9
	cmpl	$1, %eax
	jne	.L795
	movss	60(%rsp), %xmm1
	ucomiss	.LC0(%rip), %xmm1
	jp	.L785
	je	.L795
.L785:
	pxor	%xmm0, %xmm0
	cvtsi2ss	56(%rsp), %xmm0
	divss	%xmm1, %xmm0
	cvttss2si	%xmm0, %eax
	movl	%eax, (%r9)
	jmp	.L760
.L797:
	leaq	60(%rsp), %r8
	movq	%rbx, %rcx
	movq	%r9, 40(%rsp)
	leaq	.LC21(%rip), %rdx
	call	_Z6sscanfPKcS0_z
	movq	40(%rsp), %r9
	cmpl	$1, %eax
	jne	.L795
	pxor	%xmm0, %xmm0
	cvtsi2ss	56(%rsp), %xmm0
	mulss	60(%rsp), %xmm0
	cvttss2si	%xmm0, %eax
	movl	%eax, (%r9)
	jmp	.L760
.L767:
	movl	56(%rsp), %eax
	movl	%eax, (%r9)
	jmp	.L760
.L772:
	cmpb	$42, %sil
	jne	.L774
	mulss	56(%rsp), %xmm0
	movss	%xmm0, (%r9)
	jmp	.L773
.L774:
	cmpb	$47, %sil
	jne	.L775
	ucomiss	.LC0(%rip), %xmm0
	jp	.L776
	jne	.L776
	movss	(%r9), %xmm0
	jmp	.L773
.L776:
	movss	56(%rsp), %xmm1
	divss	%xmm0, %xmm1
	movaps	%xmm1, %xmm0
	movss	%xmm1, (%r9)
	jmp	.L773
	.seh_endproc
	.section	.text$_Z7fprintfP6_iobufPKcz,"x"
	.linkonce discard
	.p2align 4,,15
	.globl	_Z7fprintfP6_iobufPKcz
	.def	_Z7fprintfP6_iobufPKcz;	.scl	2;	.type	32;	.endef
	.seh_proc	_Z7fprintfP6_iobufPKcz
_Z7fprintfP6_iobufPKcz:
.LFB169:
	subq	$56, %rsp
	.seh_stackalloc	56
	.seh_endprologue
	movq	%r8, 80(%rsp)
	leaq	80(%rsp), %r8
	movq	%r9, 88(%rsp)
	movq	%r8, 40(%rsp)
	call	__mingw_vfprintf
	addq	$56, %rsp
	ret
	.seh_endproc
	.section	.text$_ZN18ImGuiTextEditStateD1Ev,"x"
	.linkonce discard
	.align 2
	.p2align 4,,15
	.globl	_ZN18ImGuiTextEditStateD1Ev
	.def	_ZN18ImGuiTextEditStateD1Ev;	.scl	2;	.type	32;	.endef
	.seh_proc	_ZN18ImGuiTextEditStateD1Ev
_ZN18ImGuiTextEditStateD1Ev:
.LFB538:
	pushq	%rbx
	.seh_pushreg	%rbx
	subq	$32, %rsp
	.seh_stackalloc	32
	.seh_endprologue
	movq	%rcx, %rbx
	movq	48(%rcx), %rcx
	testq	%rcx, %rcx
	je	.L800
	movq	GImGui(%rip), %rax
	subl	$1, 844(%rax)
	call	*240(%rax)
.L800:
	movq	32(%rbx), %rcx
	testq	%rcx, %rcx
	je	.L801
	movq	GImGui(%rip), %rax
	subl	$1, 844(%rax)
	call	*240(%rax)
.L801:
	movq	16(%rbx), %rcx
	testq	%rcx, %rcx
	je	.L799
	movq	GImGui(%rip), %rax
	subl	$1, 844(%rax)
	movq	240(%rax), %rax
	addq	$32, %rsp
	popq	%rbx
	rex.W jmp	*%rax
	.p2align 4,,10
.L799:
	addq	$32, %rsp
	popq	%rbx
	ret
	.seh_handler	__gxx_personality_seh0, @unwind, @except
	.seh_handlerdata
.LLSDA538:
	.byte	0xff
	.byte	0xff
	.byte	0x1
	.uleb128 .LLSDACSE538-.LLSDACSB538
.LLSDACSB538:
.LLSDACSE538:
	.section	.text$_ZN18ImGuiTextEditStateD1Ev,"x"
	.linkonce discard
	.seh_endproc
	.text
	.align 2
	.p2align 4,,15
	.globl	_ZN10ImGuiStyleC2Ev
	.def	_ZN10ImGuiStyleC2Ev;	.scl	2;	.type	32;	.endef
	.seh_proc	_ZN10ImGuiStyleC2Ev
_ZN10ImGuiStyleC2Ev:
.LFB559:
	.seh_endprologue
	leaq	128(%rcx), %rax
	leaq	816(%rcx), %rdx
	.p2align 4,,10
.L810:
	movq	$0, (%rax)
	addq	$16, %rax
	movq	$0, -8(%rax)
	cmpq	%rax, %rdx
	jne	.L810
	movaps	.LC22(%rip), %xmm0
	movq	$0, 64(%rcx)
	movb	$1, 120(%rcx)
	movlps	%xmm0, (%rcx)
	movhps	%xmm0, 8(%rcx)
	movaps	.LC23(%rip), %xmm0
	movb	$1, 121(%rcx)
	movlps	%xmm0, 16(%rcx)
	movhps	%xmm0, 24(%rcx)
	movaps	.LC24(%rip), %xmm0
	movlps	%xmm0, 32(%rcx)
	movhps	%xmm0, 40(%rcx)
	movaps	.LC25(%rip), %xmm0
	movlps	%xmm0, 48(%rcx)
	movhps	%xmm0, 56(%rcx)
	movaps	.LC26(%rip), %xmm0
	movhps	%xmm0, 72(%rcx)
	movaps	.LC27(%rip), %xmm0
	movlps	%xmm0, 80(%rcx)
	movhps	%xmm0, 88(%rcx)
	movaps	.LC28(%rip), %xmm0
	movlps	%xmm0, 96(%rcx)
	movhps	%xmm0, 104(%rcx)
	movss	.LC29(%rip), %xmm0
	movss	%xmm0, 112(%rcx)
	movss	%xmm0, 116(%rcx)
	movaps	.LC30(%rip), %xmm0
	movlps	%xmm0, 124(%rcx)
	movhps	%xmm0, 132(%rcx)
	movaps	.LC31(%rip), %xmm0
	movlps	%xmm0, 140(%rcx)
	movhps	%xmm0, 148(%rcx)
	movss	.LC32(%rip), %xmm0
	movlps	%xmm0, 156(%rcx)
	movss	.LC33(%rip), %xmm0
	movlps	%xmm0, 172(%rcx)
	movaps	.LC34(%rip), %xmm0
	movq	$0, 164(%rcx)
	movlps	%xmm0, 188(%rcx)
	movhps	%xmm0, 196(%rcx)
	movaps	.LC35(%rip), %xmm0
	movq	$0, 180(%rcx)
	movlps	%xmm0, 204(%rcx)
	movhps	%xmm0, 212(%rcx)
	movss	.LC36(%rip), %xmm0
	movlps	%xmm0, 220(%rcx)
	movaps	.LC37(%rip), %xmm0
	movq	$0, 228(%rcx)
	movlps	%xmm0, 236(%rcx)
	movhps	%xmm0, 244(%rcx)
	movaps	.LC38(%rip), %xmm0
	movlps	%xmm0, 252(%rcx)
	movhps	%xmm0, 260(%rcx)
	movaps	.LC39(%rip), %xmm0
	movlps	%xmm0, 268(%rcx)
	movhps	%xmm0, 276(%rcx)
	movaps	.LC40(%rip), %xmm0
	movlps	%xmm0, 284(%rcx)
	movhps	%xmm0, 292(%rcx)
	movaps	.LC41(%rip), %xmm0
	movlps	%xmm0, 300(%rcx)
	movhps	%xmm0, 308(%rcx)
	movaps	.LC42(%rip), %xmm0
	movlps	%xmm0, 316(%rcx)
	movhps	%xmm0, 324(%rcx)
	movaps	.LC43(%rip), %xmm0
	movlps	%xmm0, 332(%rcx)
	movhps	%xmm0, 340(%rcx)
	movaps	.LC44(%rip), %xmm0
	movlps	%xmm0, 348(%rcx)
	movhps	%xmm0, 356(%rcx)
	movaps	.LC45(%rip), %xmm0
	movlps	%xmm0, 364(%rcx)
	movhps	%xmm0, 372(%rcx)
	movaps	.LC46(%rip), %xmm0
	movlps	%xmm0, 380(%rcx)
	movhps	%xmm0, 388(%rcx)
	movaps	.LC47(%rip), %xmm0
	movlps	%xmm0, 396(%rcx)
	movhps	%xmm0, 404(%rcx)
	movaps	.LC48(%rip), %xmm0
	movlps	%xmm0, 412(%rcx)
	movhps	%xmm0, 420(%rcx)
	movaps	.LC49(%rip), %xmm0
	movlps	%xmm0, 428(%rcx)
	movhps	%xmm0, 436(%rcx)
	movaps	.LC50(%rip), %xmm0
	movlps	%xmm0, 444(%rcx)
	movhps	%xmm0, 452(%rcx)
	movaps	.LC51(%rip), %xmm0
	movlps	%xmm0, 460(%rcx)
	movhps	%xmm0, 468(%rcx)
	movaps	.LC52(%rip), %xmm0
	movlps	%xmm0, 476(%rcx)
	movhps	%xmm0, 484(%rcx)
	movaps	.LC53(%rip), %xmm0
	movlps	%xmm0, 492(%rcx)
	movhps	%xmm0, 500(%rcx)
	movaps	.LC54(%rip), %xmm0
	movaps	.LC62(%rip), %xmm1
	movlps	%xmm0, 508(%rcx)
	movhps	%xmm0, 516(%rcx)
	movaps	.LC55(%rip), %xmm0
	movlps	%xmm1, 636(%rcx)
	movlps	%xmm0, 524(%rcx)
	movhps	%xmm0, 532(%rcx)
	movaps	.LC56(%rip), %xmm0
	movhps	%xmm1, 644(%rcx)
	movaps	.LC63(%rip), %xmm1
	movlps	%xmm0, 540(%rcx)
	movhps	%xmm0, 548(%rcx)
	movaps	.LC57(%rip), %xmm0
	movlps	%xmm1, 652(%rcx)
	movlps	%xmm0, 556(%rcx)
	movhps	%xmm0, 564(%rcx)
	movaps	.LC58(%rip), %xmm0
	movhps	%xmm1, 660(%rcx)
	movaps	.LC64(%rip), %xmm1
	movlps	%xmm0, 572(%rcx)
	movhps	%xmm0, 580(%rcx)
	movaps	.LC59(%rip), %xmm0
	movlps	%xmm1, 668(%rcx)
	movlps	%xmm0, 588(%rcx)
	movhps	%xmm0, 596(%rcx)
	movaps	.LC60(%rip), %xmm0
	movlps	%xmm0, 604(%rcx)
	movhps	%xmm0, 612(%rcx)
	movaps	.LC61(%rip), %xmm0
	movlps	%xmm0, 620(%rcx)
	movhps	%xmm0, 628(%rcx)
	movhps	%xmm1, 676(%rcx)
	movaps	.LC65(%rip), %xmm1
	movlps	%xmm0, 716(%rcx)
	movhps	%xmm0, 724(%rcx)
	movaps	.LC67(%rip), %xmm0
	movlps	%xmm1, 684(%rcx)
	movlps	%xmm0, 732(%rcx)
	movhps	%xmm0, 740(%rcx)
	movlps	%xmm0, 748(%rcx)
	movhps	%xmm0, 756(%rcx)
	movaps	.LC68(%rip), %xmm0
	movhps	%xmm1, 692(%rcx)
	movaps	.LC66(%rip), %xmm1
	movlps	%xmm0, 764(%rcx)
	movhps	%xmm0, 772(%rcx)
	movaps	.LC69(%rip), %xmm0
	movlps	%xmm1, 700(%rcx)
	movlps	%xmm0, 780(%rcx)
	movhps	%xmm0, 788(%rcx)
	movaps	.LC70(%rip), %xmm0
	movhps	%xmm1, 708(%rcx)
	movlps	%xmm0, 796(%rcx)
	movhps	%xmm0, 804(%rcx)
	movl	$0x3eb33333, 812(%rcx)
	ret
	.seh_endproc
	.globl	_ZN10ImGuiStyleC1Ev
	.def	_ZN10ImGuiStyleC1Ev;	.scl	2;	.type	32;	.endef
	.set	_ZN10ImGuiStyleC1Ev,_ZN10ImGuiStyleC2Ev
	.section .rdata,"dr"
.LC73:
	.ascii "imgui.ini\0"
.LC74:
	.ascii "imgui_log.txt\0"
	.text
	.align 2
	.p2align 4,,15
	.globl	_ZN7ImGuiIOC2Ev
	.def	_ZN7ImGuiIOC2Ev;	.scl	2;	.type	32;	.endef
	.seh_proc	_ZN7ImGuiIOC2Ev
_ZN7ImGuiIOC2Ev:
.LFB562:
	pushq	%rsi
	.seh_pushreg	%rsi
	pushq	%rbx
	.seh_pushreg	%rbx
	subq	$40, %rsp
	.seh_stackalloc	40
	.seh_endprologue
	leaq	.LC73(%rip), %rsi
	xorl	%edx, %edx
	movl	$5112, %r8d
	movq	$0, 876(%rcx)
	movq	$0, 884(%rcx)
	movq	$0, 892(%rcx)
	movq	$0, 900(%rcx)
	movl	$0x00000000, 912(%rcx)
	movl	$0x00000000, 908(%rcx)
	call	memset
	movaps	.LC72(%rip), %xmm0
	movq	%rax, %r9
	movss	.LC1(%rip), %xmm1
	movlps	%xmm0, (%rax)
	movhps	%xmm0, 8(%rax)
	leaq	.LC74(%rip), %rax
	movq	%rsi, %xmm0
	movq	%rax, %xmm2
	movl	$0x3f800000, 144(%r9)
	leaq	_ZL19GImDefaultFontAtlas(%rip), %rax
	punpcklqdq	%xmm2, %xmm0
	movups	%xmm0, 16(%r9)
	movaps	.LC75(%rip), %xmm0
	movq	%rax, 136(%r9)
	movabsq	$4575657222473777152, %rax
	movq	%rax, 160(%r9)
	movabsq	$-4647714812233515008, %rax
	movq	%rax, 256(%r9)
	movq	%rax, 860(%r9)
	movabsq	$4665729215006087578, %rax
	movq	%rax, 32(%r9)
	leaq	3060(%r9), %rax
	shrq	$2, %rax
	movl	$1086324736, 40(%r9)
	negq	%rax
	movlps	%xmm0, 972(%r9)
	andl	$3, %eax
	movhps	%xmm0, 980(%r9)
	movlps	%xmm0, 952(%r9)
	movhps	%xmm0, 960(%r9)
	movss	%xmm1, 988(%r9)
	movss	%xmm1, 968(%r9)
	je	.L817
	movss	%xmm1, 3060(%r9)
	cmpl	$1, %eax
	movss	%xmm1, 1012(%r9)
	je	.L818
	movss	%xmm1, 3064(%r9)
	cmpl	$2, %eax
	movss	%xmm1, 1016(%r9)
	je	.L819
	movss	%xmm1, 3068(%r9)
	movl	$509, %esi
	movl	$3, %r11d
	movss	%xmm1, 1020(%r9)
	jmp	.L813
.L817:
	movl	$512, %esi
	xorl	%r11d, %r11d
.L813:
	movl	$512, %ebx
	xorl	%edx, %edx
	subl	%eax, %ebx
	movl	%eax, %eax
	leaq	3060(,%rax,4), %rax
	movl	%ebx, %r10d
	leaq	(%r9,%rax), %r8
	shrl	$2, %r10d
	leaq	-2048(%r9,%rax), %rcx
	xorl	%eax, %eax
	.p2align 4,,10
.L815:
	addl	$1, %edx
	movaps	%xmm0, (%r8,%rax)
	movlps	%xmm0, (%rcx,%rax)
	movhps	%xmm0, 8(%rcx,%rax)
	addq	$16, %rax
	cmpl	%r10d, %edx
	jb	.L815
	movl	%ebx, %edx
	andl	$-4, %edx
	leal	(%rdx,%r11), %eax
	subl	%edx, %esi
	cmpl	%ebx, %edx
	je	.L816
	movslq	%eax, %rdx
	cmpl	$1, %esi
	leaq	(%r9,%rdx,4), %rdx
	movss	%xmm1, 3060(%rdx)
	movss	%xmm1, 1012(%rdx)
	leal	1(%rax), %edx
	je	.L816
	movslq	%edx, %rdx
	addl	$2, %eax
	cmpl	$2, %esi
	leaq	(%r9,%rdx,4), %rdx
	movss	%xmm1, 3060(%rdx)
	movss	%xmm1, 1012(%rdx)
	je	.L816
	cltq
	leaq	(%r9,%rax,4), %rax
	movss	%xmm1, 3060(%rax)
	movss	%xmm1, 1012(%rax)
.L816:
	movq	$-1, %rax
	movq	$0, 128(%r9)
	movq	%rax, 44(%r9)
	movq	%rax, 52(%r9)
	movq	%rax, 60(%r9)
	movq	%rax, 68(%r9)
	movq	%rax, 76(%r9)
	movq	%rax, 84(%r9)
	movq	%rax, 92(%r9)
	movq	%rax, 100(%r9)
	movq	%rax, 108(%r9)
	movl	%eax, 116(%r9)
	movabsq	$4417130516432551936, %rax
	movq	%rax, 120(%r9)
	movq	.refptr.malloc(%rip), %rax
	movq	$0, 192(%r9)
	movq	$0, 216(%r9)
	movq	%rax, 224(%r9)
	movq	.refptr.free(%rip), %rax
	movq	%rax, 232(%r9)
	leaq	_ZL30GetClipboardTextFn_DefaultImplPv(%rip), %rax
	movq	%rax, 200(%r9)
	leaq	_ZL30SetClipboardTextFn_DefaultImplPvPKc(%rip), %rax
	movq	%rax, 208(%r9)
	leaq	_ZL34ImeSetInputScreenPosFn_DefaultImplii(%rip), %rax
	movq	%rax, 240(%r9)
	addq	$40, %rsp
	popq	%rbx
	popq	%rsi
	ret
.L818:
	movl	$511, %esi
	movl	$1, %r11d
	jmp	.L813
.L819:
	movl	$510, %esi
	movl	$2, %r11d
	jmp	.L813
	.seh_endproc
	.globl	_ZN7ImGuiIOC1Ev
	.def	_ZN7ImGuiIOC1Ev;	.scl	2;	.type	32;	.endef
	.set	_ZN7ImGuiIOC1Ev,_ZN7ImGuiIOC2Ev
	.section .rdata,"dr"
.LC79:
	.ascii "##Overlay\0"
	.section	.text$_ZN12ImGuiContextC1Ev,"x"
	.linkonce discard
	.align 2
	.p2align 4,,15
	.globl	_ZN12ImGuiContextC1Ev
	.def	_ZN12ImGuiContextC1Ev;	.scl	2;	.type	32;	.endef
	.seh_proc	_ZN12ImGuiContextC1Ev
_ZN12ImGuiContextC1Ev:
.LFB546:
	pushq	%r12
	.seh_pushreg	%r12
	pushq	%rbp
	.seh_pushreg	%rbp
	pushq	%rdi
	.seh_pushreg	%rdi
	pushq	%rsi
	.seh_pushreg	%rsi
	pushq	%rbx
	.seh_pushreg	%rbx
	subq	$32, %rsp
	.seh_stackalloc	32
	.seh_endprologue
	movq	%rcx, %rbx
	leaq	8(%rcx), %rcx
	call	_ZN7ImGuiIOC1Ev
	leaq	5120(%rbx), %rcx
	call	_ZN10ImGuiStyleC1Ev
	leaq	6392(%rbx), %rsi
	movabsq	$9187343237679939583, %rax
	movq	$0, 5952(%rbx)
	movq	%rax, 6260(%rbx)
	movq	%rsi, %rcx
	movabsq	$-36028797027352577, %rax
	movq	$0, 5976(%rbx)
	leaq	6336(%rbx), %r12
	movq	$0, 5984(%rbx)
	movq	$0, 5992(%rbx)
	movq	$0, 6000(%rbx)
	movq	$0, 6016(%rbx)
	movq	$0, 6024(%rbx)
	movq	$0, 6080(%rbx)
	movq	$0, 6112(%rbx)
	movq	$0, 6120(%rbx)
	movq	$0, 6136(%rbx)
	movq	$0, 6144(%rbx)
	movq	$0, 6152(%rbx)
	movq	$0, 6160(%rbx)
	movq	$0, 6168(%rbx)
	movq	$0, 6176(%rbx)
	movq	$0, 6184(%rbx)
	movq	$0, 6192(%rbx)
	movq	$0, 6200(%rbx)
	movq	$0, 6208(%rbx)
	movq	$0, 6216(%rbx)
	movq	$0, 6224(%rbx)
	movq	$0, 6232(%rbx)
	movq	%rax, 6268(%rbx)
	movb	$0, 6304(%rbx)
	movq	$0, 6312(%rbx)
	movq	$0, 6320(%rbx)
	movl	$0, 6328(%rbx)
	movq	$0, 6336(%rbx)
	movq	$0, 6344(%rbx)
	movq	$0, 6352(%rbx)
	movq	$0, 6360(%rbx)
	movq	$0, 6368(%rbx)
	movq	$0, 6376(%rbx)
.LEHB2:
	call	_ZN10ImDrawListC1Ev
.LEHE2:
	leaq	6912(%rbx), %rdi
	xorl	%edx, %edx
	movq	$0, 6552(%rbx)
	movl	$3304, %r8d
	movq	$0, 6560(%rbx)
	movq	%rdi, %rcx
	movq	$0, 6568(%rbx)
	leaq	6548(%rbx), %rbp
	movq	$0, 6576(%rbx)
	movq	$0, 6584(%rbx)
	movq	$0, 6592(%rbx)
	movq	$0, 6604(%rbx)
	movq	$0, 6612(%rbx)
	movq	$0, 6620(%rbx)
	movq	$0, 6628(%rbx)
	movq	$0, 6636(%rbx)
	movq	$0, 6644(%rbx)
	movq	$0, 6656(%rbx)
	movq	$0, 6664(%rbx)
	movq	$0, 6672(%rbx)
	movq	$0, 6680(%rbx)
	movq	$0, 6688(%rbx)
	movq	$0, 6696(%rbx)
	movq	$0, 6708(%rbx)
	movq	$0, 6716(%rbx)
	movq	$0, 6724(%rbx)
	movq	$0, 6732(%rbx)
	movq	$0, 6740(%rbx)
	movq	$0, 6748(%rbx)
	movq	$0, 6760(%rbx)
	movq	$0, 6768(%rbx)
	movq	$0, 6776(%rbx)
	movq	$0, 6784(%rbx)
	movq	$0, 6792(%rbx)
	movq	$0, 6800(%rbx)
	movq	$0, 6812(%rbx)
	movq	$0, 6820(%rbx)
	movq	$0, 6828(%rbx)
	movq	$0, 6836(%rbx)
	movq	$0, 6844(%rbx)
	movq	$0, 6852(%rbx)
	movq	$0, 6864(%rbx)
	movq	$0, 6872(%rbx)
	movq	$0, 6880(%rbx)
	movq	$0, 6888(%rbx)
	movq	$0, 6896(%rbx)
	movq	$0, 6904(%rbx)
	call	memset
	leaq	10216(%rbx), %rcx
.LEHB3:
	call	_ZN6ImFontC1Ev
.LEHE3:
	movss	.LC1(%rip), %xmm1
	movb	$0, (%rbx)
	xorl	%edx, %edx
	movq	%rbp, %rdi
	pxor	%xmm0, %xmm0
	movl	$1024, %r8d
	movups	%xmm0, 6032(%rbx)
	movq	$-1, %rsi
	movups	%xmm0, 6088(%rbx)
	pxor	%xmm0, %xmm0
	leaq	10384(%rbx), %rcx
	movups	%xmm0, 6244(%rbx)
	movaps	.LC76(%rip), %xmm0
	movss	%xmm1, 6080(%rbx)
	movss	%xmm1, 6084(%rbx)
	movlps	%xmm0, 6260(%rbx)
	movhps	%xmm0, 6268(%rbx)
	movl	$0, 10340(%rbx)
	movl	$0, 10336(%rbx)
	movq	$0, 10344(%rbx)
	movq	$0, 5936(%rbx)
	movq	$0, 5944(%rbx)
	movq	$0, 5952(%rbx)
	movq	$0, 5960(%rbx)
	movq	%rsi, 5968(%rbx)
	movq	$0, 6008(%rbx)
	movq	$0, 6048(%rbx)
	movl	$0, 6056(%rbx)
	movb	$0, 6060(%rbx)
	movq	$0, 6064(%rbx)
	movl	$0, 6072(%rbx)
	movb	$0, 6076(%rbx)
	movb	$0, 6077(%rbx)
	movb	$0, 6078(%rbx)
	movl	$0, 6104(%rbx)
	movl	$0x00000000, 6128(%rbx)
	movq	$0, 6216(%rbx)
	movq	$0, 6224(%rbx)
	movb	$0, 6240(%rbx)
	movq	$0, 6280(%rbx)
	movaps	.LC77(%rip), %xmm0
	movq	$0, 6288(%rbx)
	movhps	%xmm0, 10360(%rbx)
	movaps	.LC78(%rip), %xmm0
	movb	$0, 6296(%rbx)
	movb	$0, 6297(%rbx)
	movb	$0, 6298(%rbx)
	movl	$0, 6300(%rbx)
	movl	$0, 10328(%rbx)
	movq	$0, 10352(%rbx)
	movlps	%xmm0, 10368(%rbx)
	movq	$0, 10376(%rbx)
	call	memset
	movl	$45, %ecx
	movl	$3073, %r8d
	movabsq	$-4647714812233515008, %rax
	movq	%rax, 11424(%rbx)
	movabsq	$8589934592, %rdx
	movq	%rax, 11416(%rbx)
	leaq	.LC79(%rip), %rax
	movq	%rax, 6440(%rbx)
	xorl	%eax, %eax
	movq	$0, 11408(%rbx)
	movl	$0x00000000, 6384(%rbx)
	movl	$0, 6544(%rbx)
	rep stosq
	movl	$60, %ecx
	movl	$0, (%rdi)
	movq	%rdx, 11456(%rbx)
	leaq	11464(%rbx), %rdx
	movq	%rdx, %rdi
	xorl	%edx, %edx
	movb	$0, 11432(%rbx)
	movq	$0, 11440(%rbx)
	movq	$0, 11448(%rbx)
	rep stosq
	leaq	11960(%rbx), %rcx
	movq	$0, 11944(%rbx)
	movq	%rsi, 11952(%rbx)
	addq	$32, %rsp
	popq	%rbx
	popq	%rsi
	popq	%rdi
	popq	%rbp
	popq	%r12
	jmp	memset
.L842:
	movq	%rax, %rbp
.L829:
	leaq	6384(%rbx), %rdi
.L832:
	cmpq	%r12, %rdi
	je	.L830
	subq	$16, %rdi
	movq	8(%rdi), %rcx
	testq	%rcx, %rcx
	je	.L832
	movq	GImGui(%rip), %rax
	subl	$1, 844(%rax)
	call	*240(%rax)
	jmp	.L832
.L843:
	movq	%rdi, %rcx
	movq	%rax, %rbp
	call	_ZN18ImGuiTextEditStateD1Ev
	movq	%rsi, %rcx
	call	_ZN10ImDrawListD1Ev
	jmp	.L829
.L830:
	movq	6208(%rbx), %rcx
	testq	%rcx, %rcx
	je	.L833
	movq	GImGui(%rip), %rax
	subl	$1, 844(%rax)
	call	*240(%rax)
.L833:
	movq	6192(%rbx), %rcx
	testq	%rcx, %rcx
	je	.L834
	movq	GImGui(%rip), %rax
	subl	$1, 844(%rax)
	call	*240(%rax)
.L834:
	movq	6176(%rbx), %rcx
	testq	%rcx, %rcx
	je	.L835
	movq	GImGui(%rip), %rax
	subl	$1, 844(%rax)
	call	*240(%rax)
.L835:
	movq	6160(%rbx), %rcx
	testq	%rcx, %rcx
	je	.L836
	movq	GImGui(%rip), %rax
	subl	$1, 844(%rax)
	call	*240(%rax)
.L836:
	movq	6144(%rbx), %rcx
	testq	%rcx, %rcx
	je	.L837
	movq	GImGui(%rip), %rax
	subl	$1, 844(%rax)
	call	*240(%rax)
.L837:
	movq	6120(%rbx), %rcx
	testq	%rcx, %rcx
	je	.L838
	movq	GImGui(%rip), %rax
	subl	$1, 844(%rax)
	call	*240(%rax)
.L838:
	movq	6024(%rbx), %rcx
	testq	%rcx, %rcx
	je	.L839
	movq	GImGui(%rip), %rax
	subl	$1, 844(%rax)
	call	*240(%rax)
.L839:
	movq	6000(%rbx), %rcx
	testq	%rcx, %rcx
	je	.L840
	movq	GImGui(%rip), %rax
	subl	$1, 844(%rax)
	call	*240(%rax)
.L840:
	movq	5984(%rbx), %rcx
	testq	%rcx, %rcx
	je	.L841
	movq	GImGui(%rip), %rax
	subl	$1, 844(%rax)
	call	*240(%rax)
.L841:
	movq	%rbp, %rcx
.LEHB4:
	call	_Unwind_Resume
	nop
.LEHE4:
	.seh_handler	__gxx_personality_seh0, @unwind, @except
	.seh_handlerdata
.LLSDA546:
	.byte	0xff
	.byte	0xff
	.byte	0x1
	.uleb128 .LLSDACSE546-.LLSDACSB546
.LLSDACSB546:
	.uleb128 .LEHB2-.LFB546
	.uleb128 .LEHE2-.LEHB2
	.uleb128 .L842-.LFB546
	.uleb128 0
	.uleb128 .LEHB3-.LFB546
	.uleb128 .LEHE3-.LEHB3
	.uleb128 .L843-.LFB546
	.uleb128 0
	.uleb128 .LEHB4-.LFB546
	.uleb128 .LEHE4-.LEHB4
	.uleb128 0
	.uleb128 0
.LLSDACSE546:
	.section	.text$_ZN12ImGuiContextC1Ev,"x"
	.linkonce discard
	.seh_endproc
	.text
	.align 2
	.p2align 4,,15
	.globl	_ZN7ImGuiIO17AddInputCharacterEt
	.def	_ZN7ImGuiIO17AddInputCharacterEt;	.scl	2;	.type	32;	.endef
	.seh_proc	_ZN7ImGuiIO17AddInputCharacterEt
_ZN7ImGuiIO17AddInputCharacterEt:
.LFB564:
	.seh_endprologue
	cmpw	$0, 794(%rcx)
	leaq	796(%rcx), %rax
	je	.L878
	xorl	%r8d, %r8d
	jmp	.L876
	.p2align 4,,10
.L879:
	movl	%r9d, %r8d
.L876:
	leal	1(%r8), %r9d
	addq	$2, %rax
	cmpw	$0, -2(%rax)
	jne	.L879
	addl	$2, %r8d
	cmpl	$15, %r9d
	jle	.L875
	ret
	.p2align 4,,10
.L878:
	movl	$1, %r8d
	xorl	%r9d, %r9d
.L875:
	movslq	%r9d, %r9
	movslq	%r8d, %r8
	xorl	%eax, %eax
	movw	%dx, 794(%rcx,%r9,2)
	movw	%ax, 794(%rcx,%r8,2)
	ret
	.seh_endproc
	.p2align 4,,15
	.globl	_Z19ImIsPointInTriangleRK6ImVec2S1_S1_S1_
	.def	_Z19ImIsPointInTriangleRK6ImVec2S1_S1_S1_;	.scl	2;	.type	32;	.endef
	.seh_proc	_Z19ImIsPointInTriangleRK6ImVec2S1_S1_S1_
_Z19ImIsPointInTriangleRK6ImVec2S1_S1_S1_:
.LFB566:
	subq	$88, %rsp
	.seh_stackalloc	88
	movaps	%xmm6, (%rsp)
	.seh_savexmm	%xmm6, 0
	movaps	%xmm7, 16(%rsp)
	.seh_savexmm	%xmm7, 16
	movaps	%xmm8, 32(%rsp)
	.seh_savexmm	%xmm8, 32
	movaps	%xmm9, 48(%rsp)
	.seh_savexmm	%xmm9, 48
	movaps	%xmm10, 64(%rsp)
	.seh_savexmm	%xmm10, 64
	.seh_endprologue
	movss	(%rcx), %xmm0
	movss	4(%r8), %xmm8
	movss	(%r9), %xmm2
	movaps	%xmm0, %xmm4
	movss	4(%r9), %xmm3
	movaps	%xmm8, %xmm5
	subss	%xmm2, %xmm4
	movss	(%r8), %xmm9
	subss	%xmm3, %xmm5
	movss	4(%rcx), %xmm1
	movaps	%xmm9, %xmm10
	movss	4(%rdx), %xmm7
	subss	%xmm2, %xmm10
	movss	(%rdx), %xmm6
	mulss	%xmm5, %xmm4
	movaps	%xmm1, %xmm5
	subss	%xmm3, %xmm5
	subss	%xmm6, %xmm2
	subss	%xmm7, %xmm3
	mulss	%xmm10, %xmm5
	movaps	%xmm7, %xmm10
	subss	%xmm8, %xmm10
	subss	%xmm5, %xmm4
	pxor	%xmm5, %xmm5
	ucomiss	%xmm4, %xmm5
	movaps	%xmm0, %xmm4
	subss	%xmm9, %xmm4
	subss	%xmm6, %xmm0
	seta	%dl
	mulss	%xmm10, %xmm4
	movaps	%xmm1, %xmm10
	subss	%xmm8, %xmm10
	mulss	%xmm3, %xmm0
	subss	%xmm7, %xmm1
	movaps	16(%rsp), %xmm7
	movaps	%xmm10, %xmm8
	movaps	%xmm6, %xmm10
	movaps	(%rsp), %xmm6
	subss	%xmm9, %xmm10
	mulss	%xmm2, %xmm1
	movaps	48(%rsp), %xmm9
	mulss	%xmm10, %xmm8
	movaps	64(%rsp), %xmm10
	subss	%xmm1, %xmm0
	subss	%xmm8, %xmm4
	movaps	32(%rsp), %xmm8
	ucomiss	%xmm4, %xmm5
	seta	%al
	cmpb	%dl, %al
	sete	%al
	ucomiss	%xmm0, %xmm5
	seta	%cl
	cmpb	%dl, %cl
	sete	%dl
	andl	%edx, %eax
	addq	$88, %rsp
	ret
	.seh_endproc
	.p2align 4,,15
	.globl	_Z9ImStricmpPKcS0_
	.def	_Z9ImStricmpPKcS0_;	.scl	2;	.type	32;	.endef
	.seh_proc	_Z9ImStricmpPKcS0_
_Z9ImStricmpPKcS0_:
.LFB567:
	pushq	%r12
	.seh_pushreg	%r12
	pushq	%rbp
	.seh_pushreg	%rbp
	pushq	%rdi
	.seh_pushreg	%rdi
	pushq	%rsi
	.seh_pushreg	%rsi
	pushq	%rbx
	.seh_pushreg	%rbx
	subq	$32, %rsp
	.seh_stackalloc	32
	.seh_endprologue
	movq	__imp_toupper(%rip), %r12
	movq	%rcx, %rbp
	movq	%rdx, %rdi
	jmp	.L883
	.p2align 4,,10
.L887:
	testb	%sil, %sil
	je	.L881
	addq	$1, %rbp
	addq	$1, %rdi
.L883:
	movsbl	(%rdi), %ecx
	call	*%r12
	movsbl	0(%rbp), %ecx
	movl	%eax, %ebx
	movl	%ecx, %esi
	call	*%r12
	subl	%eax, %ebx
	je	.L887
.L881:
	movl	%ebx, %eax
	addq	$32, %rsp
	popq	%rbx
	popq	%rsi
	popq	%rdi
	popq	%rbp
	popq	%r12
	ret
	.seh_endproc
	.p2align 4,,15
	.globl	_Z10ImStrnicmpPKcS0_i
	.def	_Z10ImStrnicmpPKcS0_i;	.scl	2;	.type	32;	.endef
	.seh_proc	_Z10ImStrnicmpPKcS0_i
_Z10ImStrnicmpPKcS0_i:
.LFB568:
	pushq	%r13
	.seh_pushreg	%r13
	pushq	%r12
	.seh_pushreg	%r12
	pushq	%rbp
	.seh_pushreg	%rbp
	pushq	%rdi
	.seh_pushreg	%rdi
	pushq	%rsi
	.seh_pushreg	%rsi
	pushq	%rbx
	.seh_pushreg	%rbx
	subq	$40, %rsp
	.seh_stackalloc	40
	.seh_endprologue
	testl	%r8d, %r8d
	movq	%rcx, %rsi
	movq	%rdx, %rdi
	jle	.L891
	leal	-1(%r8), %eax
	movq	__imp_toupper(%rip), %r12
	leaq	1(%rcx,%rax), %r13
	jmp	.L890
	.p2align 4,,10
.L896:
	testb	%bpl, %bpl
	je	.L888
	addq	$1, %rsi
	addq	$1, %rdi
	cmpq	%r13, %rsi
	je	.L888
.L890:
	movsbl	(%rdi), %ecx
	call	*%r12
	movsbl	(%rsi), %ecx
	movl	%eax, %ebx
	movl	%ecx, %ebp
	call	*%r12
	subl	%eax, %ebx
	je	.L896
.L888:
	movl	%ebx, %eax
	addq	$40, %rsp
	popq	%rbx
	popq	%rsi
	popq	%rdi
	popq	%rbp
	popq	%r12
	popq	%r13
	ret
.L891:
	xorl	%ebx, %ebx
	jmp	.L888
	.seh_endproc
	.p2align 4,,15
	.globl	_Z9ImStrncpyPcPKci
	.def	_Z9ImStrncpyPcPKci;	.scl	2;	.type	32;	.endef
	.seh_proc	_Z9ImStrncpyPcPKci
_Z9ImStrncpyPcPKci:
.LFB569:
	pushq	%rbx
	.seh_pushreg	%rbx
	subq	$32, %rsp
	.seh_stackalloc	32
	.seh_endprologue
	testl	%r8d, %r8d
	jle	.L897
	movslq	%r8d, %rbx
	movq	%rbx, %r8
	call	strncpy
	movb	$0, -1(%rax,%rbx)
.L897:
	addq	$32, %rsp
	popq	%rbx
	ret
	.seh_endproc
	.p2align 4,,15
	.globl	_Z8ImStrdupPKc
	.def	_Z8ImStrdupPKc;	.scl	2;	.type	32;	.endef
	.seh_proc	_Z8ImStrdupPKc
_Z8ImStrdupPKc:
.LFB570:
	pushq	%rsi
	.seh_pushreg	%rsi
	pushq	%rbx
	.seh_pushreg	%rbx
	subq	$40, %rsp
	.seh_stackalloc	40
	.seh_endprologue
	movq	%rcx, %rsi
	call	strlen
	leaq	1(%rax), %rbx
	movq	GImGui(%rip), %rax
	movq	%rbx, %rcx
	addl	$1, 844(%rax)
	call	*232(%rax)
	movq	%rbx, %r8
	movq	%rsi, %rdx
	movq	%rax, %rcx
	call	memcpy
	addq	$40, %rsp
	popq	%rbx
	popq	%rsi
	ret
	.seh_endproc
	.p2align 4,,15
	.globl	_Z9ImStrlenWPKt
	.def	_Z9ImStrlenWPKt;	.scl	2;	.type	32;	.endef
	.seh_proc	_Z9ImStrlenWPKt
_Z9ImStrlenWPKt:
.LFB571:
	.seh_endprologue
	xorl	%eax, %eax
	cmpw	$0, (%rcx)
	leaq	2(%rcx), %rdx
	je	.L900
	.p2align 4,,10
.L902:
	addq	$2, %rdx
	addl	$1, %eax
	cmpw	$0, -2(%rdx)
	jne	.L902
.L900:
	ret
	.seh_endproc
	.p2align 4,,15
	.globl	_Z9ImStrbolWPKtS0_
	.def	_Z9ImStrbolWPKtS0_;	.scl	2;	.type	32;	.endef
	.seh_proc	_Z9ImStrbolWPKtS0_
_Z9ImStrbolWPKtS0_:
.LFB572:
	.seh_endprologue
	cmpq	%rdx, %rcx
	movq	%rcx, %rax
	ja	.L908
	jmp	.L906
	.p2align 4,,10
.L909:
	subq	$2, %rax
	cmpq	%rax, %rdx
	jnb	.L906
.L908:
	cmpw	$10, -2(%rax)
	jne	.L909
.L906:
	ret
	.seh_endproc
	.p2align 4,,15
	.globl	_Z9ImStristrPKcS0_S0_S0_
	.def	_Z9ImStristrPKcS0_S0_S0_;	.scl	2;	.type	32;	.endef
	.seh_proc	_Z9ImStristrPKcS0_S0_S0_
_Z9ImStristrPKcS0_S0_S0_:
.LFB573:
	pushq	%r15
	.seh_pushreg	%r15
	pushq	%r14
	.seh_pushreg	%r14
	pushq	%r13
	.seh_pushreg	%r13
	pushq	%r12
	.seh_pushreg	%r12
	pushq	%rbp
	.seh_pushreg	%rbp
	pushq	%rdi
	.seh_pushreg	%rdi
	pushq	%rsi
	.seh_pushreg	%rsi
	pushq	%rbx
	.seh_pushreg	%rbx
	subq	$72, %rsp
	.seh_stackalloc	72
	.seh_endprologue
	testq	%r9, %r9
	movq	%rcx, %rsi
	movq	%rdx, %r13
	movq	%r9, 168(%rsp)
	movq	%r8, %rbx
	je	.L925
.L911:
	movsbl	(%rbx), %ecx
	movq	__imp_toupper(%rip), %rdi
	call	*%rdi
	leaq	1(%rbx), %rdx
	notq	%rbx
	addq	168(%rsp), %rbx
	movsbl	%al, %eax
	movq	%rdx, 48(%rsp)
	movl	%eax, 44(%rsp)
	movq	%rbx, 56(%rsp)
	jmp	.L912
	.p2align 4,,10
.L913:
	cmpq	%r13, %rsi
	jnb	.L919
	movsbl	(%rsi), %ecx
.L915:
	call	*%rdi
	cmpl	44(%rsp), %eax
	leaq	1(%rsi), %r12
	je	.L926
.L916:
	movq	%r12, %rsi
.L912:
	testq	%r13, %r13
	jne	.L913
	movsbl	(%rsi), %ecx
	testb	%cl, %cl
	jne	.L915
.L914:
	movq	%r13, %rax
	addq	$72, %rsp
	popq	%rbx
	popq	%rsi
	popq	%rdi
	popq	%rbp
	popq	%r12
	popq	%r13
	popq	%r14
	popq	%r15
	ret
	.p2align 4,,10
.L926:
	movq	48(%rsp), %rbx
	cmpq	%rbx, 168(%rsp)
	jbe	.L917
	movq	56(%rsp), %rax
	movq	%r12, %r15
	leaq	(%r12,%rax), %r14
	jmp	.L918
	.p2align 4,,10
.L927:
	addq	$1, %r15
	addq	$1, %rbx
	cmpq	%r15, %r14
	je	.L917
.L918:
	movsbl	(%r15), %ecx
	call	*%rdi
	movsbl	(%rbx), %ecx
	movl	%eax, %ebp
	call	*%rdi
	cmpl	%eax, %ebp
	je	.L927
.L917:
	cmpq	%rbx, 168(%rsp)
	jne	.L916
	movq	%rsi, %r13
	jmp	.L914
	.p2align 4,,10
.L925:
	movq	%r8, %rcx
	call	strlen
	addq	%rbx, %rax
	movq	%rax, 168(%rsp)
	jmp	.L911
.L919:
	xorl	%r13d, %r13d
	jmp	.L914
	.seh_endproc
	.section .rdata,"dr"
.LC80:
	.ascii "buf_size > 0\0"
	.text
	.p2align 4,,15
	.globl	_Z14ImFormatStringPciPKcz
	.def	_Z14ImFormatStringPciPKcz;	.scl	2;	.type	32;	.endef
	.seh_proc	_Z14ImFormatStringPciPKcz
_Z14ImFormatStringPciPKcz:
.LFB574:
	pushq	%rdi
	.seh_pushreg	%rdi
	pushq	%rsi
	.seh_pushreg	%rsi
	pushq	%rbx
	.seh_pushreg	%rbx
	subq	$48, %rsp
	.seh_stackalloc	48
	.seh_endprologue
	testl	%edx, %edx
	movq	%rcx, %rsi
	movl	%edx, %ebx
	movq	%r9, 104(%rsp)
	movq	%r8, %rdi
	jle	.L936
.L929:
	leaq	104(%rsp), %r9
	movslq	%ebx, %rdx
	movq	%rdi, %r8
	movq	%rsi, %rcx
	movq	%r9, 40(%rsp)
	call	__mingw_vsnprintf
	cmpl	$-1, %eax
	je	.L932
	cmpl	%eax, %ebx
	jle	.L932
	movslq	%eax, %rdx
	movb	$0, (%rsi,%rdx)
	addq	$48, %rsp
	popq	%rbx
	popq	%rsi
	popq	%rdi
	ret
	.p2align 4,,10
.L932:
	leal	-1(%rbx), %eax
	movslq	%eax, %rdx
	movb	$0, (%rsi,%rdx)
	addq	$48, %rsp
	popq	%rbx
	popq	%rsi
	popq	%rdi
	ret
	.p2align 4,,10
.L936:
	leaq	.LC5(%rip), %rdx
	movl	$973, %r8d
	leaq	.LC80(%rip), %rcx
	call	_assert
	jmp	.L929
	.seh_endproc
	.p2align 4,,15
	.globl	_Z15ImFormatStringVPciPKcS_
	.def	_Z15ImFormatStringVPciPKcS_;	.scl	2;	.type	32;	.endef
	.seh_proc	_Z15ImFormatStringVPciPKcS_
_Z15ImFormatStringVPciPKcS_:
.LFB575:
	pushq	%rdi
	.seh_pushreg	%rdi
	pushq	%rsi
	.seh_pushreg	%rsi
	pushq	%rbx
	.seh_pushreg	%rbx
	subq	$48, %rsp
	.seh_stackalloc	48
	.seh_endprologue
	testl	%edx, %edx
	movq	%rcx, %rsi
	movl	%edx, %ebx
	movq	%r8, %rdi
	jle	.L945
.L938:
	movslq	%ebx, %rdx
	movq	%rdi, %r8
	movq	%rsi, %rcx
	call	__mingw_vsnprintf
	cmpl	$-1, %eax
	je	.L941
	cmpl	%eax, %ebx
	jle	.L941
	movslq	%eax, %rdx
	movb	$0, (%rsi,%rdx)
	addq	$48, %rsp
	popq	%rbx
	popq	%rsi
	popq	%rdi
	ret
	.p2align 4,,10
.L941:
	leal	-1(%rbx), %eax
	movslq	%eax, %rdx
	movb	$0, (%rsi,%rdx)
	addq	$48, %rsp
	popq	%rbx
	popq	%rsi
	popq	%rdi
	ret
	.p2align 4,,10
.L945:
	movl	$986, %r8d
	movq	%r9, 40(%rsp)
	leaq	.LC5(%rip), %rdx
	leaq	.LC80(%rip), %rcx
	call	_assert
	movq	40(%rsp), %r9
	jmp	.L938
	.seh_endproc
	.p2align 4,,15
	.globl	_Z6ImHashPKvij
	.def	_Z6ImHashPKvij;	.scl	2;	.type	32;	.endef
	.seh_proc	_Z6ImHashPKvij
_Z6ImHashPKvij:
.LFB576:
	subq	$40, %rsp
	.seh_stackalloc	40
	movaps	%xmm6, (%rsp)
	.seh_savexmm	%xmm6, 0
	movaps	%xmm7, 16(%rsp)
	.seh_savexmm	%xmm7, 16
	.seh_endprologue
	movl	4+_ZZ6ImHashPKvijE9crc32_lut(%rip), %eax
	leaq	_ZZ6ImHashPKvijE9crc32_lut(%rip), %r10
	testl	%eax, %eax
	jne	.L947
	movdqa	.LC10(%rip), %xmm5
	movq	%r10, %rax
	pxor	%xmm2, %xmm2
	movdqa	.LC11(%rip), %xmm6
	leaq	1024(%r10), %r9
	movdqa	.LC12(%rip), %xmm4
	movdqa	.LC13(%rip), %xmm3
	.p2align 4,,10
.L948:
	movdqa	%xmm5, %xmm0
	movdqa	%xmm2, %xmm1
	movdqa	%xmm2, %xmm7
	pand	%xmm4, %xmm0
	psubd	%xmm0, %xmm1
	addq	$16, %rax
	movdqa	%xmm1, %xmm0
	movdqa	%xmm5, %xmm1
	paddd	%xmm6, %xmm5
	psrld	$1, %xmm1
	pand	%xmm3, %xmm0
	pxor	%xmm1, %xmm0
	movdqa	%xmm0, %xmm1
	psrld	$1, %xmm0
	pand	%xmm4, %xmm1
	psubd	%xmm1, %xmm7
	movdqa	%xmm7, %xmm1
	movdqa	%xmm2, %xmm7
	pand	%xmm3, %xmm1
	pxor	%xmm0, %xmm1
	movdqa	%xmm1, %xmm0
	psrld	$1, %xmm1
	pand	%xmm4, %xmm0
	psubd	%xmm0, %xmm7
	movdqa	%xmm7, %xmm0
	movdqa	%xmm2, %xmm7
	pand	%xmm3, %xmm0
	pxor	%xmm1, %xmm0
	movdqa	%xmm0, %xmm1
	psrld	$1, %xmm0
	pand	%xmm4, %xmm1
	psubd	%xmm1, %xmm7
	movdqa	%xmm7, %xmm1
	movdqa	%xmm2, %xmm7
	pand	%xmm3, %xmm1
	pxor	%xmm0, %xmm1
	movdqa	%xmm1, %xmm0
	psrld	$1, %xmm1
	pand	%xmm4, %xmm0
	psubd	%xmm0, %xmm7
	movdqa	%xmm7, %xmm0
	movdqa	%xmm2, %xmm7
	pand	%xmm3, %xmm0
	pxor	%xmm1, %xmm0
	movdqa	%xmm0, %xmm1
	psrld	$1, %xmm0
	pand	%xmm4, %xmm1
	psubd	%xmm1, %xmm7
	movdqa	%xmm7, %xmm1
	movdqa	%xmm2, %xmm7
	pand	%xmm3, %xmm1
	pxor	%xmm0, %xmm1
	movdqa	%xmm1, %xmm0
	psrld	$1, %xmm1
	pand	%xmm4, %xmm0
	psubd	%xmm0, %xmm7
	movdqa	%xmm7, %xmm0
	movdqa	%xmm2, %xmm7
	pand	%xmm3, %xmm0
	pxor	%xmm1, %xmm0
	movdqa	%xmm0, %xmm1
	psrld	$1, %xmm0
	pand	%xmm4, %xmm1
	psubd	%xmm1, %xmm7
	movdqa	%xmm7, %xmm1
	pand	%xmm3, %xmm1
	pxor	%xmm1, %xmm0
	movaps	%xmm0, -16(%rax)
	cmpq	%r9, %rax
	jne	.L948
.L947:
	testl	%edx, %edx
	notl	%r8d
	jle	.L949
	leal	-1(%rdx), %eax
	leaq	1(%rcx,%rax), %r9
	movl	%r8d, %eax
	.p2align 4,,10
.L950:
	addq	$1, %rcx
	movl	%eax, %edx
	xorb	-1(%rcx), %al
	shrl	$8, %edx
	movzbl	%al, %eax
	xorl	(%r10,%rax,4), %edx
	cmpq	%r9, %rcx
	movl	%edx, %eax
	jne	.L950
.L951:
	movaps	(%rsp), %xmm6
	notl	%eax
	movaps	16(%rsp), %xmm7
	addq	$40, %rsp
	ret
	.p2align 4,,10
.L949:
	movzbl	(%rcx), %edx
	testb	%dl, %dl
	je	.L957
	addq	$2, %rcx
	movl	%r8d, %eax
	jmp	.L952
	.p2align 4,,10
.L953:
	movl	%eax, %r11d
	xorl	%edx, %eax
	movzbl	%al, %eax
	shrl	$8, %r11d
	xorl	(%r10,%rax,4), %r11d
	testb	%r9b, %r9b
	movl	%r11d, %eax
	je	.L951
.L956:
	addq	$1, %rcx
	movl	%r9d, %edx
.L952:
	cmpb	$35, %dl
	movzbl	-1(%rcx), %r9d
	jne	.L953
	cmpb	$35, %r9b
	jne	.L953
	cmpb	$35, (%rcx)
	cmove	%r8d, %eax
	movl	%eax, %edx
	movzbl	%al, %eax
	xorq	$35, %rax
	shrl	$8, %edx
	xorl	(%r10,%rax,4), %edx
	movl	%edx, %eax
	jmp	.L956
.L957:
	movl	%r8d, %eax
	jmp	.L951
	.seh_endproc
	.align 2
	.p2align 4,,15
	.def	_ZN11ImGuiWindow5GetIDEPKcS1_.constprop.138;	.scl	3;	.type	32;	.endef
	.seh_proc	_ZN11ImGuiWindow5GetIDEPKcS1_.constprop.138
_ZN11ImGuiWindow5GetIDEPKcS1_.constprop.138:
.LFB6608:
	pushq	%rsi
	.seh_pushreg	%rsi
	pushq	%rbx
	.seh_pushreg	%rbx
	subq	$40, %rsp
	.seh_stackalloc	40
	.seh_endprologue
	movslq	496(%rcx), %rax
	testl	%eax, %eax
	movq	%rcx, %rbx
	movq	%rdx, %rsi
	jle	.L964
.L962:
	movq	504(%rbx), %rdx
	movq	%rsi, %rcx
	movl	-4(%rdx,%rax,4), %r8d
	xorl	%edx, %edx
	call	_Z6ImHashPKvij
	movq	GImGui(%rip), %rdx
	cmpl	6068(%rdx), %eax
	jne	.L961
	movb	$1, 6076(%rdx)
.L961:
	addq	$40, %rsp
	popq	%rbx
	popq	%rsi
	ret
	.p2align 4,,10
.L964:
	leaq	.LC2(%rip), %rdx
	movl	$866, %r8d
	leaq	.LC4(%rip), %rcx
	call	_assert
	movslq	496(%rbx), %rax
	jmp	.L962
	.seh_endproc
	.p2align 4,,15
	.globl	_Z18ImTextCharFromUtf8PjPKcS1_
	.def	_Z18ImTextCharFromUtf8PjPKcS1_;	.scl	2;	.type	32;	.endef
	.seh_proc	_Z18ImTextCharFromUtf8PjPKcS1_
_Z18ImTextCharFromUtf8PjPKcS1_:
.LFB577:
	.seh_endprologue
	movzbl	(%rdx), %eax
	testb	%al, %al
	js	.L966
	movl	%eax, (%rcx)
	movl	$1, %eax
.L965:
	ret
	.p2align 4,,10
.L966:
	movl	%eax, %r9d
	andl	$-32, %r9d
	cmpb	$-64, %r9b
	je	.L1005
	movl	%eax, %r9d
	andl	$-16, %r9d
	cmpb	$-32, %r9b
	je	.L1006
	andl	$-8, %eax
	cmpb	$-16, %al
	je	.L1007
	xorl	%eax, %eax
	movl	$0, (%rcx)
	ret
	.p2align 4,,10
.L1006:
	testq	%r8, %r8
	movl	$65533, (%rcx)
	je	.L971
	subq	%rdx, %r8
	cmpq	$2, %r8
	jle	.L972
.L971:
	movzbl	(%rdx), %r8d
	movzbl	1(%rdx), %r9d
	cmpb	$-32, %r8b
	je	.L1008
	cmpb	$-19, %r8b
	je	.L975
.L974:
	movl	%r9d, %r10d
	movl	$3, %eax
	andl	$-64, %r10d
	cmpb	$-128, %r10b
	jne	.L965
	movzbl	2(%rdx), %edx
	movl	%edx, %r10d
	andl	$-64, %r10d
	cmpb	$-128, %r10b
	jne	.L965
	sall	$12, %r8d
	andl	$63, %edx
	sall	$6, %r9d
	andl	$61440, %r8d
	andl	$4032, %r9d
	addl	%r8d, %edx
	addl	%r9d, %edx
	movl	%edx, (%rcx)
	ret
	.p2align 4,,10
.L972:
	movl	$1, %eax
	ret
	.p2align 4,,10
.L1005:
	testq	%r8, %r8
	movl	$65533, (%rcx)
	je	.L969
	subq	%rdx, %r8
	cmpq	$1, %r8
	jle	.L972
.L969:
	movzbl	(%rdx), %r8d
	movl	$2, %eax
	cmpb	$-63, %r8b
	jbe	.L965
	movzbl	1(%rdx), %edx
	movl	%edx, %r9d
	andl	$-64, %r9d
	cmpb	$-128, %r9b
	jne	.L965
	sall	$6, %r8d
	andl	$63, %edx
	andl	$1984, %r8d
	addl	%edx, %r8d
	movl	%r8d, (%rcx)
	ret
	.p2align 4,,10
.L1007:
	testq	%r8, %r8
	movl	$65533, (%rcx)
	je	.L977
	subq	%rdx, %r8
	cmpq	$3, %r8
	jle	.L972
.L977:
	movzbl	(%rdx), %r8d
	movl	$4, %eax
	cmpb	$-12, %r8b
	ja	.L965
	cmpb	$-16, %r8b
	movzbl	1(%rdx), %r9d
	je	.L1009
	cmpb	$-12, %r8b
	je	.L1010
.L979:
	movl	%r9d, %r10d
	movl	$4, %eax
	andl	$-64, %r10d
	cmpb	$-128, %r10b
	jne	.L965
	movzbl	2(%rdx), %r10d
	movl	%r10d, %r11d
	andl	$-64, %r11d
	cmpb	$-128, %r11b
	jne	.L965
	movzbl	3(%rdx), %r11d
	movl	%r11d, %edx
	andl	$-64, %edx
	cmpb	$-128, %dl
	jne	.L965
	movl	%r10d, %edx
	sall	$18, %r8d
	andl	$63, %r11d
	sall	$12, %r9d
	sall	$6, %edx
	andl	$1835008, %r8d
	andl	$258048, %r9d
	andl	$4032, %edx
	addl	%r11d, %edx
	orl	%r9d, %r8d
	addl	%edx, %r8d
	movl	%r8d, %edx
	andl	$-2048, %edx
	cmpl	$55296, %edx
	je	.L965
	movl	%r8d, (%rcx)
	ret
	.p2align 4,,10
.L1008:
	leal	96(%r9), %r10d
	movl	$3, %eax
	cmpb	$31, %r10b
	jbe	.L974
	ret
	.p2align 4,,10
.L975:
	cmpb	$-97, %r9b
	movl	$3, %eax
	jbe	.L974
	ret
.L1009:
	leal	112(%r9), %r10d
	cmpb	$47, %r10b
	jbe	.L979
	ret
.L1010:
	cmpb	$-113, %r9b
	jbe	.L979
	ret
	.seh_endproc
	.p2align 4,,15
	.def	_Z17ImTextStrFromUtf8PtiPKcS1_PS1_.constprop.150;	.scl	3;	.type	32;	.endef
	.seh_proc	_Z17ImTextStrFromUtf8PtiPKcS1_PS1_.constprop.150
_Z17ImTextStrFromUtf8PtiPKcS1_PS1_.constprop.150:
.LFB6596:
	pushq	%r13
	.seh_pushreg	%r13
	pushq	%r12
	.seh_pushreg	%r12
	pushq	%rbp
	.seh_pushreg	%rbp
	pushq	%rdi
	.seh_pushreg	%rdi
	pushq	%rsi
	.seh_pushreg	%rsi
	pushq	%rbx
	.seh_pushreg	%rbx
	subq	$56, %rsp
	.seh_stackalloc	56
	.seh_endprologue
	movslq	%edx, %rdx
	movq	%rcx, %r13
	movq	%r8, %rbx
	leaq	-2(%rcx,%rdx,2), %rsi
	movq	%r9, %rbp
	movq	%rcx, %r12
	cmpq	%rsi, %rcx
	jnb	.L1019
	cmpb	$0, (%r8)
	je	.L1019
	leaq	44(%rsp), %rdi
	jmp	.L1013
	.p2align 4,,10
.L1025:
	cmpl	$65535, %eax
	ja	.L1015
	movw	%ax, 0(%r13)
	addq	$2, %r13
.L1015:
	cmpq	%rsi, %r13
	jnb	.L1014
	cmpb	$0, (%rbx)
	je	.L1014
.L1013:
	xorl	%r8d, %r8d
	movq	%rbx, %rdx
	movq	%rdi, %rcx
	call	_Z18ImTextCharFromUtf8PjPKcS1_
	cltq
	addq	%rax, %rbx
	movl	44(%rsp), %eax
	testl	%eax, %eax
	jne	.L1025
.L1014:
	movq	%r13, %rax
	subq	%r12, %rax
	sarq	%rax
.L1012:
	xorl	%edx, %edx
	testq	%rbp, %rbp
	movw	%dx, 0(%r13)
	je	.L1011
	movq	%rbx, 0(%rbp)
.L1011:
	addq	$56, %rsp
	popq	%rbx
	popq	%rsi
	popq	%rdi
	popq	%rbp
	popq	%r12
	popq	%r13
	ret
	.p2align 4,,10
.L1019:
	xorl	%eax, %eax
	jmp	.L1012
	.seh_endproc
	.p2align 4,,15
	.def	_ZL30SetClipboardTextFn_DefaultImplPvPKc;	.scl	3;	.type	32;	.endef
	.seh_proc	_ZL30SetClipboardTextFn_DefaultImplPvPKc
_ZL30SetClipboardTextFn_DefaultImplPvPKc:
.LFB6219:
	pushq	%r12
	.seh_pushreg	%r12
	pushq	%rbp
	.seh_pushreg	%rbp
	pushq	%rdi
	.seh_pushreg	%rdi
	pushq	%rsi
	.seh_pushreg	%rsi
	pushq	%rbx
	.seh_pushreg	%rbx
	subq	$48, %rsp
	.seh_stackalloc	48
	.seh_endprologue
	xorl	%ecx, %ecx
	movq	%rdx, %r12
	call	*__imp_OpenClipboard(%rip)
	testl	%eax, %eax
	jne	.L1039
.L1026:
	addq	$48, %rsp
	popq	%rbx
	popq	%rsi
	popq	%rdi
	popq	%rbp
	popq	%r12
	ret
	.p2align 4,,10
.L1039:
	cmpb	$0, (%r12)
	je	.L1034
	leaq	44(%rsp), %rbp
	movq	%r12, %rbx
	xorl	%edi, %edi
	jmp	.L1032
	.p2align 4,,10
.L1040:
	cmpl	$65535, %eax
	ja	.L1031
	leal	2(%rdi), %eax
	movl	%esi, %edi
	movl	%eax, %esi
.L1031:
	cmpb	$0, (%rbx)
	je	.L1030
.L1032:
	xorl	%r8d, %r8d
	movq	%rbx, %rdx
	movq	%rbp, %rcx
	call	_Z18ImTextCharFromUtf8PjPKcS1_
	leal	1(%rdi), %esi
	cltq
	addq	%rax, %rbx
	movl	44(%rsp), %eax
	testl	%eax, %eax
	jne	.L1040
.L1030:
	movslq	%esi, %rdx
	addq	%rdx, %rdx
.L1029:
	movl	$2, %ecx
	call	*__imp_GlobalAlloc(%rip)
	testq	%rax, %rax
	movq	%rax, %rbx
	je	.L1026
	movq	%rax, %rcx
	call	*__imp_GlobalLock(%rip)
	xorl	%r9d, %r9d
	movq	%r12, %r8
	movl	%esi, %edx
	movq	%rax, %rcx
	call	_Z17ImTextStrFromUtf8PtiPKcS1_PS1_.constprop.150
	movq	%rbx, %rcx
	call	*__imp_GlobalUnlock(%rip)
	call	*__imp_EmptyClipboard(%rip)
	movq	%rbx, %rdx
	movl	$13, %ecx
	call	*__imp_SetClipboardData(%rip)
	call	*__imp_CloseClipboard(%rip)
	nop
	addq	$48, %rsp
	popq	%rbx
	popq	%rsi
	popq	%rdi
	popq	%rbp
	popq	%r12
	ret
.L1034:
	movl	$2, %edx
	movl	$1, %esi
	jmp	.L1029
	.seh_endproc
	.align 2
	.p2align 4,,15
	.globl	_ZN7ImGuiIO22AddInputCharactersUTF8EPKc
	.def	_ZN7ImGuiIO22AddInputCharactersUTF8EPKc;	.scl	2;	.type	32;	.endef
	.seh_proc	_ZN7ImGuiIO22AddInputCharactersUTF8EPKc
_ZN7ImGuiIO22AddInputCharactersUTF8EPKc:
.LFB565:
	pushq	%r13
	.seh_pushreg	%r13
	pushq	%r12
	.seh_pushreg	%r12
	pushq	%rbp
	.seh_pushreg	%rbp
	pushq	%rdi
	.seh_pushreg	%rdi
	pushq	%rsi
	.seh_pushreg	%rsi
	pushq	%rbx
	.seh_pushreg	%rbx
	subq	$104, %rsp
	.seh_stackalloc	104
	.seh_endprologue
	leaq	48(%rsp), %rbx
	movq	%rcx, %rdi
	movq	%rdx, %rsi
	leaq	44(%rsp), %rbp
	movq	%rbx, %r13
	leaq	32(%rbx), %r12
	.p2align 4,,10
.L1042:
	cmpb	$0, (%rsi)
	je	.L1043
	xorl	%r8d, %r8d
	movq	%rsi, %rdx
	movq	%rbp, %rcx
	call	_Z18ImTextCharFromUtf8PjPKcS1_
	cltq
	addq	%rax, %rsi
	movl	44(%rsp), %eax
	testl	%eax, %eax
	je	.L1043
	cmpl	$65535, %eax
	ja	.L1045
	leaq	2(%r13), %rdx
	movw	%ax, 0(%r13)
	cmpq	%r12, %rdx
	movq	%rdx, %r13
	jb	.L1042
	.p2align 4,,10
.L1043:
	leaq	34(%rbx), %r10
	xorl	%edx, %edx
	movq	%rbx, %r8
	movw	%dx, 0(%r13)
	.p2align 4,,10
.L1052:
	movzwl	(%r8), %r9d
	testw	%r9w, %r9w
	je	.L1041
	cmpw	$0, 794(%rdi)
	leaq	796(%rdi), %rax
	je	.L1054
	xorl	%edx, %edx
	jmp	.L1050
	.p2align 4,,10
.L1055:
	movl	%ecx, %edx
.L1050:
	leal	1(%rdx), %ecx
	addq	$2, %rax
	cmpw	$0, -2(%rax)
	jne	.L1055
	addl	$2, %edx
	cmpl	$15, %ecx
	jle	.L1049
.L1051:
	addq	$2, %r8
	cmpq	%r10, %r8
	jne	.L1052
.L1041:
	addq	$104, %rsp
	popq	%rbx
	popq	%rsi
	popq	%rdi
	popq	%rbp
	popq	%r12
	popq	%r13
	ret
	.p2align 4,,10
.L1054:
	movl	$1, %edx
	xorl	%ecx, %ecx
.L1049:
	movslq	%ecx, %rcx
	movslq	%edx, %rdx
	xorl	%eax, %eax
	movw	%r9w, 794(%rdi,%rcx,2)
	movw	%ax, 794(%rdi,%rdx,2)
	jmp	.L1051
	.p2align 4,,10
.L1045:
	cmpq	%r12, %r13
	jb	.L1042
	jmp	.L1043
	.seh_endproc
	.p2align 4,,15
	.globl	_Z17ImTextStrFromUtf8PtiPKcS1_PS1_
	.def	_Z17ImTextStrFromUtf8PtiPKcS1_PS1_;	.scl	2;	.type	32;	.endef
	.seh_proc	_Z17ImTextStrFromUtf8PtiPKcS1_PS1_
_Z17ImTextStrFromUtf8PtiPKcS1_PS1_:
.LFB578:
	pushq	%r15
	.seh_pushreg	%r15
	pushq	%r14
	.seh_pushreg	%r14
	pushq	%r13
	.seh_pushreg	%r13
	pushq	%r12
	.seh_pushreg	%r12
	pushq	%rbp
	.seh_pushreg	%rbp
	pushq	%rdi
	.seh_pushreg	%rdi
	pushq	%rsi
	.seh_pushreg	%rsi
	pushq	%rbx
	.seh_pushreg	%rbx
	subq	$56, %rsp
	.seh_stackalloc	56
	.seh_endprologue
	movq	160(%rsp), %r12
	movslq	%edx, %rdx
	movq	%rcx, %r15
	movq	%r8, %rbx
	leaq	-2(%rcx,%rdx,2), %rsi
	movq	%r9, %r14
	movq	%rcx, %r13
	cmpq	%rsi, %rcx
	jnb	.L1074
	testq	%r9, %r9
	setne	%bpl
	cmpq	%r9, %r8
	jb	.L1075
	testb	%bpl, %bpl
	jne	.L1074
.L1075:
	cmpb	$0, (%rbx)
	je	.L1074
	leaq	44(%rsp), %rdi
	jmp	.L1066
	.p2align 4,,10
.L1089:
	cmpl	$65535, %eax
	ja	.L1069
	movw	%ax, (%r15)
	addq	$2, %r15
.L1069:
	cmpq	%rsi, %r15
	jnb	.L1068
	cmpq	%rbx, %r14
	ja	.L1067
	testb	%bpl, %bpl
	jne	.L1068
.L1067:
	cmpb	$0, (%rbx)
	je	.L1068
.L1066:
	movq	%rbx, %rdx
	movq	%r14, %r8
	movq	%rdi, %rcx
	call	_Z18ImTextCharFromUtf8PjPKcS1_
	cltq
	addq	%rax, %rbx
	movl	44(%rsp), %eax
	testl	%eax, %eax
	jne	.L1089
.L1068:
	movq	%r15, %rax
	subq	%r13, %rax
	sarq	%rax
.L1064:
	xorl	%edx, %edx
	testq	%r12, %r12
	movw	%dx, (%r15)
	je	.L1063
	movq	%rbx, (%r12)
.L1063:
	addq	$56, %rsp
	popq	%rbx
	popq	%rsi
	popq	%rdi
	popq	%rbp
	popq	%r12
	popq	%r13
	popq	%r14
	popq	%r15
	ret
	.p2align 4,,10
.L1074:
	xorl	%eax, %eax
	jmp	.L1064
	.seh_endproc
	.p2align 4,,15
	.globl	_Z24ImTextCountCharsFromUtf8PKcS0_
	.def	_Z24ImTextCountCharsFromUtf8PKcS0_;	.scl	2;	.type	32;	.endef
	.seh_proc	_Z24ImTextCountCharsFromUtf8PKcS0_
_Z24ImTextCountCharsFromUtf8PKcS0_:
.LFB579:
	pushq	%r12
	.seh_pushreg	%r12
	pushq	%rbp
	.seh_pushreg	%rbp
	pushq	%rdi
	.seh_pushreg	%rdi
	pushq	%rsi
	.seh_pushreg	%rsi
	pushq	%rbx
	.seh_pushreg	%rbx
	subq	$48, %rsp
	.seh_stackalloc	48
	.seh_endprologue
	testq	%rdx, %rdx
	movq	%rcx, %rbx
	movq	%rdx, %rsi
	setne	%r12b
	xorl	%edi, %edi
	cmpq	%rdx, %rcx
	jb	.L1100
	testb	%r12b, %r12b
	jne	.L1090
.L1100:
	cmpb	$0, (%rbx)
	je	.L1090
	leaq	44(%rsp), %rbp
	jmp	.L1093
	.p2align 4,,10
.L1110:
	cmpl	$65536, %eax
	adcl	$0, %edi
	cmpq	%rbx, %rsi
	ja	.L1097
	testb	%r12b, %r12b
	jne	.L1090
.L1097:
	cmpb	$0, (%rbx)
	je	.L1090
.L1093:
	movq	%rbx, %rdx
	movq	%rsi, %r8
	movq	%rbp, %rcx
	call	_Z18ImTextCharFromUtf8PjPKcS1_
	cltq
	addq	%rax, %rbx
	movl	44(%rsp), %eax
	testl	%eax, %eax
	jne	.L1110
.L1090:
	movl	%edi, %eax
	addq	$48, %rsp
	popq	%rbx
	popq	%rsi
	popq	%rdi
	popq	%rbp
	popq	%r12
	ret
	.seh_endproc
	.p2align 4,,15
	.globl	_Z15ImTextStrToUtf8PciPKtS1_
	.def	_Z15ImTextStrToUtf8PciPKtS1_;	.scl	2;	.type	32;	.endef
	.seh_proc	_Z15ImTextStrToUtf8PciPKtS1_
_Z15ImTextStrToUtf8PciPKtS1_:
.LFB582:
	pushq	%rdi
	.seh_pushreg	%rdi
	pushq	%rsi
	.seh_pushreg	%rsi
	pushq	%rbx
	.seh_pushreg	%rbx
	.seh_endprologue
	movslq	%edx, %rdx
	movq	%rcx, %rax
	leaq	(%rcx,%rdx), %rbx
	leaq	-1(%rbx), %r11
.L1112:
	cmpq	%r11, %rax
	jnb	.L1113
.L1127:
	testq	%r9, %r9
	je	.L1120
	cmpq	%r9, %r8
	jnb	.L1113
.L1120:
	movzwl	(%r8), %edx
	testw	%dx, %dx
	je	.L1113
	movzwl	%dx, %r10d
	addq	$2, %r8
	cmpl	$127, %r10d
	ja	.L1115
	movb	%dl, (%rax)
	addq	$1, %rax
	cmpq	%r11, %rax
	jb	.L1127
.L1113:
	movb	$0, (%rax)
	subq	%rcx, %rax
	popq	%rbx
	popq	%rsi
	popq	%rdi
	ret
	.p2align 4,,10
.L1115:
	movq	%rbx, %rsi
	subq	%rax, %rsi
	subl	$1, %esi
	cmpl	$2047, %r10d
	ja	.L1117
	cmpl	$1, %esi
	jle	.L1112
	shrl	$6, %r10d
	andl	$63, %edx
	addq	$2, %rax
	subl	$64, %r10d
	addl	$-128, %edx
	movb	%r10b, -2(%rax)
	movb	%dl, -1(%rax)
	jmp	.L1112
	.p2align 4,,10
.L1117:
	leal	-56320(%r10), %edi
	cmpl	$1023, %edi
	jbe	.L1112
	leal	-55296(%r10), %edi
	cmpl	$1023, %edi
	ja	.L1119
	cmpl	$3, %esi
	jle	.L1112
	shrl	$6, %r10d
	andl	$63, %edx
	movl	$-29200, %esi
	andl	$63, %r10d
	addl	$-128, %edx
	movw	%si, (%rax)
	addq	$4, %rax
	addl	$-128, %r10d
	movb	%dl, -1(%rax)
	movb	%r10b, -2(%rax)
	jmp	.L1112
	.p2align 4,,10
.L1119:
	cmpl	$2, %esi
	jle	.L1112
	movl	%r10d, %esi
	shrl	$6, %r10d
	andl	$63, %edx
	shrl	$12, %esi
	andl	$63, %r10d
	addl	$-128, %edx
	subl	$32, %esi
	addl	$-128, %r10d
	movb	%dl, 2(%rax)
	addq	$3, %rax
	movb	%sil, -3(%rax)
	movb	%r10b, -2(%rax)
	jmp	.L1112
	.seh_endproc
	.p2align 4,,15
	.globl	_Z27ImTextCountUtf8BytesFromStrPKtS0_
	.def	_Z27ImTextCountUtf8BytesFromStrPKtS0_;	.scl	2;	.type	32;	.endef
	.seh_proc	_Z27ImTextCountUtf8BytesFromStrPKtS0_
_Z27ImTextCountUtf8BytesFromStrPKtS0_:
.LFB583:
	.seh_endprologue
	testq	%rdx, %rdx
	setne	%r9b
	xorl	%eax, %eax
.L1129:
	cmpq	%rdx, %rcx
	jb	.L1137
	testb	%r9b, %r9b
	jne	.L1128
.L1137:
	movzwl	(%rcx), %r8d
	testw	%r8w, %r8w
	je	.L1128
	addq	$2, %rcx
	cmpl	$127, %r8d
	ja	.L1132
	addl	$1, %eax
	cmpq	%rdx, %rcx
	jb	.L1137
	testb	%r9b, %r9b
	je	.L1137
.L1128:
	ret
	.p2align 4,,10
.L1132:
	cmpl	$2047, %r8d
	ja	.L1134
	addl	$2, %eax
	jmp	.L1129
	.p2align 4,,10
.L1134:
	leal	-56320(%r8), %r10d
	cmpl	$1023, %r10d
	jbe	.L1129
	subl	$55296, %r8d
	cmpl	$1024, %r8d
	adcl	$3, %eax
	jmp	.L1129
	.seh_endproc
	.section .rdata,"dr"
.LC81:
	.ascii "pos <= text_len\0"
	.text
	.p2align 4,,15
	.def	_ZN8ImGuiStbL24STB_TEXTEDIT_INSERTCHARSEP18ImGuiTextEditStateiPKti;	.scl	3;	.type	32;	.endef
	.seh_proc	_ZN8ImGuiStbL24STB_TEXTEDIT_INSERTCHARSEP18ImGuiTextEditStateiPKti
_ZN8ImGuiStbL24STB_TEXTEDIT_INSERTCHARSEP18ImGuiTextEditStateiPKti:
.LFB979:
	pushq	%r15
	.seh_pushreg	%r15
	pushq	%r14
	.seh_pushreg	%r14
	pushq	%r13
	.seh_pushreg	%r13
	pushq	%r12
	.seh_pushreg	%r12
	pushq	%rbp
	.seh_pushreg	%rbp
	pushq	%rdi
	.seh_pushreg	%rdi
	pushq	%rsi
	.seh_pushreg	%rsi
	pushq	%rbx
	.seh_pushreg	%rbx
	subq	$56, %rsp
	.seh_stackalloc	56
	.seh_endprologue
	movl	60(%rcx), %edi
	cmpl	%edx, %edi
	movq	%rcx, %rbx
	movl	%edx, %ebp
	movq	%r8, %r13
	movl	%r9d, %esi
	jl	.L1151
.L1145:
	leal	(%rdi,%rsi), %eax
	xorl	%r11d, %r11d
	cmpl	8(%rbx), %eax
	jl	.L1152
.L1144:
	movl	%r11d, %eax
	addq	$56, %rsp
	popq	%rbx
	popq	%rsi
	popq	%rdi
	popq	%rbp
	popq	%r12
	popq	%r13
	popq	%r14
	popq	%r15
	ret
	.p2align 4,,10
.L1152:
	movslq	%esi, %r15
	movq	%r13, %rcx
	leaq	(%r15,%r15), %r12
	leaq	0(%r13,%r12), %rdx
	call	_Z27ImTextCountUtf8BytesFromStrPKtS0_
	movl	%eax, %r14d
	movl	56(%rbx), %eax
	addl	%r14d, %eax
	cmpl	64(%rbx), %eax
	jge	.L1144
	movq	16(%rbx), %rax
	movslq	%ebp, %rdx
	cmpl	%ebp, %edi
	leaq	(%rax,%rdx,2), %r9
	je	.L1147
	subl	%ebp, %edi
	addq	%rdx, %r15
	movq	%r9, %rdx
	movq	%r9, 40(%rsp)
	leaq	(%rax,%r15,2), %rcx
	movslq	%edi, %r8
	addq	%r8, %r8
	call	memmove
	movq	40(%rsp), %r9
.L1147:
	movq	%r12, %r8
	movq	%r13, %rdx
	movq	%r9, %rcx
	call	memcpy
	addl	60(%rbx), %esi
	addl	%r14d, 56(%rbx)
	cmpl	8(%rbx), %esi
	movl	%esi, 60(%rbx)
	jge	.L1153
.L1148:
	movq	16(%rbx), %rax
	movslq	%esi, %rsi
	xorl	%edx, %edx
	movl	$1, %r11d
	movw	%dx, (%rax,%rsi,2)
	jmp	.L1144
	.p2align 4,,10
.L1151:
	leaq	.LC5(%rip), %rdx
	movl	$7527, %r8d
	leaq	.LC81(%rip), %rcx
	call	_assert
	jmp	.L1145
	.p2align 4,,10
.L1153:
	leaq	.LC2(%rip), %rdx
	movl	$856, %r8d
	leaq	.LC3(%rip), %rcx
	call	_assert
	jmp	.L1148
	.seh_endproc
	.p2align 4,,15
	.def	_ZN8ImGuiStbL16stb_textedit_keyEP18ImGuiTextEditStatePNS_17STB_TexteditStateEi;	.scl	3;	.type	32;	.endef
	.seh_proc	_ZN8ImGuiStbL16stb_textedit_keyEP18ImGuiTextEditStatePNS_17STB_TexteditStateEi
_ZN8ImGuiStbL16stb_textedit_keyEP18ImGuiTextEditStatePNS_17STB_TexteditStateEi:
.LFB993:
	pushq	%r15
	.seh_pushreg	%r15
	pushq	%r14
	.seh_pushreg	%r14
	pushq	%r13
	.seh_pushreg	%r13
	pushq	%r12
	.seh_pushreg	%r12
	pushq	%rbp
	.seh_pushreg	%rbp
	pushq	%rdi
	.seh_pushreg	%rdi
	pushq	%rsi
	.seh_pushreg	%rsi
	pushq	%rbx
	.seh_pushreg	%rbx
	subq	$184, %rsp
	.seh_stackalloc	184
	movaps	%xmm6, 128(%rsp)
	.seh_savexmm	%xmm6, 128
	movaps	%xmm7, 144(%rsp)
	.seh_savexmm	%xmm7, 144
	movaps	%xmm8, 160(%rsp)
	.seh_savexmm	%xmm8, 160
	.seh_endprologue
	movq	%rcx, %rsi
	movq	%rdx, %rbx
.L1155:
	cmpl	$65548, %r8d
	je	.L1157
	jle	.L1526
	cmpl	$196613, %r8d
	je	.L1174
	jg	.L1175
	cmpl	$196609, %r8d
	je	.L1176
	jg	.L1177
	cmpl	$65549, %r8d
	je	.L1178
	cmpl	$196608, %r8d
	jne	.L1156
	movl	4(%rbx), %ecx
	movl	8(%rbx), %edx
	movl	60(%rsi), %eax
	cmpl	%edx, %ecx
	je	.L1241
	cmpl	%ecx, %eax
	jge	.L1242
	cmpl	%edx, %eax
	movl	%eax, 4(%rbx)
	jge	.L1243
.L1390:
	movl	%eax, 8(%rbx)
	movl	%eax, %edx
.L1243:
	cmpl	%edx, 4(%rbx)
	movl	%edx, %ecx
	je	.L1527
.L1244:
	cmpl	(%rbx), %eax
	jl	.L1372
.L1245:
	movl	%edx, (%rbx)
.L1246:
	testl	%ecx, %ecx
	jle	.L1247
	subl	$1, %ecx
	movl	%ecx, 8(%rbx)
.L1247:
	movl	%ecx, (%rbx)
	movb	$0, 15(%rbx)
	jmp	.L1154
	.p2align 4,,10
.L1526:
	cmpl	$65541, %r8d
	je	.L1159
	jle	.L1528
	cmpl	$65544, %r8d
	je	.L1167
	jle	.L1529
	cmpl	$65546, %r8d
	je	.L1171
	jle	.L1173
	movswq	3212(%rbx), %rdx
	cmpw	$99, %dx
	je	.L1502
	leaq	24(%rbx), %rax
	leaq	(%rdx,%rdx,2), %rdx
	leaq	(%rax,%rdx,4), %rdx
	movzwl	8(%rdx), %edi
	movzwl	6(%rdx), %ecx
	movl	(%rdx), %r15d
	movzwl	4(%rdx), %r14d
	movswq	3210(%rbx), %rdx
	movw	%di, 32(%rsp)
	testw	%cx, %cx
	leaq	(%rdx,%rdx,2), %rdx
	leaq	(%rbx,%rdx,4), %rdi
	movl	$-1, %edx
	movw	%r14w, 30(%rdi)
	movw	%cx, 28(%rdi)
	movl	%r15d, 24(%rdi)
	movw	%dx, 32(%rdi)
	je	.L1224
	movswl	3214(%rbx), %r8d
	movswl	%cx, %r9d
	movswl	3216(%rbx), %ebp
	movl	%r8d, %edx
	addl	%r9d, %r8d
	cmpl	%ebp, %r8d
	jle	.L1225
	movl	$0, 28(%rdi)
.L1226:
	movl	%r9d, %r8d
	movl	%r15d, %edx
	movq	%rsi, %rcx
	movq	%rax, 40(%rsp)
	call	_ZN8ImGuiStbL24STB_TEXTEDIT_DELETECHARSEP18ImGuiTextEditStateii
	movq	40(%rsp), %rax
.L1224:
	testw	%r14w, %r14w
	movswl	%r14w, %edi
	je	.L1231
	movswq	32(%rsp), %rdx
	movl	%edi, %r9d
	movq	%rsi, %rcx
	leaq	1188(%rax,%rdx,2), %r8
	movl	%r15d, %edx
	call	_ZN8ImGuiStbL24STB_TEXTEDIT_INSERTCHARSEP18ImGuiTextEditStateiPKti
	addw	%r14w, 3216(%rbx)
.L1231:
	addw	$1, 3210(%rbx)
	addw	$1, 3212(%rbx)
	leal	(%r15,%rdi), %r10d
	movl	%r10d, (%rbx)
	.p2align 4,,10
.L1502:
	movb	$0, 15(%rbx)
.L1154:
	movaps	128(%rsp), %xmm6
	movaps	144(%rsp), %xmm7
	movaps	160(%rsp), %xmm8
	addq	$184, %rsp
	popq	%rbx
	popq	%rsi
	popq	%rdi
	popq	%rbp
	popq	%r12
	popq	%r13
	popq	%r14
	popq	%r15
	ret
	.p2align 4,,10
.L1175:
	cmpl	$196616, %r8d
	je	.L1167
	jle	.L1530
	cmpl	$196620, %r8d
	je	.L1184
	cmpl	$196621, %r8d
	jne	.L1531
	movl	8(%rbx), %eax
	cmpl	%eax, 4(%rbx)
	movl	(%rbx), %edx
	jne	.L1266
	movl	%edx, 8(%rbx)
	movl	%edx, 4(%rbx)
.L1266:
	movq	%rsi, %rcx
	call	_ZN8ImGuiStbL31STB_TEXTEDIT_MOVEWORDRIGHT_IMPLEP18ImGuiTextEditStatei
.L1519:
	movl	4(%rbx), %ecx
	movl	%eax, (%rbx)
	movl	%eax, 8(%rbx)
	movl	60(%rsi), %edx
	cmpl	%ecx, %eax
	je	.L1267
	cmpl	%ecx, %edx
	jge	.L1268
	cmpl	%edx, %eax
	movl	%edx, 4(%rbx)
	jg	.L1532
	jne	.L1154
	movl	%edx, %ecx
.L1271:
	movl	%ecx, (%rbx)
.L1267:
	cmpl	%ecx, %edx
	jge	.L1154
	movl	%edx, (%rbx)
	jmp	.L1154
	.p2align 4,,10
.L1528:
	cmpl	$65538, %r8d
	je	.L1161
	jg	.L1162
	cmpl	$65536, %r8d
	je	.L1163
	cmpl	$65537, %r8d
	jne	.L1156
	movl	4(%rbx), %edx
	movl	8(%rbx), %eax
	cmpl	%eax, %edx
	je	.L1234
	jle	.L1235
	movl	%edx, 8(%rbx)
	movl	%eax, 4(%rbx)
.L1235:
	movq	%rbx, %rdx
	movq	%rsi, %rcx
	call	_ZN8ImGuiStbL25stb_textedit_move_to_lastEP18ImGuiTextEditStatePNS_17STB_TexteditStateE.part.7
	movl	4(%rbx), %eax
	movl	8(%rbx), %ecx
	movl	60(%rsi), %edx
	cmpl	%ecx, %eax
	je	.L1498
	cmpl	%eax, %edx
	jge	.L1238
	cmpl	%ecx, %edx
	movl	%edx, 4(%rbx)
	movl	%edx, %eax
	jge	.L1239
.L1371:
	movl	%edx, 8(%rbx)
	movl	%edx, %ecx
.L1239:
	cmpl	%ecx, %eax
	je	.L1240
.L1498:
	movl	(%rbx), %eax
.L1237:
	cmpl	%eax, %edx
	jge	.L1502
	movl	%edx, (%rbx)
	jmp	.L1502
	.p2align 4,,10
.L1530:
	cmpl	$196614, %r8d
	je	.L1182
	cmpl	$196615, %r8d
	jne	.L1156
	movl	8(%rbx), %eax
	cmpl	%eax, 4(%rbx)
	je	.L1533
	movl	%eax, (%rbx)
.L1332:
	movl	60(%rsi), %eax
	movl	%eax, 8(%rbx)
.L1501:
	movl	%eax, (%rbx)
	jmp	.L1502
	.p2align 4,,10
.L1529:
	cmpl	$65542, %r8d
	je	.L1169
	cmpl	$65543, %r8d
	jne	.L1156
	movl	60(%rsi), %eax
	movq	$0, 4(%rbx)
	movb	$0, 15(%rbx)
	movl	%eax, (%rbx)
	jmp	.L1154
	.p2align 4,,10
.L1177:
	cmpl	$196611, %r8d
	je	.L1165
	jle	.L1161
	movl	4(%rbx), %eax
	movl	8(%rbx), %edx
	movl	60(%rsi), %ecx
	cmpl	%edx, %eax
	je	.L1351
	cmpl	%eax, %ecx
	jge	.L1352
	cmpl	%edx, %ecx
	movl	%ecx, 4(%rbx)
	jge	.L1353
.L1400:
	movl	%ecx, 8(%rbx)
	movl	%ecx, %edx
.L1353:
	cmpl	%edx, 4(%rbx)
	movl	%edx, %eax
	je	.L1534
.L1386:
	movl	%edx, (%rbx)
.L1355:
	cmpb	$0, 16(%rbx)
	je	.L1356
	movl	$0, (%rbx)
	xorl	%eax, %eax
.L1357:
	movl	%eax, 8(%rbx)
	jmp	.L1502
	.p2align 4,,10
.L1162:
	cmpl	$65539, %r8d
	je	.L1165
	cmpl	$65540, %r8d
	jne	.L1156
	movl	4(%rbx), %ecx
	movl	8(%rbx), %edx
	movl	60(%rsi), %r8d
	cmpl	%edx, %ecx
	je	.L1333
	cmpl	%ecx, %r8d
	jge	.L1334
	cmpl	%edx, %r8d
	movl	%r8d, 4(%rbx)
	movl	%r8d, %ecx
	jge	.L1335
.L1395:
	movl	%r8d, 8(%rbx)
	movl	%r8d, %edx
.L1335:
	cmpl	%edx, %ecx
	movl	%ecx, %eax
	je	.L1535
.L1336:
	cmpl	(%rbx), %r8d
	jl	.L1381
.L1382:
	cmpl	%ecx, %edx
	jge	.L1338
	movl	%edx, 4(%rbx)
	movl	%edx, %eax
.L1338:
	movl	%eax, (%rbx)
	movl	%eax, 8(%rbx)
	movb	$0, 15(%rbx)
.L1337:
	cmpb	$0, 16(%rbx)
	je	.L1339
	movl	$0, (%rbx)
	jmp	.L1502
	.p2align 4,,10
.L1174:
	movl	4(%rbx), %edi
	movl	8(%rbx), %eax
	movl	60(%rsi), %ebp
	cmpl	%eax, %edi
	je	.L1360
	cmpl	%edi, %ebp
	jge	.L1361
	cmpl	%eax, %ebp
	movl	%ebp, 4(%rbx)
	movl	%ebp, %edx
	movl	%eax, %edi
	jge	.L1362
.L1402:
	movl	%ebp, 8(%rbx)
	movl	%ebp, %edi
.L1362:
	cmpl	%edi, %edx
	je	.L1536
.L1365:
	movl	%edi, (%rbx)
.L1366:
	cmpb	$0, 16(%rbx)
	je	.L1367
	movl	%ebp, (%rbx)
.L1368:
	movl	%ebp, 8(%rbx)
	movb	$0, 15(%rbx)
	jmp	.L1154
	.p2align 4,,10
.L1173:
	movl	8(%rbx), %eax
	cmpl	%eax, 4(%rbx)
	jne	.L1328
	movl	60(%rsi), %edx
	movl	(%rbx), %eax
	cmpl	%eax, %edx
	jge	.L1329
	movl	%edx, (%rbx)
	movl	%edx, %eax
.L1329:
	testl	%eax, %eax
	jle	.L1502
	movl	$1, %r9d
	movq	%rbx, %rdx
	movq	%rsi, %rcx
	leal	-1(%rax), %r8d
	call	_ZN8ImGuiStbL19stb_textedit_deleteEP18ImGuiTextEditStatePNS_17STB_TexteditStateEii
	subl	$1, (%rbx)
	jmp	.L1502
	.p2align 4,,10
.L1161:
	andl	$131072, %r8d
	cmpb	$0, 16(%rbx)
	je	.L1303
	orl	$65536, %r8d
	jmp	.L1155
	.p2align 4,,10
.L1531:
	cmpl	$196617, %r8d
	je	.L1173
.L1156:
	leal	-1(%r8), %eax
	cmpl	$65534, %eax
	ja	.L1154
	cmpl	$10, %r8d
	movw	%r8w, 96(%rsp)
	je	.L1537
.L1188:
	cmpb	$0, 12(%rbx)
	je	.L1190
	movl	8(%rbx), %eax
	cmpl	%eax, 4(%rbx)
	je	.L1538
.L1190:
	movq	%rbx, %rdx
	movq	%rsi, %rcx
	call	_ZN8ImGuiStbL29stb_textedit_delete_selectionEP18ImGuiTextEditStatePNS_17STB_TexteditStateE
	movl	(%rbx), %edx
	movl	$1, %r9d
	movq	%rsi, %rcx
	leaq	96(%rsp), %r8
	call	_ZN8ImGuiStbL24STB_TEXTEDIT_INSERTCHARSEP18ImGuiTextEditStateiPKti
	testb	%al, %al
	je	.L1154
	leaq	24(%rbx), %rcx
	xorl	%edx, %edx
	movl	(%rbx), %esi
	call	_ZN8ImGuiStbL27stb_text_create_undo_recordEPNS_12StbUndoStateEi
	testq	%rax, %rax
	je	.L1206
	movl	$-1, %r10d
	movl	%esi, (%rax)
	movl	$65536, 4(%rax)
	movw	%r10w, 8(%rax)
.L1206:
	addl	$1, (%rbx)
	movb	$0, 15(%rbx)
	jmp	.L1154
.L1536:
	movl	%edi, (%rbx)
	movl	%edi, %eax
	movl	%edi, %edx
.L1364:
	cmpl	%edx, %ebp
	jge	.L1539
	cmpl	%eax, %edi
	movl	%ebp, (%rbx)
	jne	.L1365
	movl	%ebp, %edi
.L1389:
	movl	%edi, 8(%rbx)
	movl	%edi, 4(%rbx)
	jmp	.L1366
.L1534:
	movl	%edx, (%rbx)
.L1351:
	movl	(%rbx), %eax
	cmpl	%eax, %ecx
	jl	.L1540
.L1387:
	movl	%eax, 8(%rbx)
	movl	%eax, 4(%rbx)
	jmp	.L1355
.L1240:
	movl	%eax, (%rbx)
	jmp	.L1237
	.p2align 4,,10
.L1176:
	movl	8(%rbx), %edx
	cmpl	%edx, 4(%rbx)
	je	.L1541
	movl	4(%rbx), %eax
	movl	%edx, (%rbx)
.L1274:
	addl	$1, %edx
	cmpl	%eax, %edx
	movl	%edx, 8(%rbx)
	je	.L1501
	movl	60(%rsi), %ecx
	cmpl	%eax, %ecx
	jge	.L1276
	cmpl	%ecx, %edx
	movl	%ecx, 4(%rbx)
	movl	%edx, %eax
	jle	.L1501
.L1376:
	movl	%ecx, %eax
	movl	%ecx, 8(%rbx)
	movl	%eax, (%rbx)
	jmp	.L1502
	.p2align 4,,10
.L1165:
	andl	$131072, %r8d
	cmpb	$0, 16(%rbx)
	je	.L1278
	orl	$65537, %r8d
	jmp	.L1155
	.p2align 4,,10
.L1184:
	movl	8(%rbx), %eax
	cmpl	%eax, 4(%rbx)
	movl	(%rbx), %edx
	jne	.L1254
	movl	%edx, 8(%rbx)
	movl	%edx, 4(%rbx)
.L1254:
	movq	%rsi, %rcx
	call	_ZN8ImGuiStbL30STB_TEXTEDIT_MOVEWORDLEFT_IMPLEP18ImGuiTextEditStatei
	jmp	.L1519
	.p2align 4,,10
.L1182:
	movl	8(%rbx), %eax
	cmpl	%eax, 4(%rbx)
	jne	.L1330
	movl	(%rbx), %eax
	movl	%eax, 4(%rbx)
.L1330:
	movl	$0, 8(%rbx)
	movl	$0, (%rbx)
	movb	$0, 15(%rbx)
	jmp	.L1154
	.p2align 4,,10
.L1169:
	movq	$0, (%rbx)
	movl	$0, 8(%rbx)
	movb	$0, 15(%rbx)
	jmp	.L1154
	.p2align 4,,10
.L1167:
	movl	8(%rbx), %eax
	cmpl	%eax, 4(%rbx)
	jne	.L1328
	movl	(%rbx), %r8d
	cmpl	60(%rsi), %r8d
	jge	.L1502
	movl	$1, %r9d
	movq	%rbx, %rdx
	movq	%rsi, %rcx
	call	_ZN8ImGuiStbL19stb_textedit_deleteEP18ImGuiTextEditStatePNS_17STB_TexteditStateEii
	jmp	.L1502
	.p2align 4,,10
.L1157:
	movl	4(%rbx), %eax
	movl	8(%rbx), %edx
	cmpl	%edx, %eax
	je	.L1248
	jle	.L1249
	movl	%edx, 4(%rbx)
	movl	%edx, %eax
.L1249:
	movl	%eax, (%rbx)
	movl	%eax, 8(%rbx)
	movb	$0, 15(%rbx)
	jmp	.L1154
	.p2align 4,,10
.L1163:
	movl	4(%rbx), %ecx
	movl	8(%rbx), %eax
	cmpl	%eax, %ecx
	je	.L1232
	jle	.L1233
	movl	%eax, 4(%rbx)
	movl	%eax, %ecx
.L1233:
	movl	%ecx, (%rbx)
	movl	%ecx, 8(%rbx)
	jmp	.L1502
	.p2align 4,,10
.L1159:
	movl	4(%rbx), %ecx
	movl	8(%rbx), %edx
	movl	60(%rsi), %ebp
	cmpl	%edx, %ecx
	je	.L1342
	cmpl	%ecx, %ebp
	jge	.L1343
	cmpl	%edx, %ebp
	movl	%ebp, 4(%rbx)
	movl	%ebp, %ecx
	jge	.L1344
.L1397:
	movl	%ebp, 8(%rbx)
	movl	%ebp, %edx
.L1344:
	cmpl	%edx, %ecx
	movl	%ecx, %edi
	je	.L1542
.L1345:
	cmpl	(%rbx), %ebp
	jl	.L1383
.L1385:
	cmpl	%ecx, %edx
	jge	.L1347
	movl	%edx, 4(%rbx)
	movl	%edx, %edi
.L1347:
	movl	%edi, (%rbx)
	movl	%edi, 8(%rbx)
	movb	$0, 15(%rbx)
.L1384:
	cmpb	$0, 16(%rbx)
	jne	.L1399
	cmpl	%edi, %ebp
	jle	.L1502
	leaq	.LC2(%rip), %r13
	leaq	.LC3(%rip), %r12
	jmp	.L1350
	.p2align 4,,10
.L1349:
	movq	16(%rsi), %rax
	movslq	%edi, %rdi
	cmpw	$10, (%rax,%rdi,2)
	je	.L1502
	movl	(%rbx), %eax
	leal	1(%rax), %edi
	cmpl	%ebp, %edi
	movl	%edi, (%rbx)
	jge	.L1502
.L1350:
	cmpl	%edi, 8(%rsi)
	jg	.L1349
	movl	$857, %r8d
	movq	%r13, %rdx
	movq	%r12, %rcx
	call	_assert
	jmp	.L1349
	.p2align 4,,10
.L1178:
	movl	4(%rbx), %edx
	movl	8(%rbx), %eax
	cmpl	%eax, %edx
	je	.L1261
	jle	.L1262
	movl	%edx, 8(%rbx)
	movl	%eax, 4(%rbx)
.L1262:
	movq	%rbx, %rdx
	movq	%rsi, %rcx
	call	_ZN8ImGuiStbL25stb_textedit_move_to_lastEP18ImGuiTextEditStatePNS_17STB_TexteditStateE.part.7
	jmp	.L1154
	.p2align 4,,10
.L1171:
	movswl	3210(%rbx), %eax
	testw	%ax, %ax
	je	.L1502
	leaq	24(%rbx), %r13
	subl	$1, %eax
	movswq	3212(%rbx), %rdx
	movl	$-1, %r9d
	cltq
	leaq	(%rax,%rax,2), %rax
	leaq	0(%r13,%rax,4), %rax
	movzwl	6(%rax), %r15d
	movl	(%rax), %edi
	movzwl	4(%rax), %r12d
	movzwl	8(%rax), %eax
	testw	%r15w, %r15w
	movw	%ax, 32(%rsp)
	movq	%rdx, %rax
	leaq	(%rdx,%rdx,2), %rdx
	leaq	(%rbx,%rdx,4), %rcx
	movw	%r9w, 20(%rcx)
	movw	%r15w, 16(%rcx)
	movw	%r12w, 18(%rcx)
	movl	%edi, 12(%rcx)
	je	.L1209
	movswl	3214(%rbx), %edx
	movswl	%r15w, %r14d
	leal	(%rdx,%r14), %r8d
	cmpl	$998, %r8d
	jg	.L1480
	leaq	1212(%rbx), %rbp
	movq	%rsi, 256(%rsp)
	jmp	.L1210
.L1214:
	movswl	%ax, %r8d
	movswq	%ax, %rax
.L1215:
	leaq	(%rax,%rax,2), %rcx
	movl	$99, %eax
	subl	%r8d, %eax
	salq	$2, %rcx
	leaq	-12(%r13,%rcx), %rdx
	cltq
	addq	%r13, %rcx
	leaq	(%rax,%rax,2), %r8
	salq	$2, %r8
	call	memmove
	movzwl	3212(%rbx), %eax
	addl	$1, %eax
	movw	%ax, 3212(%rbx)
.L1213:
	cmpw	$99, %ax
	je	.L1502
	movswl	3214(%rbx), %edx
.L1210:
	movswl	3216(%rbx), %r8d
	addl	%r14d, %edx
	cmpl	%r8d, %edx
	movl	%r8d, %ecx
	jle	.L1212
	cmpw	$98, %ax
	jg	.L1213
	cmpw	$0, 1208(%rbx)
	js	.L1214
	movswq	1204(%rbx), %rdx
	movl	$999, %r8d
	addl	%edx, %ecx
	movq	%rdx, %rsi
	movswq	%cx, %rax
	movw	%cx, 3216(%rbx)
	movswl	%cx, %ecx
	subl	%ecx, %r8d
	movq	%rax, %rcx
	subq	%rdx, %rcx
	movslq	%r8d, %r8
	leaq	0(%rbp,%rcx,2), %rdx
	addq	%r8, %r8
	leaq	0(%rbp,%rax,2), %rcx
	call	memmove
	movswq	3212(%rbx), %r8
	cmpl	$97, %r8d
	movq	%r8, %rax
	jg	.L1215
	leaq	(%r8,%r8,2), %rdx
	movl	$97, %ecx
	leaq	32(%rbx,%rdx,4), %rdx
	subl	%r8d, %ecx
	addq	%r8, %rcx
	leaq	(%rcx,%rcx,2), %rcx
	leaq	44(%rbx,%rcx,4), %r10
	.p2align 4,,10
.L1217:
	movzwl	(%rdx), %ecx
	testw	%cx, %cx
	js	.L1216
	addl	%esi, %ecx
	movw	%cx, (%rdx)
.L1216:
	addq	$12, %rdx
	cmpq	%rdx, %r10
	jne	.L1217
	jmp	.L1215
	.p2align 4,,10
.L1328:
	movq	%rbx, %rdx
	movq	%rsi, %rcx
	call	_ZN8ImGuiStbL29stb_textedit_delete_selectionEP18ImGuiTextEditStatePNS_17STB_TexteditStateE
	jmp	.L1502
	.p2align 4,,10
.L1268:
	cmpl	%edx, %eax
	jle	.L1154
	cmpl	%ecx, %edx
	movl	%edx, 8(%rbx)
	je	.L1271
	movl	%edx, (%rbx)
	jmp	.L1154
.L1542:
	movl	%ecx, (%rbx)
.L1342:
	movl	(%rbx), %edi
	cmpl	%edi, %ebp
	jge	.L1384
.L1383:
	cmpl	%edx, %ecx
	movl	%ebp, (%rbx)
	movl	%ecx, %edi
	jne	.L1385
	cmpb	$0, 16(%rbx)
	je	.L1502
.L1399:
	movl	%ebp, (%rbx)
	jmp	.L1502
.L1535:
	movl	%ecx, (%rbx)
.L1333:
	movl	(%rbx), %eax
	cmpl	%eax, %r8d
	jge	.L1337
.L1381:
	cmpl	%edx, %ecx
	movl	%r8d, (%rbx)
	movl	%ecx, %eax
	jne	.L1382
	movl	%r8d, %eax
	jmp	.L1337
.L1527:
	movl	%edx, (%rbx)
.L1241:
	movl	(%rbx), %ecx
	cmpl	%eax, %ecx
	jle	.L1543
.L1372:
	cmpl	%edx, 4(%rbx)
	movl	%eax, (%rbx)
	movl	%edx, %ecx
	jne	.L1245
.L1373:
	movl	%eax, 8(%rbx)
	movl	%eax, %ecx
	movl	%eax, 4(%rbx)
	jmp	.L1246
	.p2align 4,,10
.L1367:
	cmpl	%edi, %ebp
	jle	.L1409
	leaq	.LC2(%rip), %r13
	leaq	.LC3(%rip), %r12
	jmp	.L1370
	.p2align 4,,10
.L1369:
	movq	16(%rsi), %rdx
	movslq	%edi, %rdi
	cmpw	$10, (%rdx,%rdi,2)
	je	.L1411
	leal	1(%rax), %edi
	cmpl	%ebp, %edi
	movl	%edi, (%rbx)
	jge	.L1409
.L1370:
	cmpl	%edi, 8(%rsi)
	movl	%edi, %eax
	jg	.L1369
	movl	$857, %r8d
	movq	%r13, %rdx
	movq	%r12, %rcx
	call	_assert
	movl	(%rbx), %eax
	jmp	.L1369
	.p2align 4,,10
.L1339:
	testl	%eax, %eax
	jle	.L1502
	leaq	.LC2(%rip), %r12
	leaq	.LC3(%rip), %rbp
	jmp	.L1341
	.p2align 4,,10
.L1340:
	movq	16(%rsi), %rdx
	movslq	%edi, %rax
	cmpw	$10, (%rdx,%rax,2)
	je	.L1502
	movl	(%rbx), %eax
	subl	$1, %eax
	testl	%eax, %eax
	movl	%eax, (%rbx)
	jle	.L1502
.L1341:
	leal	-1(%rax), %edi
	cmpl	8(%rsi), %edi
	jl	.L1340
	movl	$857, %r8d
	movq	%r12, %rdx
	movq	%rbp, %rcx
	call	_assert
	jmp	.L1340
	.p2align 4,,10
.L1356:
	testl	%eax, %eax
	jle	.L1357
	leaq	.LC2(%rip), %r12
	leaq	.LC3(%rip), %rbp
	jmp	.L1359
	.p2align 4,,10
.L1358:
	movq	16(%rsi), %rdx
	movslq	%edi, %rdi
	cmpw	$10, (%rdx,%rdi,2)
	je	.L1357
	subl	$1, %eax
	testl	%eax, %eax
	movl	%eax, (%rbx)
	jle	.L1357
.L1359:
	leal	-1(%rax), %edi
	cmpl	8(%rsi), %edi
	jl	.L1358
	movl	$857, %r8d
	movq	%r12, %rdx
	movq	%rbp, %rcx
	call	_assert
	movl	(%rbx), %eax
	jmp	.L1358
.L1480:
	xorl	%r8d, %r8d
	movw	%r8w, 16(%rcx)
.L1211:
	movl	%r14d, %r8d
	movl	%edi, %edx
	movq	%rsi, %rcx
	call	_ZN8ImGuiStbL24STB_TEXTEDIT_DELETECHARSEP18ImGuiTextEditStateii
.L1209:
	testw	%r12w, %r12w
	movswl	%r12w, %ebp
	je	.L1223
	movswq	32(%rsp), %rax
	movl	%ebp, %r9d
	movl	%edi, %edx
	movq	%rsi, %rcx
	leaq	1188(%r13,%rax,2), %r8
	call	_ZN8ImGuiStbL24STB_TEXTEDIT_INSERTCHARSEP18ImGuiTextEditStateiPKti
	subw	%r12w, 3214(%rbx)
.L1223:
	subw	$1, 3210(%rbx)
	addl	%ebp, %edi
	subw	$1, 3212(%rbx)
	movl	%edi, (%rbx)
	jmp	.L1502
	.p2align 4,,10
.L1276:
	cmpl	%ecx, %edx
	movl	%edx, %eax
	jg	.L1376
	movl	%eax, (%rbx)
	jmp	.L1502
	.p2align 4,,10
.L1541:
	movl	(%rbx), %edx
	movl	%edx, 8(%rbx)
	movl	%edx, %eax
	movl	%edx, 4(%rbx)
	jmp	.L1274
	.p2align 4,,10
.L1232:
	movl	(%rbx), %eax
	testl	%eax, %eax
	jle	.L1502
	subl	$1, %eax
	movl	%eax, (%rbx)
	jmp	.L1502
	.p2align 4,,10
.L1234:
	movl	(%rbx), %eax
	addl	$1, %eax
	movl	%eax, (%rbx)
	movl	60(%rsi), %edx
	jmp	.L1237
	.p2align 4,,10
.L1360:
	movl	(%rbx), %edx
	jmp	.L1364
	.p2align 4,,10
.L1533:
	movl	(%rbx), %eax
	movl	%eax, 8(%rbx)
	movl	%eax, 4(%rbx)
	jmp	.L1332
	.p2align 4,,10
.L1352:
	cmpl	%edx, %ecx
	jl	.L1400
	movl	%edx, %eax
	jmp	.L1386
	.p2align 4,,10
.L1242:
	cmpl	%edx, %eax
	jl	.L1390
	movl	%edx, %ecx
	jmp	.L1244
	.p2align 4,,10
.L1238:
	cmpl	%ecx, %edx
	jl	.L1371
	jmp	.L1498
	.p2align 4,,10
.L1343:
	cmpl	%edx, %ebp
	jl	.L1397
	movl	%ecx, %edi
	jmp	.L1345
	.p2align 4,,10
.L1334:
	cmpl	%edx, %r8d
	jl	.L1395
	movl	%ecx, %eax
	jmp	.L1336
	.p2align 4,,10
.L1361:
	cmpl	%eax, %ebp
	jl	.L1415
	movl	%eax, %edi
	jmp	.L1365
	.p2align 4,,10
.L1409:
	movl	%edi, %ebp
	jmp	.L1368
	.p2align 4,,10
.L1411:
	movl	%eax, %ebp
	jmp	.L1368
.L1540:
	cmpl	%edx, 4(%rbx)
	movl	%edx, %eax
	movl	%ecx, (%rbx)
	jne	.L1386
	movl	%ecx, %eax
	jmp	.L1387
	.p2align 4,,10
.L1248:
	movl	(%rbx), %edx
	movq	%rsi, %rcx
	call	_ZN8ImGuiStbL30STB_TEXTEDIT_MOVEWORDLEFT_IMPLEP18ImGuiTextEditStatei
	movl	4(%rbx), %ecx
	movl	8(%rbx), %r8d
	movl	%eax, (%rbx)
	movl	60(%rsi), %edx
	cmpl	%r8d, %ecx
	je	.L1263
	cmpl	%ecx, %edx
	jge	.L1251
	cmpl	%r8d, %edx
	movl	%edx, 4(%rbx)
	movl	%edx, %ecx
	jge	.L1265
.L1374:
	movl	%edx, 8(%rbx)
	movl	%edx, %r8d
.L1265:
	cmpl	%r8d, %ecx
	jne	.L1263
	movl	%ecx, (%rbx)
	movl	%ecx, %eax
.L1263:
	cmpl	%eax, %edx
	jge	.L1154
	movl	%edx, (%rbx)
	jmp	.L1154
.L1261:
	movl	(%rbx), %edx
	movq	%rsi, %rcx
	call	_ZN8ImGuiStbL31STB_TEXTEDIT_MOVEWORDRIGHT_IMPLEP18ImGuiTextEditStatei
	movl	4(%rbx), %r8d
	movl	8(%rbx), %ecx
	movl	%eax, (%rbx)
	movl	60(%rsi), %edx
	cmpl	%ecx, %r8d
	je	.L1263
	cmpl	%r8d, %edx
	jge	.L1264
	cmpl	%ecx, %edx
	movl	%edx, 4(%rbx)
	movl	%edx, %r8d
	jge	.L1265
.L1375:
	movl	%edx, 8(%rbx)
	movl	%edx, %ecx
	jmp	.L1265
.L1225:
	movw	%dx, 32(%rdi)
	addl	%ecx, %edx
	testw	%cx, %cx
	movw	%dx, 3214(%rbx)
	jle	.L1226
	xorl	%r12d, %r12d
	.p2align 4,,10
.L1228:
	movl	24(%rdi), %r13d
	movswl	32(%rdi), %ebp
	addl	%r12d, %r13d
	addl	%r12d, %ebp
	cmpl	8(%rsi), %r13d
	jge	.L1544
	movq	16(%rsi), %rdx
	movslq	%r13d, %r13
	movslq	%ebp, %rbp
	addl	$1, %r12d
	movzwl	(%rdx,%r13,2), %edx
	movw	%dx, 1212(%rbx,%rbp,2)
	movswl	28(%rdi), %edx
	cmpl	%r12d, %edx
	jg	.L1228
	jmp	.L1226
	.p2align 4,,10
.L1544:
	movq	%rax, 48(%rsp)
	movslq	%r13d, %r13
	movslq	%ebp, %rbp
	addl	$1, %r12d
	leaq	.LC2(%rip), %rdx
	movl	$857, %r8d
	movl	%r9d, 40(%rsp)
	leaq	.LC3(%rip), %rcx
	call	_assert
	movq	16(%rsi), %rdx
	movl	40(%rsp), %r9d
	movq	48(%rsp), %rax
	movzwl	(%rdx,%r13,2), %edx
	movw	%dx, 1212(%rbx,%rbp,2)
	movswl	28(%rdi), %edx
	cmpl	%r12d, %edx
	jg	.L1228
	jmp	.L1226
.L1415:
	movl	%edi, %edx
	jmp	.L1402
.L1537:
	cmpb	$0, 16(%rbx)
	je	.L1188
	jmp	.L1154
.L1538:
	movslq	(%rbx), %rdi
	cmpl	60(%rsi), %edi
	jge	.L1190
	leaq	24(%rbx), %r12
	movl	$99, %r11d
	movl	$999, %ebp
	cmpw	$99, 3210(%rbx)
	movw	%r11w, 3212(%rbx)
	movw	%bp, 3216(%rbx)
	je	.L1545
.L1193:
	leaq	36(%rbx), %rax
	leaq	1212(%rbx), %rbp
	movq	%rax, 32(%rsp)
	leaq	44(%rbx), %r14
.L1203:
	movswq	3214(%rbx), %r15
	movswq	3210(%rbx), %rax
	cmpw	$998, %r15w
	jle	.L1197
	testw	%ax, %ax
	jg	.L1198
.L1199:
	jmp	.L1199
.L1198:
	cmpw	$0, 32(%rbx)
	jns	.L1546
.L1200:
	subl	$1, %eax
	movq	32(%rsp), %rdx
	movq	%r12, %rcx
	movw	%ax, 3210(%rbx)
	movswq	%ax, %rax
	leaq	(%rax,%rax,2), %r8
	salq	$2, %r8
	call	memmove
	jmp	.L1203
.L1251:
	cmpl	%r8d, %edx
	jl	.L1374
	jmp	.L1263
.L1264:
	cmpl	%ecx, %edx
	jl	.L1375
	jmp	.L1263
.L1212:
	movswq	%ax, %rax
	subl	%r15d, %ecx
	testl	%r14d, %r14d
	movq	256(%rsp), %rsi
	leaq	(%rax,%rax,2), %rax
	leaq	(%rbx,%rax,4), %r11
	movw	%cx, 20(%r11)
	movw	%cx, 3216(%rbx)
	jle	.L1211
	leal	-1(%r14), %r10d
	movslq	%edi, %r9
	xorl	%r15d, %r15d
	addq	%r9, %r9
	addq	$1, %r10
	movq	%r9, %rbp
	.p2align 4,,10
.L1220:
	movswl	20(%r11), %eax
	leal	(%rdi,%r15), %edx
	addl	%r15d, %eax
	cmpl	%edx, 8(%rsi)
	jle	.L1547
	movq	16(%rsi), %rdx
	addq	$1, %r15
	cltq
	movzwl	(%rdx,%rbp), %edx
	addq	$2, %rbp
	cmpq	%r15, %r10
	movw	%dx, 1212(%rbx,%rax,2)
	jne	.L1220
	jmp	.L1211
.L1547:
	leaq	.LC2(%rip), %rdx
	movl	$857, %r8d
	movq	%r10, 56(%rsp)
	addq	$1, %r15
	leaq	.LC3(%rip), %rcx
	movq	%r11, 48(%rsp)
	movl	%eax, 40(%rsp)
	call	_assert
	movq	16(%rsi), %rdx
	movq	56(%rsp), %r10
	movslq	40(%rsp), %rax
	movq	48(%rsp), %r11
	movzwl	(%rdx,%rbp), %edx
	addq	$2, %rbp
	cmpq	%r10, %r15
	movw	%dx, 1212(%rbx,%rax,2)
	jne	.L1220
	jmp	.L1211
.L1539:
	movl	%edx, %edi
	jmp	.L1389
.L1543:
	movl	%ecx, %eax
	jmp	.L1373
.L1197:
	leal	1(%rax), %edx
	leaq	(%rax,%rax,2), %rax
	movw	%dx, 3210(%rbx)
	leaq	(%rbx,%rax,4), %rax
	movl	%edi, 24(%rax)
	movl	$65537, 28(%rax)
	movw	%r15w, 32(%rax)
	cmpl	8(%rsi), %edi
	leal	1(%r15), %eax
	movw	%ax, 3214(%rbx)
	jge	.L1548
.L1204:
	movq	16(%rsi), %rax
	movl	$1, %r8d
	movq	%rsi, %rcx
	movl	(%rbx), %edx
	movzwl	(%rax,%rdi,2), %eax
	movw	%ax, 1212(%rbx,%r15,2)
	call	_ZN8ImGuiStbL24STB_TEXTEDIT_DELETECHARSEP18ImGuiTextEditStateii
	movl	(%rbx), %edx
	movl	$1, %r9d
	leaq	96(%rsp), %r8
	call	_ZN8ImGuiStbL24STB_TEXTEDIT_INSERTCHARSEP18ImGuiTextEditStateiPKti
	testb	%al, %al
	jne	.L1206
	jmp	.L1154
.L1278:
	testl	%r8d, %r8d
	movl	%r8d, %edi
	movl	4(%rbx), %ecx
	movl	8(%rbx), %edx
	je	.L1280
	cmpl	%edx, %ecx
	je	.L1549
	movl	%edx, (%rbx)
	movl	60(%rsi), %eax
.L1283:
	cmpl	%ecx, %eax
	jge	.L1286
	cmpl	%edx, %eax
	movl	%eax, 4(%rbx)
	movl	%eax, %ecx
	jge	.L1287
.L1377:
	movl	%eax, 8(%rbx)
.L1287:
	cmpl	8(%rbx), %ecx
	jne	.L1285
	movl	%ecx, (%rbx)
.L1285:
	cmpl	%eax, (%rbx)
	jle	.L1288
	movl	%eax, (%rbx)
.L1288:
	movzbl	16(%rbx), %r9d
	leaq	64(%rsp), %rcx
	movq	%rsi, %rdx
	movl	(%rbx), %r8d
	call	_ZN8ImGuiStbL25stb_textedit_find_charposEPNS_12StbFindStateEP18ImGuiTextEditStateii
	movl	80(%rsp), %r12d
	testl	%r12d, %r12d
	je	.L1154
	cmpb	$0, 15(%rbx)
	je	.L1291
	movss	20(%rbx), %xmm8
.L1292:
	addl	76(%rsp), %r12d
	leaq	96(%rsp), %rcx
	movq	16(%rsi), %rdx
	movl	%r12d, (%rbx)
	movl	60(%rsi), %r8d
	movl	%r12d, %r9d
	call	_ZN8ImGuiStbL22STB_TEXTEDIT_LAYOUTROWEPNS_14StbTexteditRowEP18ImGuiTextEditStatei.isra.36
	cmpl	$0, 116(%rsp)
	movss	96(%rsp), %xmm6
	jle	.L1317
	xorl	%ebp, %ebp
	movss	.LC1(%rip), %xmm7
	jmp	.L1295
.L1416:
	addss	%xmm0, %xmm6
	ucomiss	%xmm8, %xmm6
	ja	.L1317
	addl	$1, (%rbx)
	addl	$1, %ebp
	cmpl	%ebp, 116(%rsp)
	jle	.L1317
.L1295:
	movl	%ebp, %r8d
	movl	%r12d, %edx
	movq	%rsi, %rcx
	call	_ZN8ImGuiStbL21STB_TEXTEDIT_GETWIDTHEP18ImGuiTextEditStateii
	ucomiss	%xmm7, %xmm0
	jp	.L1416
	jne	.L1416
.L1317:
	movl	4(%rbx), %ecx
	movl	8(%rbx), %edx
	movl	60(%rsi), %eax
	cmpl	%edx, %ecx
	je	.L1321
	cmpl	%ecx, %eax
	jge	.L1322
	cmpl	%edx, %eax
	movl	%eax, 4(%rbx)
	movl	%eax, %ecx
	jge	.L1323
.L1380:
	movl	%eax, 8(%rbx)
.L1323:
	cmpl	8(%rbx), %ecx
	jne	.L1321
	movl	%ecx, (%rbx)
.L1321:
	cmpl	(%rbx), %eax
	jge	.L1325
	movl	%eax, (%rbx)
.L1325:
	testl	%edi, %edi
	movb	$1, 15(%rbx)
	movss	%xmm8, 20(%rbx)
	je	.L1154
	movl	(%rbx), %eax
	movl	%eax, 8(%rbx)
	jmp	.L1154
.L1303:
	testl	%r8d, %r8d
	movl	%r8d, %edi
	movl	4(%rbx), %ecx
	movl	8(%rbx), %edx
	je	.L1304
	cmpl	%edx, %ecx
	je	.L1550
	movl	%edx, (%rbx)
	movl	60(%rsi), %eax
	cmpl	%eax, %ecx
	jle	.L1551
	cmpl	%edx, %eax
	movl	%eax, 4(%rbx)
	movl	%eax, %ecx
	jl	.L1379
	cmpl	%eax, 8(%rbx)
	je	.L1394
.L1312:
	movl	(%rbx), %r8d
	leaq	64(%rsp), %rcx
	xorl	%r9d, %r9d
	movq	%rsi, %rdx
	call	_ZN8ImGuiStbL25stb_textedit_find_charposEPNS_12StbFindStateEP18ImGuiTextEditStateii
	movl	84(%rsp), %r9d
	cmpl	76(%rsp), %r9d
	je	.L1154
	cmpb	$0, 15(%rbx)
	je	.L1315
	movss	20(%rbx), %xmm8
.L1316:
	movl	%r9d, (%rbx)
	movq	16(%rsi), %rdx
	leaq	96(%rsp), %rcx
	movl	60(%rsi), %r8d
	call	_ZN8ImGuiStbL22STB_TEXTEDIT_LAYOUTROWEPNS_14StbTexteditRowEP18ImGuiTextEditStatei.isra.36
	cmpl	$0, 116(%rsp)
	movss	96(%rsp), %xmm6
	jle	.L1317
	xorl	%ebp, %ebp
	movss	.LC1(%rip), %xmm7
	jmp	.L1319
.L1417:
	addss	%xmm0, %xmm6
	ucomiss	%xmm8, %xmm6
	ja	.L1317
	addl	$1, (%rbx)
	addl	$1, %ebp
	cmpl	%ebp, 116(%rsp)
	jle	.L1317
.L1319:
	movl	84(%rsp), %edx
	movl	%ebp, %r8d
	movq	%rsi, %rcx
	call	_ZN8ImGuiStbL21STB_TEXTEDIT_GETWIDTHEP18ImGuiTextEditStateii
	ucomiss	%xmm7, %xmm0
	jp	.L1417
	jne	.L1417
	jmp	.L1317
.L1551:
	cmpl	%edx, %eax
	jge	.L1312
.L1379:
	cmpl	%eax, %ecx
	movl	%eax, 8(%rbx)
	je	.L1394
.L1311:
	cmpl	%eax, (%rbx)
	jle	.L1312
	movl	%eax, (%rbx)
	jmp	.L1312
.L1304:
	cmpl	%edx, %ecx
	je	.L1306
	jle	.L1309
	movl	%edx, 4(%rbx)
	movl	%edx, %ecx
.L1309:
	movl	%ecx, (%rbx)
	movl	%ecx, 8(%rbx)
	movb	$0, 15(%rbx)
.L1306:
	movl	60(%rsi), %eax
	jmp	.L1311
.L1322:
	cmpl	%edx, %eax
	jl	.L1380
	jmp	.L1321
.L1546:
	movswq	28(%rbx), %rax
	movq	%rbp, %rcx
	subl	%eax, %r15d
	movq	%rax, %r13
	addq	%rax, %rax
	movw	%r15w, 3214(%rbx)
	movswq	%r15w, %r15
	leaq	0(%rbp,%rax), %rdx
	leaq	(%r15,%r15), %r8
	call	memmove
	movswl	3210(%rbx), %eax
	testw	%ax, %ax
	jle	.L1200
	leaq	32(%rbx), %rdx
	subl	$1, %eax
	imulq	$12, %rax, %rax
	addq	%r14, %rax
.L1202:
	movzwl	(%rdx), %ecx
	testw	%cx, %cx
	js	.L1201
	subl	%r13d, %ecx
	movw	%cx, (%rdx)
.L1201:
	addq	$12, %rdx
	cmpq	%rax, %rdx
	jne	.L1202
	movzwl	3210(%rbx), %eax
	jmp	.L1200
.L1280:
	cmpl	%edx, %ecx
	je	.L1282
	jle	.L1284
	movl	%ecx, 8(%rbx)
	movl	%edx, 4(%rbx)
.L1284:
	movq	%rbx, %rdx
	movq	%rsi, %rcx
	call	_ZN8ImGuiStbL25stb_textedit_move_to_lastEP18ImGuiTextEditStatePNS_17STB_TexteditStateE.part.7
	movl	4(%rbx), %ecx
	movl	8(%rbx), %edx
	movl	60(%rsi), %eax
	cmpl	%edx, %ecx
	jne	.L1283
	jmp	.L1285
.L1286:
	cmpl	%edx, %eax
	jl	.L1377
	jmp	.L1285
.L1315:
	movss	64(%rsp), %xmm8
	jmp	.L1316
.L1394:
	movl	%ecx, (%rbx)
	jmp	.L1311
.L1548:
	leaq	.LC2(%rip), %rdx
	movl	$857, %r8d
	leaq	.LC3(%rip), %rcx
	call	_assert
	jmp	.L1204
.L1291:
	movss	64(%rsp), %xmm8
	jmp	.L1292
.L1549:
	movl	(%rbx), %eax
	movl	%eax, 8(%rbx)
	movl	%eax, 4(%rbx)
.L1282:
	movl	60(%rsi), %eax
	jmp	.L1285
.L1545:
	cmpw	$0, 32(%rbx)
	jns	.L1552
.L1194:
	movzwl	3210(%rbx), %eax
	leaq	36(%rbx), %rdx
	movq	%r12, %rcx
	subl	$1, %eax
	movw	%ax, 3210(%rbx)
	movswq	%ax, %rax
	imulq	$12, %rax, %r8
	call	memmove
	jmp	.L1193
.L1550:
	movl	(%rbx), %eax
	movl	%eax, 8(%rbx)
	movl	%eax, 4(%rbx)
	jmp	.L1306
.L1552:
	movzwl	28(%rbx), %ebp
	leaq	1212(%rbx), %rcx
	movzwl	3214(%rbx), %eax
	subl	%ebp, %eax
	movw	%ax, 3214(%rbx)
	movswq	%ax, %r8
	movswq	%bp, %rax
	addq	%rax, %rax
	addq	%r8, %r8
	leaq	(%rcx,%rax), %rdx
	call	memmove
	movswl	3210(%rbx), %r8d
	leaq	32(%rbx), %rax
	xorl	%ecx, %ecx
	jmp	.L1196
.L1553:
	movzwl	(%rax), %edx
	testw	%dx, %dx
	js	.L1195
	subl	%ebp, %edx
	movw	%dx, (%rax)
.L1195:
	addl	$1, %ecx
	addq	$12, %rax
.L1196:
	cmpl	%ecx, %r8d
	jg	.L1553
	jmp	.L1194
.L1532:
	movl	%edx, 8(%rbx)
	movl	%edx, %ecx
	jmp	.L1271
	.seh_endproc
	.p2align 4,,15
	.def	_ZL30GetClipboardTextFn_DefaultImplPv;	.scl	3;	.type	32;	.endef
	.seh_proc	_ZL30GetClipboardTextFn_DefaultImplPv
_ZL30GetClipboardTextFn_DefaultImplPv:
.LFB6217:
	pushq	%r12
	.seh_pushreg	%r12
	pushq	%rbp
	.seh_pushreg	%rbp
	pushq	%rdi
	.seh_pushreg	%rdi
	pushq	%rsi
	.seh_pushreg	%rsi
	pushq	%rbx
	.seh_pushreg	%rbx
	subq	$32, %rsp
	.seh_stackalloc	32
	.seh_endprologue
	movzbl	_ZGVZL30GetClipboardTextFn_DefaultImplPvE9buf_local(%rip), %eax
	testb	%al, %al
	je	.L1587
.L1556:
	movq	8+_ZZL30GetClipboardTextFn_DefaultImplPvE9buf_local(%rip), %rcx
	testq	%rcx, %rcx
	je	.L1558
	movq	GImGui(%rip), %rax
	movq	$0, _ZZL30GetClipboardTextFn_DefaultImplPvE9buf_local(%rip)
	subl	$1, 844(%rax)
	call	*240(%rax)
	movq	$0, 8+_ZZL30GetClipboardTextFn_DefaultImplPvE9buf_local(%rip)
.L1558:
	xorl	%ecx, %ecx
	call	*__imp_OpenClipboard(%rip)
	testl	%eax, %eax
	je	.L1561
	movl	$13, %ecx
	call	*__imp_GetClipboardData(%rip)
	testq	%rax, %rax
	movq	%rax, %rbx
	je	.L1561
	movq	%rax, %rcx
	call	*__imp_GlobalLock(%rip)
	testq	%rax, %rax
	movq	%rax, %rdi
	je	.L1562
	xorl	%edx, %edx
	movq	%rax, %rcx
	call	_Z27ImTextCountUtf8BytesFromStrPKtS0_
	leal	1(%rax), %esi
	movl	4+_ZZL30GetClipboardTextFn_DefaultImplPvE9buf_local(%rip), %eax
	cmpl	%eax, %esi
	jle	.L1567
	testl	%eax, %eax
	movl	$8, %ebp
	je	.L1565
	movl	%eax, %ebp
	shrl	$31, %ebp
	addl	%eax, %ebp
	sarl	%ebp
	addl	%eax, %ebp
.L1565:
	cmpl	%ebp, %esi
	jl	.L1588
	movl	%esi, %ebp
.L1566:
	movq	GImGui(%rip), %rax
	movslq	%ebp, %rcx
	addl	$1, 844(%rax)
	call	*232(%rax)
	movq	8+_ZZL30GetClipboardTextFn_DefaultImplPvE9buf_local(%rip), %rcx
	movq	%rax, %r12
	movq	GImGui(%rip), %rax
	testq	%rcx, %rcx
	je	.L1570
	movslq	_ZZL30GetClipboardTextFn_DefaultImplPvE9buf_local(%rip), %r8
	movq	%rcx, %rdx
	movq	%r12, %rcx
	call	memcpy
	movq	8+_ZZL30GetClipboardTextFn_DefaultImplPvE9buf_local(%rip), %rcx
	movq	GImGui(%rip), %rax
	testq	%rcx, %rcx
	je	.L1570
	subl	$1, 844(%rax)
.L1570:
	call	*240(%rax)
	movq	%r12, 8+_ZZL30GetClipboardTextFn_DefaultImplPvE9buf_local(%rip)
	movl	%ebp, 4+_ZZL30GetClipboardTextFn_DefaultImplPvE9buf_local(%rip)
	jmp	.L1564
	.p2align 4,,10
.L1588:
	cmpl	%ebp, %eax
	jl	.L1566
	.p2align 4,,10
.L1567:
	movq	8+_ZZL30GetClipboardTextFn_DefaultImplPvE9buf_local(%rip), %r12
.L1564:
	xorl	%r9d, %r9d
	movq	%rdi, %r8
	movl	%esi, %edx
	movl	%esi, _ZZL30GetClipboardTextFn_DefaultImplPvE9buf_local(%rip)
	movq	%r12, %rcx
	call	_Z15ImTextStrToUtf8PciPKtS1_
.L1562:
	movq	%rbx, %rcx
	call	*__imp_GlobalUnlock(%rip)
	call	*__imp_CloseClipboard(%rip)
	movq	8+_ZZL30GetClipboardTextFn_DefaultImplPvE9buf_local(%rip), %rax
	addq	$32, %rsp
	popq	%rbx
	popq	%rsi
	popq	%rdi
	popq	%rbp
	popq	%r12
	ret
	.p2align 4,,10
.L1587:
	leaq	_ZGVZL30GetClipboardTextFn_DefaultImplPvE9buf_local(%rip), %rcx
	call	__cxa_guard_acquire
	testl	%eax, %eax
	je	.L1556
	leaq	_ZGVZL30GetClipboardTextFn_DefaultImplPvE9buf_local(%rip), %rcx
	movq	$0, _ZZL30GetClipboardTextFn_DefaultImplPvE9buf_local(%rip)
	movq	$0, 8+_ZZL30GetClipboardTextFn_DefaultImplPvE9buf_local(%rip)
	call	__cxa_guard_release
	leaq	__tcf_0(%rip), %rcx
	call	atexit
	jmp	.L1556
	.p2align 4,,10
.L1561:
	xorl	%eax, %eax
	addq	$32, %rsp
	popq	%rbx
	popq	%rsi
	popq	%rdi
	popq	%rbp
	popq	%r12
	ret
	.seh_endproc
	.p2align 4,,15
	.globl	_ZN5ImGui23ColorConvertU32ToFloat4Ej
	.def	_ZN5ImGui23ColorConvertU32ToFloat4Ej;	.scl	2;	.type	32;	.endef
	.seh_proc	_ZN5ImGui23ColorConvertU32ToFloat4Ej
_ZN5ImGui23ColorConvertU32ToFloat4Ej:
.LFB584:
	.seh_endprologue
	pxor	%xmm1, %xmm1
	movss	.LC82(%rip), %xmm2
	pxor	%xmm0, %xmm0
	movq	%rcx, %rax
	movzbl	%dl, %ecx
	movl	%edx, %r8d
	cvtsi2ss	%ecx, %xmm1
	movzbl	%dh, %ecx
	shrl	$16, %r8d
	movzbl	%r8b, %r8d
	shrl	$24, %edx
	cvtsi2ss	%edx, %xmm0
	mulss	%xmm2, %xmm1
	mulss	%xmm2, %xmm0
	movss	%xmm1, (%rax)
	pxor	%xmm1, %xmm1
	cvtsi2ss	%ecx, %xmm1
	movss	%xmm0, 12(%rax)
	mulss	%xmm2, %xmm1
	movss	%xmm1, 4(%rax)
	pxor	%xmm1, %xmm1
	cvtsi2ss	%r8d, %xmm1
	mulss	%xmm2, %xmm1
	movss	%xmm1, 8(%rax)
	ret
	.seh_endproc
	.p2align 4,,15
	.globl	_ZN5ImGui23ColorConvertFloat4ToU32ERK6ImVec4
	.def	_ZN5ImGui23ColorConvertFloat4ToU32ERK6ImVec4;	.scl	2;	.type	32;	.endef
	.seh_proc	_ZN5ImGui23ColorConvertFloat4ToU32ERK6ImVec4
_ZN5ImGui23ColorConvertFloat4ToU32ERK6ImVec4:
.LFB585:
	.seh_endprologue
	pxor	%xmm1, %xmm1
	xorl	%eax, %eax
	movss	(%rcx), %xmm0
	ucomiss	%xmm0, %xmm1
	ja	.L1591
	ucomiss	.LC18(%rip), %xmm0
	movl	$255, %eax
	jbe	.L1609
.L1591:
	movss	4(%rcx), %xmm0
	ucomiss	%xmm0, %xmm1
	ja	.L1592
	ucomiss	.LC18(%rip), %xmm0
	jbe	.L1606
	orb	$-1, %ah
.L1592:
	movss	8(%rcx), %xmm0
	ucomiss	%xmm0, %xmm1
	ja	.L1595
	ucomiss	.LC18(%rip), %xmm0
	jbe	.L1607
	orl	$16711680, %eax
.L1595:
	movss	12(%rcx), %xmm0
	ucomiss	%xmm0, %xmm1
	ja	.L1590
	ucomiss	.LC18(%rip), %xmm0
	jbe	.L1608
	orl	$-16777216, %eax
.L1590:
	ret
	.p2align 4,,10
.L1608:
	mulss	.LC19(%rip), %xmm0
	addss	.LC17(%rip), %xmm0
	cvttss2si	%xmm0, %edx
	sall	$24, %edx
	orl	%edx, %eax
	ret
	.p2align 4,,10
.L1609:
	mulss	.LC19(%rip), %xmm0
	addss	.LC17(%rip), %xmm0
	cvttss2si	%xmm0, %eax
	jmp	.L1591
	.p2align 4,,10
.L1606:
	mulss	.LC19(%rip), %xmm0
	addss	.LC17(%rip), %xmm0
	cvttss2si	%xmm0, %edx
	sall	$8, %edx
	orl	%edx, %eax
	jmp	.L1592
	.p2align 4,,10
.L1607:
	mulss	.LC19(%rip), %xmm0
	addss	.LC17(%rip), %xmm0
	cvttss2si	%xmm0, %edx
	sall	$16, %edx
	orl	%edx, %eax
	jmp	.L1595
	.seh_endproc
	.p2align 4,,15
	.globl	_ZN5ImGui11GetColorU32Eif
	.def	_ZN5ImGui11GetColorU32Eif;	.scl	2;	.type	32;	.endef
	.seh_proc	_ZN5ImGui11GetColorU32Eif
_ZN5ImGui11GetColorU32Eif:
.LFB586:
	.seh_endprologue
	movq	GImGui(%rip), %rdx
	pxor	%xmm0, %xmm0
	mulss	5120(%rdx), %xmm1
	movslq	%ecx, %rax
	addq	$328, %rax
	salq	$4, %rax
	addq	%rdx, %rax
	movss	(%rax), %xmm4
	movss	4(%rax), %xmm3
	movss	8(%rax), %xmm2
	mulss	12(%rax), %xmm1
	xorl	%eax, %eax
	ucomiss	%xmm4, %xmm0
	ja	.L1611
	ucomiss	.LC18(%rip), %xmm4
	movl	$255, %eax
	jbe	.L1629
.L1611:
	ucomiss	%xmm3, %xmm0
	ja	.L1612
	ucomiss	.LC18(%rip), %xmm3
	jbe	.L1626
	orb	$-1, %ah
.L1612:
	ucomiss	%xmm2, %xmm0
	ja	.L1615
	ucomiss	.LC18(%rip), %xmm2
	jbe	.L1627
	orl	$16711680, %eax
.L1615:
	ucomiss	%xmm1, %xmm0
	ja	.L1610
	ucomiss	.LC18(%rip), %xmm1
	jbe	.L1628
	orl	$-16777216, %eax
.L1610:
	ret
	.p2align 4,,10
.L1628:
	mulss	.LC19(%rip), %xmm1
	addss	.LC17(%rip), %xmm1
	cvttss2si	%xmm1, %edx
	sall	$24, %edx
	orl	%edx, %eax
	ret
	.p2align 4,,10
.L1629:
	mulss	.LC19(%rip), %xmm4
	addss	.LC17(%rip), %xmm4
	cvttss2si	%xmm4, %eax
	jmp	.L1611
	.p2align 4,,10
.L1626:
	mulss	.LC19(%rip), %xmm3
	addss	.LC17(%rip), %xmm3
	cvttss2si	%xmm3, %edx
	sall	$8, %edx
	orl	%edx, %eax
	jmp	.L1612
	.p2align 4,,10
.L1627:
	mulss	.LC19(%rip), %xmm2
	addss	.LC17(%rip), %xmm2
	cvttss2si	%xmm2, %edx
	sall	$16, %edx
	orl	%edx, %eax
	jmp	.L1615
	.seh_endproc
	.p2align 4,,15
	.globl	_ZN5ImGui11GetColorU32ERK6ImVec4
	.def	_ZN5ImGui11GetColorU32ERK6ImVec4;	.scl	2;	.type	32;	.endef
	.seh_proc	_ZN5ImGui11GetColorU32ERK6ImVec4
_ZN5ImGui11GetColorU32ERK6ImVec4:
.LFB587:
	.seh_endprologue
	movq	GImGui(%rip), %rax
	pxor	%xmm1, %xmm1
	movss	(%rcx), %xmm4
	movss	4(%rcx), %xmm3
	movss	5120(%rax), %xmm0
	xorl	%eax, %eax
	ucomiss	%xmm4, %xmm1
	movss	8(%rcx), %xmm2
	mulss	12(%rcx), %xmm0
	ja	.L1631
	ucomiss	.LC18(%rip), %xmm4
	movl	$255, %eax
	jbe	.L1649
.L1631:
	ucomiss	%xmm3, %xmm1
	ja	.L1632
	ucomiss	.LC18(%rip), %xmm3
	jbe	.L1646
	orb	$-1, %ah
.L1632:
	ucomiss	%xmm2, %xmm1
	ja	.L1635
	ucomiss	.LC18(%rip), %xmm2
	jbe	.L1647
	orl	$16711680, %eax
.L1635:
	ucomiss	%xmm0, %xmm1
	ja	.L1630
	ucomiss	.LC18(%rip), %xmm0
	jbe	.L1648
	orl	$-16777216, %eax
.L1630:
	ret
	.p2align 4,,10
.L1648:
	mulss	.LC19(%rip), %xmm0
	addss	.LC17(%rip), %xmm0
	cvttss2si	%xmm0, %edx
	sall	$24, %edx
	orl	%edx, %eax
	ret
	.p2align 4,,10
.L1649:
	mulss	.LC19(%rip), %xmm4
	addss	.LC17(%rip), %xmm4
	cvttss2si	%xmm4, %eax
	jmp	.L1631
	.p2align 4,,10
.L1646:
	mulss	.LC19(%rip), %xmm3
	addss	.LC17(%rip), %xmm3
	cvttss2si	%xmm3, %edx
	sall	$8, %edx
	orl	%edx, %eax
	jmp	.L1632
	.p2align 4,,10
.L1647:
	mulss	.LC19(%rip), %xmm2
	addss	.LC17(%rip), %xmm2
	cvttss2si	%xmm2, %edx
	sall	$16, %edx
	orl	%edx, %eax
	jmp	.L1635
	.seh_endproc
	.p2align 4,,15
	.globl	_ZN5ImGui20ColorConvertRGBtoHSVEfffRfS0_S0_
	.def	_ZN5ImGui20ColorConvertRGBtoHSVEfffRfS0_S0_;	.scl	2;	.type	32;	.endef
	.seh_proc	_ZN5ImGui20ColorConvertRGBtoHSVEfffRfS0_S0_
_ZN5ImGui20ColorConvertRGBtoHSVEfffRfS0_S0_:
.LFB588:
	.seh_endprologue
	ucomiss	%xmm1, %xmm2
	ja	.L1655
	movss	.LC83(%rip), %xmm5
	movaps	%xmm2, %xmm3
	movaps	%xmm1, %xmm2
	movaps	%xmm3, %xmm1
	pxor	%xmm3, %xmm3
.L1651:
	ucomiss	%xmm0, %xmm2
	ja	.L1652
	movaps	%xmm3, %xmm5
	movaps	%xmm2, %xmm3
	movaps	%xmm0, %xmm2
	movaps	%xmm3, %xmm0
.L1652:
	movaps	%xmm0, %xmm3
	subss	%xmm1, %xmm0
	movaps	%xmm2, %xmm4
	movq	40(%rsp), %rax
	minss	%xmm1, %xmm3
	movss	.LC86(%rip), %xmm1
	subss	%xmm3, %xmm4
	movaps	%xmm4, %xmm3
	mulss	.LC85(%rip), %xmm4
	addss	%xmm1, %xmm4
	addss	%xmm2, %xmm1
	divss	%xmm4, %xmm0
	divss	%xmm1, %xmm3
	addss	%xmm5, %xmm0
	andps	.LC87(%rip), %xmm0
	movss	%xmm0, (%r9)
	movss	%xmm3, (%rax)
	movq	48(%rsp), %rax
	movss	%xmm2, (%rax)
	ret
	.p2align 4,,10
.L1655:
	movss	.LC84(%rip), %xmm5
	movss	.LC1(%rip), %xmm3
	jmp	.L1651
	.seh_endproc
	.p2align 4,,15
	.globl	_ZN5ImGui20ColorConvertHSVtoRGBEfffRfS0_S0_
	.def	_ZN5ImGui20ColorConvertHSVtoRGBEfffRfS0_S0_;	.scl	2;	.type	32;	.endef
	.seh_proc	_ZN5ImGui20ColorConvertHSVtoRGBEfffRfS0_S0_
_ZN5ImGui20ColorConvertHSVtoRGBEfffRfS0_S0_:
.LFB589:
	subq	$88, %rsp
	.seh_stackalloc	88
	movaps	%xmm6, 48(%rsp)
	.seh_savexmm	%xmm6, 48
	movaps	%xmm7, 64(%rsp)
	.seh_savexmm	%xmm7, 64
	.seh_endprologue
	ucomiss	.LC0(%rip), %xmm1
	movaps	%xmm1, %xmm7
	movaps	%xmm2, %xmm6
	jp	.L1659
	jne	.L1659
	movq	136(%rsp), %rax
	movss	%xmm2, (%rax)
	movq	128(%rsp), %rax
	movss	%xmm2, (%rax)
	movss	%xmm2, (%r9)
.L1658:
	movaps	48(%rsp), %xmm6
	movaps	64(%rsp), %xmm7
	addq	$88, %rsp
	ret
	.p2align 4,,10
.L1659:
	movss	.LC18(%rip), %xmm1
	movq	%r9, 40(%rsp)
	call	fmodf
	divss	.LC88(%rip), %xmm0
	cvttss2si	%xmm0, %eax
	pxor	%xmm1, %xmm1
	movss	.LC18(%rip), %xmm2
	movaps	%xmm7, %xmm3
	movq	40(%rsp), %r9
	movaps	%xmm2, %xmm5
	movaps	%xmm2, %xmm4
	cvtsi2ss	%eax, %xmm1
	cmpl	$4, %eax
	subss	%xmm1, %xmm0
	movaps	%xmm2, %xmm1
	subss	%xmm7, %xmm1
	subss	%xmm0, %xmm5
	mulss	%xmm0, %xmm3
	mulss	%xmm6, %xmm1
	mulss	%xmm5, %xmm7
	subss	%xmm3, %xmm4
	subss	%xmm7, %xmm2
	movaps	%xmm4, %xmm3
	mulss	%xmm6, %xmm3
	mulss	%xmm6, %xmm2
	ja	.L1662
	leaq	.L1664(%rip), %rdx
	movl	%eax, %eax
	movslq	(%rdx,%rax,4), %rax
	addq	%rdx, %rax
	jmp	*%rax
	.section .rdata,"dr"
	.align 4
.L1664:
	.long	.L1663-.L1664
	.long	.L1665-.L1664
	.long	.L1666-.L1664
	.long	.L1667-.L1664
	.long	.L1668-.L1664
	.text
	.p2align 4,,10
.L1667:
	movq	128(%rsp), %rax
	movss	%xmm1, (%r9)
	movss	%xmm3, (%rax)
	movq	136(%rsp), %rax
	movss	%xmm6, (%rax)
	jmp	.L1658
	.p2align 4,,10
.L1666:
	movq	128(%rsp), %rax
	movss	%xmm1, (%r9)
	movss	%xmm6, (%rax)
	movq	136(%rsp), %rax
	movss	%xmm2, (%rax)
	jmp	.L1658
	.p2align 4,,10
.L1665:
	movq	128(%rsp), %rax
	movss	%xmm3, (%r9)
	movss	%xmm6, (%rax)
	movq	136(%rsp), %rax
	movss	%xmm1, (%rax)
	jmp	.L1658
	.p2align 4,,10
.L1663:
	movq	128(%rsp), %rax
	movss	%xmm6, (%r9)
	movss	%xmm2, (%rax)
	movq	136(%rsp), %rax
	movss	%xmm1, (%rax)
	jmp	.L1658
	.p2align 4,,10
.L1668:
	movq	128(%rsp), %rax
	movss	%xmm2, (%r9)
	movss	%xmm1, (%rax)
	movq	136(%rsp), %rax
	movss	%xmm6, (%rax)
	jmp	.L1658
	.p2align 4,,10
.L1662:
	movq	128(%rsp), %rax
	movss	%xmm6, (%r9)
	movss	%xmm1, (%rax)
	movq	136(%rsp), %rax
	movss	%xmm3, (%rax)
	jmp	.L1658
	.seh_endproc
	.p2align 4,,15
	.globl	_Z10ImFileOpenPKcS0_
	.def	_Z10ImFileOpenPKcS0_;	.scl	2;	.type	32;	.endef
	.seh_proc	_Z10ImFileOpenPKcS0_
_Z10ImFileOpenPKcS0_:
.LFB590:
	pushq	%r14
	.seh_pushreg	%r14
	pushq	%r13
	.seh_pushreg	%r13
	pushq	%r12
	.seh_pushreg	%r12
	pushq	%rbp
	.seh_pushreg	%rbp
	pushq	%rdi
	.seh_pushreg	%rdi
	pushq	%rsi
	.seh_pushreg	%rsi
	pushq	%rbx
	.seh_pushreg	%rbx
	subq	$48, %rsp
	.seh_stackalloc	48
	.seh_endprologue
	cmpb	$0, (%rcx)
	movq	%rcx, %rdi
	movq	%rdx, %rbp
	je	.L1684
	leaq	44(%rsp), %rsi
	movq	%rcx, %rbx
	xorl	%r13d, %r13d
	jmp	.L1674
	.p2align 4,,10
.L1699:
	cmpl	$65535, %eax
	ja	.L1673
	leal	2(%r13), %eax
	movl	%r12d, %r13d
	movl	%eax, %r12d
.L1673:
	cmpb	$0, (%rbx)
	je	.L1671
.L1674:
	xorl	%r8d, %r8d
	movq	%rbx, %rdx
	movq	%rsi, %rcx
	call	_Z18ImTextCharFromUtf8PjPKcS1_
	leal	1(%r13), %r12d
	cltq
	addq	%rax, %rbx
	movl	44(%rsp), %eax
	testl	%eax, %eax
	jne	.L1699
.L1671:
	cmpb	$0, 0(%rbp)
	je	.L1685
	leaq	44(%rsp), %rsi
	movq	%rbp, %rbx
	xorl	%r13d, %r13d
	jmp	.L1678
	.p2align 4,,10
.L1700:
	cmpl	$65535, %eax
	ja	.L1677
	leal	2(%r13), %eax
	movl	%r14d, %r13d
	movl	%eax, %r14d
.L1677:
	cmpb	$0, (%rbx)
	je	.L1675
.L1678:
	xorl	%r8d, %r8d
	movq	%rbx, %rdx
	movq	%rsi, %rcx
	call	_Z18ImTextCharFromUtf8PjPKcS1_
	leal	1(%r13), %r14d
	cltq
	addq	%rax, %rbx
	movl	44(%rsp), %eax
	testl	%eax, %eax
	jne	.L1700
.L1675:
	movq	GImGui(%rip), %rax
	leal	(%r14,%r12), %esi
	movl	$8, %ecx
	addl	$1, 844(%rax)
	cmpl	$8, %esi
	cmovge	%esi, %ecx
	movslq	%ecx, %rcx
	addq	%rcx, %rcx
.LEHB5:
	call	*232(%rax)
	xorl	%ecx, %ecx
	movq	%rax, %rbx
	movq	GImGui(%rip), %rax
	call	*240(%rax)
.LEHE5:
	xorl	%r9d, %r9d
	movq	%rdi, %r8
	movl	%r12d, %edx
	movq	%rbx, %rcx
	call	_Z17ImTextStrFromUtf8PtiPKcS1_PS1_.constprop.150
	cmpl	%r12d, %esi
	jle	.L1682
	movslq	%r12d, %r12
	xorl	%r9d, %r9d
	movq	%rbp, %r8
	leaq	(%rbx,%r12,2), %rsi
	movl	%r14d, %edx
	movq	%rsi, %rcx
	call	_Z17ImTextStrFromUtf8PtiPKcS1_PS1_.constprop.150
.L1683:
	movq	%rsi, %rdx
	movq	%rbx, %rcx
.LEHB6:
	call	*__imp__wfopen(%rip)
.LEHE6:
	testq	%rbx, %rbx
	movq	%rax, %rsi
	je	.L1670
	movq	GImGui(%rip), %rdx
	movq	%rbx, %rcx
	subl	$1, 844(%rdx)
	call	*240(%rdx)
.L1670:
	movq	%rsi, %rax
	addq	$48, %rsp
	popq	%rbx
	popq	%rsi
	popq	%rdi
	popq	%rbp
	popq	%r12
	popq	%r13
	popq	%r14
	ret
	.p2align 4,,10
.L1682:
	leaq	.LC2(%rip), %rdx
	movl	$856, %r8d
	leaq	.LC3(%rip), %rcx
.LEHB7:
	call	_assert
	movslq	%r12d, %r12
	movq	%rbp, %r8
	movl	%r14d, %edx
	leaq	(%rbx,%r12,2), %rsi
	xorl	%r9d, %r9d
	movq	%rsi, %rcx
	call	_Z17ImTextStrFromUtf8PtiPKcS1_PS1_.constprop.150
	movl	$856, %r8d
	leaq	.LC2(%rip), %rdx
	leaq	.LC3(%rip), %rcx
	call	_assert
.LEHE7:
	jmp	.L1683
.L1684:
	movl	$1, %r12d
	jmp	.L1671
.L1685:
	movl	$1, %r14d
	jmp	.L1675
.L1686:
	testq	%rbx, %rbx
	movq	%rax, %rsi
	je	.L1681
	movq	GImGui(%rip), %rdx
	movq	%rbx, %rcx
	subl	$1, 844(%rdx)
	call	*240(%rdx)
.L1681:
	movq	%rsi, %rcx
.LEHB8:
	call	_Unwind_Resume
	nop
.LEHE8:
	.seh_handler	__gxx_personality_seh0, @unwind, @except
	.seh_handlerdata
.LLSDA590:
	.byte	0xff
	.byte	0xff
	.byte	0x1
	.uleb128 .LLSDACSE590-.LLSDACSB590
.LLSDACSB590:
	.uleb128 .LEHB5-.LFB590
	.uleb128 .LEHE5-.LEHB5
	.uleb128 0
	.uleb128 0
	.uleb128 .LEHB6-.LFB590
	.uleb128 .LEHE6-.LEHB6
	.uleb128 .L1686-.LFB590
	.uleb128 0
	.uleb128 .LEHB7-.LFB590
	.uleb128 .LEHE7-.LEHB7
	.uleb128 .L1686-.LFB590
	.uleb128 0
	.uleb128 .LEHB8-.LFB590
	.uleb128 .LEHE8-.LEHB8
	.uleb128 0
	.uleb128 0
.LLSDACSE590:
	.text
	.seh_endproc
	.section .rdata,"dr"
.LC89:
	.ascii "wt\0"
.LC91:
	.ascii "###\0"
.LC92:
	.ascii "[%s]\12\0"
.LC93:
	.ascii "Pos=%d,%d\12\0"
.LC94:
	.ascii "Size=%d,%d\12\0"
.LC95:
	.ascii "Collapsed=%d\12\0"
.LC96:
	.ascii "\12\0"
	.text
	.p2align 4,,15
	.def	_ZL21SaveIniSettingsToDiskPKc;	.scl	3;	.type	32;	.endef
	.seh_proc	_ZL21SaveIniSettingsToDiskPKc
_ZL21SaveIniSettingsToDiskPKc:
.LFB678:
	pushq	%r15
	.seh_pushreg	%r15
	pushq	%r14
	.seh_pushreg	%r14
	pushq	%r13
	.seh_pushreg	%r13
	pushq	%r12
	.seh_pushreg	%r12
	pushq	%rbp
	.seh_pushreg	%rbp
	pushq	%rdi
	.seh_pushreg	%rdi
	pushq	%rsi
	.seh_pushreg	%rsi
	pushq	%rbx
	.seh_pushreg	%rbx
	subq	$56, %rsp
	.seh_stackalloc	56
	.seh_endprologue
	movq	GImGui(%rip), %rsi
	movl	$0x00000000, 6128(%rsi)
	testq	%rcx, %rcx
	movq	%rcx, 40(%rsp)
	je	.L1701
	movl	5976(%rsi), %eax
	testl	%eax, %eax
	je	.L1704
	xorl	%ebp, %ebp
	xorl	%edi, %edi
	.p2align 4,,10
.L1711:
	cmpl	%eax, %edi
	jge	.L1735
.L1705:
	movq	5984(%rsi), %rax
	movq	(%rax,%rbp), %r14
	movl	12(%r14), %ebx
	andl	$256, %ebx
	jne	.L1706
	movq	GImGui(%rip), %r12
	xorl	%edx, %edx
	movq	(%r14), %rcx
	call	_Z6ImHashPKvij.constprop.146
	movl	6112(%r12), %edx
	movl	%eax, %r13d
	testl	%edx, %edx
	je	.L1707
	xorl	%r15d, %r15d
	jmp	.L1710
	.p2align 4,,10
.L1708:
	movq	6120(%r12), %rdx
	addq	%r15, %rdx
	cmpl	8(%rdx), %r13d
	je	.L1709
	movl	6112(%r12), %edx
	addl	$1, %ebx
	addq	$32, %r15
	cmpl	%ebx, %edx
	je	.L1707
.L1710:
	cmpl	%ebx, %edx
	jg	.L1708
	leaq	.LC2(%rip), %rdx
	movl	$856, %r8d
	leaq	.LC3(%rip), %rcx
	call	_assert
	jmp	.L1708
	.p2align 4,,10
.L1709:
	movq	28(%r14), %rax
	movq	%rax, 12(%rdx)
	movq	44(%r14), %rax
	movq	%rax, 20(%rdx)
	movzbl	139(%r14), %eax
	movb	%al, 28(%rdx)
.L1706:
	movl	5976(%rsi), %eax
	addl	$1, %edi
	addq	$8, %rbp
	cmpl	%edi, %eax
	jne	.L1711
.L1704:
	movq	40(%rsp), %rcx
	leaq	.LC89(%rip), %rdx
	call	_Z10ImFileOpenPKcS0_
	testq	%rax, %rax
	movq	%rax, %rbp
	je	.L1701
	movl	6112(%rsi), %eax
	testl	%eax, %eax
	je	.L1713
	leaq	.LC2(%rip), %r14
	xorl	%edi, %edi
	leaq	.LC3(%rip), %r13
	leaq	.LC91(%rip), %r12
	jmp	.L1718
	.p2align 4,,10
.L1714:
	movq	%rdi, %rbx
	salq	$5, %rbx
	addq	6120(%rsi), %rbx
	movss	12(%rbx), %xmm0
	ucomiss	.LC90(%rip), %xmm0
	jp	.L1720
	je	.L1715
.L1720:
	movq	(%rbx), %r15
	movq	%r12, %rdx
	movq	%r15, %rcx
	call	strstr
	movq	%r15, %r8
	movq	%rbp, %rcx
	leaq	.LC92(%rip), %rdx
	testq	%rax, %rax
	cmovne	%rax, %r8
	call	_Z7fprintfP6_iobufPKcz
	cvttss2si	16(%rbx), %r9d
	leaq	.LC93(%rip), %rdx
	movq	%rbp, %rcx
	cvttss2si	12(%rbx), %r8d
	call	_Z7fprintfP6_iobufPKcz
	cvttss2si	24(%rbx), %r9d
	leaq	.LC94(%rip), %rdx
	movq	%rbp, %rcx
	cvttss2si	20(%rbx), %r8d
	call	_Z7fprintfP6_iobufPKcz
	movzbl	28(%rbx), %r8d
	leaq	.LC95(%rip), %rdx
	movq	%rbp, %rcx
	call	_Z7fprintfP6_iobufPKcz
	leaq	.LC96(%rip), %rdx
	movq	%rbp, %rcx
	call	_Z7fprintfP6_iobufPKcz
.L1715:
	movl	6112(%rsi), %eax
	leal	1(%rdi), %edx
	addq	$1, %rdi
	cmpl	%edx, %eax
	je	.L1713
.L1718:
	cmpl	%edi, %eax
	jg	.L1714
	movl	$856, %r8d
	movq	%r14, %rdx
	movq	%r13, %rcx
	call	_assert
	jmp	.L1714
	.p2align 4,,10
.L1713:
	movq	%rbp, %rcx
	addq	$56, %rsp
	popq	%rbx
	popq	%rsi
	popq	%rdi
	popq	%rbp
	popq	%r12
	popq	%r13
	popq	%r14
	popq	%r15
	jmp	fclose
	.p2align 4,,10
.L1707:
	movq	28(%r14), %rax
	movq	%rax, 12
	ud2
	.p2align 4,,10
.L1735:
	leaq	.LC2(%rip), %rdx
	movl	$856, %r8d
	leaq	.LC3(%rip), %rcx
	call	_assert
	jmp	.L1705
	.p2align 4,,10
.L1701:
	addq	$56, %rsp
	popq	%rbx
	popq	%rsi
	popq	%rdi
	popq	%rbp
	popq	%r12
	popq	%r13
	popq	%r14
	popq	%r15
	ret
	.seh_endproc
	.section .rdata,"dr"
.LC97:
	.ascii "filename && file_open_mode\0"
	.text
	.p2align 4,,15
	.globl	_Z18ImFileLoadToMemoryPKcS0_Pii
	.def	_Z18ImFileLoadToMemoryPKcS0_Pii;	.scl	2;	.type	32;	.endef
	.seh_proc	_Z18ImFileLoadToMemoryPKcS0_Pii
_Z18ImFileLoadToMemoryPKcS0_Pii:
.LFB591:
	pushq	%r13
	.seh_pushreg	%r13
	pushq	%r12
	.seh_pushreg	%r12
	pushq	%rbp
	.seh_pushreg	%rbp
	pushq	%rdi
	.seh_pushreg	%rdi
	pushq	%rsi
	.seh_pushreg	%rsi
	pushq	%rbx
	.seh_pushreg	%rbx
	subq	$40, %rsp
	.seh_stackalloc	40
	.seh_endprologue
	testq	%rcx, %rcx
	movq	%rcx, %rbx
	movq	%rdx, %rsi
	movq	%r8, %rdi
	movl	%r9d, %r13d
	je	.L1747
	testq	%rdx, %rdx
	je	.L1747
.L1737:
	testq	%rdi, %rdi
	je	.L1739
	movl	$0, (%rdi)
.L1739:
	movq	%rbx, %rcx
	movq	%rsi, %rdx
	call	_Z10ImFileOpenPKcS0_
	testq	%rax, %rax
	movq	%rax, %rbx
	je	.L1746
	xorl	%edx, %edx
	movl	$2, %r8d
	movq	%rax, %rcx
	call	fseek
	testl	%eax, %eax
	jne	.L1742
	movq	%rbx, %rcx
	call	ftell
	cmpl	$-1, %eax
	movl	%eax, %ebp
	je	.L1742
	xorl	%r8d, %r8d
	xorl	%edx, %edx
	movq	%rbx, %rcx
	call	fseek
	testl	%eax, %eax
	jne	.L1742
	movq	GImGui(%rip), %rax
	leal	0(%rbp,%r13), %ecx
	movslq	%ecx, %rcx
	addl	$1, 844(%rax)
	call	*232(%rax)
	testq	%rax, %rax
	movq	%rax, %rsi
	je	.L1760
	movslq	%ebp, %r12
	movq	%rbx, %r9
	movl	$1, %edx
	movq	%r12, %r8
	movq	%rax, %rcx
	call	fread
	cmpq	%rax, %r12
	jne	.L1761
	testl	%r13d, %r13d
	jg	.L1762
	movq	%rbx, %rcx
	call	fclose
	testq	%rdi, %rdi
	je	.L1736
.L1763:
	movl	%ebp, (%rdi)
.L1736:
	movq	%rsi, %rax
	addq	$40, %rsp
	popq	%rbx
	popq	%rsi
	popq	%rdi
	popq	%rbp
	popq	%r12
	popq	%r13
	ret
	.p2align 4,,10
.L1762:
	leaq	(%rsi,%r12), %rcx
	xorl	%edx, %edx
	movslq	%r13d, %r8
	call	memset
	movq	%rbx, %rcx
	call	fclose
	testq	%rdi, %rdi
	jne	.L1763
	jmp	.L1736
	.p2align 4,,10
.L1747:
	leaq	.LC5(%rip), %rdx
	movl	$1319, %r8d
	leaq	.LC97(%rip), %rcx
	call	_assert
	jmp	.L1737
	.p2align 4,,10
.L1742:
	movq	%rbx, %rcx
	xorl	%esi, %esi
	call	fclose
	movq	%rsi, %rax
	addq	$40, %rsp
	popq	%rbx
	popq	%rsi
	popq	%rdi
	popq	%rbp
	popq	%r12
	popq	%r13
	ret
	.p2align 4,,10
.L1746:
	xorl	%esi, %esi
	jmp	.L1736
	.p2align 4,,10
.L1761:
	movq	%rbx, %rcx
	call	fclose
	movq	GImGui(%rip), %rax
	movq	%rsi, %rcx
	xorl	%esi, %esi
	subl	$1, 844(%rax)
	call	*240(%rax)
	jmp	.L1736
	.p2align 4,,10
.L1760:
	movq	%rbx, %rcx
	call	fclose
	jmp	.L1736
	.seh_endproc
	.align 2
	.p2align 4,,15
	.globl	_ZN12ImGuiStorage5ClearEv
	.def	_ZN12ImGuiStorage5ClearEv;	.scl	2;	.type	32;	.endef
	.seh_proc	_ZN12ImGuiStorage5ClearEv
_ZN12ImGuiStorage5ClearEv:
.LFB592:
	pushq	%rbx
	.seh_pushreg	%rbx
	subq	$32, %rsp
	.seh_stackalloc	32
	.seh_endprologue
	movq	%rcx, %rbx
	movq	8(%rcx), %rcx
	testq	%rcx, %rcx
	je	.L1764
	movq	GImGui(%rip), %rax
	movq	$0, (%rbx)
	subl	$1, 844(%rax)
	call	*240(%rax)
	movq	$0, 8(%rbx)
.L1764:
	addq	$32, %rsp
	popq	%rbx
	ret
	.seh_endproc
	.align 2
	.p2align 4,,15
	.globl	_ZNK12ImGuiStorage6GetIntEji
	.def	_ZNK12ImGuiStorage6GetIntEji;	.scl	2;	.type	32;	.endef
	.seh_proc	_ZNK12ImGuiStorage6GetIntEji
_ZNK12ImGuiStorage6GetIntEji:
.LFB594:
	pushq	%rbx
	.seh_pushreg	%rbx
	.seh_endprologue
	movslq	(%rcx), %rbx
	movq	8(%rcx), %r11
	salq	$4, %rbx
	leaq	(%r11,%rbx), %rax
	sarq	$4, %rbx
.L1774:
	testl	%ebx, %ebx
	jle	.L1770
	movl	%ebx, %r9d
	sarl	%r9d
	movslq	%r9d, %rcx
	salq	$4, %rcx
	addq	%r11, %rcx
	cmpl	(%rcx), %edx
	jbe	.L1772
	jmp	.L1781
	.p2align 4,,10
.L1780:
	movl	%r9d, %r10d
	sarl	%r10d
	movslq	%r10d, %rcx
	salq	$4, %rcx
	addq	%r11, %rcx
	cmpl	(%rcx), %edx
	ja	.L1771
	movl	%r10d, %r9d
.L1772:
	testl	%r9d, %r9d
	jne	.L1780
.L1770:
	cmpq	%r11, %rax
	je	.L1775
	cmpl	%edx, (%r11)
	je	.L1782
.L1775:
	movl	%r8d, %eax
	popq	%rbx
	ret
	.p2align 4,,10
.L1781:
	movl	%r9d, %r10d
	movl	%ebx, %r9d
	.p2align 4,,10
.L1771:
	leaq	16(%rcx), %r11
	addl	$1, %r10d
	movl	%r9d, %ebx
	subl	%r10d, %ebx
	jmp	.L1774
	.p2align 4,,10
.L1782:
	movl	8(%r11), %r8d
	movl	%r8d, %eax
	popq	%rbx
	ret
	.seh_endproc
	.align 2
	.p2align 4,,15
	.globl	_ZNK12ImGuiStorage7GetBoolEjb
	.def	_ZNK12ImGuiStorage7GetBoolEjb;	.scl	2;	.type	32;	.endef
	.seh_proc	_ZNK12ImGuiStorage7GetBoolEjb
_ZNK12ImGuiStorage7GetBoolEjb:
.LFB595:
	pushq	%rbx
	.seh_pushreg	%rbx
	.seh_endprologue
	movslq	(%rcx), %r11
	movq	8(%rcx), %r10
	salq	$4, %r11
	movzbl	%r8b, %r8d
	leaq	(%r10,%r11), %rbx
	sarq	$4, %r11
.L1788:
	testl	%r11d, %r11d
	jle	.L1784
	movl	%r11d, %ecx
	sarl	%ecx
	movslq	%ecx, %rax
	salq	$4, %rax
	addq	%r10, %rax
	cmpl	(%rax), %edx
	jbe	.L1786
	jmp	.L1795
	.p2align 4,,10
.L1794:
	movl	%ecx, %r9d
	sarl	%r9d
	movslq	%r9d, %rax
	salq	$4, %rax
	addq	%r10, %rax
	cmpl	(%rax), %edx
	ja	.L1785
	movl	%r9d, %ecx
.L1786:
	testl	%ecx, %ecx
	jne	.L1794
.L1784:
	cmpq	%r10, %rbx
	je	.L1789
	cmpl	(%r10), %edx
	je	.L1796
.L1789:
	testl	%r8d, %r8d
	setne	%al
	popq	%rbx
	ret
	.p2align 4,,10
.L1795:
	movl	%ecx, %r9d
	movl	%r11d, %ecx
	.p2align 4,,10
.L1785:
	leaq	16(%rax), %r10
	addl	$1, %r9d
	subl	%r9d, %ecx
	movl	%ecx, %r11d
	jmp	.L1788
	.p2align 4,,10
.L1796:
	movl	8(%r10), %r8d
	testl	%r8d, %r8d
	setne	%al
	popq	%rbx
	ret
	.seh_endproc
	.align 2
	.p2align 4,,15
	.globl	_ZNK12ImGuiStorage8GetFloatEjf
	.def	_ZNK12ImGuiStorage8GetFloatEjf;	.scl	2;	.type	32;	.endef
	.seh_proc	_ZNK12ImGuiStorage8GetFloatEjf
_ZNK12ImGuiStorage8GetFloatEjf:
.LFB596:
	.seh_endprologue
	movslq	(%rcx), %r10
	movq	8(%rcx), %r9
	salq	$4, %r10
	leaq	(%r9,%r10), %r11
	sarq	$4, %r10
.L1802:
	testl	%r10d, %r10d
	jle	.L1798
	movl	%r10d, %ecx
	sarl	%ecx
	movslq	%ecx, %rax
	salq	$4, %rax
	addq	%r9, %rax
	cmpl	(%rax), %edx
	jbe	.L1800
	jmp	.L1809
	.p2align 4,,10
.L1808:
	movl	%ecx, %r8d
	sarl	%r8d
	movslq	%r8d, %rax
	salq	$4, %rax
	addq	%r9, %rax
	cmpl	(%rax), %edx
	ja	.L1799
	movl	%r8d, %ecx
.L1800:
	testl	%ecx, %ecx
	jne	.L1808
.L1798:
	cmpq	%r9, %r11
	je	.L1803
	cmpl	%edx, (%r9)
	je	.L1810
.L1803:
	movaps	%xmm2, %xmm0
	ret
	.p2align 4,,10
.L1809:
	movl	%ecx, %r8d
	movl	%r10d, %ecx
	.p2align 4,,10
.L1799:
	leaq	16(%rax), %r9
	addl	$1, %r8d
	subl	%r8d, %ecx
	movl	%ecx, %r10d
	jmp	.L1802
	.p2align 4,,10
.L1810:
	movss	8(%r9), %xmm2
	movaps	%xmm2, %xmm0
	ret
	.seh_endproc
	.align 2
	.p2align 4,,15
	.globl	_ZNK12ImGuiStorage10GetVoidPtrEj
	.def	_ZNK12ImGuiStorage10GetVoidPtrEj;	.scl	2;	.type	32;	.endef
	.seh_proc	_ZNK12ImGuiStorage10GetVoidPtrEj
_ZNK12ImGuiStorage10GetVoidPtrEj:
.LFB597:
	.seh_endprologue
	movslq	(%rcx), %r10
	movq	8(%rcx), %r9
	salq	$4, %r10
	leaq	(%r9,%r10), %r11
	sarq	$4, %r10
.L1816:
	testl	%r10d, %r10d
	jle	.L1812
	movl	%r10d, %ecx
	sarl	%ecx
	movslq	%ecx, %rax
	salq	$4, %rax
	addq	%r9, %rax
	cmpl	(%rax), %edx
	jbe	.L1814
	jmp	.L1825
	.p2align 4,,10
.L1824:
	movl	%ecx, %r8d
	sarl	%r8d
	movslq	%r8d, %rax
	salq	$4, %rax
	addq	%r9, %rax
	cmpl	(%rax), %edx
	ja	.L1813
	movl	%r8d, %ecx
.L1814:
	testl	%ecx, %ecx
	jne	.L1824
.L1812:
	cmpq	%r9, %r11
	je	.L1820
	cmpl	%edx, (%r9)
	jne	.L1820
	movq	8(%r9), %rax
	ret
	.p2align 4,,10
.L1825:
	movl	%ecx, %r8d
	movl	%r10d, %ecx
	.p2align 4,,10
.L1813:
	leaq	16(%rax), %r9
	addl	$1, %r8d
	subl	%r8d, %ecx
	movl	%ecx, %r10d
	jmp	.L1816
	.p2align 4,,10
.L1820:
	xorl	%eax, %eax
	ret
	.seh_endproc
	.align 2
	.p2align 4,,15
	.globl	_ZN12ImGuiStorage9SetAllIntEi
	.def	_ZN12ImGuiStorage9SetAllIntEi;	.scl	2;	.type	32;	.endef
	.seh_proc	_ZN12ImGuiStorage9SetAllIntEi
_ZN12ImGuiStorage9SetAllIntEi:
.LFB606:
	.seh_endprologue
	movl	(%rcx), %eax
	testl	%eax, %eax
	jle	.L1826
	leal	-1(%rax), %r9d
	xorl	%eax, %eax
	addq	$1, %r9
	salq	$4, %r9
	.p2align 4,,10
.L1828:
	movq	8(%rcx), %r8
	movl	%edx, 8(%r8,%rax)
	addq	$16, %rax
	cmpq	%rax, %r9
	jne	.L1828
.L1826:
	ret
	.seh_endproc
	.align 2
	.p2align 4,,15
	.globl	_ZN15ImGuiTextFilter9TextRange5splitEcR8ImVectorIS0_E
	.def	_ZN15ImGuiTextFilter9TextRange5splitEcR8ImVectorIS0_E;	.scl	2;	.type	32;	.endef
	.seh_proc	_ZN15ImGuiTextFilter9TextRange5splitEcR8ImVectorIS0_E
_ZN15ImGuiTextFilter9TextRange5splitEcR8ImVectorIS0_E:
.LFB611:
	pushq	%r15
	.seh_pushreg	%r15
	pushq	%r14
	.seh_pushreg	%r14
	pushq	%r13
	.seh_pushreg	%r13
	pushq	%r12
	.seh_pushreg	%r12
	pushq	%rbp
	.seh_pushreg	%rbp
	pushq	%rdi
	.seh_pushreg	%rdi
	pushq	%rsi
	.seh_pushreg	%rsi
	pushq	%rbx
	.seh_pushreg	%rbx
	subq	$40, %rsp
	.seh_stackalloc	40
	.seh_endprologue
	movl	4(%r8), %eax
	testl	%eax, %eax
	movq	%rcx, %rbp
	movq	%r8, %rdi
	movl	%edx, %r12d
	jns	.L1831
	movq	GImGui(%rip), %rax
	xorl	%ecx, %ecx
	addl	$1, 844(%rax)
	call	*232(%rax)
	movq	8(%rdi), %rcx
	movq	%rax, %rbx
	movq	GImGui(%rip), %rax
	testq	%rcx, %rcx
	je	.L1834
	movslq	(%rdi), %r8
	movq	%rcx, %rdx
	movq	%rbx, %rcx
	salq	$4, %r8
	call	memcpy
	movq	8(%rdi), %rcx
	movq	GImGui(%rip), %rax
	testq	%rcx, %rcx
	je	.L1834
	subl	$1, 844(%rax)
.L1834:
	call	*240(%rax)
	movq	%rbx, 8(%rdi)
	movl	$0, 4(%rdi)
.L1831:
	movq	0(%rbp), %r13
	movl	$0, (%rdi)
	movq	8(%rbp), %rax
	movq	%r13, %rsi
	cmpq	%rax, %r13
	jb	.L1835
	jmp	.L1830
	.p2align 4,,10
.L1837:
	cmpq	%rbx, %rax
	movq	%rbx, %rsi
	jbe	.L1861
.L1835:
	cmpb	%r12b, (%rsi)
	leaq	1(%rsi), %rbx
	jne	.L1837
	movslq	(%rdi), %rax
	cmpl	4(%rdi), %eax
	je	.L1838
	movq	8(%rdi), %r14
.L1839:
	leal	1(%rax), %edx
	salq	$4, %rax
	addq	%r14, %rax
	movl	%edx, (%rdi)
	movq	%r13, (%rax)
	movq	%rbx, %r13
	movq	%rsi, 8(%rax)
	movq	8(%rbp), %rax
	movq	%rbx, %rsi
	cmpq	%rbx, %rax
	ja	.L1835
.L1861:
	cmpq	%rbx, %r13
	je	.L1830
	movslq	(%rdi), %rax
	cmpl	4(%rdi), %eax
	je	.L1845
	movq	8(%rdi), %rsi
.L1846:
	leal	1(%rax), %edx
	salq	$4, %rax
	addq	%rsi, %rax
	movl	%edx, (%rdi)
	movq	%r13, (%rax)
	movq	%rbx, 8(%rax)
.L1830:
	addq	$40, %rsp
	popq	%rbx
	popq	%rsi
	popq	%rdi
	popq	%rbp
	popq	%r12
	popq	%r13
	popq	%r14
	popq	%r15
	ret
	.p2align 4,,10
.L1845:
	leal	1(%rax), %ebp
	testl	%eax, %eax
	movl	$8, %edx
	je	.L1847
	movl	%eax, %edx
	shrl	$31, %edx
	addl	%eax, %edx
	sarl	%edx
	addl	%eax, %edx
.L1847:
	cmpl	%edx, %ebp
	movq	GImGui(%rip), %rax
	cmovl	%edx, %ebp
	movslq	%ebp, %rcx
	addl	$1, 844(%rax)
	salq	$4, %rcx
	call	*232(%rax)
	movq	8(%rdi), %rcx
	movq	%rax, %rsi
	movq	GImGui(%rip), %rax
	testq	%rcx, %rcx
	je	.L1850
	movslq	(%rdi), %r8
	movq	%rcx, %rdx
	movq	%rsi, %rcx
	salq	$4, %r8
	call	memcpy
	movq	8(%rdi), %rcx
	movq	GImGui(%rip), %rax
	testq	%rcx, %rcx
	je	.L1850
	subl	$1, 844(%rax)
.L1850:
	call	*240(%rax)
	movq	%rsi, 8(%rdi)
	movslq	(%rdi), %rax
	movl	%ebp, 4(%rdi)
	jmp	.L1846
	.p2align 4,,10
.L1838:
	leal	1(%rax), %r15d
	testl	%eax, %eax
	movl	$8, %edx
	je	.L1840
	movl	%eax, %edx
	shrl	$31, %edx
	addl	%eax, %edx
	sarl	%edx
	addl	%eax, %edx
.L1840:
	cmpl	%edx, %r15d
	movq	GImGui(%rip), %rax
	cmovl	%edx, %r15d
	movslq	%r15d, %rcx
	addl	$1, 844(%rax)
	salq	$4, %rcx
	call	*232(%rax)
	movq	8(%rdi), %rcx
	movq	%rax, %r14
	movq	GImGui(%rip), %rax
	testq	%rcx, %rcx
	je	.L1843
	movslq	(%rdi), %r8
	movq	%rcx, %rdx
	movq	%r14, %rcx
	salq	$4, %r8
	call	memcpy
	movq	8(%rdi), %rcx
	movq	GImGui(%rip), %rax
	testq	%rcx, %rcx
	je	.L1843
	subl	$1, 844(%rax)
.L1843:
	call	*240(%rax)
	movq	%r14, 8(%rdi)
	movslq	(%rdi), %rax
	movl	%r15d, 4(%rdi)
	jmp	.L1839
	.seh_endproc
	.align 2
	.p2align 4,,15
	.globl	_ZN15ImGuiTextFilter5BuildEv
	.def	_ZN15ImGuiTextFilter5BuildEv;	.scl	2;	.type	32;	.endef
	.seh_proc	_ZN15ImGuiTextFilter5BuildEv
_ZN15ImGuiTextFilter5BuildEv:
.LFB612:
	pushq	%r12
	.seh_pushreg	%r12
	pushq	%rbp
	.seh_pushreg	%rbp
	pushq	%rdi
	.seh_pushreg	%rdi
	pushq	%rsi
	.seh_pushreg	%rsi
	pushq	%rbx
	.seh_pushreg	%rbx
	subq	$48, %rsp
	.seh_stackalloc	48
	.seh_endprologue
	movl	260(%rcx), %eax
	leaq	256(%rcx), %rbx
	testl	%eax, %eax
	movq	%rcx, %rdi
	jns	.L1863
	movq	GImGui(%rip), %rax
	xorl	%ecx, %ecx
	addl	$1, 844(%rax)
	call	*232(%rax)
	movq	264(%rdi), %rcx
	movq	%rax, %rsi
	movq	GImGui(%rip), %rax
	testq	%rcx, %rcx
	je	.L1866
	movslq	256(%rdi), %r8
	movq	%rcx, %rdx
	movq	%rsi, %rcx
	salq	$4, %r8
	call	memcpy
	movq	264(%rdi), %rcx
	movq	GImGui(%rip), %rax
	testq	%rcx, %rcx
	je	.L1866
	subl	$1, 844(%rax)
.L1866:
	call	*240(%rax)
	movq	%rsi, 264(%rdi)
	movl	$0, 260(%rdi)
.L1863:
	movl	$0, 256(%rdi)
	movq	%rdi, %rcx
	call	strlen
	leaq	32(%rsp), %rcx
	movq	%rbx, %r8
	movl	$44, %edx
	addq	%rdi, %rax
	movq	%rdi, 32(%rsp)
	movq	%rax, 40(%rsp)
	call	_ZN15ImGuiTextFilter9TextRange5splitEcR8ImVectorIS0_E
	movl	256(%rdi), %r10d
	movl	$0, 272(%rdi)
	testl	%r10d, %r10d
	je	.L1862
	leaq	.LC2(%rip), %rsi
	xorl	%r12d, %r12d
	xorl	%ebp, %ebp
	leaq	.LC3(%rip), %rbx
	.p2align 4,,10
.L1883:
	cmpl	%ebp, %r10d
	jle	.L1897
.L1868:
	movq	264(%rdi), %r8
	addq	%r12, %r8
	movq	(%r8), %rcx
	movq	8(%r8), %rdx
	cmpq	%rcx, %rdx
	jbe	.L1869
	movzbl	(%rcx), %eax
	cmpb	$9, %al
	je	.L1870
	cmpb	$32, %al
	jne	.L1871
.L1870:
	leaq	1(%rcx), %rax
	.p2align 4,,10
.L1892:
	cmpq	%rax, %rdx
	movq	%rax, %rcx
	movq	%rax, (%r8)
	je	.L1869
	movzbl	(%rax), %r9d
	addq	$1, %rax
	cmpb	$32, %r9b
	je	.L1892
	cmpb	$9, %r9b
	je	.L1892
.L1871:
	movzbl	-1(%rdx), %eax
	cmpb	$32, %al
	je	.L1884
	cmpb	$9, %al
	jne	.L1869
.L1884:
	leaq	-1(%rdx), %rax
	.p2align 4,,10
.L1875:
	cmpq	%rax, %rcx
	movq	%rax, %rdx
	movq	%rax, 8(%r8)
	jnb	.L1869
	movzbl	-1(%rax), %r9d
	subq	$1, %rax
	cmpb	$32, %r9b
	je	.L1875
	cmpb	$9, %r9b
	je	.L1875
.L1869:
	cmpl	%r10d, %ebp
	jge	.L1898
	movq	(%r8), %rax
	cmpq	%rdx, %rax
	je	.L1880
.L1881:
	cmpb	$45, (%rax)
	je	.L1880
	addl	$1, 272(%rdi)
.L1880:
	movl	256(%rdi), %r10d
	addl	$1, %ebp
	addq	$16, %r12
	cmpl	%ebp, %r10d
	jne	.L1883
.L1862:
	addq	$48, %rsp
	popq	%rbx
	popq	%rsi
	popq	%rdi
	popq	%rbp
	popq	%r12
	ret
	.p2align 4,,10
.L1898:
	movq	%rsi, %rdx
	movl	$856, %r8d
	movq	%rbx, %rcx
	call	_assert
	movq	264(%rdi), %rdx
	addq	%r12, %rdx
	movq	(%rdx), %rax
	cmpq	8(%rdx), %rax
	je	.L1880
	cmpl	256(%rdi), %ebp
	jl	.L1881
	movl	$856, %r8d
	movq	%rsi, %rdx
	movq	%rbx, %rcx
	call	_assert
	movq	264(%rdi), %rax
	movq	(%rax,%r12), %rax
	jmp	.L1881
	.p2align 4,,10
.L1897:
	movl	$856, %r8d
	movq	%rsi, %rdx
	movq	%rbx, %rcx
	call	_assert
	movl	256(%rdi), %r10d
	jmp	.L1868
	.seh_endproc
	.align 2
	.p2align 4,,15
	.globl	_ZN15ImGuiTextFilterC2EPKc
	.def	_ZN15ImGuiTextFilterC2EPKc;	.scl	2;	.type	32;	.endef
	.seh_proc	_ZN15ImGuiTextFilterC2EPKc
_ZN15ImGuiTextFilterC2EPKc:
.LFB608:
	pushq	%rsi
	.seh_pushreg	%rsi
	pushq	%rbx
	.seh_pushreg	%rbx
	subq	$40, %rsp
	.seh_stackalloc	40
	.seh_endprologue
	testq	%rdx, %rdx
	movq	%rcx, %rbx
	movq	$0, 256(%rcx)
	movq	$0, 264(%rcx)
	je	.L1900
	movl	$256, %r8d
	call	strncpy
	movb	$0, 255(%rbx)
	movq	%rbx, %rcx
.LEHB9:
	call	_ZN15ImGuiTextFilter5BuildEv
.LEHE9:
	nop
	addq	$40, %rsp
	popq	%rbx
	popq	%rsi
	ret
	.p2align 4,,10
.L1900:
	movb	$0, (%rcx)
	movl	$0, 272(%rcx)
	addq	$40, %rsp
	popq	%rbx
	popq	%rsi
	ret
.L1904:
	movq	264(%rbx), %rcx
	movq	%rax, %rsi
	testq	%rcx, %rcx
	je	.L1903
	movq	GImGui(%rip), %rdx
	subl	$1, 844(%rdx)
	call	*240(%rdx)
.L1903:
	movq	%rsi, %rcx
.LEHB10:
	call	_Unwind_Resume
	nop
.LEHE10:
	.seh_handler	__gxx_personality_seh0, @unwind, @except
	.seh_handlerdata
.LLSDA608:
	.byte	0xff
	.byte	0xff
	.byte	0x1
	.uleb128 .LLSDACSE608-.LLSDACSB608
.LLSDACSB608:
	.uleb128 .LEHB9-.LFB608
	.uleb128 .LEHE9-.LEHB9
	.uleb128 .L1904-.LFB608
	.uleb128 0
	.uleb128 .LEHB10-.LFB608
	.uleb128 .LEHE10-.LEHB10
	.uleb128 0
	.uleb128 0
.LLSDACSE608:
	.text
	.seh_endproc
	.globl	_ZN15ImGuiTextFilterC1EPKc
	.def	_ZN15ImGuiTextFilterC1EPKc;	.scl	2;	.type	32;	.endef
	.set	_ZN15ImGuiTextFilterC1EPKc,_ZN15ImGuiTextFilterC2EPKc
	.section .rdata,"dr"
.LC98:
	.ascii "\0"
	.text
	.align 2
	.p2align 4,,15
	.globl	_ZNK15ImGuiTextFilter10PassFilterEPKcS1_
	.def	_ZNK15ImGuiTextFilter10PassFilterEPKcS1_;	.scl	2;	.type	32;	.endef
	.seh_proc	_ZNK15ImGuiTextFilter10PassFilterEPKcS1_
_ZNK15ImGuiTextFilter10PassFilterEPKcS1_:
.LFB613:
	pushq	%r15
	.seh_pushreg	%r15
	pushq	%r14
	.seh_pushreg	%r14
	pushq	%r13
	.seh_pushreg	%r13
	pushq	%r12
	.seh_pushreg	%r12
	pushq	%rbp
	.seh_pushreg	%rbp
	pushq	%rdi
	.seh_pushreg	%rdi
	pushq	%rsi
	.seh_pushreg	%rsi
	pushq	%rbx
	.seh_pushreg	%rbx
	subq	$88, %rsp
	.seh_stackalloc	88
	.seh_endprologue
	movl	256(%rcx), %eax
	testl	%eax, %eax
	movq	%rcx, 160(%rsp)
	movq	%r8, %r12
	movq	%rdx, 168(%rsp)
	je	.L1928
	movq	__imp_toupper(%rip), %r13
	leaq	.LC98(%rip), %rdx
	movq	$0, 56(%rsp)
	cmpq	$0, 168(%rsp)
	movl	$0, 44(%rsp)
	cmovne	168(%rsp), %rdx
	movq	%r13, %r15
	movq	%rdx, 168(%rsp)
	.p2align 4,,10
.L1930:
	cmpl	44(%rsp), %eax
	jle	.L1949
.L1912:
	movq	160(%rsp), %rdx
	movq	56(%rsp), %rax
	addq	264(%rdx), %rax
	movq	(%rax), %rbx
	movq	8(%rax), %r14
	cmpq	%r14, %rbx
	je	.L1913
	movzbl	(%rbx), %esi
	leaq	1(%rbx), %rax
	movq	%rax, 48(%rsp)
	cmpb	$45, %sil
	je	.L1950
	testq	%r14, %r14
	je	.L1951
.L1922:
	movsbl	%sil, %ecx
	call	*%r13
	movq	168(%rsp), %rsi
	movsbl	%al, %eax
	movl	%eax, 40(%rsp)
	.p2align 4,,10
.L1923:
	testq	%r12, %r12
	je	.L1952
	cmpq	%rsi, %r12
	jbe	.L1913
	movsbl	(%rsi), %ecx
.L1925:
	call	*%r13
	addq	$1, %rsi
	cmpl	40(%rsp), %eax
	jne	.L1923
	movq	48(%rsp), %rbx
	cmpq	%rbx, %r14
	jbe	.L1927
	movq	%rsi, %rdi
	jmp	.L1929
	.p2align 4,,10
.L1953:
	addq	$1, %rbx
	addq	$1, %rdi
	cmpq	%rbx, %r14
	je	.L1928
.L1929:
	movsbl	(%rdi), %ecx
	call	*%r13
	movsbl	(%rbx), %ecx
	movl	%eax, %ebp
	call	*%r13
	cmpl	%eax, %ebp
	je	.L1953
.L1927:
	cmpq	%rbx, %r14
	jne	.L1923
	.p2align 4,,10
.L1928:
	movl	$1, %eax
.L1908:
	addq	$88, %rsp
	popq	%rbx
	popq	%rsi
	popq	%rdi
	popq	%rbp
	popq	%r12
	popq	%r13
	popq	%r14
	popq	%r15
	ret
	.p2align 4,,10
.L1952:
	movsbl	(%rsi), %ecx
	testb	%cl, %cl
	jne	.L1925
.L1913:
	movq	160(%rsp), %rax
	addl	$1, 44(%rsp)
	movl	44(%rsp), %edx
	addq	$16, 56(%rsp)
	movl	256(%rax), %eax
	cmpl	%edx, %eax
	jne	.L1930
	movq	160(%rsp), %rax
	movl	272(%rax), %eax
	testl	%eax, %eax
	sete	%al
	jmp	.L1908
	.p2align 4,,10
.L1949:
	leaq	.LC2(%rip), %rdx
	movl	$857, %r8d
	leaq	.LC3(%rip), %rcx
	call	_assert
	jmp	.L1912
	.p2align 4,,10
.L1950:
	testq	%r14, %r14
	je	.L1954
.L1915:
	movsbl	1(%rbx), %ecx
	call	*%r15
	leaq	2(%rbx), %rdx
	movq	168(%rsp), %rbx
	movsbl	%al, %eax
	movq	%rdx, 64(%rsp)
	movl	%eax, 40(%rsp)
	movq	%r14, %rax
	subq	%rdx, %rax
	movq	%rax, 72(%rsp)
	.p2align 4,,10
.L1916:
	testq	%r12, %r12
	je	.L1955
	cmpq	%rbx, %r12
	jbe	.L1913
	movsbl	(%rbx), %ecx
.L1918:
	call	*%r15
	addq	$1, %rbx
	cmpl	40(%rsp), %eax
	jne	.L1916
	movq	64(%rsp), %rsi
	cmpq	%r14, %rsi
	jnb	.L1920
	movq	72(%rsp), %rax
	movq	%rbx, 48(%rsp)
	addq	%rbx, %rax
	movq	%rax, %rbp
	jmp	.L1921
	.p2align 4,,10
.L1956:
	addq	$1, %rbx
	addq	$1, %rsi
	cmpq	%rbp, %rbx
	je	.L1945
.L1921:
	movsbl	(%rbx), %ecx
	call	*%r15
	movsbl	(%rsi), %ecx
	movl	%eax, %edi
	call	*%r15
	cmpl	%eax, %edi
	je	.L1956
.L1945:
	movq	48(%rsp), %rbx
.L1920:
	cmpq	%rsi, %r14
	jne	.L1916
	xorl	%eax, %eax
	jmp	.L1908
	.p2align 4,,10
.L1955:
	movsbl	(%rbx), %ecx
	testb	%cl, %cl
	je	.L1913
	jmp	.L1918
	.p2align 4,,10
.L1951:
	movq	%rbx, %rcx
	call	strlen
	leaq	(%rbx,%rax), %r14
	jmp	.L1922
.L1954:
	movq	%rax, %rcx
	movq	%rax, %r14
	call	strlen
	addq	%rax, %r14
	jmp	.L1915
	.seh_endproc
	.align 2
	.p2align 4,,15
	.globl	_ZN15ImGuiTextBuffer7appendvEPKcPc
	.def	_ZN15ImGuiTextBuffer7appendvEPKcPc;	.scl	2;	.type	32;	.endef
	.seh_proc	_ZN15ImGuiTextBuffer7appendvEPKcPc
_ZN15ImGuiTextBuffer7appendvEPKcPc:
.LFB614:
	pushq	%r15
	.seh_pushreg	%r15
	pushq	%r14
	.seh_pushreg	%r14
	pushq	%r13
	.seh_pushreg	%r13
	pushq	%r12
	.seh_pushreg	%r12
	pushq	%rbp
	.seh_pushreg	%rbp
	pushq	%rdi
	.seh_pushreg	%rdi
	pushq	%rsi
	.seh_pushreg	%rsi
	pushq	%rbx
	.seh_pushreg	%rbx
	subq	$40, %rsp
	.seh_stackalloc	40
	.seh_endprologue
	movq	%r8, %r9
	movq	%rcx, %rbx
	movq	%rdx, %r12
	xorl	%ecx, %ecx
	movq	%r8, %r14
	movq	%rdx, %r8
	xorl	%edx, %edx
	call	__mingw_vsnprintf
	testl	%eax, %eax
	movl	%eax, %ebp
	jle	.L1957
	movslq	(%rbx), %rdi
	leal	(%rdi,%rax), %esi
	movl	4(%rbx), %eax
	cmpl	%esi, %eax
	jg	.L1959
	leal	(%rax,%rax), %r13d
	cmpl	%esi, %r13d
	cmovl	%esi, %r13d
	cmpl	%r13d, %eax
	jge	.L1972
	movq	GImGui(%rip), %rax
	movslq	%r13d, %rcx
	addl	$1, 844(%rax)
	call	*232(%rax)
	movq	8(%rbx), %rcx
	movq	%rax, %r15
	movq	GImGui(%rip), %rax
	testq	%rcx, %rcx
	je	.L1963
	movslq	(%rbx), %r8
	movq	%rcx, %rdx
	movq	%r15, %rcx
	call	memcpy
	movq	8(%rbx), %rcx
	movq	GImGui(%rip), %rax
	testq	%rcx, %rcx
	je	.L1963
	subl	$1, 844(%rax)
.L1963:
	call	*240(%rax)
	movq	%r15, 8(%rbx)
	movl	%r13d, 4(%rbx)
.L1960:
	cmpl	%r13d, %esi
	jle	.L1959
	testl	%r13d, %r13d
	movl	$8, %r15d
	je	.L1964
	movl	%r13d, %r15d
	shrl	$31, %r15d
	addl	%r13d, %r15d
	sarl	%r15d
	addl	%r13d, %r15d
.L1964:
	cmpl	%r15d, %esi
	jl	.L1982
	movl	%esi, %r15d
.L1965:
	movq	GImGui(%rip), %rax
	movslq	%r15d, %rcx
	addl	$1, 844(%rax)
	call	*232(%rax)
	movq	8(%rbx), %rcx
	movq	%rax, %r13
	movq	GImGui(%rip), %rax
	testq	%rcx, %rcx
	je	.L1968
	movslq	(%rbx), %r8
	movq	%rcx, %rdx
	movq	%r13, %rcx
	call	memcpy
	movq	8(%rbx), %rcx
	movq	GImGui(%rip), %rax
	testq	%rcx, %rcx
	je	.L1968
	subl	$1, 844(%rax)
.L1968:
	call	*240(%rax)
	movq	%r13, 8(%rbx)
	movl	%r15d, 4(%rbx)
.L1959:
	movl	%esi, (%rbx)
	leal	1(%rbp), %r13d
	cmpl	%esi, %edi
	jge	.L1983
.L1969:
	movq	8(%rbx), %rax
	movslq	%r13d, %rdx
	movq	%r14, %r9
	movq	%r12, %r8
	leaq	-1(%rax,%rdi), %rbx
	movq	%rbx, %rcx
	call	__mingw_vsnprintf
	cmpl	$-1, %eax
	je	.L1975
	cmpl	%eax, %r13d
	jle	.L1975
.L1970:
	cltq
	movb	$0, (%rbx,%rax)
.L1957:
	addq	$40, %rsp
	popq	%rbx
	popq	%rsi
	popq	%rdi
	popq	%rbp
	popq	%r12
	popq	%r13
	popq	%r14
	popq	%r15
	ret
	.p2align 4,,10
.L1983:
	leaq	.LC2(%rip), %rdx
	movl	$856, %r8d
	leaq	.LC3(%rip), %rcx
	call	_assert
	jmp	.L1969
	.p2align 4,,10
.L1975:
	movl	%ebp, %eax
	jmp	.L1970
	.p2align 4,,10
.L1982:
	cmpl	%r13d, %r15d
	jg	.L1965
	jmp	.L1959
	.p2align 4,,10
.L1972:
	movl	%eax, %r13d
	jmp	.L1960
	.seh_endproc
	.align 2
	.p2align 4,,15
	.globl	_ZN15ImGuiTextBuffer6appendEPKcz
	.def	_ZN15ImGuiTextBuffer6appendEPKcz;	.scl	2;	.type	32;	.endef
	.seh_proc	_ZN15ImGuiTextBuffer6appendEPKcz
_ZN15ImGuiTextBuffer6appendEPKcz:
.LFB615:
	subq	$56, %rsp
	.seh_stackalloc	56
	.seh_endprologue
	movq	%r8, 80(%rsp)
	leaq	80(%rsp), %r8
	movq	%r9, 88(%rsp)
	movq	%r8, 40(%rsp)
	call	_ZN15ImGuiTextBuffer7appendvEPKcPc
	nop
	addq	$56, %rsp
	ret
	.seh_endproc
	.align 2
	.p2align 4,,15
	.globl	_ZN18ImGuiSimpleColumnsC2Ev
	.def	_ZN18ImGuiSimpleColumnsC2Ev;	.scl	2;	.type	32;	.endef
	.seh_proc	_ZN18ImGuiSimpleColumnsC2Ev
_ZN18ImGuiSimpleColumnsC2Ev:
.LFB617:
	.seh_endprologue
	movq	$0, (%rcx)
	movq	$0, 8(%rcx)
	movq	$0, 16(%rcx)
	movq	$0, 24(%rcx)
	movq	$0, 32(%rcx)
	movq	$0, 40(%rcx)
	movq	$0, 48(%rcx)
	movq	$0, 56(%rcx)
	movq	$0, 64(%rcx)
	movq	$0, 72(%rcx)
	ret
	.seh_endproc
	.globl	_ZN18ImGuiSimpleColumnsC1Ev
	.def	_ZN18ImGuiSimpleColumnsC1Ev;	.scl	2;	.type	32;	.endef
	.set	_ZN18ImGuiSimpleColumnsC1Ev,_ZN18ImGuiSimpleColumnsC2Ev
	.section .rdata,"dr"
	.align 8
.LC99:
	.ascii "Count <= ((int)(sizeof(Pos)/sizeof(*Pos)))\0"
	.text
	.align 2
	.p2align 4,,15
	.globl	_ZN18ImGuiSimpleColumns6UpdateEifb
	.def	_ZN18ImGuiSimpleColumns6UpdateEifb;	.scl	2;	.type	32;	.endef
	.seh_proc	_ZN18ImGuiSimpleColumns6UpdateEifb
_ZN18ImGuiSimpleColumns6UpdateEifb:
.LFB619:
	pushq	%rsi
	.seh_pushreg	%rsi
	pushq	%rbx
	.seh_pushreg	%rbx
	subq	$72, %rsp
	.seh_stackalloc	72
	movaps	%xmm6, 48(%rsp)
	.seh_savexmm	%xmm6, 48
	.seh_endprologue
	cmpl	$8, (%rcx)
	movq	%rcx, %rbx
	movl	%edx, %esi
	movaps	%xmm2, %xmm6
	jg	.L2033
.L1987:
	testb	%r9b, %r9b
	movl	%esi, (%rbx)
	movq	$0, 8(%rbx)
	movss	%xmm6, 4(%rbx)
	jne	.L2034
.L1988:
	testl	%esi, %esi
	jle	.L1986
	movss	48(%rbx), %xmm0
	cmpl	$1, %esi
	pxor	%xmm1, %xmm1
	movl	$0x00000000, 16(%rbx)
	movl	$0x00000000, 48(%rbx)
	addss	%xmm1, %xmm0
	je	.L1990
	movss	52(%rbx), %xmm3
	ucomiss	%xmm1, %xmm3
	jbe	.L1991
	addss	%xmm6, %xmm0
.L1991:
	cvttss2si	%xmm0, %eax
	pxor	%xmm2, %xmm2
	cmpl	$2, %esi
	movl	$0x00000000, 52(%rbx)
	addss	%xmm3, %xmm0
	cvtsi2ss	%eax, %xmm2
	movss	%xmm2, 20(%rbx)
	je	.L1990
	movss	56(%rbx), %xmm3
	ucomiss	%xmm1, %xmm3
	jbe	.L1993
	addss	%xmm6, %xmm0
.L1993:
	cvttss2si	%xmm0, %eax
	pxor	%xmm2, %xmm2
	cmpl	$3, %esi
	movl	$0x00000000, 56(%rbx)
	addss	%xmm3, %xmm0
	cvtsi2ss	%eax, %xmm2
	movss	%xmm2, 24(%rbx)
	je	.L1990
	movss	60(%rbx), %xmm3
	ucomiss	%xmm1, %xmm3
	jbe	.L1995
	addss	%xmm6, %xmm0
.L1995:
	cvttss2si	%xmm0, %eax
	pxor	%xmm2, %xmm2
	cmpl	$4, %esi
	movl	$0x00000000, 60(%rbx)
	addss	%xmm3, %xmm0
	cvtsi2ss	%eax, %xmm2
	movss	%xmm2, 28(%rbx)
	je	.L1990
	movss	64(%rbx), %xmm3
	ucomiss	%xmm1, %xmm3
	jbe	.L1997
	addss	%xmm6, %xmm0
.L1997:
	cvttss2si	%xmm0, %eax
	pxor	%xmm2, %xmm2
	cmpl	$5, %esi
	movl	$0x00000000, 64(%rbx)
	addss	%xmm3, %xmm0
	cvtsi2ss	%eax, %xmm2
	movss	%xmm2, 32(%rbx)
	je	.L1990
	movss	68(%rbx), %xmm3
	ucomiss	%xmm1, %xmm3
	jbe	.L1999
	addss	%xmm6, %xmm0
.L1999:
	cvttss2si	%xmm0, %eax
	pxor	%xmm2, %xmm2
	cmpl	$6, %esi
	movl	$0x00000000, 68(%rbx)
	addss	%xmm3, %xmm0
	cvtsi2ss	%eax, %xmm2
	movss	%xmm2, 36(%rbx)
	je	.L1990
	movss	72(%rbx), %xmm3
	ucomiss	%xmm1, %xmm3
	jbe	.L2001
	addss	%xmm6, %xmm0
.L2001:
	cvttss2si	%xmm0, %eax
	pxor	%xmm2, %xmm2
	cmpl	$7, %esi
	movl	$0x00000000, 72(%rbx)
	addss	%xmm3, %xmm0
	cvtsi2ss	%eax, %xmm2
	movss	%xmm2, 40(%rbx)
	je	.L1990
	movss	76(%rbx), %xmm2
	ucomiss	%xmm1, %xmm2
	jbe	.L2003
	addss	%xmm6, %xmm0
.L2003:
	cvttss2si	%xmm0, %eax
	pxor	%xmm1, %xmm1
	movl	$0x00000000, 76(%rbx)
	addss	%xmm2, %xmm0
	cvtsi2ss	%eax, %xmm1
	movss	%xmm1, 44(%rbx)
.L1990:
	movss	%xmm0, 8(%rbx)
.L1986:
	movaps	48(%rsp), %xmm6
	addq	$72, %rsp
	popq	%rbx
	popq	%rsi
	ret
	.p2align 4,,10
.L2034:
	movq	$0, 48(%rbx)
	movq	$0, 56(%rbx)
	movq	$0, 64(%rbx)
	movq	$0, 72(%rbx)
	jmp	.L1988
	.p2align 4,,10
.L2033:
	movl	$1648, %r8d
	movl	%r9d, 44(%rsp)
	leaq	.LC5(%rip), %rdx
	leaq	.LC99(%rip), %rcx
	call	_assert
	movl	44(%rsp), %r9d
	jmp	.L1987
	.seh_endproc
	.align 2
	.p2align 4,,15
	.globl	_ZN18ImGuiSimpleColumns11DeclColumnsEfff
	.def	_ZN18ImGuiSimpleColumns11DeclColumnsEfff;	.scl	2;	.type	32;	.endef
	.seh_proc	_ZN18ImGuiSimpleColumns11DeclColumnsEfff
_ZN18ImGuiSimpleColumns11DeclColumnsEfff:
.LFB620:
	.seh_endprologue
	movss	48(%rcx), %xmm0
	ucomiss	%xmm1, %xmm0
	jb	.L2036
	movaps	%xmm0, %xmm1
.L2036:
	movss	52(%rcx), %xmm0
	movss	%xmm1, 48(%rcx)
	ucomiss	%xmm2, %xmm0
	jb	.L2038
	movaps	%xmm0, %xmm2
.L2038:
	movss	56(%rcx), %xmm0
	movss	%xmm2, 52(%rcx)
	ucomiss	%xmm3, %xmm0
	jb	.L2040
	movaps	%xmm0, %xmm3
.L2040:
	movss	%xmm3, 56(%rcx)
	pxor	%xmm3, %xmm3
	addss	%xmm3, %xmm1
	movss	52(%rcx), %xmm0
	ucomiss	%xmm3, %xmm0
	addss	%xmm3, %xmm1
	movss	%xmm1, 12(%rcx)
	jbe	.L2052
	movss	4(%rcx), %xmm2
.L2045:
	addss	%xmm2, %xmm0
	movss	56(%rcx), %xmm2
	ucomiss	%xmm3, %xmm2
	addss	%xmm0, %xmm1
	pxor	%xmm0, %xmm0
	movss	%xmm1, 12(%rcx)
	jbe	.L2044
	movss	4(%rcx), %xmm0
.L2044:
	addss	%xmm2, %xmm0
	addss	%xmm1, %xmm0
	movss	8(%rcx), %xmm1
	ucomiss	%xmm0, %xmm1
	movss	%xmm0, 12(%rcx)
	jnb	.L2053
	ret
	.p2align 4,,10
.L2053:
	movaps	%xmm1, %xmm0
	ret
	.p2align 4,,10
.L2052:
	pxor	%xmm2, %xmm2
	jmp	.L2045
	.seh_endproc
	.align 2
	.p2align 4,,15
	.globl	_ZN18ImGuiSimpleColumns14CalcExtraSpaceEf
	.def	_ZN18ImGuiSimpleColumns14CalcExtraSpaceEf;	.scl	2;	.type	32;	.endef
	.seh_proc	_ZN18ImGuiSimpleColumns14CalcExtraSpaceEf
_ZN18ImGuiSimpleColumns14CalcExtraSpaceEf:
.LFB621:
	.seh_endprologue
	pxor	%xmm0, %xmm0
	subss	8(%rcx), %xmm1
	ucomiss	%xmm1, %xmm0
	jnb	.L2057
	movaps	%xmm1, %xmm0
	ret
	.p2align 4,,10
.L2057:
	pxor	%xmm1, %xmm1
	movaps	%xmm1, %xmm0
	ret
	.seh_endproc
	.align 2
	.p2align 4,,15
	.globl	_ZN16ImGuiListClipper5BeginEif
	.def	_ZN16ImGuiListClipper5BeginEif;	.scl	2;	.type	32;	.endef
	.seh_proc	_ZN16ImGuiListClipper5BeginEif
_ZN16ImGuiListClipper5BeginEif:
.LFB623:
	.seh_endprologue
	movq	GImGui(%rip), %r8
	ucomiss	.LC0(%rip), %xmm2
	movq	6008(%r8), %rax
	movss	196(%rax), %xmm0
	subss	32(%rax), %xmm0
	addss	100(%rax), %xmm0
	movss	%xmm2, 4(%rcx)
	movabsq	$-4294967296, %rax
	movl	%edx, 8(%rcx)
	movq	%rax, 12(%rcx)
	movss	%xmm0, (%rcx)
	movl	$-1, 20(%rcx)
	jbe	.L2058
	cmpb	$0, 11432(%r8)
	je	.L2061
	movl	$0, 16(%rcx)
	movl	%edx, 20(%rcx)
.L2067:
	movl	$2, 12(%rcx)
.L2058:
	ret
	.p2align 4,,10
.L2061:
	movq	6008(%r8), %rax
	cmpb	$0, 140(%rax)
	jne	.L2074
	movss	196(%rax), %xmm3
	movss	516(%rax), %xmm1
	subss	%xmm3, %xmm1
	divss	%xmm2, %xmm1
	cvttss2si	%xmm1, %r10d
	movss	524(%rax), %xmm1
	xorl	%eax, %eax
	subss	%xmm3, %xmm1
	testl	%r10d, %r10d
	divss	%xmm2, %xmm1
	cvttss2si	%xmm1, %r9d
	js	.L2064
	cmpl	%r10d, %edx
	movl	%r10d, %eax
	cmovle	%edx, %eax
.L2064:
	addl	$1, %r9d
	movl	%eax, %r10d
	cmpl	%eax, %r9d
	jl	.L2065
	cmpl	%r9d, %edx
	cmovle	%edx, %r9d
	movl	%r9d, %r10d
.L2065:
	testl	%eax, %eax
	movl	%eax, 16(%rcx)
	movl	%r10d, 20(%rcx)
	jle	.L2067
	movq	6008(%r8), %rdx
	pxor	%xmm1, %xmm1
	cvtsi2ss	%eax, %xmm1
	movb	$1, 138(%rdx)
	mulss	%xmm2, %xmm1
	movq	6008(%r8), %rdx
	addss	%xmm1, %xmm0
	movss	32(%rdx), %xmm1
	subss	100(%rdx), %xmm1
	addss	%xmm1, %xmm0
	movss	220(%rdx), %xmm1
	ucomiss	%xmm0, %xmm1
	movss	%xmm0, 196(%rdx)
	jb	.L2068
	movaps	%xmm1, %xmm0
.L2068:
	movss	%xmm0, 220(%rdx)
	movq	6008(%r8), %rax
	movb	$1, 138(%rax)
	movq	6008(%r8), %rax
	movss	196(%rax), %xmm0
	cmpl	$1, 444(%rax)
	movaps	%xmm0, %xmm1
	subss	%xmm2, %xmm1
	movss	%xmm1, 204(%rax)
	subss	5172(%r8), %xmm2
	movss	%xmm2, 232(%rax)
	jle	.L2067
	movss	%xmm0, 460(%rax)
	jmp	.L2067
	.p2align 4,,10
.L2074:
	movq	$0, 16(%rcx)
	jmp	.L2067
	.seh_endproc
	.align 2
	.p2align 4,,15
	.globl	_ZN16ImGuiListClipper3EndEv
	.def	_ZN16ImGuiListClipper3EndEv;	.scl	2;	.type	32;	.endef
	.seh_proc	_ZN16ImGuiListClipper3EndEv
_ZN16ImGuiListClipper3EndEv:
.LFB624:
	.seh_endprologue
	movl	8(%rcx), %eax
	testl	%eax, %eax
	js	.L2075
	cmpl	$2147483647, %eax
	jne	.L2081
.L2078:
	movabsq	$17179869183, %rax
	movq	%rax, 8(%rcx)
.L2075:
	ret
	.p2align 4,,10
.L2081:
	pxor	%xmm0, %xmm0
	cvtsi2ss	%eax, %xmm0
	movq	GImGui(%rip), %rax
	movss	4(%rcx), %xmm2
	movq	6008(%rax), %rdx
	mulss	%xmm2, %xmm0
	addss	(%rcx), %xmm0
	movb	$1, 138(%rdx)
	movq	6008(%rax), %rdx
	movss	32(%rdx), %xmm1
	subss	100(%rdx), %xmm1
	addss	%xmm1, %xmm0
	movss	220(%rdx), %xmm1
	ucomiss	%xmm0, %xmm1
	movss	%xmm0, 196(%rdx)
	jb	.L2082
.L2079:
	movss	%xmm1, 220(%rdx)
	movq	6008(%rax), %rdx
	movb	$1, 138(%rdx)
	movq	6008(%rax), %rdx
	movss	196(%rdx), %xmm0
	cmpl	$1, 444(%rdx)
	movaps	%xmm0, %xmm1
	subss	%xmm2, %xmm1
	movss	%xmm1, 204(%rdx)
	subss	5172(%rax), %xmm2
	movss	%xmm2, 232(%rdx)
	jle	.L2078
	movabsq	$17179869183, %rax
	movss	%xmm0, 460(%rdx)
	movq	%rax, 8(%rcx)
	jmp	.L2075
	.p2align 4,,10
.L2082:
	movaps	%xmm0, %xmm1
	jmp	.L2079
	.seh_endproc
	.section .rdata,"dr"
.LC100:
	.ascii "items_height > 0.0f\0"
	.align 8
.LC101:
	.ascii "DisplayStart >= 0 && DisplayEnd >= 0\0"
	.text
	.align 2
	.p2align 4,,15
	.globl	_ZN16ImGuiListClipper4StepEv
	.def	_ZN16ImGuiListClipper4StepEv;	.scl	2;	.type	32;	.endef
	.seh_proc	_ZN16ImGuiListClipper4StepEv
_ZN16ImGuiListClipper4StepEv:
.LFB625:
	pushq	%rbx
	.seh_pushreg	%rbx
	subq	$48, %rsp
	.seh_stackalloc	48
	.seh_endprologue
	movl	8(%rcx), %edx
	testl	%edx, %edx
	movq	%rcx, %rbx
	je	.L2084
	movq	GImGui(%rip), %rcx
	movq	6008(%rcx), %r8
	movzbl	140(%r8), %eax
	testb	%al, %al
	jne	.L2084
	movl	12(%rbx), %r9d
	testl	%r9d, %r9d
	je	.L2099
	cmpl	$1, %r9d
	je	.L2100
	cmpl	$2, %r9d
	je	.L2101
	cmpl	$3, %r9d
	jne	.L2083
	movq	%rbx, %rcx
	movb	%al, 44(%rsp)
	call	_ZN16ImGuiListClipper3EndEv
	movzbl	44(%rsp), %eax
	jmp	.L2083
	.p2align 4,,10
.L2100:
	cmpl	$1, %edx
	jne	.L2102
	.p2align 4,,10
.L2084:
	movl	$-1, 8(%rbx)
	xorl	%eax, %eax
.L2083:
	addq	$48, %rsp
	popq	%rbx
	ret
	.p2align 4,,10
.L2099:
	movabsq	$4294967296, %rax
	movq	%rax, 16(%rbx)
	movq	6008(%rcx), %rax
	movss	196(%rax), %xmm0
	subss	32(%rax), %xmm0
	addss	100(%rax), %xmm0
	movl	$1, %eax
	movl	$1, 12(%rbx)
	movss	%xmm0, (%rbx)
	addq	$48, %rsp
	popq	%rbx
	ret
	.p2align 4,,10
.L2102:
	movss	196(%r8), %xmm2
	subss	32(%r8), %xmm2
	addss	100(%r8), %xmm2
	subss	(%rbx), %xmm2
	ucomiss	.LC0(%rip), %xmm2
	jbe	.L2103
.L2089:
	subl	$1, %edx
	movq	%rbx, %rcx
	call	_ZN16ImGuiListClipper5BeginEif
	movl	$3, 12(%rbx)
	movl	$1, %eax
	addl	$1, 16(%rbx)
	addl	$1, 20(%rbx)
	jmp	.L2083
	.p2align 4,,10
.L2101:
	movl	16(%rbx), %edx
	testl	%edx, %edx
	js	.L2091
	movl	20(%rbx), %eax
	testl	%eax, %eax
	js	.L2091
.L2092:
	movl	$3, 12(%rbx)
	movl	$1, %eax
	jmp	.L2083
	.p2align 4,,10
.L2091:
	leaq	.LC5(%rip), %rdx
	movl	$1753, %r8d
	leaq	.LC101(%rip), %rcx
	call	_assert
	jmp	.L2092
.L2103:
	leaq	.LC5(%rip), %rdx
	movl	$1744, %r8d
	movss	%xmm2, 44(%rsp)
	leaq	.LC100(%rip), %rcx
	call	_assert
	movl	8(%rbx), %edx
	movss	44(%rsp), %xmm2
	jmp	.L2089
	.seh_endproc
	.section	.text$_ZN16ImGuiDrawContextD1Ev,"x"
	.linkonce discard
	.align 2
	.p2align 4,,15
	.globl	_ZN16ImGuiDrawContextD1Ev
	.def	_ZN16ImGuiDrawContextD1Ev;	.scl	2;	.type	32;	.endef
	.seh_proc	_ZN16ImGuiDrawContextD1Ev
_ZN16ImGuiDrawContextD1Ev:
.LFB629:
	pushq	%rbx
	.seh_pushreg	%rbx
	subq	$32, %rsp
	.seh_stackalloc	32
	.seh_endprologue
	movq	%rcx, %rbx
	movq	296(%rcx), %rcx
	testq	%rcx, %rcx
	je	.L2105
	movq	GImGui(%rip), %rax
	subl	$1, 844(%rax)
	call	*240(%rax)
.L2105:
	movq	200(%rbx), %rcx
	testq	%rcx, %rcx
	je	.L2106
	movq	GImGui(%rip), %rax
	subl	$1, 844(%rax)
	call	*240(%rax)
.L2106:
	movq	184(%rbx), %rcx
	testq	%rcx, %rcx
	je	.L2107
	movq	GImGui(%rip), %rax
	subl	$1, 844(%rax)
	call	*240(%rax)
.L2107:
	movq	168(%rbx), %rcx
	testq	%rcx, %rcx
	je	.L2108
	movq	GImGui(%rip), %rax
	subl	$1, 844(%rax)
	call	*240(%rax)
.L2108:
	movq	152(%rbx), %rcx
	testq	%rcx, %rcx
	je	.L2109
	movq	GImGui(%rip), %rax
	subl	$1, 844(%rax)
	call	*240(%rax)
.L2109:
	movq	136(%rbx), %rcx
	testq	%rcx, %rcx
	je	.L2110
	movq	GImGui(%rip), %rax
	subl	$1, 844(%rax)
	call	*240(%rax)
.L2110:
	movq	96(%rbx), %rcx
	testq	%rcx, %rcx
	je	.L2104
	movq	GImGui(%rip), %rax
	subl	$1, 844(%rax)
	movq	240(%rax), %rax
	addq	$32, %rsp
	popq	%rbx
	rex.W jmp	*%rax
	.p2align 4,,10
.L2104:
	addq	$32, %rsp
	popq	%rbx
	ret
	.seh_handler	__gxx_personality_seh0, @unwind, @except
	.seh_handlerdata
.LLSDA629:
	.byte	0xff
	.byte	0xff
	.byte	0x1
	.uleb128 .LLSDACSE629-.LLSDACSB629
.LLSDACSB629:
.LLSDACSE629:
	.section	.text$_ZN16ImGuiDrawContextD1Ev,"x"
	.linkonce discard
	.seh_endproc
	.section .rdata,"dr"
.LC102:
	.ascii "#MOVE\0"
	.text
	.align 2
	.p2align 4,,15
	.globl	_ZN11ImGuiWindowC2EPKc
	.def	_ZN11ImGuiWindowC2EPKc;	.scl	2;	.type	32;	.endef
	.seh_proc	_ZN11ImGuiWindowC2EPKc
_ZN11ImGuiWindowC2EPKc:
.LFB630:
	pushq	%rdi
	.seh_pushreg	%rdi
	pushq	%rsi
	.seh_pushreg	%rsi
	pushq	%rbx
	.seh_pushreg	%rbx
	subq	$32, %rsp
	.seh_stackalloc	32
	.seh_endprologue
	movl	$3212836864, %esi
	movabsq	$-36028797027352577, %rax
	movq	%rdx, %rdi
	movq	%rax, 76(%rcx)
	movabsq	$9187343237679939583, %rdx
	movq	%rcx, %rbx
	movq	%rdx, 68(%rcx)
	movq	$0, 20(%rcx)
	movq	$0, 28(%rcx)
	movq	$0, 36(%rcx)
	movq	$0, 44(%rcx)
	movq	$0, 52(%rcx)
	movq	$0, 60(%rcx)
	movq	$0, 84(%rcx)
	movq	$0, 96(%rcx)
	movq	$0, 104(%rcx)
	movq	$0, 112(%rcx)
	movq	$0, 124(%rcx)
	movq	$0, 280(%rcx)
	movq	$0, 288(%rcx)
	movq	$0, 320(%rcx)
	movq	$0, 328(%rcx)
	movq	$0, 336(%rcx)
	movq	$0, 344(%rcx)
	movq	$0, 352(%rcx)
	movq	$0, 360(%rcx)
	movq	$0, 368(%rcx)
	movq	$0, 376(%rcx)
	movq	$0, 384(%rcx)
	movq	$0, 392(%rcx)
	movq	$0, 480(%rcx)
	movq	$0, 488(%rcx)
	movq	$0, 216(%rcx)
	movq	$0, 208(%rcx)
	movq	$0, 200(%rcx)
	movq	$0, 192(%rcx)
	movq	$0, 224(%rcx)
	movq	$0, 232(%rcx)
	movq	%rsi, 240(%rcx)
	movq	%rdx, 512(%rcx)
	movq	%rax, 520(%rcx)
	movq	%rdx, 528(%rcx)
	movq	%rax, 536(%rcx)
	movq	$0, 248(%rcx)
	movq	$0, 256(%rcx)
	movl	$0, 264(%rcx)
	movb	$0, 269(%rcx)
	movb	$0, 268(%rcx)
	movb	$0, 270(%rcx)
	movl	$0x00000000, 272(%rcx)
	movb	$0, 317(%rcx)
	movb	$1, 316(%rcx)
	movq	$0, 296(%rcx)
	movq	$0, 304(%rcx)
	movl	$-1082130432, 312(%rcx)
	movl	$0, 400(%rcx)
	movq	$0, 404(%rcx)
	movq	$0, 412(%rcx)
	movq	$0, 420(%rcx)
	movq	$0, 428(%rcx)
	movq	$0, 436(%rcx)
	movq	$1, 444(%rcx)
	movq	$0, 452(%rcx)
	movq	$0, 460(%rcx)
	movb	$1, 468(%rcx)
	movl	$0, 472(%rcx)
	movq	$0, 496(%rcx)
	movq	$0, 504(%rcx)
	movq	$0, 552(%rcx)
	movq	$0, 560(%rcx)
	movq	$0, 568(%rcx)
	movq	$0, 576(%rcx)
	movq	$0, 584(%rcx)
	movq	$0, 592(%rcx)
	movq	$0, 600(%rcx)
	movq	$0, 608(%rcx)
	movq	$0, 616(%rcx)
	movq	$0, 624(%rcx)
	movq	$0, 632(%rcx)
	movq	$0, 640(%rcx)
	movq	%rdi, %rcx
	call	strlen
	leaq	1(%rax), %rsi
	movq	GImGui(%rip), %rax
	movq	%rsi, %rcx
	addl	$1, 844(%rax)
.LEHB11:
	call	*232(%rax)
	movq	%rsi, %r8
	movq	%rdi, %rdx
	movq	%rax, %rcx
	call	memcpy
	xorl	%edx, %edx
	movq	%rdi, %rcx
	movq	%rax, (%rbx)
	call	_Z6ImHashPKvij.constprop.146
	movslq	496(%rbx), %rdx
	cmpl	500(%rbx), %edx
	movl	%eax, 8(%rbx)
	je	.L2131
	movq	504(%rbx), %rsi
.L2132:
	leal	1(%rdx), %ecx
	movl	%ecx, 496(%rbx)
	movq	%rbx, %rcx
	movl	%eax, (%rsi,%rdx,4)
	leaq	.LC102(%rip), %rdx
	call	_ZN11ImGuiWindow5GetIDEPKcS1_.constprop.138
	movl	%eax, 92(%rbx)
	movl	$152, %ecx
	movabsq	$9187343237679939583, %rax
	movabsq	$64424509455, %rdi
	movq	%rax, 104(%rbx)
	movabsq	$4539628425446424576, %rax
	movq	%rax, 112(%rbx)
	movl	$4294967295, %eax
	movq	%rax, 164(%rbx)
	movq	%rax, 544(%rbx)
	movq	GImGui(%rip), %rax
	movq	$0, 12(%rbx)
	movq	$0, 28(%rbx)
	movq	$0, 20(%rbx)
	movq	$0, 44(%rbx)
	movq	$0, 36(%rbx)
	movq	$0, 60(%rbx)
	movq	$0, 52(%rbx)
	movq	$0, 84(%rbx)
	movq	$0, 96(%rbx)
	movb	$0, 121(%rbx)
	movb	$0, 120(%rbx)
	movq	$0, 124(%rbx)
	movl	$0, 132(%rbx)
	movb	$0, 137(%rbx)
	movb	$0, 136(%rbx)
	movb	$0, 138(%rbx)
	movb	$0, 139(%rbx)
	movb	$0, 140(%rbx)
	movq	$0, 144(%rbx)
	movq	$-1, 152(%rbx)
	movb	$0, 160(%rbx)
	movq	%rdi, 172(%rbx)
	movl	$15, 180(%rbx)
	movb	$0, 184(%rbx)
	movl	$0x3f800000, 648(%rbx)
	addl	$1, 844(%rax)
	call	*232(%rax)
	movq	%rax, %rcx
	movq	%rax, 656(%rbx)
	call	_ZN10ImDrawListC1Ev
	movq	656(%rbx), %rax
	pxor	%xmm0, %xmm0
	movq	(%rbx), %rdx
	movq	%rdx, 48(%rax)
	movups	%xmm0, 664(%rbx)
	movdqa	.LC103(%rip), %xmm0
	movq	$0, 680(%rbx)
	movups	%xmm0, 688(%rbx)
	movl	$2147483647, 708(%rbx)
	movl	$2147483647, 704(%rbx)
	addq	$32, %rsp
	popq	%rbx
	popq	%rsi
	popq	%rdi
	ret
	.p2align 4,,10
.L2131:
	leal	1(%rdx), %ecx
	testl	%edx, %edx
	movl	$8, %eax
	jne	.L2151
.L2133:
	cmpl	%eax, %ecx
	cmovge	%ecx, %eax
	movslq	%eax, %rcx
	movq	GImGui(%rip), %rax
	movq	%rcx, %rdi
	salq	$2, %rcx
	addl	$1, 844(%rax)
	call	*232(%rax)
	movq	504(%rbx), %rcx
	movq	%rax, %rsi
	movq	GImGui(%rip), %rax
	testq	%rcx, %rcx
	je	.L2136
	movslq	496(%rbx), %r8
	movq	%rcx, %rdx
	movq	%rsi, %rcx
	salq	$2, %r8
	call	memcpy
	movq	504(%rbx), %rcx
	movq	GImGui(%rip), %rax
	testq	%rcx, %rcx
	je	.L2136
	subl	$1, 844(%rax)
.L2136:
	call	*240(%rax)
.LEHE11:
	movslq	496(%rbx), %rdx
	movq	%rsi, 504(%rbx)
	movl	8(%rbx), %eax
	movl	%edi, 500(%rbx)
	jmp	.L2132
	.p2align 4,,10
.L2151:
	movl	%edx, %eax
	shrl	$31, %eax
	addl	%edx, %eax
	sarl	%eax
	addl	%edx, %eax
	jmp	.L2133
.L2141:
	movq	640(%rbx), %rcx
	movq	%rax, %rsi
	testq	%rcx, %rcx
	je	.L2138
	movq	GImGui(%rip), %rax
	subl	$1, 844(%rax)
	call	*240(%rax)
.L2138:
	movq	504(%rbx), %rcx
	testq	%rcx, %rcx
	je	.L2139
	movq	GImGui(%rip), %rax
	subl	$1, 844(%rax)
	call	*240(%rax)
.L2139:
	leaq	192(%rbx), %rcx
	call	_ZN16ImGuiDrawContextD1Ev
	movq	%rsi, %rcx
.LEHB12:
	call	_Unwind_Resume
	nop
.LEHE12:
	.seh_handler	__gxx_personality_seh0, @unwind, @except
	.seh_handlerdata
.LLSDA630:
	.byte	0xff
	.byte	0xff
	.byte	0x1
	.uleb128 .LLSDACSE630-.LLSDACSB630
.LLSDACSB630:
	.uleb128 .LEHB11-.LFB630
	.uleb128 .LEHE11-.LEHB11
	.uleb128 .L2141-.LFB630
	.uleb128 0
	.uleb128 .LEHB12-.LFB630
	.uleb128 .LEHE12-.LEHB12
	.uleb128 0
	.uleb128 0
.LLSDACSE630:
	.text
	.seh_endproc
	.globl	_ZN11ImGuiWindowC1EPKc
	.def	_ZN11ImGuiWindowC1EPKc;	.scl	2;	.type	32;	.endef
	.set	_ZN11ImGuiWindowC1EPKc,_ZN11ImGuiWindowC2EPKc
	.align 2
	.p2align 4,,15
	.globl	_ZN11ImGuiWindowD2Ev
	.def	_ZN11ImGuiWindowD2Ev;	.scl	2;	.type	32;	.endef
	.seh_proc	_ZN11ImGuiWindowD2Ev
_ZN11ImGuiWindowD2Ev:
.LFB633:
	pushq	%rbx
	.seh_pushreg	%rbx
	subq	$32, %rsp
	.seh_stackalloc	32
	.seh_endprologue
	movq	%rcx, %rbx
	movq	656(%rcx), %rcx
	call	_ZN10ImDrawListD1Ev
	movq	656(%rbx), %rcx
	movq	GImGui(%rip), %rax
	testq	%rcx, %rcx
	je	.L2154
	subl	$1, 844(%rax)
.L2154:
	call	*240(%rax)
	movq	(%rbx), %rcx
	movq	$0, 656(%rbx)
	movq	GImGui(%rip), %rax
	testq	%rcx, %rcx
	je	.L2156
	subl	$1, 844(%rax)
.L2156:
	call	*240(%rax)
	movq	640(%rbx), %rcx
	movq	$0, (%rbx)
	testq	%rcx, %rcx
	je	.L2157
	movq	GImGui(%rip), %rax
	subl	$1, 844(%rax)
	call	*240(%rax)
.L2157:
	movq	504(%rbx), %rcx
	testq	%rcx, %rcx
	je	.L2158
	movq	GImGui(%rip), %rax
	subl	$1, 844(%rax)
	call	*240(%rax)
.L2158:
	movq	488(%rbx), %rcx
	testq	%rcx, %rcx
	je	.L2159
	movq	GImGui(%rip), %rax
	subl	$1, 844(%rax)
	call	*240(%rax)
.L2159:
	movq	392(%rbx), %rcx
	testq	%rcx, %rcx
	je	.L2160
	movq	GImGui(%rip), %rax
	subl	$1, 844(%rax)
	call	*240(%rax)
.L2160:
	movq	376(%rbx), %rcx
	testq	%rcx, %rcx
	je	.L2161
	movq	GImGui(%rip), %rax
	subl	$1, 844(%rax)
	call	*240(%rax)
.L2161:
	movq	360(%rbx), %rcx
	testq	%rcx, %rcx
	je	.L2162
	movq	GImGui(%rip), %rax
	subl	$1, 844(%rax)
	call	*240(%rax)
.L2162:
	movq	344(%rbx), %rcx
	testq	%rcx, %rcx
	je	.L2163
	movq	GImGui(%rip), %rax
	subl	$1, 844(%rax)
	call	*240(%rax)
.L2163:
	movq	328(%rbx), %rcx
	testq	%rcx, %rcx
	je	.L2164
	movq	GImGui(%rip), %rax
	subl	$1, 844(%rax)
	call	*240(%rax)
.L2164:
	movq	288(%rbx), %rcx
	testq	%rcx, %rcx
	je	.L2152
	movq	GImGui(%rip), %rax
	subl	$1, 844(%rax)
	movq	240(%rax), %rax
	addq	$32, %rsp
	popq	%rbx
	rex.W jmp	*%rax
	.p2align 4,,10
.L2152:
	addq	$32, %rsp
	popq	%rbx
	ret
	.seh_handler	__gxx_personality_seh0, @unwind, @except
	.seh_handlerdata
.LLSDA633:
	.byte	0xff
	.byte	0xff
	.byte	0x1
	.uleb128 .LLSDACSE633-.LLSDACSB633
.LLSDACSB633:
.LLSDACSE633:
	.text
	.seh_endproc
	.globl	_ZN11ImGuiWindowD1Ev
	.def	_ZN11ImGuiWindowD1Ev;	.scl	2;	.type	32;	.endef
	.set	_ZN11ImGuiWindowD1Ev,_ZN11ImGuiWindowD2Ev
	.align 2
	.p2align 4,,15
	.globl	_ZN11ImGuiWindow5GetIDEPKcS1_
	.def	_ZN11ImGuiWindow5GetIDEPKcS1_;	.scl	2;	.type	32;	.endef
	.seh_proc	_ZN11ImGuiWindow5GetIDEPKcS1_
_ZN11ImGuiWindow5GetIDEPKcS1_:
.LFB635:
	pushq	%rdi
	.seh_pushreg	%rdi
	pushq	%rsi
	.seh_pushreg	%rsi
	pushq	%rbx
	.seh_pushreg	%rbx
	subq	$32, %rsp
	.seh_stackalloc	32
	.seh_endprologue
	movslq	496(%rcx), %rax
	testl	%eax, %eax
	movq	%rcx, %rbx
	movq	%rdx, %rsi
	movq	%r8, %rdi
	jle	.L2195
.L2191:
	movq	504(%rbx), %rcx
	movq	%rdi, %r8
	movl	$0, %edx
	subq	%rsi, %r8
	testq	%rdi, %rdi
	cmovne	%r8d, %edx
	movl	-4(%rcx,%rax,4), %r8d
	movq	%rsi, %rcx
	call	_Z6ImHashPKvij
	movq	GImGui(%rip), %rdx
	cmpl	6068(%rdx), %eax
	jne	.L2190
	movb	$1, 6076(%rdx)
.L2190:
	addq	$32, %rsp
	popq	%rbx
	popq	%rsi
	popq	%rdi
	ret
	.p2align 4,,10
.L2195:
	leaq	.LC2(%rip), %rdx
	movl	$866, %r8d
	leaq	.LC4(%rip), %rcx
	call	_assert
	movslq	496(%rbx), %rax
	jmp	.L2191
	.seh_endproc
	.align 2
	.p2align 4,,15
	.globl	_ZN11ImGuiWindow5GetIDEPKv
	.def	_ZN11ImGuiWindow5GetIDEPKv;	.scl	2;	.type	32;	.endef
	.seh_proc	_ZN11ImGuiWindow5GetIDEPKv
_ZN11ImGuiWindow5GetIDEPKv:
.LFB636:
	pushq	%rbx
	.seh_pushreg	%rbx
	subq	$64, %rsp
	.seh_stackalloc	64
	movaps	%xmm6, 32(%rsp)
	.seh_savexmm	%xmm6, 32
	movaps	%xmm7, 48(%rsp)
	.seh_savexmm	%xmm7, 48
	.seh_endprologue
	movslq	496(%rcx), %rax
	testl	%eax, %eax
	movq	%rcx, %rbx
	movq	%rdx, 88(%rsp)
	jle	.L2202
.L2197:
	movq	504(%rbx), %rdx
	leaq	_ZZ6ImHashPKvijE9crc32_lut(%rip), %r8
	movl	-4(%rdx,%rax,4), %ecx
	movl	4+_ZZ6ImHashPKvijE9crc32_lut(%rip), %eax
	testl	%eax, %eax
	jne	.L2198
	movdqa	.LC10(%rip), %xmm5
	movq	%r8, %rax
	pxor	%xmm2, %xmm2
	movdqa	.LC11(%rip), %xmm6
	leaq	1024(%r8), %rdx
	movdqa	.LC12(%rip), %xmm4
	movdqa	.LC13(%rip), %xmm3
	.p2align 4,,10
.L2199:
	movdqa	%xmm5, %xmm0
	movdqa	%xmm2, %xmm1
	movdqa	%xmm2, %xmm7
	pand	%xmm4, %xmm0
	psubd	%xmm0, %xmm1
	addq	$16, %rax
	movdqa	%xmm1, %xmm0
	movdqa	%xmm5, %xmm1
	paddd	%xmm6, %xmm5
	psrld	$1, %xmm1
	pand	%xmm3, %xmm0
	pxor	%xmm1, %xmm0
	movdqa	%xmm0, %xmm1
	psrld	$1, %xmm0
	pand	%xmm4, %xmm1
	psubd	%xmm1, %xmm7
	movdqa	%xmm7, %xmm1
	movdqa	%xmm2, %xmm7
	pand	%xmm3, %xmm1
	pxor	%xmm0, %xmm1
	movdqa	%xmm1, %xmm0
	psrld	$1, %xmm1
	pand	%xmm4, %xmm0
	psubd	%xmm0, %xmm7
	movdqa	%xmm7, %xmm0
	movdqa	%xmm2, %xmm7
	pand	%xmm3, %xmm0
	pxor	%xmm1, %xmm0
	movdqa	%xmm0, %xmm1
	psrld	$1, %xmm0
	pand	%xmm4, %xmm1
	psubd	%xmm1, %xmm7
	movdqa	%xmm7, %xmm1
	movdqa	%xmm2, %xmm7
	pand	%xmm3, %xmm1
	pxor	%xmm0, %xmm1
	movdqa	%xmm1, %xmm0
	psrld	$1, %xmm1
	pand	%xmm4, %xmm0
	psubd	%xmm0, %xmm7
	movdqa	%xmm7, %xmm0
	movdqa	%xmm2, %xmm7
	pand	%xmm3, %xmm0
	pxor	%xmm1, %xmm0
	movdqa	%xmm0, %xmm1
	psrld	$1, %xmm0
	pand	%xmm4, %xmm1
	psubd	%xmm1, %xmm7
	movdqa	%xmm7, %xmm1
	movdqa	%xmm2, %xmm7
	pand	%xmm3, %xmm1
	pxor	%xmm0, %xmm1
	movdqa	%xmm1, %xmm0
	psrld	$1, %xmm1
	pand	%xmm4, %xmm0
	psubd	%xmm0, %xmm7
	movdqa	%xmm7, %xmm0
	movdqa	%xmm2, %xmm7
	pand	%xmm3, %xmm0
	pxor	%xmm1, %xmm0
	movdqa	%xmm0, %xmm1
	psrld	$1, %xmm0
	pand	%xmm4, %xmm1
	psubd	%xmm1, %xmm7
	movdqa	%xmm7, %xmm1
	pand	%xmm3, %xmm1
	pxor	%xmm1, %xmm0
	movaps	%xmm0, -16(%rax)
	cmpq	%rax, %rdx
	jne	.L2199
.L2198:
	movzbl	88(%rsp), %edx
	movl	%ecx, %eax
	notl	%eax
	xorl	%eax, %edx
	shrl	$8, %eax
	movzbl	%dl, %edx
	xorl	(%r8,%rdx,4), %eax
	movl	%eax, %edx
	xorb	89(%rsp), %al
	shrl	$8, %edx
	movzbl	%al, %eax
	xorl	(%r8,%rax,4), %edx
	movl	%edx, %eax
	xorb	90(%rsp), %dl
	shrl	$8, %eax
	movzbl	%dl, %edx
	xorl	(%r8,%rdx,4), %eax
	movl	%eax, %edx
	xorb	91(%rsp), %al
	shrl	$8, %edx
	movzbl	%al, %eax
	xorl	(%r8,%rax,4), %edx
	movl	%edx, %eax
	xorb	92(%rsp), %dl
	shrl	$8, %eax
	movzbl	%dl, %edx
	xorl	(%r8,%rdx,4), %eax
	movl	%eax, %edx
	xorb	93(%rsp), %al
	shrl	$8, %edx
	movzbl	%al, %eax
	xorl	(%r8,%rax,4), %edx
	movl	%edx, %eax
	xorb	94(%rsp), %dl
	shrl	$8, %eax
	movzbl	%dl, %edx
	xorl	(%r8,%rdx,4), %eax
	movl	%eax, %edx
	xorb	95(%rsp), %al
	shrl	$8, %edx
	movzbl	%al, %eax
	xorl	(%r8,%rax,4), %edx
	movl	%edx, %eax
	movq	GImGui(%rip), %rdx
	notl	%eax
	cmpl	%eax, 6068(%rdx)
	jne	.L2196
	movb	$1, 6076(%rdx)
.L2196:
	movaps	32(%rsp), %xmm6
	movaps	48(%rsp), %xmm7
	addq	$64, %rsp
	popq	%rbx
	ret
	.p2align 4,,10
.L2202:
	leaq	.LC2(%rip), %rdx
	movl	$866, %r8d
	leaq	.LC4(%rip), %rcx
	call	_assert
	movslq	496(%rbx), %rax
	jmp	.L2197
	.seh_endproc
	.align 2
	.p2align 4,,15
	.globl	_ZN11ImGuiWindow16GetIDNoKeepAliveEPKcS1_
	.def	_ZN11ImGuiWindow16GetIDNoKeepAliveEPKcS1_;	.scl	2;	.type	32;	.endef
	.seh_proc	_ZN11ImGuiWindow16GetIDNoKeepAliveEPKcS1_
_ZN11ImGuiWindow16GetIDNoKeepAliveEPKcS1_:
.LFB637:
	pushq	%rdi
	.seh_pushreg	%rdi
	pushq	%rsi
	.seh_pushreg	%rsi
	pushq	%rbx
	.seh_pushreg	%rbx
	subq	$32, %rsp
	.seh_stackalloc	32
	.seh_endprologue
	movslq	496(%rcx), %rax
	testl	%eax, %eax
	movq	%rcx, %rbx
	movq	%rdx, %rsi
	movq	%r8, %rdi
	jle	.L2207
.L2204:
	movq	504(%rbx), %rcx
	movq	%rdi, %r8
	movl	$0, %edx
	subq	%rsi, %r8
	testq	%rdi, %rdi
	cmovne	%r8d, %edx
	movl	-4(%rcx,%rax,4), %r8d
	movq	%rsi, %rcx
	addq	$32, %rsp
	popq	%rbx
	popq	%rsi
	popq	%rdi
	jmp	_Z6ImHashPKvij
	.p2align 4,,10
.L2207:
	leaq	.LC2(%rip), %rdx
	movl	$866, %r8d
	leaq	.LC4(%rip), %rcx
	call	_assert
	movslq	496(%rbx), %rax
	jmp	.L2204
	.seh_endproc
	.section .rdata,"dr"
	.align 8
.LC104:
	.ascii "g.CurrentWindowStack.Size >= 2\0"
	.text
	.p2align 4,,15
	.globl	_ZN5ImGui15GetParentWindowEv
	.def	_ZN5ImGui15GetParentWindowEv;	.scl	2;	.type	32;	.endef
	.seh_proc	_ZN5ImGui15GetParentWindowEv
_ZN5ImGui15GetParentWindowEv:
.LFB639:
	pushq	%rsi
	.seh_pushreg	%rsi
	pushq	%rbx
	.seh_pushreg	%rbx
	subq	$40, %rsp
	.seh_stackalloc	40
	.seh_endprologue
	movq	GImGui(%rip), %rsi
	movl	6016(%rsi), %eax
	cmpl	$1, %eax
	jle	.L2211
.L2209:
	leal	-2(%rax), %ebx
	cmpl	%eax, %ebx
	jl	.L2210
	leaq	.LC2(%rip), %rdx
	movl	$856, %r8d
	leaq	.LC3(%rip), %rcx
	call	_assert
.L2210:
	movq	6024(%rsi), %rax
	movslq	%ebx, %rbx
	movq	(%rax,%rbx,8), %rax
	addq	$40, %rsp
	popq	%rbx
	popq	%rsi
	ret
	.p2align 4,,10
.L2211:
	leaq	.LC5(%rip), %rdx
	movl	$1860, %r8d
	leaq	.LC104(%rip), %rcx
	call	_assert
	movl	6016(%rsi), %eax
	jmp	.L2209
	.seh_endproc
	.p2align 4,,15
	.globl	_ZN5ImGui11SetActiveIDEjP11ImGuiWindow
	.def	_ZN5ImGui11SetActiveIDEjP11ImGuiWindow;	.scl	2;	.type	32;	.endef
	.seh_proc	_ZN5ImGui11SetActiveIDEjP11ImGuiWindow
_ZN5ImGui11SetActiveIDEjP11ImGuiWindow:
.LFB640:
	.seh_endprologue
	movq	GImGui(%rip), %rax
	movb	$0, 6078(%rax)
	movb	$1, 6077(%rax)
	testl	%ecx, %ecx
	movl	%ecx, 6068(%rax)
	je	.L2213
	movb	$1, 6076(%rax)
.L2213:
	movq	%rdx, 6088(%rax)
	ret
	.seh_endproc
	.p2align 4,,15
	.globl	_ZN5ImGui13ClearActiveIDEv
	.def	_ZN5ImGui13ClearActiveIDEv;	.scl	2;	.type	32;	.endef
	.seh_proc	_ZN5ImGui13ClearActiveIDEv
_ZN5ImGui13ClearActiveIDEv:
.LFB641:
	.seh_endprologue
	movq	GImGui(%rip), %rax
	movl	$0, 6068(%rax)
	movb	$0, 6078(%rax)
	movb	$1, 6077(%rax)
	movq	$0, 6088(%rax)
	ret
	.seh_endproc
	.p2align 4,,15
	.globl	_ZN5ImGui12SetHoveredIDEj
	.def	_ZN5ImGui12SetHoveredIDEj;	.scl	2;	.type	32;	.endef
	.seh_proc	_ZN5ImGui12SetHoveredIDEj
_ZN5ImGui12SetHoveredIDEj:
.LFB642:
	.seh_endprologue
	movq	GImGui(%rip), %rax
	movb	$0, 6060(%rax)
	movl	%ecx, 6056(%rax)
	ret
	.seh_endproc
	.p2align 4,,15
	.globl	_ZN5ImGui11KeepAliveIDEj
	.def	_ZN5ImGui11KeepAliveIDEj;	.scl	2;	.type	32;	.endef
	.seh_proc	_ZN5ImGui11KeepAliveIDEj
_ZN5ImGui11KeepAliveIDEj:
.LFB643:
	.seh_endprologue
	movq	GImGui(%rip), %rax
	cmpl	%ecx, 6068(%rax)
	je	.L2221
	ret
	.p2align 4,,10
.L2221:
	movb	$1, 6076(%rax)
	ret
	.seh_endproc
	.p2align 4,,15
	.globl	_ZN5ImGui8ItemSizeERK6ImVec2f
	.def	_ZN5ImGui8ItemSizeERK6ImVec2f;	.scl	2;	.type	32;	.endef
	.seh_proc	_ZN5ImGui8ItemSizeERK6ImVec2f
_ZN5ImGui8ItemSizeERK6ImVec2f:
.LFB644:
	.seh_endprologue
	movq	GImGui(%rip), %rdx
	movq	6008(%rdx), %rax
	movb	$1, 138(%rax)
	movq	6008(%rdx), %rax
	cmpb	$0, 140(%rax)
	jne	.L2222
	movss	4(%rcx), %xmm0
	movss	224(%rax), %xmm3
	ucomiss	%xmm0, %xmm3
	jb	.L2228
	movss	228(%rax), %xmm4
	ucomiss	%xmm1, %xmm4
	jb	.L2229
.L2225:
	movss	192(%rax), %xmm2
	addss	(%rcx), %xmm2
	movss	196(%rax), %xmm0
	movss	28(%rax), %xmm1
	movss	%xmm0, 204(%rax)
	addss	%xmm3, %xmm0
	movss	%xmm2, 200(%rax)
	addss	5172(%rdx), %xmm0
	addss	428(%rax), %xmm1
	addss	436(%rax), %xmm1
	cvttss2si	%xmm0, %edx
	pxor	%xmm0, %xmm0
	cvtsi2ss	%edx, %xmm0
	cvttss2si	%xmm1, %edx
	pxor	%xmm1, %xmm1
	movss	%xmm0, 196(%rax)
	cvtsi2ss	%edx, %xmm1
	movss	%xmm1, 192(%rax)
	movss	216(%rax), %xmm1
	ucomiss	%xmm2, %xmm1
	jb	.L2230
.L2226:
	movss	%xmm1, 216(%rax)
	movss	220(%rax), %xmm1
	ucomiss	%xmm0, %xmm1
	jb	.L2231
.L2227:
	movss	%xmm1, 220(%rax)
	movss	%xmm3, 232(%rax)
	movss	%xmm4, 236(%rax)
	movq	$0, 224(%rax)
.L2222:
	ret
	.p2align 4,,10
.L2231:
	movaps	%xmm0, %xmm1
	jmp	.L2227
	.p2align 4,,10
.L2230:
	movaps	%xmm2, %xmm1
	jmp	.L2226
	.p2align 4,,10
.L2229:
	movaps	%xmm1, %xmm4
	jmp	.L2225
	.p2align 4,,10
.L2228:
	movss	228(%rax), %xmm4
	movaps	%xmm0, %xmm3
	ucomiss	%xmm1, %xmm4
	jnb	.L2225
	jmp	.L2229
	.seh_endproc
	.p2align 4,,15
	.globl	_ZN5ImGui8ItemSizeERK6ImRectf
	.def	_ZN5ImGui8ItemSizeERK6ImRectf;	.scl	2;	.type	32;	.endef
	.seh_proc	_ZN5ImGui8ItemSizeERK6ImRectf
_ZN5ImGui8ItemSizeERK6ImRectf:
.LFB645:
	subq	$56, %rsp
	.seh_stackalloc	56
	.seh_endprologue
	movss	12(%rcx), %xmm0
	movss	8(%rcx), %xmm2
	subss	4(%rcx), %xmm0
	subss	(%rcx), %xmm2
	leaq	40(%rsp), %rcx
	movss	%xmm0, 44(%rsp)
	movss	%xmm2, 40(%rsp)
	call	_ZN5ImGui8ItemSizeERK6ImVec2f
	nop
	addq	$56, %rsp
	ret
	.seh_endproc
	.p2align 4,,15
	.globl	_ZN5ImGui11IsClippedExERK6ImRectPKjb
	.def	_ZN5ImGui11IsClippedExERK6ImRectPKjb;	.scl	2;	.type	32;	.endef
	.seh_proc	_ZN5ImGui11IsClippedExERK6ImRectPKjb
_ZN5ImGui11IsClippedExERK6ImRectPKjb:
.LFB647:
	.seh_endprologue
	movq	GImGui(%rip), %r9
	movss	12(%rcx), %xmm0
	movq	6008(%r9), %rax
	ucomiss	516(%rax), %xmm0
	jbe	.L2234
	movss	524(%rax), %xmm0
	ucomiss	4(%rcx), %xmm0
	ja	.L2250
.L2234:
	testq	%rdx, %rdx
	je	.L2239
	xorl	%eax, %eax
	movl	6068(%r9), %ecx
	cmpl	%ecx, (%rdx)
	je	.L2233
.L2239:
	testb	%r8b, %r8b
	movl	%r8d, %eax
	jne	.L2233
	movzbl	11432(%r9), %eax
	xorl	$1, %eax
.L2233:
	ret
	.p2align 4,,10
.L2250:
	movss	8(%rcx), %xmm0
	ucomiss	512(%rax), %xmm0
	jbe	.L2234
	movss	520(%rax), %xmm0
	xorl	%eax, %eax
	ucomiss	(%rcx), %xmm0
	jbe	.L2234
	ret
	.seh_endproc
	.p2align 4,,15
	.globl	_ZN5ImGui23FocusableItemUnregisterEP11ImGuiWindow
	.def	_ZN5ImGui23FocusableItemUnregisterEP11ImGuiWindow;	.scl	2;	.type	32;	.endef
	.seh_proc	_ZN5ImGui23FocusableItemUnregisterEP11ImGuiWindow
_ZN5ImGui23FocusableItemUnregisterEP11ImGuiWindow:
.LFB650:
	.seh_endprologue
	subl	$1, 688(%rcx)
	subl	$1, 692(%rcx)
	ret
	.seh_endproc
	.p2align 4,,15
	.globl	_ZN5ImGui8MemAllocEy
	.def	_ZN5ImGui8MemAllocEy;	.scl	2;	.type	32;	.endef
	.seh_proc	_ZN5ImGui8MemAllocEy
_ZN5ImGui8MemAllocEy:
.LFB653:
	.seh_endprologue
	movq	GImGui(%rip), %rax
	addl	$1, 844(%rax)
	rex.W jmp	*232(%rax)
	.seh_endproc
	.p2align 4,,15
	.globl	_ZN5ImGui7MemFreeEPv
	.def	_ZN5ImGui7MemFreeEPv;	.scl	2;	.type	32;	.endef
	.seh_proc	_ZN5ImGui7MemFreeEPv
_ZN5ImGui7MemFreeEPv:
.LFB654:
	.seh_endprologue
	movq	GImGui(%rip), %rax
	testq	%rcx, %rcx
	je	.L2254
	subl	$1, 844(%rax)
.L2254:
	rex.W jmp	*240(%rax)
	.seh_endproc
	.p2align 4,,15
	.globl	_ZN5ImGui16GetClipboardTextEv
	.def	_ZN5ImGui16GetClipboardTextEv;	.scl	2;	.type	32;	.endef
	.seh_proc	_ZN5ImGui16GetClipboardTextEv
_ZN5ImGui16GetClipboardTextEv:
.LFB655:
	.seh_endprologue
	movq	GImGui(%rip), %rdx
	movq	208(%rdx), %rax
	testq	%rax, %rax
	je	.L2259
	movq	224(%rdx), %rcx
	rex.W jmp	*%rax
	.p2align 4,,10
.L2259:
	leaq	.LC98(%rip), %rax
	ret
	.seh_endproc
	.p2align 4,,15
	.globl	_ZN5ImGui16SetClipboardTextEPKc
	.def	_ZN5ImGui16SetClipboardTextEPKc;	.scl	2;	.type	32;	.endef
	.seh_proc	_ZN5ImGui16SetClipboardTextEPKc
_ZN5ImGui16SetClipboardTextEPKc:
.LFB656:
	.seh_endprologue
	movq	GImGui(%rip), %r8
	movq	216(%r8), %rax
	movq	%rcx, %rdx
	testq	%rax, %rax
	je	.L2260
	movq	224(%r8), %rcx
	rex.W jmp	*%rax
	.p2align 4,,10
.L2260:
	ret
	.seh_endproc
	.section .rdata,"dr"
.LC105:
	.ascii "1.50 WIP\0"
	.text
	.p2align 4,,15
	.globl	_ZN5ImGui10GetVersionEv
	.def	_ZN5ImGui10GetVersionEv;	.scl	2;	.type	32;	.endef
	.seh_proc	_ZN5ImGui10GetVersionEv
_ZN5ImGui10GetVersionEv:
.LFB657:
	.seh_endprologue
	leaq	.LC105(%rip), %rax
	ret
	.seh_endproc
	.p2align 4,,15
	.globl	_ZN5ImGui17GetCurrentContextEv
	.def	_ZN5ImGui17GetCurrentContextEv;	.scl	2;	.type	32;	.endef
	.seh_proc	_ZN5ImGui17GetCurrentContextEv
_ZN5ImGui17GetCurrentContextEv:
.LFB658:
	.seh_endprologue
	movq	GImGui(%rip), %rax
	ret
	.seh_endproc
	.p2align 4,,15
	.globl	_ZN5ImGui17SetCurrentContextEP12ImGuiContext
	.def	_ZN5ImGui17SetCurrentContextEP12ImGuiContext;	.scl	2;	.type	32;	.endef
	.seh_proc	_ZN5ImGui17SetCurrentContextEP12ImGuiContext
_ZN5ImGui17SetCurrentContextEP12ImGuiContext:
.LFB659:
	.seh_endprologue
	movq	%rcx, GImGui(%rip)
	ret
	.seh_endproc
	.p2align 4,,15
	.globl	_ZN5ImGui13CreateContextEPFPvyEPFvS0_E
	.def	_ZN5ImGui13CreateContextEPFPvyEPFvS0_E;	.scl	2;	.type	32;	.endef
	.seh_proc	_ZN5ImGui13CreateContextEPFPvyEPFvS0_E
_ZN5ImGui13CreateContextEPFPvyEPFvS0_E:
.LFB660:
	pushq	%rdi
	.seh_pushreg	%rdi
	pushq	%rsi
	.seh_pushreg	%rsi
	pushq	%rbx
	.seh_pushreg	%rbx
	subq	$32, %rsp
	.seh_stackalloc	32
	.seh_endprologue
	leaq	malloc(%rip), %rax
	testq	%rcx, %rcx
	movq	%rcx, %rbx
	movq	%rdx, %rdi
	cmove	%rax, %rbx
	movl	$15040, %ecx
	call	*%rbx
	movq	%rax, %rcx
	movq	%rax, %rsi
	call	_ZN12ImGuiContextC1Ev
	testq	%rdi, %rdi
	movq	%rbx, 232(%rsi)
	leaq	free(%rip), %rax
	cmove	%rax, %rdi
	movq	%rsi, %rax
	movq	%rdi, 240(%rsi)
	addq	$32, %rsp
	popq	%rbx
	popq	%rsi
	popq	%rdi
	ret
	.seh_endproc
	.section	.text$_ZN12ImGuiContextD1Ev,"x"
	.linkonce discard
	.align 2
	.p2align 4,,15
	.globl	_ZN12ImGuiContextD1Ev
	.def	_ZN12ImGuiContextD1Ev;	.scl	2;	.type	32;	.endef
	.seh_proc	_ZN12ImGuiContextD1Ev
_ZN12ImGuiContextD1Ev:
.LFB664:
	pushq	%rdi
	.seh_pushreg	%rdi
	pushq	%rsi
	.seh_pushreg	%rsi
	pushq	%rbx
	.seh_pushreg	%rbx
	subq	$32, %rsp
	.seh_stackalloc	32
	.seh_endprologue
	movq	%rcx, %rsi
	movq	10344(%rcx), %rcx
	testq	%rcx, %rcx
	je	.L2269
	movq	GImGui(%rip), %rax
	subl	$1, 844(%rax)
	call	*240(%rax)
.L2269:
	leaq	10216(%rsi), %rcx
	call	_ZN6ImFontD1Ev
	movq	6960(%rsi), %rcx
	testq	%rcx, %rcx
	je	.L2270
	movq	GImGui(%rip), %rax
	subl	$1, 844(%rax)
	call	*240(%rax)
.L2270:
	movq	6944(%rsi), %rcx
	testq	%rcx, %rcx
	je	.L2271
	movq	GImGui(%rip), %rax
	subl	$1, 844(%rax)
	call	*240(%rax)
.L2271:
	movq	6928(%rsi), %rcx
	testq	%rcx, %rcx
	je	.L2272
	movq	GImGui(%rip), %rax
	subl	$1, 844(%rax)
	call	*240(%rax)
.L2272:
	leaq	6392(%rsi), %rcx
	call	_ZN10ImDrawListD1Ev
	leaq	6368(%rsi), %rbx
	leaq	6320(%rsi), %rdi
	.p2align 4,,10
.L2273:
	movq	8(%rbx), %rcx
	testq	%rcx, %rcx
	je	.L2274
	movq	GImGui(%rip), %rax
	subq	$16, %rbx
	subl	$1, 844(%rax)
	call	*240(%rax)
	cmpq	%rbx, %rdi
	jne	.L2273
.L2275:
	movq	6208(%rsi), %rcx
	testq	%rcx, %rcx
	je	.L2277
	movq	GImGui(%rip), %rax
	subl	$1, 844(%rax)
	call	*240(%rax)
.L2277:
	movq	6192(%rsi), %rcx
	testq	%rcx, %rcx
	je	.L2278
	movq	GImGui(%rip), %rax
	subl	$1, 844(%rax)
	call	*240(%rax)
.L2278:
	movq	6176(%rsi), %rcx
	testq	%rcx, %rcx
	je	.L2279
	movq	GImGui(%rip), %rax
	subl	$1, 844(%rax)
	call	*240(%rax)
.L2279:
	movq	6160(%rsi), %rcx
	testq	%rcx, %rcx
	je	.L2280
	movq	GImGui(%rip), %rax
	subl	$1, 844(%rax)
	call	*240(%rax)
.L2280:
	movq	6144(%rsi), %rcx
	testq	%rcx, %rcx
	je	.L2281
	movq	GImGui(%rip), %rax
	subl	$1, 844(%rax)
	call	*240(%rax)
.L2281:
	movq	6120(%rsi), %rcx
	testq	%rcx, %rcx
	je	.L2282
	movq	GImGui(%rip), %rax
	subl	$1, 844(%rax)
	call	*240(%rax)
.L2282:
	movq	6024(%rsi), %rcx
	testq	%rcx, %rcx
	je	.L2283
	movq	GImGui(%rip), %rax
	subl	$1, 844(%rax)
	call	*240(%rax)
.L2283:
	movq	6000(%rsi), %rcx
	testq	%rcx, %rcx
	je	.L2284
	movq	GImGui(%rip), %rax
	subl	$1, 844(%rax)
	call	*240(%rax)
.L2284:
	movq	5984(%rsi), %rcx
	testq	%rcx, %rcx
	je	.L2268
	movq	GImGui(%rip), %rax
	subl	$1, 844(%rax)
	movq	240(%rax), %rax
	addq	$32, %rsp
	popq	%rbx
	popq	%rsi
	popq	%rdi
	rex.W jmp	*%rax
	.p2align 4,,10
.L2274:
	subq	$16, %rbx
	cmpq	%rdi, %rbx
	jne	.L2273
	jmp	.L2275
.L2268:
	addq	$32, %rsp
	popq	%rbx
	popq	%rsi
	popq	%rdi
	ret
	.seh_handler	__gxx_personality_seh0, @unwind, @except
	.seh_handlerdata
.LLSDA664:
	.byte	0xff
	.byte	0xff
	.byte	0x1
	.uleb128 .LLSDACSE664-.LLSDACSB664
.LLSDACSB664:
.LLSDACSE664:
	.section	.text$_ZN12ImGuiContextD1Ev,"x"
	.linkonce discard
	.seh_endproc
	.text
	.p2align 4,,15
	.def	__tcf_2;	.scl	3;	.type	32;	.endef
	.seh_proc	__tcf_2
__tcf_2:
.LFB6489:
	.seh_endprologue
	leaq	_ZL17GImDefaultContext(%rip), %rcx
	jmp	_ZN12ImGuiContextD1Ev
	.seh_endproc
	.p2align 4,,15
	.globl	_ZN5ImGui14DestroyContextEP12ImGuiContext
	.def	_ZN5ImGui14DestroyContextEP12ImGuiContext;	.scl	2;	.type	32;	.endef
	.seh_proc	_ZN5ImGui14DestroyContextEP12ImGuiContext
_ZN5ImGui14DestroyContextEP12ImGuiContext:
.LFB661:
	pushq	%rsi
	.seh_pushreg	%rsi
	pushq	%rbx
	.seh_pushreg	%rbx
	subq	$40, %rsp
	.seh_stackalloc	40
	.seh_endprologue
	movq	240(%rcx), %rsi
	movq	%rcx, %rbx
	call	_ZN12ImGuiContextD1Ev
	movq	%rbx, %rcx
	call	*%rsi
	cmpq	%rbx, GImGui(%rip)
	jne	.L2323
	movq	$0, GImGui(%rip)
.L2323:
	addq	$40, %rsp
	popq	%rbx
	popq	%rsi
	ret
	.seh_endproc
	.p2align 4,,15
	.globl	_ZN5ImGui5GetIOEv
	.def	_ZN5ImGui5GetIOEv;	.scl	2;	.type	32;	.endef
	.seh_proc	_ZN5ImGui5GetIOEv
_ZN5ImGui5GetIOEv:
.LFB665:
	.seh_endprologue
	movq	GImGui(%rip), %rax
	addq	$8, %rax
	ret
	.seh_endproc
	.p2align 4,,15
	.globl	_ZN5ImGui8GetStyleEv
	.def	_ZN5ImGui8GetStyleEv;	.scl	2;	.type	32;	.endef
	.seh_proc	_ZN5ImGui8GetStyleEv
_ZN5ImGui8GetStyleEv:
.LFB666:
	.seh_endprologue
	movq	GImGui(%rip), %rax
	addq	$5120, %rax
	ret
	.seh_endproc
	.p2align 4,,15
	.globl	_ZN5ImGui11GetDrawDataEv
	.def	_ZN5ImGui11GetDrawDataEv;	.scl	2;	.type	32;	.endef
	.seh_proc	_ZN5ImGui11GetDrawDataEv
_ZN5ImGui11GetDrawDataEv:
.LFB667:
	.seh_endprologue
	movq	GImGui(%rip), %rax
	cmpb	$0, 6304(%rax)
	je	.L2329
	addq	$6304, %rax
	ret
	.p2align 4,,10
.L2329:
	xorl	%eax, %eax
	ret
	.seh_endproc
	.p2align 4,,15
	.globl	_ZN5ImGui7GetTimeEv
	.def	_ZN5ImGui7GetTimeEv;	.scl	2;	.type	32;	.endef
	.seh_proc	_ZN5ImGui7GetTimeEv
_ZN5ImGui7GetTimeEv:
.LFB668:
	.seh_endprologue
	movq	GImGui(%rip), %rax
	movss	5960(%rax), %xmm0
	ret
	.seh_endproc
	.p2align 4,,15
	.globl	_ZN5ImGui13GetFrameCountEv
	.def	_ZN5ImGui13GetFrameCountEv;	.scl	2;	.type	32;	.endef
	.seh_proc	_ZN5ImGui13GetFrameCountEv
_ZN5ImGui13GetFrameCountEv:
.LFB669:
	.seh_endprologue
	movq	GImGui(%rip), %rax
	movl	5964(%rax), %eax
	ret
	.seh_endproc
	.p2align 4,,15
	.globl	_ZN5ImGui8ShutdownEv
	.def	_ZN5ImGui8ShutdownEv;	.scl	2;	.type	32;	.endef
	.seh_proc	_ZN5ImGui8ShutdownEv
_ZN5ImGui8ShutdownEv:
.LFB671:
	pushq	%r12
	.seh_pushreg	%r12
	pushq	%rbp
	.seh_pushreg	%rbp
	pushq	%rdi
	.seh_pushreg	%rdi
	pushq	%rsi
	.seh_pushreg	%rsi
	pushq	%rbx
	.seh_pushreg	%rbx
	subq	$32, %rsp
	.seh_stackalloc	32
	.seh_endprologue
	movq	GImGui(%rip), %rbx
	movq	144(%rbx), %rcx
	testq	%rcx, %rcx
	je	.L2333
.LEHB13:
	call	_ZN11ImFontAtlas5ClearEv
.L2333:
	cmpb	$0, (%rbx)
	jne	.L2428
	addq	$32, %rsp
	popq	%rbx
	popq	%rsi
	popq	%rdi
	popq	%rbp
	popq	%r12
	ret
	.p2align 4,,10
.L2428:
	movq	24(%rbx), %rcx
	call	_ZL21SaveIniSettingsToDiskPKc
	movl	5976(%rbx), %edx
	testl	%edx, %edx
	jle	.L2335
	leaq	.LC2(%rip), %r12
	xorl	%edi, %edi
	xorl	%esi, %esi
	leaq	.LC3(%rip), %rbp
	jmp	.L2336
	.p2align 4,,10
.L2337:
	movq	5984(%rbx), %rax
	movq	(%rax,%rdi), %rcx
	movq	GImGui(%rip), %rax
	testq	%rcx, %rcx
	je	.L2338
	subl	$1, 844(%rax)
.L2425:
	call	*240(%rax)
	addl	$1, %esi
	addq	$8, %rdi
	cmpl	%esi, 5976(%rbx)
	jle	.L2335
.L2336:
	movq	5984(%rbx), %rax
	movq	(%rax,%rdi), %rcx
	call	_ZN11ImGuiWindowD1Ev
	cmpl	%esi, 5976(%rbx)
	jg	.L2337
	movl	$856, %r8d
	movq	%r12, %rdx
	movq	%rbp, %rcx
	call	_assert
	jmp	.L2337
	.p2align 4,,10
.L2338:
	xorl	%ecx, %ecx
	jmp	.L2425
	.p2align 4,,10
.L2335:
	movq	5984(%rbx), %rcx
	testq	%rcx, %rcx
	je	.L2340
	movq	GImGui(%rip), %rax
	movq	$0, 5976(%rbx)
	subl	$1, 844(%rax)
	call	*240(%rax)
	movq	$0, 5984(%rbx)
.L2340:
	movq	6000(%rbx), %rcx
	testq	%rcx, %rcx
	je	.L2341
	movq	GImGui(%rip), %rax
	movq	$0, 5992(%rbx)
	subl	$1, 844(%rax)
	call	*240(%rax)
	movq	$0, 6000(%rbx)
.L2341:
	movq	6024(%rbx), %rcx
	movq	$0, 6008(%rbx)
	testq	%rcx, %rcx
	je	.L2342
	movq	GImGui(%rip), %rax
	movq	$0, 6016(%rbx)
	subl	$1, 844(%rax)
	call	*240(%rax)
	movq	$0, 6024(%rbx)
.L2342:
	movl	6112(%rbx), %eax
	movq	$0, 6032(%rbx)
	movq	$0, 6040(%rbx)
	movq	$0, 6048(%rbx)
	movq	$0, 6088(%rbx)
	testl	%eax, %eax
	movq	$0, 6096(%rbx)
	jle	.L2343
	xorl	%edi, %edi
	xorl	%esi, %esi
	jmp	.L2344
	.p2align 4,,10
.L2429:
	subl	$1, 844(%rax)
.L2427:
	call	*240(%rax)
	addl	$1, %esi
	addq	$32, %rdi
	cmpl	%esi, 6112(%rbx)
	jle	.L2343
.L2344:
	movq	6120(%rbx), %rax
	movq	(%rax,%rdi), %rcx
	movq	GImGui(%rip), %rax
	testq	%rcx, %rcx
	jne	.L2429
	xorl	%ecx, %ecx
	jmp	.L2427
	.p2align 4,,10
.L2343:
	movq	6120(%rbx), %rcx
	testq	%rcx, %rcx
	je	.L2347
	movq	GImGui(%rip), %rax
	movq	$0, 6112(%rbx)
	subl	$1, 844(%rax)
	call	*240(%rax)
	movq	$0, 6120(%rbx)
.L2347:
	movq	6144(%rbx), %rcx
	testq	%rcx, %rcx
	je	.L2348
	movq	GImGui(%rip), %rax
	movq	$0, 6136(%rbx)
	subl	$1, 844(%rax)
	call	*240(%rax)
	movq	$0, 6144(%rbx)
.L2348:
	movq	6160(%rbx), %rcx
	testq	%rcx, %rcx
	je	.L2349
	movq	GImGui(%rip), %rax
	movq	$0, 6152(%rbx)
	subl	$1, 844(%rax)
	call	*240(%rax)
	movq	$0, 6160(%rbx)
.L2349:
	movq	6176(%rbx), %rcx
	testq	%rcx, %rcx
	je	.L2350
	movq	GImGui(%rip), %rax
	movq	$0, 6168(%rbx)
	subl	$1, 844(%rax)
	call	*240(%rax)
	movq	$0, 6176(%rbx)
.L2350:
	movq	6192(%rbx), %rcx
	testq	%rcx, %rcx
	je	.L2351
	movq	GImGui(%rip), %rax
	movq	$0, 6184(%rbx)
	subl	$1, 844(%rax)
	call	*240(%rax)
	movq	$0, 6192(%rbx)
.L2351:
	movq	6208(%rbx), %rcx
	testq	%rcx, %rcx
	je	.L2352
	movq	GImGui(%rip), %rax
	movq	$0, 6200(%rbx)
	subl	$1, 844(%rax)
	call	*240(%rax)
	movq	$0, 6208(%rbx)
.L2352:
	leaq	6336(%rbx), %rsi
	movq	$0, 6280(%rbx)
	leaq	6384(%rbx), %rdi
	movq	$0, 6288(%rbx)
.L2354:
	movq	8(%rsi), %rcx
	testq	%rcx, %rcx
	je	.L2353
	movq	GImGui(%rip), %rax
	movl	$0, 4(%rsi)
	movl	$0, (%rsi)
	subl	$1, 844(%rax)
	call	*240(%rax)
	movq	$0, 8(%rsi)
.L2353:
	addq	$16, %rsi
	cmpq	%rsi, %rdi
	jne	.L2354
	leaq	6392(%rbx), %rcx
	call	_ZN10ImDrawList15ClearFreeMemoryEv
	movq	10344(%rbx), %rcx
	testq	%rcx, %rcx
	je	.L2355
	movq	GImGui(%rip), %rax
	movq	$0, 10336(%rbx)
	subl	$1, 844(%rax)
	call	*240(%rax)
	movq	$0, 10344(%rbx)
.L2355:
	movq	11408(%rbx), %rcx
	testq	%rcx, %rcx
	je	.L2356
	movq	GImGui(%rip), %rax
	subl	$1, 844(%rax)
	call	*240(%rax)
	movq	$0, 11408(%rbx)
.L2356:
	movq	6928(%rbx), %rcx
	testq	%rcx, %rcx
	je	.L2357
	movq	GImGui(%rip), %rax
	movq	$0, 6920(%rbx)
	subl	$1, 844(%rax)
	call	*240(%rax)
	movq	$0, 6928(%rbx)
.L2357:
	movq	6944(%rbx), %rcx
	testq	%rcx, %rcx
	je	.L2358
	movq	GImGui(%rip), %rax
	movq	$0, 6936(%rbx)
	subl	$1, 844(%rax)
	call	*240(%rax)
	movq	$0, 6944(%rbx)
.L2358:
	movq	6960(%rbx), %rcx
	testq	%rcx, %rcx
	je	.L2359
	movq	GImGui(%rip), %rax
	movq	$0, 6952(%rbx)
	subl	$1, 844(%rax)
	call	*240(%rax)
	movq	$0, 6960(%rbx)
.L2359:
	movq	11440(%rbx), %rsi
	testq	%rsi, %rsi
	je	.L2361
	call	*__imp___iob_func(%rip)
	addq	$48, %rax
	cmpq	%rax, %rsi
	je	.L2361
	movq	11440(%rbx), %rcx
	call	fclose
.LEHE13:
	movq	$0, 11440(%rbx)
.L2361:
	movq	11448(%rbx), %rdx
	testq	%rdx, %rdx
	je	.L2363
	movq	8(%rdx), %rcx
	movq	GImGui(%rip), %rax
	testq	%rcx, %rcx
	je	.L2364
	subl	$1, 844(%rax)
	call	*240(%rax)
	movq	GImGui(%rip), %rax
	movq	11448(%rbx), %rdx
.L2364:
	testq	%rdx, %rdx
	je	.L2365
	subl	$1, 844(%rax)
.L2365:
	movq	%rdx, %rcx
.LEHB14:
	call	*240(%rax)
.LEHE14:
.L2363:
	movb	$0, (%rbx)
	addq	$32, %rsp
	popq	%rbx
	popq	%rsi
	popq	%rdi
	popq	%rbp
	popq	%r12
	ret
	.seh_handler	__gxx_personality_seh0, @unwind, @except
	.seh_handlerdata
.LLSDA671:
	.byte	0xff
	.byte	0xff
	.byte	0x1
	.uleb128 .LLSDACSE671-.LLSDACSB671
.LLSDACSB671:
	.uleb128 .LEHB13-.LFB671
	.uleb128 .LEHE13-.LEHB13
	.uleb128 0
	.uleb128 0
	.uleb128 .LEHB14-.LFB671
	.uleb128 .LEHE14-.LEHB14
	.uleb128 0
	.uleb128 0
.LLSDACSE671:
	.text
	.seh_endproc
	.p2align 4,,15
	.globl	_ZN5ImGui12PushClipRectERK6ImVec2S2_b
	.def	_ZN5ImGui12PushClipRectERK6ImVec2S2_b;	.scl	2;	.type	32;	.endef
	.seh_proc	_ZN5ImGui12PushClipRectERK6ImVec2S2_b
_ZN5ImGui12PushClipRectERK6ImVec2S2_b:
.LFB684:
	pushq	%rsi
	.seh_pushreg	%rsi
	pushq	%rbx
	.seh_pushreg	%rbx
	subq	$40, %rsp
	.seh_stackalloc	40
	.seh_endprologue
	movq	GImGui(%rip), %rax
	movq	6008(%rax), %r9
	movb	$1, 138(%r9)
	movq	6008(%rax), %rbx
	movzbl	%r8b, %r9d
	movq	(%rdx), %r8
	movq	(%rcx), %rdx
	movq	656(%rbx), %rcx
	call	_ZN10ImDrawList12PushClipRectE6ImVec2S0_b
	movq	656(%rbx), %rsi
	movslq	80(%rsi), %rax
	testl	%eax, %eax
	jle	.L2432
.L2431:
	salq	$4, %rax
	addq	88(%rsi), %rax
	pxor	%xmm0, %xmm0
	movlps	-16(%rax), %xmm0
	movhps	-8(%rax), %xmm0
	movlps	%xmm0, 512(%rbx)
	movhps	%xmm0, 520(%rbx)
	addq	$40, %rsp
	popq	%rbx
	popq	%rsi
	ret
	.p2align 4,,10
.L2432:
	leaq	.LC2(%rip), %rdx
	movl	$866, %r8d
	leaq	.LC4(%rip), %rcx
	call	_assert
	movslq	80(%rsi), %rax
	jmp	.L2431
	.seh_endproc
	.p2align 4,,15
	.globl	_ZN5ImGui11PopClipRectEv
	.def	_ZN5ImGui11PopClipRectEv;	.scl	2;	.type	32;	.endef
	.seh_proc	_ZN5ImGui11PopClipRectEv
_ZN5ImGui11PopClipRectEv:
.LFB685:
	pushq	%rsi
	.seh_pushreg	%rsi
	pushq	%rbx
	.seh_pushreg	%rbx
	subq	$40, %rsp
	.seh_stackalloc	40
	.seh_endprologue
	movq	GImGui(%rip), %rax
	movq	6008(%rax), %rdx
	movb	$1, 138(%rdx)
	movq	6008(%rax), %rbx
	movq	656(%rbx), %rcx
	call	_ZN10ImDrawList11PopClipRectEv
	movq	656(%rbx), %rsi
	movslq	80(%rsi), %rax
	testl	%eax, %eax
	jle	.L2435
.L2434:
	salq	$4, %rax
	addq	88(%rsi), %rax
	pxor	%xmm0, %xmm0
	movlps	-16(%rax), %xmm0
	movhps	-8(%rax), %xmm0
	movlps	%xmm0, 512(%rbx)
	movhps	%xmm0, 520(%rbx)
	addq	$40, %rsp
	popq	%rbx
	popq	%rsi
	ret
	.p2align 4,,10
.L2435:
	leaq	.LC2(%rip), %rdx
	movl	$866, %r8d
	leaq	.LC4(%rip), %rcx
	call	_assert
	movslq	80(%rsi), %rax
	jmp	.L2434
	.seh_endproc
	.p2align 4,,15
	.globl	_ZN5ImGui19FindRenderedTextEndEPKcS1_
	.def	_ZN5ImGui19FindRenderedTextEndEPKcS1_;	.scl	2;	.type	32;	.endef
	.seh_proc	_ZN5ImGui19FindRenderedTextEndEPKcS1_
_ZN5ImGui19FindRenderedTextEndEPKcS1_:
.LFB688:
	.seh_endprologue
	movq	%rcx, %rax
	testq	%rdx, %rdx
	movq	$-1, %rcx
	cmove	%rcx, %rdx
	cmpq	%rax, %rdx
	ja	.L2441
	jmp	.L2438
	.p2align 4,,10
.L2440:
	addq	$1, %rax
	cmpq	%rax, %rdx
	je	.L2438
.L2441:
	movzbl	(%rax), %ecx
	testb	%cl, %cl
	je	.L2438
	cmpb	$35, %cl
	jne	.L2440
	cmpb	$35, 1(%rax)
	jne	.L2440
.L2438:
	ret
	.seh_endproc
	.p2align 4,,15
	.globl	_ZN5ImGui7LogTextEPKcz
	.def	_ZN5ImGui7LogTextEPKcz;	.scl	2;	.type	32;	.endef
	.seh_proc	_ZN5ImGui7LogTextEPKcz
_ZN5ImGui7LogTextEPKcz:
.LFB689:
	subq	$56, %rsp
	.seh_stackalloc	56
	.seh_endprologue
	movq	GImGui(%rip), %rax
	movq	%rdx, 72(%rsp)
	movq	%r8, 80(%rsp)
	movq	%r9, 88(%rsp)
	cmpb	$0, 11432(%rax)
	jne	.L2453
.L2448:
	addq	$56, %rsp
	ret
	.p2align 4,,10
.L2453:
	movq	11440(%rax), %r9
	leaq	72(%rsp), %r8
	movq	%r8, 40(%rsp)
	testq	%r9, %r9
	je	.L2450
	movq	%rcx, %rdx
	movq	%r9, %rcx
	call	__mingw_vfprintf
	nop
	addq	$56, %rsp
	ret
	.p2align 4,,10
.L2450:
	movq	11448(%rax), %rax
	movq	%rcx, %rdx
	movq	%rax, %rcx
	call	_ZN15ImGuiTextBuffer7appendvEPKcPc
	jmp	.L2448
	.seh_endproc
	.section .rdata,"dr"
.LC106:
	.ascii "\15\12%*s%.*s\0"
.LC107:
	.ascii " %.*s\0"
	.text
	.p2align 4,,15
	.def	_ZL15LogRenderedTextRK6ImVec2PKcS3_;	.scl	3;	.type	32;	.endef
	.seh_proc	_ZL15LogRenderedTextRK6ImVec2PKcS3_
_ZL15LogRenderedTextRK6ImVec2PKcS3_:
.LFB690:
	pushq	%r14
	.seh_pushreg	%r14
	pushq	%r13
	.seh_pushreg	%r13
	pushq	%r12
	.seh_pushreg	%r12
	pushq	%rbp
	.seh_pushreg	%rbp
	pushq	%rdi
	.seh_pushreg	%rdi
	pushq	%rsi
	.seh_pushreg	%rsi
	pushq	%rbx
	.seh_pushreg	%rbx
	subq	$48, %rsp
	.seh_stackalloc	48
	.seh_endprologue
	movq	%r8, %rsi
	movq	GImGui(%rip), %r8
	movq	%rdx, %r12
	testq	%rsi, %rsi
	movq	6008(%r8), %rdx
	je	.L2480
.L2455:
	movss	4(%rcx), %xmm1
	movss	.LC18(%rip), %xmm0
	addss	240(%rdx), %xmm0
	movss	%xmm1, 240(%rdx)
	movl	244(%rdx), %ebp
	movl	11456(%r8), %eax
	ucomiss	%xmm0, %xmm1
	seta	%r13b
	cmpl	%ebp, %eax
	jle	.L2459
	movl	%ebp, 11456(%r8)
	movl	%ebp, %eax
	movl	244(%rdx), %ebp
.L2459:
	leaq	.LC98(%rip), %r14
	subl	%eax, %ebp
	movq	%r12, %r8
	sall	$2, %ebp
	cmpq	%r8, %rsi
	jbe	.L2460
	.p2align 4,,10
.L2482:
	cmpb	$10, (%r8)
	je	.L2473
	movq	%r8, %rbx
	jmp	.L2462
	.p2align 4,,10
.L2463:
	cmpb	$10, (%rbx)
	je	.L2481
.L2462:
	addq	$1, %rbx
	cmpq	%rbx, %rsi
	jne	.L2463
	cmpq	%r8, %rsi
	movq	%rsi, %rdx
	setne	%dil
.L2464:
	testb	%dil, %dil
	jne	.L2470
.L2454:
	addq	$48, %rsp
	popq	%rbx
	popq	%rsi
	popq	%rdi
	popq	%rbp
	popq	%r12
	popq	%r13
	popq	%r14
	ret
	.p2align 4,,10
.L2481:
	movq	%rbx, %rdx
.L2461:
	xorl	%edi, %edi
.L2470:
	subq	%r8, %rdx
	cmpq	%r12, %r8
	jne	.L2474
	testb	%r13b, %r13b
	jne	.L2474
	leaq	.LC107(%rip), %rcx
	call	_ZN5ImGui7LogTextEPKcz
.L2467:
	testb	%dil, %dil
	jne	.L2454
	leaq	1(%rbx), %r8
	cmpq	%r8, %rsi
	ja	.L2482
.L2460:
	movq	%rsi, %rdx
	setne	%dil
	movq	%rsi, %rbx
	jmp	.L2464
	.p2align 4,,10
.L2474:
	movq	%r8, 32(%rsp)
	movl	%edx, %r9d
	movq	%r14, %r8
	movl	%ebp, %edx
	leaq	.LC106(%rip), %rcx
	call	_ZN5ImGui7LogTextEPKcz
	jmp	.L2467
	.p2align 4,,10
.L2473:
	movq	%r8, %rdx
	movq	%r8, %rbx
	jmp	.L2461
.L2480:
	movq	$-1, %rsi
	cmpq	%rsi, %r12
	je	.L2455
	movzbl	(%r12), %eax
	movq	%r12, %rsi
	testb	%al, %al
	jne	.L2456
	jmp	.L2455
	.p2align 4,,10
.L2457:
	addq	$1, %rsi
	cmpq	$-1, %rsi
	je	.L2455
	movzbl	(%rsi), %eax
	testb	%al, %al
	je	.L2455
.L2456:
	cmpb	$35, %al
	jne	.L2457
	cmpb	$35, 1(%rsi)
	jne	.L2457
	jmp	.L2455
	.seh_endproc
	.p2align 4,,15
	.globl	_ZN5ImGui10RenderTextE6ImVec2PKcS2_b
	.def	_ZN5ImGui10RenderTextE6ImVec2PKcS2_b;	.scl	2;	.type	32;	.endef
	.seh_proc	_ZN5ImGui10RenderTextE6ImVec2PKcS2_b
_ZN5ImGui10RenderTextE6ImVec2PKcS2_b:
.LFB691:
	pushq	%rdi
	.seh_pushreg	%rdi
	pushq	%rsi
	.seh_pushreg	%rsi
	pushq	%rbx
	.seh_pushreg	%rbx
	subq	$80, %rsp
	.seh_stackalloc	80
	.seh_endprologue
	movq	GImGui(%rip), %rdi
	movq	6008(%rdi), %rax
	testb	%r9b, %r9b
	movq	%rcx, 112(%rsp)
	movq	%rdx, %rsi
	movq	%r8, %rbx
	movb	$1, 138(%rax)
	je	.L2484
	testq	%r8, %r8
	movq	$-1, %rdx
	cmovne	%r8, %rdx
	cmpq	%rdx, %rsi
	jnb	.L2483
	movzbl	(%rsi), %eax
	testb	%al, %al
	je	.L2483
	movq	%rsi, %rbx
	jmp	.L2487
	.p2align 4,,10
.L2489:
	addq	$1, %rbx
	cmpq	%rdx, %rbx
	je	.L2499
	movzbl	(%rbx), %eax
	testb	%al, %al
	je	.L2499
.L2487:
	cmpb	$35, %al
	jne	.L2489
	cmpb	$35, 1(%rbx)
	jne	.L2489
	.p2align 4,,10
.L2499:
	movl	%ebx, %eax
	subl	%esi, %eax
.L2488:
	testl	%eax, %eax
	jle	.L2483
	xorl	%ecx, %ecx
	call	_ZN5ImGui11GetColorU32Eif.constprop.144
	movq	6008(%rdi), %rcx
	leaq	112(%rsp), %r9
	movq	5936(%rdi), %rdx
	movss	5944(%rdi), %xmm2
	movq	656(%rcx), %rcx
	movl	$0x00000000, 56(%rsp)
	movq	$0, 64(%rsp)
	movq	%rbx, 48(%rsp)
	movq	%rsi, 40(%rsp)
	movl	%eax, 32(%rsp)
	call	_ZN10ImDrawList7AddTextEPK6ImFontfRK6ImVec2jPKcS7_fPK6ImVec4
	cmpb	$0, 11432(%rdi)
	jne	.L2500
.L2483:
	addq	$80, %rsp
	popq	%rbx
	popq	%rsi
	popq	%rdi
	ret
	.p2align 4,,10
.L2484:
	testq	%r8, %r8
	jne	.L2499
	movq	%rdx, %rcx
	call	strlen
	leaq	(%rsi,%rax), %rbx
	jmp	.L2488
	.p2align 4,,10
.L2500:
	leaq	112(%rsp), %rcx
	movq	%rbx, %r8
	movq	%rsi, %rdx
	call	_ZL15LogRenderedTextRK6ImVec2PKcS3_
	nop
	addq	$80, %rsp
	popq	%rbx
	popq	%rsi
	popq	%rdi
	ret
	.seh_endproc
	.p2align 4,,15
	.globl	_ZN5ImGui17RenderTextWrappedE6ImVec2PKcS2_f
	.def	_ZN5ImGui17RenderTextWrappedE6ImVec2PKcS2_f;	.scl	2;	.type	32;	.endef
	.seh_proc	_ZN5ImGui17RenderTextWrappedE6ImVec2PKcS2_f
_ZN5ImGui17RenderTextWrappedE6ImVec2PKcS2_f:
.LFB692:
	pushq	%rdi
	.seh_pushreg	%rdi
	pushq	%rsi
	.seh_pushreg	%rsi
	pushq	%rbx
	.seh_pushreg	%rbx
	subq	$96, %rsp
	.seh_stackalloc	96
	.seh_endprologue
	movq	GImGui(%rip), %rsi
	movq	6008(%rsi), %rax
	testq	%r8, %r8
	movq	%rcx, 128(%rsp)
	movq	%rdx, %rdi
	movq	%r8, %rbx
	movb	$1, 138(%rax)
	je	.L2506
.L2502:
	movq	%rbx, %rax
	movss	%xmm3, 92(%rsp)
	subq	%rdi, %rax
	testl	%eax, %eax
	jle	.L2501
	xorl	%ecx, %ecx
	call	_ZN5ImGui11GetColorU32Eif.constprop.144
	movq	6008(%rsi), %rcx
	leaq	128(%rsp), %r9
	movq	5936(%rsi), %rdx
	movss	92(%rsp), %xmm3
	movss	5944(%rsi), %xmm2
	movq	656(%rcx), %rcx
	movss	%xmm3, 56(%rsp)
	movq	$0, 64(%rsp)
	movq	%rbx, 48(%rsp)
	movq	%rdi, 40(%rsp)
	movl	%eax, 32(%rsp)
	call	_ZN10ImDrawList7AddTextEPK6ImFontfRK6ImVec2jPKcS7_fPK6ImVec4
	cmpb	$0, 11432(%rsi)
	jne	.L2507
.L2501:
	addq	$96, %rsp
	popq	%rbx
	popq	%rsi
	popq	%rdi
	ret
	.p2align 4,,10
.L2506:
	movq	%rdx, %rcx
	movss	%xmm3, 92(%rsp)
	call	strlen
	movss	92(%rsp), %xmm3
	leaq	(%rdi,%rax), %rbx
	jmp	.L2502
	.p2align 4,,10
.L2507:
	leaq	128(%rsp), %rcx
	movq	%rbx, %r8
	movq	%rdi, %rdx
	call	_ZL15LogRenderedTextRK6ImVec2PKcS3_
	nop
	addq	$96, %rsp
	popq	%rbx
	popq	%rsi
	popq	%rdi
	ret
	.seh_endproc
	.p2align 4,,15
	.globl	_ZN5ImGui11RenderFrameE6ImVec2S0_jbf
	.def	_ZN5ImGui11RenderFrameE6ImVec2S0_jbf;	.scl	2;	.type	32;	.endef
	.seh_proc	_ZN5ImGui11RenderFrameE6ImVec2S0_jbf
_ZN5ImGui11RenderFrameE6ImVec2S0_jbf:
.LFB694:
	pushq	%rdi
	.seh_pushreg	%rdi
	pushq	%rsi
	.seh_pushreg	%rsi
	pushq	%rbx
	.seh_pushreg	%rbx
	subq	$112, %rsp
	.seh_stackalloc	112
	movaps	%xmm6, 80(%rsp)
	.seh_savexmm	%xmm6, 80
	movaps	%xmm7, 96(%rsp)
	.seh_savexmm	%xmm7, 96
	.seh_endprologue
	movq	GImGui(%rip), %rax
	movss	176(%rsp), %xmm6
	movq	%rdx, 152(%rsp)
	movq	6008(%rax), %rdx
	leaq	152(%rsp), %rsi
	movl	%r9d, %edi
	movq	%rcx, 144(%rsp)
	movl	%r8d, %r9d
	movq	%rsi, %r8
	movb	$1, 138(%rdx)
	movq	6008(%rax), %rbx
	leaq	144(%rsp), %rdx
	movq	656(%rbx), %rcx
	movl	$-1, 40(%rsp)
	movss	%xmm6, 32(%rsp)
	call	_ZN10ImDrawList13AddRectFilledERK6ImVec2S2_jfi
	testb	%dil, %dil
	je	.L2508
	testb	$-128, 12(%rbx)
	jne	.L2513
.L2508:
	movaps	80(%rsp), %xmm6
	movaps	96(%rsp), %xmm7
	addq	$112, %rsp
	popq	%rbx
	popq	%rsi
	popq	%rdi
	ret
	.p2align 4,,10
.L2513:
	movl	$6, %ecx
	movq	656(%rbx), %r10
	call	_ZN5ImGui11GetColorU32Eif.constprop.144
	leaq	64(%rsp), %rdx
	movss	.LC18(%rip), %xmm7
	movl	$-1, 40(%rsp)
	leaq	72(%rsp), %r8
	movl	%eax, %r9d
	movss	%xmm6, 32(%rsp)
	movss	156(%rsp), %xmm0
	movss	152(%rsp), %xmm1
	movss	%xmm7, 48(%rsp)
	addss	%xmm7, %xmm0
	movq	%r10, %rcx
	addss	%xmm7, %xmm1
	movss	%xmm0, 76(%rsp)
	movss	148(%rsp), %xmm0
	movss	%xmm1, 72(%rsp)
	movss	144(%rsp), %xmm1
	addss	%xmm7, %xmm0
	addss	%xmm7, %xmm1
	movss	%xmm0, 68(%rsp)
	movss	%xmm1, 64(%rsp)
	call	_ZN10ImDrawList7AddRectERK6ImVec2S2_jfif
	movl	$5, %ecx
	call	_ZN5ImGui11GetColorU32Eif.constprop.144
	movq	656(%rbx), %rcx
	movq	%rsi, %r8
	movss	%xmm7, 48(%rsp)
	movl	%eax, %r9d
	movl	$-1, 40(%rsp)
	movss	%xmm6, 32(%rsp)
	leaq	144(%rsp), %rdx
	call	_ZN10ImDrawList7AddRectERK6ImVec2S2_jfif
	jmp	.L2508
	.seh_endproc
	.p2align 4,,15
	.globl	_ZN5ImGui22RenderCollapseTriangleE6ImVec2bf
	.def	_ZN5ImGui22RenderCollapseTriangleE6ImVec2bf;	.scl	2;	.type	32;	.endef
	.seh_proc	_ZN5ImGui22RenderCollapseTriangleE6ImVec2bf
_ZN5ImGui22RenderCollapseTriangleE6ImVec2bf:
.LFB695:
	subq	$88, %rsp
	.seh_stackalloc	88
	.seh_endprologue
	movq	GImGui(%rip), %rax
	movss	.LC108(%rip), %xmm0
	movq	6008(%rax), %r8
	movd	%ecx, %xmm1
	movb	$1, 138(%r8)
	movss	5944(%rax), %xmm3
	movq	6008(%rax), %r8
	movq	%rcx, %rax
	mulss	%xmm3, %xmm0
	shrq	$32, %rax
	testb	%dl, %dl
	mulss	.LC17(%rip), %xmm3
	movd	%eax, %xmm4
	mulss	%xmm2, %xmm0
	mulss	%xmm3, %xmm2
	addss	%xmm3, %xmm1
	movaps	%xmm0, %xmm3
	addss	%xmm4, %xmm2
	jne	.L2517
	addss	%xmm1, %xmm3
	movss	%xmm3, 56(%rsp)
	pxor	%xmm3, %xmm3
	mulss	%xmm0, %xmm3
	addss	%xmm2, %xmm3
	movss	%xmm3, 60(%rsp)
	movss	.LC110(%rip), %xmm3
	mulss	%xmm0, %xmm3
	addss	%xmm3, %xmm1
	movss	.LC112(%rip), %xmm3
	mulss	%xmm0, %xmm3
	mulss	.LC111(%rip), %xmm0
	movss	%xmm1, 64(%rsp)
	movss	%xmm1, 72(%rsp)
	addss	%xmm2, %xmm3
	addss	%xmm2, %xmm0
	movss	%xmm3, 68(%rsp)
	movss	%xmm0, 76(%rsp)
.L2516:
	xorl	%ecx, %ecx
	call	_ZN5ImGui11GetColorU32Eif.constprop.144
	leaq	56(%rsp), %rdx
	movq	656(%r8), %rcx
	leaq	72(%rsp), %r9
	movl	%eax, 32(%rsp)
	leaq	64(%rsp), %r8
	call	_ZN10ImDrawList17AddTriangleFilledERK6ImVec2S2_S2_j
	nop
	addq	$88, %rsp
	ret
	.p2align 4,,10
.L2517:
	mulss	.LC109(%rip), %xmm3
	subss	%xmm3, %xmm2
	pxor	%xmm3, %xmm3
	mulss	%xmm0, %xmm3
	addss	%xmm1, %xmm3
	movss	%xmm3, 56(%rsp)
	movaps	%xmm2, %xmm3
	addss	%xmm0, %xmm3
	movss	%xmm3, 60(%rsp)
	movss	.LC110(%rip), %xmm3
	mulss	%xmm0, %xmm3
	addss	%xmm3, %xmm2
	movss	.LC111(%rip), %xmm3
	mulss	%xmm0, %xmm3
	mulss	.LC112(%rip), %xmm0
	movss	%xmm2, 68(%rsp)
	movss	%xmm2, 76(%rsp)
	addss	%xmm1, %xmm3
	addss	%xmm1, %xmm0
	movss	%xmm3, 64(%rsp)
	movss	%xmm0, 72(%rsp)
	jmp	.L2516
	.seh_endproc
	.p2align 4,,15
	.globl	_ZN5ImGui12RenderBulletE6ImVec2
	.def	_ZN5ImGui12RenderBulletE6ImVec2;	.scl	2;	.type	32;	.endef
	.seh_proc	_ZN5ImGui12RenderBulletE6ImVec2
_ZN5ImGui12RenderBulletE6ImVec2:
.LFB696:
	subq	$56, %rsp
	.seh_stackalloc	56
	.seh_endprologue
	movq	GImGui(%rip), %r8
	movq	6008(%r8), %rax
	movq	%rcx, 64(%rsp)
	xorl	%ecx, %ecx
	movb	$1, 138(%rax)
	call	_ZN5ImGui11GetColorU32Eif.constprop.144
	movss	.LC113(%rip), %xmm2
	leaq	64(%rsp), %rdx
	mulss	5944(%r8), %xmm2
	movl	%eax, %r9d
	movq	6008(%r8), %rax
	movq	656(%rax), %rcx
	movl	$8, 32(%rsp)
	call	_ZN10ImDrawList15AddCircleFilledERK6ImVec2fji
	nop
	addq	$56, %rsp
	ret
	.seh_endproc
	.p2align 4,,15
	.globl	_ZN5ImGui15RenderCheckMarkE6ImVec2j
	.def	_ZN5ImGui15RenderCheckMarkE6ImVec2j;	.scl	2;	.type	32;	.endef
	.seh_proc	_ZN5ImGui15RenderCheckMarkE6ImVec2j
_ZN5ImGui15RenderCheckMarkE6ImVec2j:
.LFB697:
	pushq	%r12
	.seh_pushreg	%r12
	pushq	%rbp
	.seh_pushreg	%rbp
	pushq	%rdi
	.seh_pushreg	%rdi
	pushq	%rsi
	.seh_pushreg	%rsi
	pushq	%rbx
	.seh_pushreg	%rbx
	subq	$176, %rsp
	.seh_stackalloc	176
	movaps	%xmm6, 64(%rsp)
	.seh_savexmm	%xmm6, 64
	movaps	%xmm7, 80(%rsp)
	.seh_savexmm	%xmm7, 80
	movaps	%xmm8, 96(%rsp)
	.seh_savexmm	%xmm8, 96
	movaps	%xmm9, 112(%rsp)
	.seh_savexmm	%xmm9, 112
	movaps	%xmm10, 128(%rsp)
	.seh_savexmm	%xmm10, 128
	movaps	%xmm11, 144(%rsp)
	.seh_savexmm	%xmm11, 144
	movaps	%xmm12, 160(%rsp)
	.seh_savexmm	%xmm12, 160
	.seh_endprologue
	movq	GImGui(%rip), %r8
	pxor	%xmm2, %xmm2
	movss	.LC114(%rip), %xmm1
	movss	.LC17(%rip), %xmm3
	movss	.LC115(%rip), %xmm8
	movq	6008(%r8), %rax
	movss	.LC18(%rip), %xmm10
	movl	%edx, %esi
	movd	%ecx, %xmm7
	shrq	$32, %rcx
	movq	%rcx, %xmm6
	addss	%xmm3, %xmm7
	movb	$1, 138(%rax)
	movq	5936(%r8), %rdx
	subss	%xmm10, %xmm6
	movss	5944(%r8), %xmm0
	movq	6008(%r8), %rbx
	mulss	%xmm0, %xmm1
	movq	656(%rbx), %rdi
	addss	%xmm3, %xmm1
	cvttss2si	%xmm1, %eax
	movaps	%xmm0, %xmm1
	divss	(%rdx), %xmm0
	mulss	96(%rdx), %xmm0
	cvtsi2ss	%eax, %xmm2
	addss	%xmm3, %xmm0
	subss	%xmm2, %xmm1
	addss	%xmm2, %xmm7
	divss	%xmm8, %xmm1
	movaps	%xmm7, %xmm9
	cvttss2si	%xmm1, %eax
	pxor	%xmm1, %xmm1
	cvtsi2ss	%eax, %xmm1
	cvttss2si	%xmm0, %eax
	pxor	%xmm0, %xmm0
	mulss	%xmm1, %xmm8
	addss	%xmm1, %xmm9
	cvtsi2ss	%eax, %xmm0
	cvttss2si	12(%rdx), %eax
	movl	116(%rdi), %edx
	addss	%xmm7, %xmm8
	addss	%xmm0, %xmm6
	pxor	%xmm0, %xmm0
	cvtsi2ss	%eax, %xmm0
	movslq	112(%rdi), %rax
	addss	%xmm0, %xmm6
	cmpl	%edx, %eax
	movaps	%xmm6, %xmm12
	movaps	%xmm6, %xmm11
	subss	%xmm1, %xmm12
	addss	%xmm1, %xmm1
	subss	%xmm1, %xmm11
	je	.L2520
	movq	120(%rdi), %r12
	movq	%rdi, %rbp
.L2521:
	leal	1(%rax), %ecx
	leaq	(%r12,%rax,8), %rax
	movl	%ecx, 112(%rdi)
	movss	%xmm7, (%rax)
	movss	%xmm12, 4(%rax)
	movslq	112(%rbp), %rax
	cmpl	%edx, %eax
	je	.L2526
	movq	120(%rbp), %r12
	movq	%rbp, %rdi
.L2527:
	leal	1(%rax), %ecx
	leaq	(%r12,%rax,8), %rax
	movl	%ecx, 112(%rbp)
	movss	%xmm9, (%rax)
	movss	%xmm6, 4(%rax)
	movslq	112(%rdi), %rax
	cmpl	%edx, %eax
	je	.L2532
	movq	120(%rdi), %rbp
	movq	%rdi, %rbx
	movq	%rbp, %rdx
.L2533:
	leal	1(%rax), %ecx
	movl	%esi, %r9d
	movl	%ecx, 112(%rdi)
	movl	112(%rbx), %r8d
	leaq	0(%rbp,%rax,8), %rax
	movq	%rbx, %rcx
	movss	%xmm8, (%rax)
	movss	%xmm11, 4(%rax)
	movl	$1, 48(%rsp)
	movss	%xmm10, 40(%rsp)
	movl	$0, 32(%rsp)
	call	_ZN10ImDrawList11AddPolylineEPK6ImVec2ijbfb
	movl	116(%rbx), %eax
	testl	%eax, %eax
	jns	.L2538
	movq	GImGui(%rip), %rax
	xorl	%ecx, %ecx
	addl	$1, 844(%rax)
	call	*232(%rax)
	movq	120(%rbx), %rcx
	movq	%rax, %rsi
	movq	GImGui(%rip), %rax
	testq	%rcx, %rcx
	je	.L2541
	movslq	112(%rbx), %r8
	movq	%rcx, %rdx
	movq	%rsi, %rcx
	salq	$3, %r8
	call	memcpy
	movq	120(%rbx), %rcx
	movq	GImGui(%rip), %rax
	testq	%rcx, %rcx
	je	.L2541
	subl	$1, 844(%rax)
.L2541:
	call	*240(%rax)
	movq	%rsi, 120(%rbx)
	movl	$0, 116(%rbx)
.L2538:
	movl	$0, 112(%rbx)
	movaps	64(%rsp), %xmm6
	movaps	80(%rsp), %xmm7
	movaps	96(%rsp), %xmm8
	movaps	112(%rsp), %xmm9
	movaps	128(%rsp), %xmm10
	movaps	144(%rsp), %xmm11
	movaps	160(%rsp), %xmm12
	addq	$176, %rsp
	popq	%rbx
	popq	%rsi
	popq	%rdi
	popq	%rbp
	popq	%r12
	ret
	.p2align 4,,10
.L2520:
	leal	1(%rax), %ebp
	testl	%eax, %eax
	movl	$8, %edx
	jne	.L2552
.L2522:
	cmpl	%edx, %ebp
	cmovl	%edx, %ebp
	addl	$1, 844(%r8)
	movslq	%ebp, %rcx
	salq	$3, %rcx
	call	*232(%r8)
	movq	120(%rdi), %rcx
	movq	%rax, %r12
	movq	GImGui(%rip), %rax
	testq	%rcx, %rcx
	je	.L2525
	movslq	112(%rdi), %r8
	movq	%rcx, %rdx
	movq	%r12, %rcx
	salq	$3, %r8
	call	memcpy
	movq	120(%rdi), %rcx
	movq	GImGui(%rip), %rax
	testq	%rcx, %rcx
	je	.L2525
	subl	$1, 844(%rax)
.L2525:
	call	*240(%rax)
	movl	%ebp, 116(%rdi)
	movslq	112(%rdi), %rax
	movq	656(%rbx), %rbp
	movq	%r12, 120(%rdi)
	movl	116(%rbp), %edx
	jmp	.L2521
	.p2align 4,,10
.L2532:
	leal	1(%rdx), %r12d
	testl	%edx, %edx
	movl	$8, %eax
	jne	.L2553
.L2534:
	cmpl	%eax, %r12d
	cmovl	%eax, %r12d
	movq	GImGui(%rip), %rax
	movslq	%r12d, %rcx
	salq	$3, %rcx
	addl	$1, 844(%rax)
	call	*232(%rax)
	movq	120(%rdi), %rcx
	movq	%rax, %rbp
	movq	GImGui(%rip), %rax
	testq	%rcx, %rcx
	je	.L2537
	movslq	112(%rdi), %r8
	movq	%rcx, %rdx
	movq	%rbp, %rcx
	salq	$3, %r8
	call	memcpy
	movq	120(%rdi), %rcx
	movq	GImGui(%rip), %rax
	testq	%rcx, %rcx
	je	.L2537
	subl	$1, 844(%rax)
.L2537:
	call	*240(%rax)
	movq	%rbp, 120(%rdi)
	movslq	112(%rdi), %rax
	movq	656(%rbx), %rbx
	movl	%r12d, 116(%rdi)
	movq	120(%rbx), %rdx
	jmp	.L2533
	.p2align 4,,10
.L2526:
	leal	1(%rdx), %edi
	testl	%edx, %edx
	movl	$8, %eax
	jne	.L2554
.L2528:
	cmpl	%eax, %edi
	cmovl	%eax, %edi
	movq	GImGui(%rip), %rax
	movslq	%edi, %rcx
	salq	$3, %rcx
	addl	$1, 844(%rax)
	call	*232(%rax)
	movq	120(%rbp), %rcx
	movq	%rax, %r12
	movq	GImGui(%rip), %rax
	testq	%rcx, %rcx
	je	.L2531
	movslq	112(%rbp), %r8
	movq	%rcx, %rdx
	movq	%r12, %rcx
	salq	$3, %r8
	call	memcpy
	movq	120(%rbp), %rcx
	movq	GImGui(%rip), %rax
	testq	%rcx, %rcx
	je	.L2531
	subl	$1, 844(%rax)
.L2531:
	call	*240(%rax)
	movl	%edi, 116(%rbp)
	movslq	112(%rbp), %rax
	movq	656(%rbx), %rdi
	movq	%r12, 120(%rbp)
	movl	116(%rdi), %edx
	jmp	.L2527
	.p2align 4,,10
.L2554:
	movl	%edx, %eax
	shrl	$31, %eax
	addl	%edx, %eax
	sarl	%eax
	addl	%edx, %eax
	jmp	.L2528
	.p2align 4,,10
.L2553:
	movl	%edx, %eax
	shrl	$31, %eax
	addl	%edx, %eax
	sarl	%eax
	addl	%edx, %eax
	jmp	.L2534
	.p2align 4,,10
.L2552:
	movl	%eax, %edx
	shrl	$31, %edx
	addl	%eax, %edx
	sarl	%edx
	addl	%eax, %edx
	jmp	.L2522
	.seh_endproc
	.p2align 4,,15
	.globl	_ZN5ImGui12CalcTextSizeEPKcS1_bf
	.def	_ZN5ImGui12CalcTextSizeEPKcS1_bf;	.scl	2;	.type	32;	.endef
	.seh_proc	_ZN5ImGui12CalcTextSizeEPKcS1_bf
_ZN5ImGui12CalcTextSizeEPKcS1_bf:
.LFB698:
	pushq	%rbx
	.seh_pushreg	%rbx
	subq	$80, %rsp
	.seh_stackalloc	80
	movaps	%xmm6, 64(%rsp)
	.seh_savexmm	%xmm6, 64
	.seh_endprologue
	movq	GImGui(%rip), %r9
	testb	%r8b, %r8b
	je	.L2556
	testq	%rdx, %rdx
	movq	$-1, %r8
	cmovne	%rdx, %r8
	cmpq	%r8, %rcx
	jnb	.L2558
	movzbl	(%rcx), %eax
	testb	%al, %al
	je	.L2558
	movq	%rcx, %rdx
	jmp	.L2559
	.p2align 4,,10
.L2560:
	addq	$1, %rdx
	cmpq	%r8, %rdx
	je	.L2556
	movzbl	(%rdx), %eax
	testb	%al, %al
	je	.L2556
.L2559:
	cmpb	$35, %al
	jne	.L2560
	cmpb	$35, 1(%rdx)
	jne	.L2560
	.p2align 4,,10
.L2556:
	movss	5944(%r9), %xmm6
	cmpq	%rcx, %rdx
	je	.L2566
	movq	5936(%r9), %rbx
	movaps	%xmm6, %xmm1
	movq	%rcx, 32(%rsp)
	movss	.LC90(%rip), %xmm2
	movq	%rdx, 40(%rsp)
	movq	$0, 48(%rsp)
	movq	%rbx, %rcx
	call	_ZNK6ImFont13CalcTextSizeAEfffPKcS1_PS1_
	movss	(%rbx), %xmm1
	movd	%eax, %xmm0
	ucomiss	.LC0(%rip), %xmm0
	jbe	.L2564
	divss	%xmm1, %xmm6
	subss	%xmm6, %xmm0
.L2564:
	addss	.LC116(%rip), %xmm0
	pxor	%xmm4, %xmm4
	movaps	64(%rsp), %xmm6
	cvttss2si	%xmm0, %ecx
	cvtsi2ss	%ecx, %xmm4
	movabsq	$-4294967296, %rcx
	andq	%rcx, %rax
	movd	%xmm4, %edx
	movl	%edx, %edx
	orq	%rdx, %rax
	addq	$80, %rsp
	popq	%rbx
	ret
	.p2align 4,,10
.L2558:
	movss	5944(%r9), %xmm6
.L2566:
	movd	%xmm6, %eax
	movaps	64(%rsp), %xmm6
	salq	$32, %rax
	addq	$80, %rsp
	popq	%rbx
	ret
	.seh_endproc
	.p2align 4,,15
	.globl	_ZN5ImGui17RenderTextClippedERK6ImVec2S2_PKcS4_PS1_S2_PK6ImRect
	.def	_ZN5ImGui17RenderTextClippedERK6ImVec2S2_PKcS4_PS1_S2_PK6ImRect;	.scl	2;	.type	32;	.endef
	.seh_proc	_ZN5ImGui17RenderTextClippedERK6ImVec2S2_PKcS4_PS1_S2_PK6ImRect
_ZN5ImGui17RenderTextClippedERK6ImVec2S2_PKcS4_PS1_S2_PK6ImRect:
.LFB693:
	pushq	%r14
	.seh_pushreg	%r14
	pushq	%r13
	.seh_pushreg	%r13
	pushq	%r12
	.seh_pushreg	%r12
	pushq	%rbp
	.seh_pushreg	%rbp
	pushq	%rdi
	.seh_pushreg	%rdi
	pushq	%rsi
	.seh_pushreg	%rsi
	pushq	%rbx
	.seh_pushreg	%rbx
	subq	$160, %rsp
	.seh_stackalloc	160
	movaps	%xmm6, 128(%rsp)
	.seh_savexmm	%xmm6, 128
	movaps	%xmm7, 144(%rsp)
	.seh_savexmm	%xmm7, 144
	.seh_endprologue
	movq	$-1, %rax
	movq	272(%rsp), %r14
	testq	%r9, %r9
	movq	%rdx, %r12
	movq	%rcx, %rbp
	movq	256(%rsp), %rdx
	cmove	%rax, %r9
	movq	%r8, %rsi
	cmpq	%r9, %r8
	jnb	.L2576
	movzbl	(%r8), %eax
	testb	%al, %al
	je	.L2576
	movq	%r8, %rbx
	jmp	.L2579
	.p2align 4,,10
.L2581:
	addq	$1, %rbx
	cmpq	%r9, %rbx
	je	.L2619
	movzbl	(%rbx), %eax
	testb	%al, %al
	je	.L2619
.L2579:
	cmpb	$35, %al
	jne	.L2581
	cmpb	$35, 1(%rbx)
	jne	.L2581
	.p2align 4,,10
.L2619:
	movl	%ebx, %eax
	subl	%esi, %eax
	testl	%eax, %eax
	je	.L2576
	movq	GImGui(%rip), %rdi
	testq	%rdx, %rdx
	movq	6008(%rdi), %rax
	movb	$1, 138(%rax)
	movq	0(%rbp), %rax
	movq	6008(%rdi), %r13
	movq	%rax, 104(%rsp)
	je	.L2583
	movss	(%rdx), %xmm7
	movss	4(%rdx), %xmm4
.L2584:
	movss	104(%rsp), %xmm2
	movaps	%xmm7, %xmm0
	testq	%r14, %r14
	addss	%xmm2, %xmm0
	je	.L2585
	movss	8(%r14), %xmm5
	movq	%r14, %rbp
	movl	$1, %edx
	leaq	8(%r14), %rcx
	ucomiss	%xmm5, %xmm0
	jnb	.L2601
	movss	108(%rsp), %xmm0
	addss	%xmm4, %xmm0
	ucomiss	12(%r14), %xmm0
	setnb	%dl
.L2601:
	movss	(%r14), %xmm0
	movl	$1, %eax
	ucomiss	%xmm2, %xmm0
	jbe	.L2621
.L2599:
	movq	264(%rsp), %rdx
	pxor	%xmm3, %xmm3
	movss	(%rdx), %xmm6
	ucomiss	%xmm3, %xmm6
	jbe	.L2589
	movss	(%r12), %xmm1
	subss	%xmm2, %xmm1
	movaps	%xmm1, %xmm0
	subss	%xmm7, %xmm0
	mulss	%xmm6, %xmm0
	addss	%xmm2, %xmm0
	ucomiss	%xmm0, %xmm2
	jnb	.L2622
.L2591:
	movq	264(%rsp), %rdx
	movss	%xmm0, 104(%rsp)
.L2589:
	movss	4(%rdx), %xmm2
	ucomiss	%xmm3, %xmm2
	jbe	.L2593
	movss	108(%rsp), %xmm1
	movss	4(%r12), %xmm0
	subss	%xmm1, %xmm0
	subss	%xmm4, %xmm0
	mulss	%xmm2, %xmm0
	addss	%xmm1, %xmm0
	ucomiss	%xmm0, %xmm1
	jnb	.L2623
.L2595:
	movss	%xmm0, 108(%rsp)
.L2593:
	movss	5944(%rdi), %xmm2
	testb	%al, %al
	movq	656(%r13), %r8
	movq	5936(%rdi), %r10
	movss	%xmm2, 92(%rsp)
	je	.L2597
	movss	4(%rcx), %xmm0
	xorl	%ecx, %ecx
	movss	%xmm5, 120(%rsp)
	movss	4(%rbp), %xmm1
	movss	0(%rbp), %xmm3
	movss	%xmm0, 124(%rsp)
	leaq	104(%rsp), %rbp
	movss	%xmm1, 116(%rsp)
	movss	%xmm3, 112(%rsp)
	call	_ZN5ImGui11GetColorU32Eif.constprop.144
	leaq	112(%rsp), %rdx
	movq	%rdx, 64(%rsp)
.L2620:
	movss	92(%rsp), %xmm2
	movl	%eax, 32(%rsp)
	movq	%rbp, %r9
	movq	%r10, %rdx
	movl	$0x00000000, 56(%rsp)
	movq	%r8, %rcx
	movq	%rbx, 48(%rsp)
	movq	%rsi, 40(%rsp)
	call	_ZN10ImDrawList7AddTextEPK6ImFontfRK6ImVec2jPKcS7_fPK6ImVec4
	cmpb	$0, 11432(%rdi)
	jne	.L2624
.L2576:
	movaps	128(%rsp), %xmm6
	movaps	144(%rsp), %xmm7
	addq	$160, %rsp
	popq	%rbx
	popq	%rsi
	popq	%rdi
	popq	%rbp
	popq	%r12
	popq	%r13
	popq	%r14
	ret
	.p2align 4,,10
.L2597:
	leaq	104(%rsp), %rbp
	xorl	%ecx, %ecx
	call	_ZN5ImGui11GetColorU32Eif.constprop.144
	movq	$0, 64(%rsp)
	jmp	.L2620
	.p2align 4,,10
.L2624:
	movq	%rbx, %r8
	movq	%rsi, %rdx
	movq	%rbp, %rcx
	call	_ZL15LogRenderedTextRK6ImVec2PKcS3_
	jmp	.L2576
	.p2align 4,,10
.L2621:
	movss	4(%r14), %xmm0
	ucomiss	108(%rsp), %xmm0
	seta	%al
	orl	%edx, %eax
	jmp	.L2599
	.p2align 4,,10
.L2623:
	movaps	%xmm1, %xmm0
	jmp	.L2595
	.p2align 4,,10
.L2622:
	movaps	%xmm2, %xmm0
	jmp	.L2591
	.p2align 4,,10
.L2583:
	xorl	%r8d, %r8d
	movq	%rbx, %rdx
	movq	%rsi, %rcx
	pxor	%xmm3, %xmm3
	call	_ZN5ImGui12CalcTextSizeEPKcS1_bf
	movd	%eax, %xmm7
	shrq	$32, %rax
	movd	%eax, %xmm4
	jmp	.L2584
	.p2align 4,,10
.L2585:
	movss	(%r12), %xmm5
	ucomiss	%xmm5, %xmm0
	jb	.L2625
	movq	%r12, %rcx
	movl	$1, %eax
	jmp	.L2599
.L2625:
	movss	108(%rsp), %xmm0
	movq	%r12, %rcx
	addss	%xmm4, %xmm0
	ucomiss	4(%r12), %xmm0
	setnb	%al
	jmp	.L2599
	.seh_endproc
	.p2align 4,,15
	.globl	_ZN5ImGui16CalcListClippingEifPiS0_
	.def	_ZN5ImGui16CalcListClippingEifPiS0_;	.scl	2;	.type	32;	.endef
	.seh_proc	_ZN5ImGui16CalcListClippingEifPiS0_
_ZN5ImGui16CalcListClippingEifPiS0_:
.LFB699:
	.seh_endprologue
	movq	GImGui(%rip), %rax
	cmpb	$0, 11432(%rax)
	je	.L2627
	movl	$0, (%r8)
	movl	%ecx, (%r9)
	ret
	.p2align 4,,10
.L2627:
	movq	6008(%rax), %rax
	cmpb	$0, 140(%rax)
	je	.L2629
	movl	$0, (%r9)
	movl	$0, (%r8)
	ret
	.p2align 4,,10
.L2629:
	movss	196(%rax), %xmm2
	xorl	%r10d, %r10d
	movss	516(%rax), %xmm0
	subss	%xmm2, %xmm0
	divss	%xmm1, %xmm0
	cvttss2si	%xmm0, %edx
	movss	524(%rax), %xmm0
	subss	%xmm2, %xmm0
	testl	%edx, %edx
	divss	%xmm1, %xmm0
	cvttss2si	%xmm0, %eax
	js	.L2630
	cmpl	%ecx, %edx
	cmovg	%ecx, %edx
	movl	%edx, %r10d
.L2630:
	addl	$1, %eax
	movl	%r10d, %edx
	cmpl	%r10d, %eax
	jl	.L2631
	cmpl	%ecx, %eax
	movl	%ecx, %edx
	cmovle	%eax, %edx
