	.file	"main.cpp"
	.text
	.p2align 4,,15
	.def	_ZL21stbi__mad3sizes_validiiii;	.scl	3;	.type	32;	.endef
	.seh_proc	_ZL21stbi__mad3sizes_validiiii
_ZL21stbi__mad3sizes_validiiii:
.LFB828:
	.seh_endprologue
	testl	%edx, %edx
	movl	%edx, %r10d
	js	.L5
	testl	%ecx, %ecx
	js	.L5
	testl	%edx, %edx
	jne	.L16
.L3:
	xorl	%r11d, %r11d
	testl	%r8d, %r8d
	js	.L1
	imull	%r10d, %ecx
	testl	%r8d, %r8d
	jne	.L17
.L4:
	imull	%r8d, %ecx
	movl	$2147483647, %eax
	xorl	%r11d, %r11d
	subl	%r9d, %eax
	cmpl	%ecx, %eax
	setge	%r11b
.L1:
	movl	%r11d, %eax
	ret
	.p2align 4,,10
.L16:
	movl	$2147483647, %eax
	xorl	%r11d, %r11d
	cltd
	idivl	%r10d
	cmpl	%eax, %ecx
	jle	.L3
	movl	%r11d, %eax
	ret
	.p2align 4,,10
.L5:
	xorl	%r11d, %r11d
	movl	%r11d, %eax
	ret
	.p2align 4,,10
.L17:
	movl	$2147483647, %eax
	cltd
	idivl	%r8d
	cmpl	%eax, %ecx
	jle	.L4
	jmp	.L1
	.seh_endproc
	.p2align 4,,15
	.def	_ZL14resample_row_1PhS_S_ii;	.scl	3;	.type	32;	.endef
	.seh_proc	_ZL14resample_row_1PhS_S_ii
_ZL14resample_row_1PhS_S_ii:
.LFB900:
	.seh_endprologue
	movq	%rdx, %rax
	ret
	.seh_endproc
	.p2align 4,,15
	.def	_ZL22stbi__resample_row_v_2PhS_S_ii;	.scl	3;	.type	32;	.endef
	.seh_proc	_ZL22stbi__resample_row_v_2PhS_S_ii
_ZL22stbi__resample_row_v_2PhS_S_ii:
.LFB901:
	pushq	%r12
	.seh_pushreg	%r12
	pushq	%rbp
	.seh_pushreg	%rbp
	pushq	%rdi
	.seh_pushreg	%rdi
	pushq	%rsi
	.seh_pushreg	%rsi
	pushq	%rbx
	.seh_pushreg	%rbx
	subq	$96, %rsp
	.seh_stackalloc	96
	movaps	%xmm6, (%rsp)
	.seh_savexmm	%xmm6, 0
	movaps	%xmm7, 16(%rsp)
	.seh_savexmm	%xmm7, 16
	movaps	%xmm8, 32(%rsp)
	.seh_savexmm	%xmm8, 32
	movaps	%xmm9, 48(%rsp)
	.seh_savexmm	%xmm9, 48
	movaps	%xmm10, 64(%rsp)
	.seh_savexmm	%xmm10, 64
	movaps	%xmm11, 80(%rsp)
	.seh_savexmm	%xmm11, 80
	.seh_endprologue
	testl	%r9d, %r9d
	movq	%rcx, %rax
	jle	.L20
	leaq	16(%rcx), %r10
	leaq	16(%rdx), %rcx
	cmpq	%rcx, %rax
	setnb	%cl
	cmpq	%r10, %rdx
	setnb	%r11b
	orl	%r11d, %ecx
	cmpl	$18, %r9d
	seta	%r11b
	testb	%r11b, %cl
	je	.L21
	leaq	16(%r8), %rcx
	cmpq	%rcx, %rax
	setnb	%r11b
	cmpq	%r10, %r8
	setnb	%cl
	orb	%cl, %r11b
	je	.L21
	leal	-1(%r9), %r11d
	movq	%rdx, %rcx
	negq	%rcx
	andl	$15, %ecx
	leal	15(%rcx), %r10d
	cmpl	%r10d, %r11d
	jb	.L30
	testl	%ecx, %ecx
	je	.L31
	movzbl	(%rdx), %r10d
	leal	(%r10,%r10,2), %r11d
	movzbl	(%r8), %r10d
	leal	2(%r11,%r10), %r10d
	sarl	$2, %r10d
	cmpl	$1, %ecx
	movb	%r10b, (%rax)
	je	.L32
	movzbl	1(%rdx), %r10d
	leal	(%r10,%r10,2), %r11d
	movzbl	1(%r8), %r10d
	leal	2(%r11,%r10), %r10d
	sarl	$2, %r10d
	cmpl	$2, %ecx
	movb	%r10b, 1(%rax)
	je	.L33
	movzbl	2(%rdx), %r10d
	leal	(%r10,%r10,2), %r11d
	movzbl	2(%r8), %r10d
	leal	2(%r11,%r10), %r10d
	sarl	$2, %r10d
	cmpl	$3, %ecx
	movb	%r10b, 2(%rax)
	je	.L34
	movzbl	3(%rdx), %r10d
	leal	(%r10,%r10,2), %r11d
	movzbl	3(%r8), %r10d
	leal	2(%r11,%r10), %r10d
	sarl	$2, %r10d
	cmpl	$4, %ecx
	movb	%r10b, 3(%rax)
	je	.L35
	movzbl	4(%rdx), %r10d
	leal	(%r10,%r10,2), %r11d
	movzbl	4(%r8), %r10d
	leal	2(%r11,%r10), %r10d
	sarl	$2, %r10d
	cmpl	$5, %ecx
	movb	%r10b, 4(%rax)
	je	.L36
	movzbl	5(%rdx), %r10d
	leal	(%r10,%r10,2), %r11d
	movzbl	5(%r8), %r10d
	leal	2(%r11,%r10), %r10d
	sarl	$2, %r10d
	cmpl	$6, %ecx
	movb	%r10b, 5(%rax)
	je	.L37
	movzbl	6(%rdx), %r10d
	leal	(%r10,%r10,2), %r11d
	movzbl	6(%r8), %r10d
	leal	2(%r11,%r10), %r10d
	sarl	$2, %r10d
	cmpl	$7, %ecx
	movb	%r10b, 6(%rax)
	je	.L38
	movzbl	7(%rdx), %r10d
	leal	(%r10,%r10,2), %r11d
	movzbl	7(%r8), %r10d
	leal	2(%r11,%r10), %r10d
	sarl	$2, %r10d
	cmpl	$8, %ecx
	movb	%r10b, 7(%rax)
	je	.L39
	movzbl	8(%rdx), %r10d
	leal	(%r10,%r10,2), %r11d
	movzbl	8(%r8), %r10d
	leal	2(%r11,%r10), %r10d
	sarl	$2, %r10d
	cmpl	$9, %ecx
	movb	%r10b, 8(%rax)
	je	.L40
	movzbl	9(%rdx), %r10d
	leal	(%r10,%r10,2), %r11d
	movzbl	9(%r8), %r10d
	leal	2(%r11,%r10), %r10d
	sarl	$2, %r10d
	cmpl	$10, %ecx
	movb	%r10b, 9(%rax)
	je	.L41
	movzbl	10(%rdx), %r10d
	leal	(%r10,%r10,2), %r11d
	movzbl	10(%r8), %r10d
	leal	2(%r11,%r10), %r10d
	sarl	$2, %r10d
	cmpl	$11, %ecx
	movb	%r10b, 10(%rax)
	je	.L42
	movzbl	11(%rdx), %r10d
	leal	(%r10,%r10,2), %r11d
	movzbl	11(%r8), %r10d
	leal	2(%r11,%r10), %r10d
	sarl	$2, %r10d
	cmpl	$12, %ecx
	movb	%r10b, 11(%rax)
	je	.L43
	movzbl	12(%rdx), %r10d
	leal	(%r10,%r10,2), %r11d
	movzbl	12(%r8), %r10d
	leal	2(%r11,%r10), %r10d
	sarl	$2, %r10d
	cmpl	$13, %ecx
	movb	%r10b, 12(%rax)
	je	.L44
	movzbl	13(%rdx), %r10d
	leal	(%r10,%r10,2), %r11d
	movzbl	13(%r8), %r10d
	leal	2(%r11,%r10), %r10d
	sarl	$2, %r10d
	cmpl	$14, %ecx
	movb	%r10b, 13(%rax)
	je	.L45
	movzbl	14(%rdx), %r10d
	leal	(%r10,%r10,2), %r11d
	movzbl	14(%r8), %r10d
	leal	2(%r11,%r10), %r10d
	sarl	$2, %r10d
	movb	%r10b, 14(%rax)
	movl	$15, %r10d
	.p2align 4,,10
.L23:
	movl	%r9d, %r12d
	movl	%ecx, %ebx
	movdqa	.LC0(%rip), %xmm6
	xorl	%r11d, %r11d
	leaq	(%rdx,%rbx), %rdi
	subl	%ecx, %r12d
	xorl	%ecx, %ecx
	pxor	%xmm4, %xmm4
	movl	%r12d, %ebp
	movdqa	.LC1(%rip), %xmm5
	pxor	%xmm3, %xmm3
	movdqa	.LC2(%rip), %xmm7
	leaq	(%r8,%rbx), %rsi
	shrl	$4, %ebp
	addq	%rax, %rbx
	.p2align 4,,10
.L25:
	movdqa	(%rdi,%r11), %xmm8
	movdqa	%xmm6, %xmm1
	addl	$1, %ecx
	movdqu	(%rsi,%r11), %xmm2
	movdqa	%xmm8, %xmm10
	movdqa	%xmm8, %xmm9
	punpcklbw	%xmm4, %xmm10
	pmullw	%xmm10, %xmm1
	movdqa	%xmm2, %xmm8
	punpckhbw	%xmm4, %xmm9
	pmulhw	%xmm6, %xmm10
	punpcklbw	%xmm4, %xmm8
	movdqa	%xmm8, %xmm0
	punpckhbw	%xmm4, %xmm2
	punpcklwd	%xmm3, %xmm0
	movdqa	%xmm1, %xmm11
	punpcklwd	%xmm10, %xmm11
	punpckhwd	%xmm10, %xmm1
	paddd	%xmm11, %xmm0
	movdqa	%xmm1, %xmm10
	movdqa	%xmm8, %xmm1
	paddd	%xmm5, %xmm0
	punpckhwd	%xmm3, %xmm1
	paddd	%xmm10, %xmm1
	psrad	$2, %xmm0
	movdqa	%xmm6, %xmm10
	paddd	%xmm5, %xmm1
	pmullw	%xmm9, %xmm10
	movdqa	%xmm0, %xmm8
	psrad	$2, %xmm1
	punpckhwd	%xmm1, %xmm8
	punpcklwd	%xmm1, %xmm0
	movdqa	%xmm0, %xmm1
	punpcklwd	%xmm8, %xmm0
	punpckhwd	%xmm8, %xmm1
	movdqa	%xmm9, %xmm8
	punpcklwd	%xmm1, %xmm0
	movdqa	%xmm10, %xmm9
	pmulhw	%xmm6, %xmm8
	movdqa	%xmm2, %xmm1
	punpckhwd	%xmm3, %xmm2
	pand	%xmm7, %xmm0
	punpcklwd	%xmm3, %xmm1
	punpcklwd	%xmm8, %xmm9
	paddd	%xmm9, %xmm1
	punpckhwd	%xmm8, %xmm10
	paddd	%xmm10, %xmm2
	paddd	%xmm5, %xmm1
	paddd	%xmm5, %xmm2
	psrad	$2, %xmm1
	psrad	$2, %xmm2
	movdqa	%xmm1, %xmm8
	punpckhwd	%xmm2, %xmm8
	punpcklwd	%xmm2, %xmm1
	movdqa	%xmm1, %xmm2
	punpcklwd	%xmm8, %xmm1
	punpckhwd	%xmm8, %xmm2
	punpcklwd	%xmm2, %xmm1
	pand	%xmm7, %xmm1
	packuswb	%xmm1, %xmm0
	movups	%xmm0, (%rbx,%r11)
	addq	$16, %r11
	cmpl	%ecx, %ebp
	ja	.L25
	movl	%r12d, %ecx
	andl	$-16, %ecx
	addl	%ecx, %r10d
	cmpl	%ecx, %r12d
	je	.L20
.L22:
	movslq	%r10d, %r10
	.p2align 4,,10
.L27:
	movzbl	(%rdx,%r10), %ecx
	leal	(%rcx,%rcx,2), %r11d
	movzbl	(%r8,%r10), %ecx
	leal	2(%r11,%rcx), %r11d
	sarl	$2, %r11d
	movb	%r11b, (%rax,%r10)
	addq	$1, %r10
	cmpl	%r10d, %r9d
	jg	.L27
.L20:
	movaps	(%rsp), %xmm6
	movaps	16(%rsp), %xmm7
	movaps	32(%rsp), %xmm8
	movaps	48(%rsp), %xmm9
	movaps	64(%rsp), %xmm10
	movaps	80(%rsp), %xmm11
	addq	$96, %rsp
	popq	%rbx
	popq	%rsi
	popq	%rdi
	popq	%rbp
	popq	%r12
	ret
	.p2align 4,,10
.L32:
	movl	$1, %r10d
	jmp	.L23
	.p2align 4,,10
.L21:
	leal	-1(%r9), %r11d
	xorl	%ecx, %ecx
	addq	$1, %r11
	.p2align 4,,10
.L29:
	movzbl	(%rdx,%rcx), %r9d
	leal	(%r9,%r9,2), %r10d
	movzbl	(%r8,%rcx), %r9d
	leal	2(%r10,%r9), %r9d
	sarl	$2, %r9d
	movb	%r9b, (%rax,%rcx)
	addq	$1, %rcx
	cmpq	%r11, %rcx
	jne	.L29
	jmp	.L20
	.p2align 4,,10
.L33:
	movl	$2, %r10d
	jmp	.L23
	.p2align 4,,10
.L30:
	xorl	%r10d, %r10d
	jmp	.L22
	.p2align 4,,10
.L34:
	movl	$3, %r10d
	jmp	.L23
	.p2align 4,,10
.L35:
	movl	$4, %r10d
	jmp	.L23
.L38:
	movl	$7, %r10d
	jmp	.L23
	.p2align 4,,10
.L36:
	movl	$5, %r10d
	jmp	.L23
.L37:
	movl	$6, %r10d
	jmp	.L23
.L31:
	xorl	%r10d, %r10d
	jmp	.L23
.L39:
	movl	$8, %r10d
	jmp	.L23
.L40:
	movl	$9, %r10d
	jmp	.L23
.L41:
	movl	$10, %r10d
	jmp	.L23
.L42:
	movl	$11, %r10d
	jmp	.L23
.L43:
	movl	$12, %r10d
	jmp	.L23
.L44:
	movl	$13, %r10d
	jmp	.L23
.L45:
	movl	$14, %r10d
	jmp	.L23
	.seh_endproc
	.p2align 4,,15
	.def	_ZL26stbi__resample_row_genericPhS_S_ii;	.scl	3;	.type	32;	.endef
	.seh_proc	_ZL26stbi__resample_row_genericPhS_S_ii
_ZL26stbi__resample_row_genericPhS_S_ii:
.LFB905:
	pushq	%r15
	.seh_pushreg	%r15
	pushq	%r14
	.seh_pushreg	%r14
	pushq	%r13
	.seh_pushreg	%r13
	pushq	%r12
	.seh_pushreg	%r12
	pushq	%rbp
	.seh_pushreg	%rbp
	pushq	%rdi
	.seh_pushreg	%rdi
	pushq	%rsi
	.seh_pushreg	%rsi
	pushq	%rbx
	.seh_pushreg	%rbx
	subq	$24, %rsp
	.seh_stackalloc	24
	.seh_endprologue
	movl	128(%rsp), %edi
	testl	%r9d, %r9d
	movq	%rcx, %rax
	jle	.L54
	testl	%edi, %edi
	jle	.L54
	movslq	%edi, %r14
	movl	%ecx, %r12d
	movq	%rax, %rsi
	leal	-1(%rdi), %r8d
	movl	%r14d, %ebx
	negl	%r12d
	leal	-1(%r9), %ecx
	negl	%ebx
	movl	%r8d, 4(%rsp)
	movl	%ebx, (%rsp)
	leaq	1(%r8), %rbx
	leaq	1(%rdx,%rcx), %r15
	movq	%rbx, 8(%rsp)
	movl	$1, %ecx
	.p2align 4,,10
.L62:
	leaq	(%r14,%rsi), %r8
	movq	%rdx, %r10
	movq	%rsi, %r13
	addq	$1, %rdx
	subq	%rax, %r13
	cmpq	%r8, %r10
	setnb	%r9b
	cmpq	%rdx, %rsi
	setnb	%r8b
	orb	%r8b, %r9b
	je	.L56
	cmpl	$22, %edi
	jbe	.L56
	movl	%r12d, %r8d
	andl	$15, %r8d
	leal	15(%r8), %r9d
	cmpl	%r9d, 4(%rsp)
	jb	.L67
	testl	%r8d, %r8d
	je	.L68
	movzbl	(%r10), %r9d
	cmpl	$1, %r8d
	movb	%r9b, (%rsi)
	je	.L69
	movzbl	(%r10), %r11d
	movslq	%ecx, %r9
	cmpl	$2, %r8d
	movb	%r11b, (%rax,%r9)
	je	.L70
	movzbl	(%r10), %r11d
	leal	1(%rcx), %r9d
	cmpl	$3, %r8d
	movslq	%r9d, %r9
	movb	%r11b, (%rax,%r9)
	je	.L71
	movzbl	(%r10), %r11d
	leal	2(%rcx), %r9d
	cmpl	$4, %r8d
	movslq	%r9d, %r9
	movb	%r11b, (%rax,%r9)
	je	.L72
	movzbl	(%r10), %r11d
	leal	3(%rcx), %r9d
	cmpl	$5, %r8d
	movslq	%r9d, %r9
	movb	%r11b, (%rax,%r9)
	je	.L73
	movzbl	(%r10), %r11d
	leal	4(%rcx), %r9d
	cmpl	$6, %r8d
	movslq	%r9d, %r9
	movb	%r11b, (%rax,%r9)
	je	.L74
	movzbl	(%r10), %r11d
	leal	5(%rcx), %r9d
	cmpl	$7, %r8d
	movslq	%r9d, %r9
	movb	%r11b, (%rax,%r9)
	je	.L75
	movzbl	(%r10), %r11d
	leal	6(%rcx), %r9d
	cmpl	$8, %r8d
	movslq	%r9d, %r9
	movb	%r11b, (%rax,%r9)
	je	.L76
	movzbl	(%r10), %r11d
	leal	7(%rcx), %r9d
	cmpl	$9, %r8d
	movslq	%r9d, %r9
	movb	%r11b, (%rax,%r9)
	je	.L77
	movzbl	(%r10), %r11d
	leal	8(%rcx), %r9d
	cmpl	$10, %r8d
	movslq	%r9d, %r9
	movb	%r11b, (%rax,%r9)
	je	.L78
	movzbl	(%r10), %r11d
	leal	9(%rcx), %r9d
	cmpl	$11, %r8d
	movslq	%r9d, %r9
	movb	%r11b, (%rax,%r9)
	je	.L79
	movzbl	(%r10), %r11d
	leal	10(%rcx), %r9d
	cmpl	$12, %r8d
	movslq	%r9d, %r9
	movb	%r11b, (%rax,%r9)
	je	.L80
	movzbl	(%r10), %r11d
	leal	11(%rcx), %r9d
	cmpl	$13, %r8d
	movslq	%r9d, %r9
	movb	%r11b, (%rax,%r9)
	je	.L81
	movzbl	(%r10), %r11d
	leal	12(%rcx), %r9d
	cmpl	$14, %r8d
	movslq	%r9d, %r9
	movb	%r11b, (%rax,%r9)
	je	.L82
	movzbl	(%r10), %r11d
	leal	13(%rcx), %r9d
	movslq	%r9d, %r9
	movb	%r11b, (%rax,%r9)
	movl	$15, %r9d
	.p2align 4,,10
.L58:
	movzbl	(%r10), %ebx
	movl	%edi, %ebp
	addq	%r8, %r13
	subl	%r8d, %ebp
	addq	%rax, %r13
	xorl	%r8d, %r8d
	movl	%ebp, %r11d
	shrl	$4, %r11d
	movd	%ebx, %xmm0
	punpcklbw	%xmm0, %xmm0
	punpcklwd	%xmm0, %xmm0
	pshufd	$0, %xmm0, %xmm0
	.p2align 4,,10
.L61:
	addl	$1, %r8d
	movaps	%xmm0, 0(%r13)
	addq	$16, %r13
	cmpl	%r8d, %r11d
	ja	.L61
	movl	%ebp, %r8d
	andl	$-16, %r8d
	addl	%r8d, %r9d
	cmpl	%r8d, %ebp
	je	.L65
.L57:
	movslq	%r9d, %r9
	.p2align 4,,10
.L64:
	movzbl	(%r10), %r8d
	movb	%r8b, (%rsi,%r9)
	addq	$1, %r9
	cmpl	%r9d, %edi
	jg	.L64
.L65:
	addq	%r14, %rsi
	addl	(%rsp), %r12d
	addl	%edi, %ecx
	cmpq	%rdx, %r15
	jne	.L62
.L54:
	addq	$24, %rsp
	popq	%rbx
	popq	%rsi
	popq	%rdi
	popq	%rbp
	popq	%r12
	popq	%r13
	popq	%r14
	popq	%r15
	ret
	.p2align 4,,10
.L56:
	movq	8(%rsp), %rbx
	movq	%rsi, %r8
	leaq	(%rbx,%rsi), %r11
	.p2align 4,,10
.L66:
	movzbl	(%r10), %r9d
	addq	$1, %r8
	movb	%r9b, -1(%r8)
	cmpq	%r11, %r8
	jne	.L66
	addq	%r14, %rsi
	addl	(%rsp), %r12d
	addl	%edi, %ecx
	cmpq	%rdx, %r15
	jne	.L62
	jmp	.L54
	.p2align 4,,10
.L69:
	movl	$1, %r9d
	jmp	.L58
	.p2align 4,,10
.L70:
	movl	$2, %r9d
	jmp	.L58
	.p2align 4,,10
.L67:
	xorl	%r9d, %r9d
	jmp	.L57
	.p2align 4,,10
.L71:
	movl	$3, %r9d
	jmp	.L58
	.p2align 4,,10
.L72:
	movl	$4, %r9d
	jmp	.L58
	.p2align 4,,10
.L73:
	movl	$5, %r9d
	jmp	.L58
.L74:
	movl	$6, %r9d
	jmp	.L58
.L68:
	xorl	%r9d, %r9d
	jmp	.L58
.L80:
	movl	$12, %r9d
	jmp	.L58
.L75:
	movl	$7, %r9d
	jmp	.L58
.L76:
	movl	$8, %r9d
	jmp	.L58
.L77:
	movl	$9, %r9d
	jmp	.L58
.L78:
	movl	$10, %r9d
	jmp	.L58
.L79:
	movl	$11, %r9d
	jmp	.L58
.L81:
	movl	$13, %r9d
	jmp	.L58
.L82:
	movl	$14, %r9d
	jmp	.L58
	.seh_endproc
	.p2align 4,,15
	.def	_ZL14stbi__high_bitj;	.scl	3;	.type	32;	.endef
	.seh_proc	_ZL14stbi__high_bitj
_ZL14stbi__high_bitj:
.LFB956:
	.seh_endprologue
	testl	%ecx, %ecx
	je	.L95
	cmpl	$65535, %ecx
	ja	.L99
	movl	$8, %edx
	xorl	%eax, %eax
.L91:
	cmpl	$255, %ecx
	jbe	.L92
	shrl	$8, %ecx
	movl	%edx, %eax
.L92:
	cmpl	$15, %ecx
	jbe	.L93
	addl	$4, %eax
	shrl	$4, %ecx
.L93:
	cmpl	$3, %ecx
	jbe	.L94
	addl	$2, %eax
	shrl	$2, %ecx
.L94:
	xorl	%edx, %edx
	cmpl	$1, %ecx
	setne	%dl
	addl	%edx, %eax
	ret
	.p2align 4,,10
.L99:
	shrl	$16, %ecx
	movl	$24, %edx
	movl	$16, %eax
	jmp	.L91
	.p2align 4,,10
.L95:
	movl	$-1, %eax
	ret
	.seh_endproc
	.p2align 4,,15
	.def	_ZL18stbi__out_gif_codeP9stbi__gift;	.scl	3;	.type	32;	.endef
	.seh_proc	_ZL18stbi__out_gif_codeP9stbi__gift
_ZL18stbi__out_gif_codeP9stbi__gift:
.LFB981:
	pushq	%rsi
	.seh_pushreg	%rsi
	pushq	%rbx
	.seh_pushreg	%rbx
	subq	$40, %rsp
	.seh_stackalloc	40
	.seh_endprologue
	movzwl	%dx, %edx
	movq	%rcx, %rbx
	leaq	(%rcx,%rdx,4), %rsi
	movswl	2096(%rsi), %edx
	testw	%dx, %dx
	jns	.L109
.L101:
	movl	18520(%rbx), %edx
	cmpl	18512(%rbx), %edx
	jge	.L100
	movzbl	2099(%rsi), %eax
	movl	18516(%rbx), %ecx
	sall	$2, %eax
	cltq
	addq	18480(%rbx), %rax
	cmpb	$0, 3(%rax)
	js	.L110
.L104:
	leal	4(%rcx), %edx
	cmpl	18508(%rbx), %edx
	movl	%edx, 18516(%rbx)
	jl	.L100
	movl	18500(%rbx), %eax
	movl	18512(%rbx), %r8d
	movl	%eax, 18516(%rbx)
	movl	18492(%rbx), %eax
	addl	18520(%rbx), %eax
	cmpl	%r8d, %eax
	movl	%eax, 18520(%rbx)
	jl	.L100
	movl	18488(%rbx), %ecx
	testl	%ecx, %ecx
	jle	.L100
	movl	18524(%rbx), %r10d
	movl	18504(%rbx), %r9d
	jmp	.L106
	.p2align 4,,10
.L107:
	testl	%ecx, %ecx
	je	.L111
.L106:
	movl	%r10d, %edx
	sall	%cl, %edx
	subl	$1, %ecx
	movl	%edx, %eax
	sarl	%eax
	addl	%r9d, %eax
	cmpl	%r8d, %eax
	jge	.L107
	movl	%edx, 18492(%rbx)
	movl	%eax, 18520(%rbx)
	movl	%ecx, 18488(%rbx)
.L100:
	addq	$40, %rsp
	popq	%rbx
	popq	%rsi
	ret
	.p2align 4,,10
.L109:
	call	_ZL18stbi__out_gif_codeP9stbi__gift
	jmp	.L101
	.p2align 4,,10
.L110:
	addl	%ecx, %edx
	movzbl	2(%rax), %ecx
	movslq	%edx, %rdx
	addq	8(%rbx), %rdx
	movb	%cl, (%rdx)
	movzbl	1(%rax), %ecx
	movb	%cl, 1(%rdx)
	movzbl	(%rax), %ecx
	movb	%cl, 2(%rdx)
	movzbl	3(%rax), %eax
	movb	%al, 3(%rdx)
	movl	18516(%rbx), %ecx
	jmp	.L104
.L111:
	movl	%edx, 18492(%rbx)
	movl	%eax, 18520(%rbx)
	movl	$0, 18488(%rbx)
	jmp	.L100
	.seh_endproc
	.p2align 4,,15
	.globl	_Z37ImGui_ImplGlfwGL3_MouseButtonCallbackP10GLFWwindowiii
	.def	_Z37ImGui_ImplGlfwGL3_MouseButtonCallbackP10GLFWwindowiii;	.scl	2;	.type	32;	.endef
	.seh_proc	_Z37ImGui_ImplGlfwGL3_MouseButtonCallbackP10GLFWwindowiii
_Z37ImGui_ImplGlfwGL3_MouseButtonCallbackP10GLFWwindowiii:
.LFB7460:
	.seh_endprologue
	cmpl	$1, %r8d
	jne	.L112
	cmpl	$2, %edx
	jbe	.L120
.L112:
	ret
	.p2align 4,,10
.L120:
	leaq	_ZL14g_MousePressed(%rip), %rax
	movslq	%edx, %rdx
	movb	$1, (%rax,%rdx)
	ret
	.seh_endproc
	.p2align 4,,15
	.globl	_Z32ImGui_ImplGlfwGL3_ScrollCallbackP10GLFWwindowdd
	.def	_Z32ImGui_ImplGlfwGL3_ScrollCallbackP10GLFWwindowdd;	.scl	2;	.type	32;	.endef
	.seh_proc	_Z32ImGui_ImplGlfwGL3_ScrollCallbackP10GLFWwindowdd
_Z32ImGui_ImplGlfwGL3_ScrollCallbackP10GLFWwindowdd:
.LFB7461:
	.seh_endprologue
	cvtsd2ss	%xmm2, %xmm2
	addss	_ZL12g_MouseWheel(%rip), %xmm2
	movss	%xmm2, _ZL12g_MouseWheel(%rip)
	ret
	.seh_endproc
	.p2align 4,,15
	.def	_ZL16stbi__stdio_skipPvi;	.scl	3;	.type	32;	.endef
	.seh_proc	_ZL16stbi__stdio_skipPvi
_ZL16stbi__stdio_skipPvi:
.LFB818:
	.seh_endprologue
	movl	$1, %r8d
	jmp	fseek
	.seh_endproc
	.p2align 4,,15
	.def	_ZL15stbi__stdio_eofPv;	.scl	3;	.type	32;	.endef
	.seh_proc	_ZL15stbi__stdio_eofPv
_ZL15stbi__stdio_eofPv:
.LFB819:
	.seh_endprologue
	jmp	feof
	.seh_endproc
	.p2align 4,,15
	.def	_ZL16stbi__stdio_readPvPci;	.scl	3;	.type	32;	.endef
	.seh_proc	_ZL16stbi__stdio_readPvPci
_ZL16stbi__stdio_readPvPci:
.LFB817:
	subq	$40, %rsp
	.seh_stackalloc	40
	.seh_endprologue
	movq	%rcx, %r9
	movslq	%r8d, %r8
	movq	%rdx, %rcx
	movl	$1, %edx
	call	fread
	addq	$40, %rsp
	ret
	.seh_endproc
	.section .rdata,"dr"
	.align 8
.LC3:
	.ascii "C:/libraries/include/stb/stb_image.h\0"
	.align 8
.LC4:
	.ascii "z->code_buffer < (1U << z->num_bits)\0"
	.text
	.p2align 4,,15
	.def	_ZL15stbi__fill_bitsP10stbi__zbuf;	.scl	3;	.type	32;	.endef
	.seh_proc	_ZL15stbi__fill_bitsP10stbi__zbuf
_ZL15stbi__fill_bitsP10stbi__zbuf:
.LFB920:
	pushq	%rdi
	.seh_pushreg	%rdi
	pushq	%rsi
	.seh_pushreg	%rsi
	pushq	%rbx
	.seh_pushreg	%rbx
	subq	$32, %rsp
	.seh_stackalloc	32
	.seh_endprologue
	leaq	.LC3(%rip), %rdi
	leaq	.LC4(%rip), %rsi
	movl	20(%rcx), %eax
	movq	%rcx, %rbx
	movl	16(%rcx), %ecx
	jmp	.L126
	.p2align 4,,10
.L127:
	movq	(%rbx), %rdx
	cmpq	%rdx, 8(%rbx)
	jbe	.L128
	leaq	1(%rdx), %r8
	movq	%r8, (%rbx)
	movzbl	(%rdx), %edx
	sall	%cl, %edx
	orl	%edx, %eax
.L128:
	addl	$8, %ecx
	movl	%eax, 20(%rbx)
	cmpl	$24, %ecx
	movl	%ecx, 16(%rbx)
	jg	.L135
.L126:
	movl	%eax, %edx
	shrl	%cl, %edx
	testl	%edx, %edx
	je	.L127
	movq	%rsi, %rcx
	movl	$3848, %r8d
	movq	%rdi, %rdx
	call	_assert
	movl	16(%rbx), %ecx
	movl	20(%rbx), %eax
	jmp	.L127
	.p2align 4,,10
.L135:
	addq	$32, %rsp
	popq	%rbx
	popq	%rsi
	popq	%rdi
	ret
	.seh_endproc
	.section .rdata,"dr"
.LC5:
	.ascii "bad code lengths\0"
	.text
	.p2align 4,,15
	.def	_ZL19stbi__build_huffmanP13stbi__huffmanPi;	.scl	3;	.type	32;	.endef
	.seh_proc	_ZL19stbi__build_huffmanP13stbi__huffmanPi
_ZL19stbi__build_huffmanP13stbi__huffmanPi:
.LFB876:
	pushq	%rbp
	.seh_pushreg	%rbp
	pushq	%rdi
	.seh_pushreg	%rdi
	pushq	%rsi
	.seh_pushreg	%rsi
	pushq	%rbx
	.seh_pushreg	%rbx
	.seh_endprologue
	movl	$1, %esi
	xorl	%r8d, %r8d
	movq	%rcx, %r11
	.p2align 4,,10
.L139:
	movl	(%rdx), %eax
	testl	%eax, %eax
	jle	.L137
	leal	1(%r8), %eax
	movl	%esi, %ebx
	leaq	-1(%r11), %r10
	cltq
	.p2align 4,,10
.L138:
	movl	%eax, %ecx
	movb	%bl, 1280(%r10,%rax)
	movl	%eax, %r9d
	addq	$1, %rax
	subl	%r8d, %ecx
	cmpl	%ecx, (%rdx)
	jg	.L138
	movslq	%r9d, %r8
.L137:
	addq	$1, %rsi
	addq	$4, %rdx
	cmpq	$17, %rsi
	jne	.L139
	movb	$0, 1280(%r11,%r8)
	leaq	1544(%r11), %r10
	xorl	%eax, %eax
	xorl	%ebx, %ebx
	movl	$1, %r9d
	movl	$1, %edi
	movl	$16, %esi
	jmp	.L143
	.p2align 4,,10
.L140:
	movl	%esi, %ecx
	movl	%eax, %edx
	addq	$4, %r10
	subl	%r9d, %ecx
	addl	$1, %r9d
	addl	%eax, %eax
	sall	%cl, %edx
	movl	%edx, -4(%r10)
	cmpl	$17, %r9d
	je	.L162
.L143:
	movl	%ebx, %edx
	movslq	%ebx, %rcx
	subl	%eax, %edx
	movl	%edx, 72(%r10)
	movzbl	1280(%r11,%rcx), %edx
	cmpl	%r9d, %edx
	jne	.L140
	leal	1(%rbx), %edx
	movl	%eax, %r8d
	movslq	%edx, %rdx
	subq	%rdx, %rcx
	leaq	(%r11,%rcx,2), %rbp
	.p2align 4,,10
.L141:
	movw	%r8w, 512(%rbp,%rdx,2)
	leal	1(%r8), %eax
	movl	%edx, %ebx
	movzbl	1280(%r11,%rdx), %ecx
	addq	$1, %rdx
	movl	%eax, %r8d
	cmpl	%r9d, %ecx
	je	.L141
	movl	%edi, %edx
	movl	%r9d, %ecx
	sall	%cl, %edx
	cmpl	%eax, %edx
	jge	.L140
	leaq	.LC5(%rip), %rax
	movq	%rax, _ZL22stbi__g_failure_reason(%rip)
	xorl	%eax, %eax
	popq	%rbx
	popq	%rsi
	popq	%rdi
	popq	%rbp
	ret
.L162:
	movl	$64, %ecx
	movq	$-1, %rax
	movq	%r11, %rdi
	movl	$-1, 1608(%r11)
	rep stosq
	testl	%ebx, %ebx
	je	.L144
	leal	-1(%rbx), %r10d
	xorl	%edx, %edx
	movl	$9, %ebp
	addq	$1, %r10
	movl	$1, %esi
	movabsq	$72340172838076673, %rbx
	jmp	.L150
	.p2align 4,,10
.L145:
	addq	$1, %rdx
	cmpq	%r10, %rdx
	je	.L144
.L150:
	movzbl	1280(%r11,%rdx), %eax
	cmpl	$9, %eax
	jg	.L145
	movl	%ebp, %ecx
	subl	%eax, %ecx
	movl	%esi, %eax
	sall	%cl, %eax
	leal	-1(%rax), %r8d
	movzwl	512(%r11,%rdx,2), %eax
	addq	$1, %r8
	sall	%cl, %eax
	movslq	%eax, %r9
	movzbl	%dl, %eax
	imulq	%rbx, %rax
	addq	%r11, %r9
	cmpl	$8, %r8d
	jnb	.L146
	testb	$4, %r8b
	jne	.L163
	testl	%r8d, %r8d
	je	.L145
	testb	$2, %r8b
	movb	%al, (%r9)
	je	.L145
	movl	%r8d, %r8d
	movw	%ax, -2(%r9,%r8)
	jmp	.L145
	.p2align 4,,10
.L144:
	movl	$1, %eax
	popq	%rbx
	popq	%rsi
	popq	%rdi
	popq	%rbp
	ret
.L146:
	movl	%r8d, %ecx
	subl	$1, %r8d
	movq	%r9, %rdi
	shrl	$3, %r8d
	movq	%rax, -8(%r9,%rcx)
	movl	%r8d, %ecx
	rep stosq
	jmp	.L145
.L163:
	movl	%r8d, %r8d
	movl	%eax, (%r9)
	movl	%eax, -4(%r9,%r8)
	jmp	.L145
	.seh_endproc
	.p2align 4,,15
	.def	_ZL17stbi__malloc_mad2iii;	.scl	3;	.type	32;	.endef
	.seh_proc	_ZL17stbi__malloc_mad2iii
_ZL17stbi__malloc_mad2iii:
.LFB830:
	.seh_endprologue
	testl	%ecx, %ecx
	movl	%edx, %r9d
	js	.L164
	testl	%edx, %edx
	js	.L164
	testl	%edx, %edx
	jne	.L172
.L166:
	imull	%r9d, %ecx
	movl	$2147483647, %eax
	subl	%r8d, %eax
	cmpl	%ecx, %eax
	jl	.L164
	addl	%r8d, %ecx
	movslq	%ecx, %rcx
	jmp	malloc
	.p2align 4,,10
.L172:
	movl	$2147483647, %eax
	cltd
	idivl	%r9d
	cmpl	%eax, %ecx
	jle	.L166
.L164:
	xorl	%eax, %eax
	ret
	.seh_endproc
	.p2align 4,,15
	.def	_ZL23stbi__YCbCr_to_RGB_simdPhPKhS1_S1_ii;	.scl	3;	.type	32;	.endef
	.seh_proc	_ZL23stbi__YCbCr_to_RGB_simdPhPKhS1_S1_ii
_ZL23stbi__YCbCr_to_RGB_simdPhPKhS1_S1_ii:
.LFB907:
	pushq	%r13
	.seh_pushreg	%r13
	pushq	%r12
	.seh_pushreg	%r12
	pushq	%rbp
	.seh_pushreg	%rbp
	pushq	%rdi
	.seh_pushreg	%rdi
	pushq	%rsi
	.seh_pushreg	%rsi
	pushq	%rbx
	.seh_pushreg	%rbx
	subq	$120, %rsp
	.seh_stackalloc	120
	movaps	%xmm6, (%rsp)
	.seh_savexmm	%xmm6, 0
	movaps	%xmm7, 16(%rsp)
	.seh_savexmm	%xmm7, 16
	movaps	%xmm8, 32(%rsp)
	.seh_savexmm	%xmm8, 32
	movaps	%xmm9, 48(%rsp)
	.seh_savexmm	%xmm9, 48
	movaps	%xmm10, 64(%rsp)
	.seh_savexmm	%xmm10, 64
	movaps	%xmm11, 80(%rsp)
	.seh_savexmm	%xmm11, 80
	movaps	%xmm12, 96(%rsp)
	.seh_savexmm	%xmm12, 96
	.seh_endprologue
	xorl	%eax, %eax
	movslq	216(%rsp), %rsi
	movl	208(%rsp), %ebx
	cmpl	$4, %esi
	je	.L190
.L174:
	cmpl	%ebx, %eax
	jge	.L173
	subl	$1, %ebx
	xorl	%r11d, %r11d
	subl	%eax, %ebx
	cltq
	addq	$1, %rbx
	addq	%rax, %rdx
	addq	%rax, %r9
	addq	%rax, %r8
	.p2align 4,,10
.L185:
	movzbl	(%r9,%r11), %r12d
	movzbl	(%r8,%r11), %r10d
	movzbl	(%rdx,%r11), %eax
	addl	$-128, %r12d
	addl	$-128, %r10d
	imull	$1470208, %r12d, %ebp
	sall	$20, %eax
	imull	$-360960, %r10d, %edi
	imull	$-748800, %r12d, %r12d
	leal	524288(%rax), %r13d
	imull	$1858048, %r10d, %eax
	addl	%r13d, %ebp
	xorw	%di, %di
	sarl	$20, %ebp
	addl	%r13d, %r12d
	addl	%r12d, %edi
	addl	%r13d, %eax
	sarl	$20, %edi
	sarl	$20, %eax
	cmpl	$255, %ebp
	movl	%edi, %r10d
	jbe	.L180
	notl	%ebp
	sarl	$31, %ebp
.L180:
	cmpl	$255, %r10d
	jbe	.L182
	notl	%r10d
	sarl	$31, %r10d
.L182:
	cmpl	$255, %eax
	jbe	.L184
	notl	%eax
	sarl	$31, %eax
.L184:
	addq	$1, %r11
	movb	%bpl, (%rcx)
	movb	%r10b, 1(%rcx)
	movb	%al, 2(%rcx)
	movb	$-1, 3(%rcx)
	addq	%rsi, %rcx
	cmpq	%r11, %rbx
	jne	.L185
.L173:
	movaps	(%rsp), %xmm6
	movaps	16(%rsp), %xmm7
	movaps	32(%rsp), %xmm8
	movaps	48(%rsp), %xmm9
	movaps	64(%rsp), %xmm10
	movaps	80(%rsp), %xmm11
	movaps	96(%rsp), %xmm12
	addq	$120, %rsp
	popq	%rbx
	popq	%rsi
	popq	%rdi
	popq	%rbp
	popq	%r12
	popq	%r13
	ret
	.p2align 4,,10
.L190:
	cmpl	$7, %ebx
	jle	.L174
	leal	-8(%rbx), %edi
	xorl	%eax, %eax
	pxor	%xmm2, %xmm2
	movdqa	.LC6(%rip), %xmm9
	shrl	$3, %edi
	movdqa	.LC7(%rip), %xmm3
	movl	%edi, %r11d
	movdqa	.LC9(%rip), %xmm7
	addq	$1, %r11
	movdqa	.LC10(%rip), %xmm6
	movdqa	.LC11(%rip), %xmm5
	leaq	0(,%r11,8), %r10
	movdqa	.LC8(%rip), %xmm8
	movdqa	.LC2(%rip), %xmm4
	.p2align 4,,10
.L178:
	movq	(%rdx,%rax), %xmm0
	movdqa	%xmm9, %xmm1
	movdqa	%xmm2, %xmm12
	movdqa	%xmm2, %xmm11
	movdqa	%xmm8, %xmm10
	punpcklbw	%xmm0, %xmm1
	movdqa	%xmm1, %xmm0
	movq	(%r9,%rax), %xmm1
	pxor	%xmm3, %xmm1
	punpcklbw	%xmm1, %xmm12
	movq	(%r8,%rax), %xmm1
	pmulhw	%xmm12, %xmm10
	pmulhw	%xmm5, %xmm12
	pxor	%xmm3, %xmm1
	punpcklbw	%xmm1, %xmm11
	movdqa	%xmm11, %xmm1
	movdqa	%xmm0, %xmm11
	movdqa	%xmm7, %xmm0
	psrlw	$4, %xmm11
	pmulhw	%xmm1, %xmm0
	paddw	%xmm11, %xmm10
	pmulhw	%xmm6, %xmm1
	psraw	$4, %xmm10
	paddw	%xmm11, %xmm0
	paddw	%xmm11, %xmm1
	paddw	%xmm12, %xmm0
	movdqa	%xmm10, %xmm11
	psraw	$4, %xmm1
	packuswb	%xmm1, %xmm11
	psraw	$4, %xmm0
	movdqa	%xmm11, %xmm1
	movdqa	%xmm11, %xmm10
	packuswb	%xmm4, %xmm0
	punpcklbw	%xmm0, %xmm10
	punpckhbw	%xmm0, %xmm1
	movdqa	%xmm1, %xmm0
	movdqa	%xmm10, %xmm1
	punpckhwd	%xmm0, %xmm10
	movups	%xmm10, 16(%rcx,%rax,4)
	punpcklwd	%xmm0, %xmm1
	movups	%xmm1, (%rcx,%rax,4)
	addq	$8, %rax
	cmpq	%r10, %rax
	jne	.L178
	leal	8(,%rdi,8), %eax
	salq	$5, %r11
	addq	%r11, %rcx
	jmp	.L174
	.seh_endproc
	.p2align 4,,15
	.def	_ZL15stbi__idct_simdPhiPs;	.scl	3;	.type	32;	.endef
	.seh_proc	_ZL15stbi__idct_simdPhiPs
_ZL15stbi__idct_simdPhiPs:
.LFB888:
	subq	$264, %rsp
	.seh_stackalloc	264
	movaps	%xmm6, 96(%rsp)
	.seh_savexmm	%xmm6, 96
	movaps	%xmm7, 112(%rsp)
	.seh_savexmm	%xmm7, 112
	movaps	%xmm8, 128(%rsp)
	.seh_savexmm	%xmm8, 128
	movaps	%xmm9, 144(%rsp)
	.seh_savexmm	%xmm9, 144
	movaps	%xmm10, 160(%rsp)
	.seh_savexmm	%xmm10, 160
	movaps	%xmm11, 176(%rsp)
	.seh_savexmm	%xmm11, 176
	movaps	%xmm12, 192(%rsp)
	.seh_savexmm	%xmm12, 192
	movaps	%xmm13, 208(%rsp)
	.seh_savexmm	%xmm13, 208
	movaps	%xmm14, 224(%rsp)
	.seh_savexmm	%xmm14, 224
	movaps	%xmm15, 240(%rsp)
	.seh_savexmm	%xmm15, 240
	.seh_endprologue
	movdqa	32(%r8), %xmm0
	movdqa	96(%r8), %xmm3
	movdqa	%xmm0, %xmm2
	movdqa	112(%r8), %xmm9
	punpckhwd	%xmm3, %xmm0
	punpcklwd	%xmm3, %xmm2
	movdqa	%xmm2, %xmm3
	pmaddwd	.LC13(%rip), %xmm3
	movdqa	%xmm2, %xmm6
	movdqa	%xmm0, %xmm2
	movdqa	%xmm0, %xmm4
	movdqa	80(%r8), %xmm7
	pmaddwd	.LC13(%rip), %xmm2
	movaps	%xmm3, 32(%rsp)
	movdqa	%xmm9, %xmm8
	pmaddwd	.LC12(%rip), %xmm4
	movdqa	(%r8), %xmm3
	pmaddwd	.LC12(%rip), %xmm6
	movslq	%edx, %rdx
	movaps	%xmm2, 48(%rsp)
	movdqa	64(%r8), %xmm2
	leaq	(%rcx,%rdx), %rax
	movdqa	%xmm3, %xmm0
	movdqa	48(%r8), %xmm1
	movaps	%xmm4, 16(%rsp)
	paddw	%xmm2, %xmm0
	movdqa	16(%r8), %xmm5
	psubw	%xmm2, %xmm3
	movaps	%xmm6, (%rsp)
	movdqa	%xmm0, %xmm4
	pxor	%xmm0, %xmm0
	movdqa	%xmm0, %xmm11
	movdqa	%xmm0, %xmm2
	punpcklwd	%xmm4, %xmm11
	movdqa	%xmm11, %xmm13
	movdqa	%xmm0, %xmm11
	punpcklwd	%xmm3, %xmm2
	punpckhwd	%xmm4, %xmm11
	movdqa	%xmm0, %xmm12
	movdqa	%xmm11, %xmm14
	punpckhwd	%xmm1, %xmm8
	psrad	$4, %xmm14
	punpckhwd	%xmm3, %xmm12
	movdqa	%xmm8, %xmm4
	movdqa	%xmm12, %xmm3
	movdqa	%xmm8, %xmm12
	movdqa	%xmm7, %xmm8
	movaps	%xmm14, 80(%rsp)
	pmaddwd	.LC15(%rip), %xmm4
	punpckhwd	%xmm5, %xmm8
	movdqa	%xmm8, %xmm6
	movdqa	%xmm8, %xmm14
	movdqa	%xmm5, %xmm8
	paddw	%xmm9, %xmm8
	movdqa	%xmm9, %xmm11
	movdqa	%xmm4, %xmm10
	punpcklwd	%xmm1, %xmm11
	psrad	$4, %xmm13
	paddw	%xmm7, %xmm1
	movdqa	%xmm7, %xmm4
	movdqa	%xmm8, %xmm7
	movaps	%xmm13, 64(%rsp)
	punpcklwd	%xmm5, %xmm4
	punpckhwd	%xmm1, %xmm8
	punpcklwd	%xmm1, %xmm7
	movdqa	%xmm11, %xmm15
	movdqa	%xmm4, %xmm13
	pmaddwd	.LC15(%rip), %xmm15
	movdqa	%xmm7, %xmm9
	movdqa	%xmm8, %xmm5
	movdqa	%xmm7, %xmm1
	pmaddwd	.LC14(%rip), %xmm11
	psrad	$4, %xmm3
	movdqa	%xmm15, %xmm7
	pmaddwd	.LC14(%rip), %xmm12
	psrad	$4, %xmm2
	pmaddwd	.LC16(%rip), %xmm13
	pmaddwd	.LC16(%rip), %xmm14
	pmaddwd	.LC18(%rip), %xmm9
	pmaddwd	.LC17(%rip), %xmm4
	pmaddwd	.LC18(%rip), %xmm5
	pmaddwd	.LC19(%rip), %xmm8
	paddd	%xmm9, %xmm11
	paddd	%xmm9, %xmm4
	pmaddwd	.LC17(%rip), %xmm6
	movdqa	.LC20(%rip), %xmm9
	paddd	%xmm8, %xmm14
	paddd	%xmm10, %xmm8
	movdqa	80(%rsp), %xmm10
	paddd	48(%rsp), %xmm10
	pmaddwd	.LC19(%rip), %xmm1
	paddd	%xmm5, %xmm12
	paddd	%xmm5, %xmm6
	movdqa	64(%rsp), %xmm5
	paddd	%xmm9, %xmm10
	paddd	32(%rsp), %xmm5
	paddd	%xmm1, %xmm13
	paddd	%xmm1, %xmm7
	movdqa	%xmm10, %xmm1
	paddd	%xmm9, %xmm5
	paddd	%xmm6, %xmm1
	movdqa	%xmm1, %xmm15
	psubd	%xmm6, %xmm10
	movdqa	%xmm5, %xmm1
	movdqa	(%rsp), %xmm6
	psubd	%xmm4, %xmm5
	psrad	$10, %xmm10
	paddd	%xmm4, %xmm1
	psrad	$10, %xmm5
	paddd	%xmm2, %xmm6
	paddd	%xmm9, %xmm2
	packssdw	%xmm10, %xmm5
	paddd	%xmm9, %xmm6
	psrad	$10, %xmm15
	movdqa	16(%rsp), %xmm10
	psrad	$10, %xmm1
	psubd	(%rsp), %xmm2
	paddd	%xmm3, %xmm10
	paddd	%xmm9, %xmm3
	packssdw	%xmm15, %xmm1
	paddd	%xmm9, %xmm10
	psubd	16(%rsp), %xmm3
	movdqa	%xmm10, %xmm4
	psubd	%xmm8, %xmm10
	paddd	%xmm8, %xmm4
	psrad	$10, %xmm10
	movdqa	%xmm4, %xmm15
	movdqa	%xmm6, %xmm4
	psubd	%xmm7, %xmm6
	paddd	%xmm7, %xmm4
	psrad	$10, %xmm6
	movdqa	%xmm3, %xmm7
	paddd	%xmm14, %xmm7
	psubd	%xmm14, %xmm3
	packssdw	%xmm10, %xmm6
	psrad	$10, %xmm15
	movdqa	%xmm7, %xmm8
	psrad	$10, %xmm3
	movdqa	%xmm2, %xmm7
	paddd	%xmm13, %xmm7
	psrad	$10, %xmm8
	psubd	%xmm13, %xmm2
	psrad	$10, %xmm7
	packssdw	%xmm8, %xmm7
	movdqa	64(%rsp), %xmm8
	psrad	$10, %xmm2
	packssdw	%xmm3, %xmm2
	psrad	$10, %xmm4
	paddd	%xmm9, %xmm8
	paddd	80(%rsp), %xmm9
	packssdw	%xmm15, %xmm4
	psubd	32(%rsp), %xmm8
	psubd	48(%rsp), %xmm9
	movdqa	%xmm8, %xmm3
	movdqa	%xmm9, %xmm10
	psubd	%xmm11, %xmm8
	paddd	%xmm12, %xmm10
	paddd	%xmm11, %xmm3
	psrad	$10, %xmm8
	psubd	%xmm12, %xmm9
	psrad	$10, %xmm10
	psrad	$10, %xmm9
	psrad	$10, %xmm3
	packssdw	%xmm9, %xmm8
	movdqa	%xmm7, %xmm9
	punpckhwd	%xmm6, %xmm7
	packssdw	%xmm10, %xmm3
	movdqa	%xmm1, %xmm10
	punpcklwd	%xmm6, %xmm9
	punpckhwd	%xmm8, %xmm1
	punpcklwd	%xmm8, %xmm10
	movdqa	%xmm3, %xmm6
	movdqa	%xmm4, %xmm8
	punpckhwd	%xmm5, %xmm3
	punpcklwd	%xmm5, %xmm6
	punpcklwd	%xmm2, %xmm8
	movdqa	%xmm3, %xmm5
	movdqa	%xmm8, %xmm3
	punpcklwd	%xmm6, %xmm3
	punpckhwd	%xmm2, %xmm4
	punpckhwd	%xmm6, %xmm8
	movdqa	%xmm10, %xmm2
	movdqa	%xmm8, %xmm6
	movdqa	%xmm4, %xmm8
	punpcklwd	%xmm9, %xmm2
	punpckhwd	%xmm5, %xmm4
	punpcklwd	%xmm5, %xmm8
	movdqa	%xmm2, %xmm5
	punpckhwd	%xmm9, %xmm10
	punpckhwd	%xmm3, %xmm2
	punpcklwd	%xmm3, %xmm5
	movdqa	%xmm10, %xmm3
	movdqa	%xmm1, %xmm15
	punpckhwd	%xmm6, %xmm10
	punpckhwd	%xmm7, %xmm1
	punpcklwd	%xmm6, %xmm3
	movdqa	%xmm1, %xmm6
	punpckhwd	%xmm4, %xmm1
	punpcklwd	%xmm4, %xmm6
	movdqa	%xmm3, %xmm4
	punpckhwd	%xmm6, %xmm3
	movdqa	%xmm3, %xmm11
	punpcklwd	%xmm6, %xmm4
	movdqa	%xmm4, %xmm6
	movdqa	%xmm4, %xmm12
	pmaddwd	.LC12(%rip), %xmm6
	movdqa	%xmm3, %xmm4
	movdqa	%xmm1, %xmm9
	punpcklwd	%xmm7, %xmm15
	pmaddwd	.LC12(%rip), %xmm11
	movaps	%xmm6, (%rsp)
	punpcklwd	%xmm10, %xmm9
	movdqa	%xmm0, %xmm6
	movdqa	%xmm0, %xmm3
	movaps	%xmm11, 16(%rsp)
	movdqa	%xmm15, %xmm7
	movdqa	%xmm9, %xmm14
	pmaddwd	.LC13(%rip), %xmm4
	pmaddwd	.LC14(%rip), %xmm14
	punpckhwd	%xmm8, %xmm15
	punpcklwd	%xmm8, %xmm7
	pmaddwd	.LC13(%rip), %xmm12
	movaps	%xmm4, 48(%rsp)
	movdqa	%xmm5, %xmm4
	psubw	%xmm7, %xmm5
	movdqa	%xmm1, %xmm8
	paddw	%xmm7, %xmm4
	movdqa	%xmm15, %xmm7
	movdqa	%xmm14, %xmm11
	punpckhwd	%xmm10, %xmm8
	punpckhwd	%xmm4, %xmm6
	punpcklwd	%xmm2, %xmm7
	movdqa	%xmm6, %xmm13
	movdqa	%xmm7, %xmm14
	movdqa	%xmm15, %xmm6
	paddw	%xmm15, %xmm10
	punpcklwd	%xmm4, %xmm3
	psrad	$4, %xmm13
	punpckhwd	%xmm2, %xmm6
	movdqa	%xmm0, %xmm4
	paddw	%xmm1, %xmm2
	movaps	%xmm12, 32(%rsp)
	movaps	%xmm13, 64(%rsp)
	punpcklwd	%xmm5, %xmm4
	punpckhwd	%xmm5, %xmm0
	pmaddwd	.LC16(%rip), %xmm14
	movdqa	%xmm8, %xmm12
	psrad	$4, %xmm3
	movdqa	%xmm2, %xmm5
	punpckhwd	%xmm10, %xmm2
	movdqa	%xmm14, %xmm13
	movdqa	%xmm2, %xmm15
	pmaddwd	.LC15(%rip), %xmm8
	punpcklwd	%xmm10, %xmm5
	movdqa	%xmm6, %xmm14
	movdqa	%xmm5, %xmm10
	pmaddwd	.LC19(%rip), %xmm2
	pmaddwd	.LC16(%rip), %xmm14
	psrad	$4, %xmm4
	pmaddwd	.LC19(%rip), %xmm5
	pmaddwd	.LC18(%rip), %xmm15
	pmaddwd	.LC17(%rip), %xmm6
	psrad	$4, %xmm0
	pmaddwd	.LC14(%rip), %xmm12
	paddd	%xmm2, %xmm14
	pmaddwd	.LC15(%rip), %xmm9
	paddd	%xmm8, %xmm2
	movdqa	32(%rsp), %xmm8
	paddd	%xmm15, %xmm12
	pmaddwd	.LC18(%rip), %xmm10
	paddd	%xmm5, %xmm13
	paddd	%xmm5, %xmm9
	paddd	%xmm6, %xmm15
	pmaddwd	.LC17(%rip), %xmm7
	movdqa	.LC21(%rip), %xmm6
	paddd	%xmm3, %xmm8
	paddd	%xmm10, %xmm11
	movdqa	64(%rsp), %xmm5
	paddd	48(%rsp), %xmm5
	paddd	%xmm10, %xmm7
	paddd	%xmm6, %xmm8
	paddd	%xmm6, %xmm3
	paddd	%xmm6, %xmm5
	movdqa	%xmm8, %xmm1
	psubd	%xmm7, %xmm8
	movdqa	%xmm5, %xmm10
	psrad	$17, %xmm8
	paddd	%xmm7, %xmm1
	movdqa	16(%rsp), %xmm7
	psubd	%xmm15, %xmm5
	paddd	%xmm15, %xmm10
	psrad	$17, %xmm1
	psrad	$17, %xmm5
	paddd	%xmm0, %xmm7
	paddd	%xmm6, %xmm0
	packssdw	%xmm5, %xmm8
	movdqa	(%rsp), %xmm5
	paddd	%xmm6, %xmm7
	psrad	$17, %xmm10
	psubd	16(%rsp), %xmm0
	packssdw	%xmm10, %xmm1
	movdqa	%xmm7, %xmm15
	psubd	%xmm2, %xmm7
	paddd	%xmm4, %xmm5
	paddd	%xmm6, %xmm4
	psrad	$17, %xmm7
	paddd	%xmm6, %xmm5
	psubd	(%rsp), %xmm4
	paddd	%xmm2, %xmm15
	movdqa	%xmm5, %xmm10
	psubd	%xmm9, %xmm5
	psrad	$17, %xmm5
	movdqa	%xmm4, %xmm2
	psubd	%xmm13, %xmm4
	packssdw	%xmm7, %xmm5
	movdqa	%xmm0, %xmm7
	psubd	32(%rsp), %xmm3
	psrad	$17, %xmm4
	paddd	%xmm14, %xmm7
	paddd	%xmm13, %xmm2
	packuswb	%xmm8, %xmm5
	psrad	$17, %xmm15
	psubd	%xmm14, %xmm0
	paddd	64(%rsp), %xmm6
	psrad	$17, %xmm7
	psubd	48(%rsp), %xmm6
	psrad	$17, %xmm0
	paddd	%xmm9, %xmm10
	psrad	$17, %xmm2
	packssdw	%xmm0, %xmm4
	movdqa	%xmm3, %xmm0
	psubd	%xmm11, %xmm3
	packssdw	%xmm7, %xmm2
	movdqa	%xmm6, %xmm7
	paddd	%xmm11, %xmm0
	psrad	$17, %xmm10
	paddd	%xmm12, %xmm7
	psubd	%xmm12, %xmm6
	psrad	$17, %xmm0
	packssdw	%xmm15, %xmm10
	psrad	$17, %xmm7
	packuswb	%xmm10, %xmm1
	packssdw	%xmm7, %xmm0
	psrad	$17, %xmm6
	packuswb	%xmm0, %xmm2
	movdqa	%xmm1, %xmm0
	psrad	$17, %xmm3
	packssdw	%xmm6, %xmm3
	packuswb	%xmm4, %xmm3
	movdqa	%xmm2, %xmm4
	punpcklbw	%xmm3, %xmm0
	punpckhbw	%xmm3, %xmm1
	punpckhbw	%xmm5, %xmm2
	movdqa	%xmm2, %xmm3
	movdqa	%xmm0, %xmm2
	punpcklbw	%xmm5, %xmm4
	movdqa	%xmm1, %xmm5
	punpckhbw	%xmm4, %xmm0
	punpcklbw	%xmm4, %xmm2
	movdqa	%xmm2, %xmm4
	punpcklbw	%xmm3, %xmm5
	punpckhbw	%xmm5, %xmm2
	punpckhbw	%xmm3, %xmm1
	punpcklbw	%xmm5, %xmm4
	movq	%xmm4, (%rcx)
	pshufd	$78, %xmm4, %xmm4
	movdqa	%xmm0, %xmm3
	movq	%xmm4, (%rax)
	addq	%rdx, %rax
	punpcklbw	%xmm1, %xmm3
	punpckhbw	%xmm1, %xmm0
	movq	%xmm2, (%rax)
	addq	%rdx, %rax
	pshufd	$78, %xmm2, %xmm2
	movq	%xmm2, (%rax)
	addq	%rdx, %rax
	movq	%xmm3, (%rax)
	addq	%rdx, %rax
	pshufd	$78, %xmm3, %xmm3
	movq	%xmm3, (%rax)
	movq	%xmm0, (%rax,%rdx)
	pshufd	$78, %xmm0, %xmm0
	movq	%xmm0, (%rax,%rdx,2)
	movaps	96(%rsp), %xmm6
	movaps	112(%rsp), %xmm7
	movaps	128(%rsp), %xmm8
	movaps	144(%rsp), %xmm9
	movaps	160(%rsp), %xmm10
	movaps	176(%rsp), %xmm11
	movaps	192(%rsp), %xmm12
	movaps	208(%rsp), %xmm13
	movaps	224(%rsp), %xmm14
	movaps	240(%rsp), %xmm15
	addq	$264, %rsp
	ret
	.seh_endproc
	.p2align 4,,15
	.def	_ZL10stbi__getnP13stbi__contextPhi;	.scl	3;	.type	32;	.endef
	.seh_proc	_ZL10stbi__getnP13stbi__contextPhi
_ZL10stbi__getnP13stbi__contextPhi:
.LFB865:
	pushq	%rbp
	.seh_pushreg	%rbp
	pushq	%rdi
	.seh_pushreg	%rdi
	pushq	%rsi
	.seh_pushreg	%rsi
	pushq	%rbx
	.seh_pushreg	%rbx
	subq	$40, %rsp
	.seh_stackalloc	40
	.seh_endprologue
	movq	%rcx, %rsi
	movq	%rdx, %r9
	movslq	%r8d, %rbx
	movq	192(%rcx), %rcx
	cmpq	$0, 16(%rsi)
	movq	184(%rsi), %rdx
	je	.L193
	movq	%rcx, %rdi
	subq	%rdx, %rdi
	cmpl	%ebx, %edi
	jl	.L196
.L193:
	leaq	(%rdx,%rbx), %r8
	xorl	%eax, %eax
	cmpq	%r8, %rcx
	jb	.L192
	movq	%rbx, %r8
	movq	%r9, %rcx
	call	memcpy
	movl	$1, %eax
	addq	%rbx, 184(%rsi)
.L192:
	addq	$40, %rsp
	popq	%rbx
	popq	%rsi
	popq	%rdi
	popq	%rbp
	ret
	.p2align 4,,10
.L196:
	movslq	%edi, %rbp
	movq	%r9, %rcx
	subl	%edi, %ebx
	movq	%rbp, %r8
	call	memcpy
	movq	40(%rsi), %rcx
	movl	%ebx, %r8d
	leaq	(%rax,%rbp), %rdx
	call	*16(%rsi)
	movq	192(%rsi), %rdx
	cmpl	%eax, %ebx
	sete	%al
	movzbl	%al, %eax
	movq	%rdx, 184(%rsi)
	addq	$40, %rsp
	popq	%rbx
	popq	%rsi
	popq	%rdi
	popq	%rbp
	ret
	.seh_endproc
	.p2align 4,,15
	.def	_ZL17stbi__hdr_convertPfPhi;	.scl	3;	.type	32;	.endef
	.seh_proc	_ZL17stbi__hdr_convertPfPhi
_ZL17stbi__hdr_convertPfPhi:
.LFB990:
	pushq	%rbx
	.seh_pushreg	%rbx
	subq	$48, %rsp
	.seh_stackalloc	48
	.seh_endprologue
	movq	%rdx, %rbx
	movzbl	3(%rdx), %edx
	testb	%dl, %dl
	jne	.L214
	cmpl	$2, %r8d
	je	.L203
	jle	.L215
	cmpl	$3, %r8d
	je	.L206
	cmpl	$4, %r8d
	jne	.L197
	movl	$0x3f800000, 12(%rcx)
.L206:
	movq	$0, (%rcx)
	movl	$0, 8(%rcx)
	addq	$48, %rsp
	popq	%rbx
	ret
	.p2align 4,,10
.L215:
	cmpl	$1, %r8d
	jne	.L197
.L205:
	movl	$0x00000000, (%rcx)
.L197:
	addq	$48, %rsp
	popq	%rbx
	ret
	.p2align 4,,10
.L214:
	movss	.LC22(%rip), %xmm0
	subl	$136, %edx
	movl	%r8d, 44(%rsp)
	movq	%rcx, 32(%rsp)
	call	ldexpf
	movl	44(%rsp), %r8d
	movzbl	(%rbx), %eax
	movq	32(%rsp), %rcx
	cmpl	$2, %r8d
	jg	.L199
	movzbl	1(%rbx), %edx
	pxor	%xmm1, %xmm1
	addl	%edx, %eax
	movzbl	2(%rbx), %edx
	addl	%edx, %eax
	cmpl	$2, %r8d
	cvtsi2ss	%eax, %xmm1
	mulss	%xmm0, %xmm1
	divss	.LC23(%rip), %xmm1
	movss	%xmm1, (%rcx)
	jne	.L197
	movl	$0x3f800000, 4(%rcx)
	addq	$48, %rsp
	popq	%rbx
	ret
	.p2align 4,,10
.L199:
	pxor	%xmm1, %xmm1
	cvtsi2ss	%eax, %xmm1
	pxor	%xmm2, %xmm2
	cmpl	$4, %r8d
	mulss	%xmm0, %xmm1
	movss	%xmm1, (%rcx)
	movzbl	1(%rbx), %eax
	pxor	%xmm1, %xmm1
	cvtsi2ss	%eax, %xmm1
	mulss	%xmm0, %xmm1
	movss	%xmm1, 4(%rcx)
	movzbl	2(%rbx), %eax
	cvtsi2ss	%eax, %xmm2
	mulss	%xmm0, %xmm2
	movss	%xmm2, 8(%rcx)
	jne	.L197
	movl	$0x3f800000, 12(%rcx)
	addq	$48, %rsp
	popq	%rbx
	ret
	.p2align 4,,10
.L203:
	movl	$0x3f800000, 4(%rcx)
	jmp	.L205
	.seh_endproc
	.p2align 4,,15
	.def	_ZL17stbi__stdio_writePvS_i;	.scl	3;	.type	32;	.endef
	.seh_proc	_ZL17stbi__stdio_writePvS_i
_ZL17stbi__stdio_writePvS_i:
.LFB1009:
	.seh_endprologue
	movq	%rcx, %r9
	movslq	%r8d, %r8
	movq	%rdx, %rcx
	movl	$1, %edx
	jmp	fwrite
	.seh_endproc
	.section .rdata,"dr"
.LC25:
	.ascii "Error %d: %s\12\0"
	.text
	.p2align 4,,15
	.def	_ZL14error_callbackiPKc;	.scl	3;	.type	32;	.endef
	.seh_proc	_ZL14error_callbackiPKc
_ZL14error_callbackiPKc:
.LFB7470:
	pushq	%rsi
	.seh_pushreg	%rsi
	pushq	%rbx
	.seh_pushreg	%rbx
	subq	$40, %rsp
	.seh_stackalloc	40
	.seh_endprologue
	movl	%ecx, %ebx
	movq	%rdx, %rsi
	call	*__imp___iob_func(%rip)
	movq	%rsi, %r9
	movl	%ebx, %r8d
	leaq	96(%rax), %rcx
	leaq	.LC25(%rip), %rdx
	addq	$40, %rsp
	popq	%rbx
	popq	%rsi
	jmp	fprintf
	.seh_endproc
	.p2align 4,,15
	.globl	_Z29ImGui_ImplGlfwGL3_KeyCallbackP10GLFWwindowiiii
	.def	_Z29ImGui_ImplGlfwGL3_KeyCallbackP10GLFWwindowiiii;	.scl	2;	.type	32;	.endef
	.seh_proc	_Z29ImGui_ImplGlfwGL3_KeyCallbackP10GLFWwindowiiii
_Z29ImGui_ImplGlfwGL3_KeyCallbackP10GLFWwindowiiii:
.LFB7462:
	pushq	%rsi
	.seh_pushreg	%rsi
	pushq	%rbx
	.seh_pushreg	%rbx
	subq	$40, %rsp
	.seh_stackalloc	40
	.seh_endprologue
	movl	%r9d, %esi
	movslq	%edx, %rbx
	call	_ZN5ImGui5GetIOEv
	cmpl	$1, %esi
	je	.L225
	testl	%esi, %esi
	jne	.L220
	movb	$0, 281(%rax,%rbx)
.L220:
	movzbl	622(%rax), %edx
	testb	%dl, %dl
	jne	.L221
	movzbl	626(%rax), %edx
.L221:
	movb	%dl, 277(%rax)
	movzbl	621(%rax), %edx
	testb	%dl, %dl
	jne	.L222
	movzbl	625(%rax), %edx
.L222:
	movb	%dl, 278(%rax)
	movzbl	623(%rax), %edx
	testb	%dl, %dl
	jne	.L223
	movzbl	627(%rax), %edx
.L223:
	movb	%dl, 279(%rax)
	movzbl	624(%rax), %edx
	testb	%dl, %dl
	jne	.L224
	movzbl	628(%rax), %edx
.L224:
	movb	%dl, 280(%rax)
	addq	$40, %rsp
	popq	%rbx
	popq	%rsi
	ret
	.p2align 4,,10
.L225:
	movb	$1, 281(%rax,%rbx)
	jmp	.L220
	.seh_endproc
	.p2align 4,,15
	.globl	_Z33ImGui_ImplGlfwGL3_RenderDrawListsP10ImDrawData
	.def	_Z33ImGui_ImplGlfwGL3_RenderDrawListsP10ImDrawData;	.scl	2;	.type	32;	.endef
	.seh_proc	_Z33ImGui_ImplGlfwGL3_RenderDrawListsP10ImDrawData
_Z33ImGui_ImplGlfwGL3_RenderDrawListsP10ImDrawData:
.LFB7457:
	pushq	%r15
	.seh_pushreg	%r15
	pushq	%r14
	.seh_pushreg	%r14
	pushq	%r13
	.seh_pushreg	%r13
	pushq	%r12
	.seh_pushreg	%r12
	pushq	%rbp
	.seh_pushreg	%rbp
	pushq	%rdi
	.seh_pushreg	%rdi
	pushq	%rsi
	.seh_pushreg	%rsi
	pushq	%rbx
	.seh_pushreg	%rbx
	subq	$200, %rsp
	.seh_stackalloc	200
	.seh_endprologue
	movq	%rcx, %r13
	call	_ZN5ImGui5GetIOEv
	movss	(%rax), %xmm0
	movq	%rax, %rsi
	mulss	160(%rax), %xmm0
	cvttss2si	%xmm0, %ebx
	movss	4(%rax), %xmm0
	mulss	164(%rax), %xmm0
	testl	%ebx, %ebx
	cvttss2si	%xmm0, %edi
	movl	%edi, 40(%rsp)
	je	.L226
	testl	%edi, %edi
	jne	.L248
.L226:
	addq	$200, %rsp
	popq	%rbx
	popq	%rsi
	popq	%rdi
	popq	%rbp
	popq	%r12
	popq	%r13
	popq	%r14
	popq	%r15
	ret
	.p2align 4,,10
.L248:
	leaq	160(%rax), %rdx
	movq	%r13, %rcx
	call	_ZN10ImDrawData14ScaleClipRectsERK6ImVec2
	leaq	48(%rsp), %rdx
	movl	$34016, %ecx
	call	glGetIntegerv
	movq	__imp___glewActiveTexture(%rip), %rax
	movl	$33984, %ecx
	call	*(%rax)
	leaq	52(%rsp), %rdx
	movl	$35725, %ecx
	call	glGetIntegerv
	leaq	56(%rsp), %rdx
	movl	$32873, %ecx
	call	glGetIntegerv
	leaq	60(%rsp), %rdx
	movl	$34964, %ecx
	call	glGetIntegerv
	leaq	64(%rsp), %rdx
	movl	$34965, %ecx
	call	glGetIntegerv
	leaq	68(%rsp), %rdx
	movl	$34229, %ecx
	call	glGetIntegerv
	leaq	72(%rsp), %rdx
	movl	$32969, %ecx
	call	glGetIntegerv
	leaq	76(%rsp), %rdx
	movl	$32968, %ecx
	call	glGetIntegerv
	leaq	80(%rsp), %rdx
	movl	$32971, %ecx
	call	glGetIntegerv
	leaq	84(%rsp), %rdx
	movl	$32970, %ecx
	call	glGetIntegerv
	leaq	88(%rsp), %rdx
	movl	$32777, %ecx
	call	glGetIntegerv
	leaq	92(%rsp), %rdx
	movl	$34877, %ecx
	call	glGetIntegerv
	leaq	96(%rsp), %rdx
	movl	$2978, %ecx
	call	glGetIntegerv
	leaq	112(%rsp), %rdx
	movl	$3088, %ecx
	call	glGetIntegerv
	movl	$3042, %ecx
	call	glIsEnabled
	movl	$2884, %ecx
	movb	%al, 44(%rsp)
	call	glIsEnabled
	movl	$2929, %ecx
	movb	%al, 45(%rsp)
	call	glIsEnabled
	movl	$3089, %ecx
	movb	%al, 46(%rsp)
	call	glIsEnabled
	movl	$3042, %ecx
	movb	%al, 47(%rsp)
	call	glEnable
	movq	__imp___glewBlendEquation(%rip), %rax
	movl	$32774, %ecx
	call	*(%rax)
	movl	$771, %edx
	movl	$770, %ecx
	call	glBlendFunc
	movl	$2884, %ecx
	call	glDisable
	movl	$2929, %ecx
	call	glDisable
	movl	$3089, %ecx
	call	glEnable
	movl	%edi, %r9d
	movl	%ebx, %r8d
	xorl	%edx, %edx
	leaq	132(%rsp), %rdi
	xorl	%ecx, %ecx
	call	glViewport
	movss	.LC27(%rip), %xmm0
	xorl	%eax, %eax
	movl	$7, %ecx
	rep stosq
	movabsq	$4575657224621260800, %rax
	movl	_ZL14g_ShaderHandle(%rip), %ecx
	movl	$0xbf800000, 168(%rsp)
	movaps	%xmm0, %xmm1
	divss	(%rsi), %xmm1
	movss	%xmm1, 128(%rsp)
	movss	4(%rsi), %xmm1
	xorps	.LC28(%rip), %xmm1
	divss	%xmm1, %xmm0
	movq	%rax, 176(%rsp)
	movq	__imp___glewUseProgram(%rip), %rax
	movl	$0x3f800000, 188(%rsp)
	movss	%xmm0, 148(%rsp)
	call	*(%rax)
	movq	__imp___glewUniform1i(%rip), %rax
	xorl	%edx, %edx
	movl	_ZL19g_AttribLocationTex(%rip), %ecx
	call	*(%rax)
	xorl	%r8d, %r8d
	movl	$1, %edx
	movl	_ZL23g_AttribLocationProjMtx(%rip), %ecx
	movq	__imp___glewUniformMatrix4fv(%rip), %rax
	leaq	128(%rsp), %r9
	call	*(%rax)
	movq	__imp___glewBindVertexArray(%rip), %rax
	movl	_ZL11g_VaoHandle(%rip), %ecx
	call	*(%rax)
	movl	16(%r13), %edx
	testl	%edx, %edx
	jle	.L249
	movq	__imp___glewBindBuffer(%rip), %rax
	xorl	%r12d, %r12d
	xorl	%edi, %edi
	movq	%rax, 32(%rsp)
	.p2align 4,,10
.L233:
	movq	8(%r13), %rax
	movl	$34962, %ecx
	movq	32(%rsp), %rbx
	movl	_ZL11g_VboHandle(%rip), %edx
	movq	(%rax,%r12), %rsi
	call	*(%rbx)
	movl	$35040, %r9d
	movl	$34962, %ecx
	movslq	32(%rsi), %rax
	movq	40(%rsi), %r8
	leaq	(%rax,%rax,4), %rdx
	movq	__imp___glewBufferData(%rip), %rax
	salq	$2, %rdx
	call	*(%rax)
	movl	_ZL16g_ElementsHandle(%rip), %edx
	movl	$34963, %ecx
	call	*(%rbx)
	movslq	16(%rsi), %rdx
	movl	$35040, %r9d
	movl	$34963, %ecx
	movq	__imp___glewBufferData(%rip), %rax
	movq	24(%rsi), %r8
	addq	%rdx, %rdx
	call	*(%rax)
	movl	(%rsi), %eax
	testl	%eax, %eax
	jle	.L229
	xorl	%ebp, %ebp
	xorl	%r14d, %r14d
	xorl	%r15d, %r15d
	.p2align 4,,10
.L230:
	movq	8(%rsi), %rbx
	addq	%rbp, %rbx
	movq	32(%rbx), %rax
	testq	%rax, %rax
	je	.L231
	movq	%rbx, %rdx
	movq	%rsi, %rcx
	call	*%rax
.L247:
	movl	(%rbx), %eax
	addl	$1, %r14d
	addq	$48, %rbp
	cmpl	%r14d, (%rsi)
	leaq	(%r15,%rax,2), %r15
	jg	.L230
.L229:
	addl	$1, %edi
	addq	$8, %r12
	cmpl	%edi, 16(%r13)
	jg	.L233
.L228:
	movq	__imp___glewUseProgram(%rip), %rax
	movl	52(%rsp), %ecx
	call	*(%rax)
	movl	56(%rsp), %edx
	movl	$3553, %ecx
	call	glBindTexture
	movq	__imp___glewActiveTexture(%rip), %rax
	movl	48(%rsp), %ecx
	call	*(%rax)
	movq	__imp___glewBindVertexArray(%rip), %rax
	movl	68(%rsp), %ecx
	call	*(%rax)
	movq	32(%rsp), %rdi
	movl	$34962, %ecx
	movl	60(%rsp), %edx
	call	*(%rdi)
	movl	64(%rsp), %edx
	movl	$34963, %ecx
	call	*(%rdi)
	movq	__imp___glewBlendEquationSeparate(%rip), %rax
	movl	92(%rsp), %edx
	movl	88(%rsp), %ecx
	call	*(%rax)
	movq	__imp___glewBlendFuncSeparate(%rip), %rax
	movl	72(%rsp), %ecx
	movl	84(%rsp), %r9d
	movl	80(%rsp), %r8d
	movl	76(%rsp), %edx
	call	*(%rax)
	cmpb	$0, 44(%rsp)
	movl	$3042, %ecx
	jne	.L250
	call	glDisable
	cmpb	$0, 45(%rsp)
	movl	$2884, %ecx
	je	.L236
.L251:
	call	glEnable
	cmpb	$0, 46(%rsp)
	movl	$2929, %ecx
	je	.L238
.L252:
	call	glEnable
	cmpb	$0, 47(%rsp)
	movl	$3089, %ecx
	je	.L240
.L253:
	call	glEnable
.L241:
	movl	108(%rsp), %r9d
	movl	104(%rsp), %r8d
	movl	100(%rsp), %edx
	movl	96(%rsp), %ecx
	call	glViewport
	movl	124(%rsp), %r9d
	movl	120(%rsp), %r8d
	movl	116(%rsp), %edx
	movl	112(%rsp), %ecx
	call	glScissor
	jmp	.L226
	.p2align 4,,10
.L231:
	movl	24(%rbx), %edx
	movl	$3553, %ecx
	call	glBindTexture
	pxor	%xmm1, %xmm1
	cvtsi2ss	40(%rsp), %xmm1
	movss	16(%rbx), %xmm3
	movss	4(%rbx), %xmm2
	movss	12(%rbx), %xmm0
	movaps	%xmm3, %xmm4
	subss	8(%rbx), %xmm4
	subss	%xmm2, %xmm0
	subss	%xmm3, %xmm1
	cvttss2si	%xmm2, %ecx
	cvttss2si	%xmm4, %r9d
	cvttss2si	%xmm1, %edx
	cvttss2si	%xmm0, %r8d
	call	glScissor
	movl	(%rbx), %edx
	movq	%r15, %r9
	movl	$5123, %r8d
	movl	$4, %ecx
	call	glDrawElements
	jmp	.L247
	.p2align 4,,10
.L250:
	call	glEnable
	cmpb	$0, 45(%rsp)
	movl	$2884, %ecx
	jne	.L251
.L236:
	call	glDisable
	cmpb	$0, 46(%rsp)
	movl	$2929, %ecx
	jne	.L252
.L238:
	call	glDisable
	cmpb	$0, 47(%rsp)
	movl	$3089, %ecx
	jne	.L253
.L240:
	call	glDisable
	jmp	.L241
.L249:
	movq	__imp___glewBindBuffer(%rip), %rax
	movq	%rax, 32(%rsp)
	jmp	.L228
	.seh_endproc
	.p2align 4,,15
	.globl	_Z30ImGui_ImplGlfwGL3_CharCallbackP10GLFWwindowj
	.def	_Z30ImGui_ImplGlfwGL3_CharCallbackP10GLFWwindowj;	.scl	2;	.type	32;	.endef
	.seh_proc	_Z30ImGui_ImplGlfwGL3_CharCallbackP10GLFWwindowj
_Z30ImGui_ImplGlfwGL3_CharCallbackP10GLFWwindowj:
.LFB7463:
	pushq	%rbx
	.seh_pushreg	%rbx
	subq	$32, %rsp
	.seh_stackalloc	32
	.seh_endprologue
	movl	%edx, %ebx
	call	_ZN5ImGui5GetIOEv
	leal	-1(%rbx), %edx
	cmpl	$65534, %edx
	jbe	.L256
	addq	$32, %rsp
	popq	%rbx
	ret
	.p2align 4,,10
.L256:
	movl	%ebx, %edx
	movq	%rax, %rcx
	addq	$32, %rsp
	popq	%rbx
	jmp	_ZN7ImGuiIO17AddInputCharacterEt
	.seh_endproc
	.p2align 4,,15
	.def	_ZL34ImGui_ImplGlfwGL3_GetClipboardTextPv;	.scl	3;	.type	32;	.endef
	.seh_proc	_ZL34ImGui_ImplGlfwGL3_GetClipboardTextPv
_ZL34ImGui_ImplGlfwGL3_GetClipboardTextPv:
.LFB7458:
	.seh_endprologue
	jmp	glfwGetClipboardString
	.seh_endproc
	.p2align 4,,15
	.def	_ZL34ImGui_ImplGlfwGL3_SetClipboardTextPvPKc;	.scl	3;	.type	32;	.endef
	.seh_proc	_ZL34ImGui_ImplGlfwGL3_SetClipboardTextPvPKc
_ZL34ImGui_ImplGlfwGL3_SetClipboardTextPvPKc:
.LFB7459:
	.seh_endprologue
	jmp	glfwSetClipboardString
	.seh_endproc
	.p2align 4,,15
	.def	__tcf_0;	.scl	3;	.type	32;	.endef
	.seh_proc	__tcf_0
__tcf_0:
.LFB7478:
	.seh_endprologue
	movq	_ZZ2fsRNSt7__cxx1112basic_stringIcSt11char_traitsIcESaIcEEES5_PKcE11current_dir(%rip), %rcx
	leaq	16+_ZZ2fsRNSt7__cxx1112basic_stringIcSt11char_traitsIcESaIcEEES5_PKcE11current_dir(%rip), %rax
	cmpq	%rax, %rcx
	je	.L259
	jmp	_ZdlPv
	.p2align 4,,10
.L259:
	ret
	.seh_endproc
	.p2align 4,,15
	.def	__tcf_1;	.scl	3;	.type	32;	.endef
	.seh_proc	__tcf_1
__tcf_1:
.LFB7479:
	.seh_endprologue
	movq	264+_ZZ2fsRNSt7__cxx1112basic_stringIcSt11char_traitsIcESaIcEEES5_PKcE6filter(%rip), %rcx
	testq	%rcx, %rcx
	je	.L261
	jmp	_ZN5ImGui7MemFreeEPv
	.p2align 4,,10
.L261:
	ret
	.def	__gxx_personality_seh0;	.scl	2;	.type	32;	.endef
	.seh_handler	__gxx_personality_seh0, @unwind, @except
	.seh_handlerdata
.LLSDA7479:
	.byte	0xff
	.byte	0xff
	.byte	0x1
	.uleb128 .LLSDACSE7479-.LLSDACSB7479
.LLSDACSB7479:
.LLSDACSE7479:
	.text
	.seh_endproc
	.p2align 4,,15
	.def	_ZL10stbi__get8P13stbi__context;	.scl	3;	.type	32;	.endef
	.seh_proc	_ZL10stbi__get8P13stbi__context
_ZL10stbi__get8P13stbi__context:
.LFB862:
	pushq	%rsi
	.seh_pushreg	%rsi
	pushq	%rbx
	.seh_pushreg	%rbx
	subq	$40, %rsp
	.seh_stackalloc	40
	.seh_endprologue
	movq	184(%rcx), %rax
	cmpq	192(%rcx), %rax
	movq	%rcx, %rbx
	jb	.L269
	movl	48(%rcx), %eax
	testl	%eax, %eax
	je	.L268
	leaq	56(%rcx), %rsi
	movl	52(%rbx), %r8d
	movq	%rsi, %rdx
	movq	40(%rcx), %rcx
	call	*16(%rbx)
	leaq	57(%rbx), %rdx
	testl	%eax, %eax
	jne	.L266
	movl	$0, 48(%rbx)
	movq	%rdx, %rsi
	movb	$0, 56(%rbx)
.L267:
	movq	%rsi, 192(%rbx)
	movq	%rdx, 184(%rbx)
.L263:
	addq	$40, %rsp
	popq	%rbx
	popq	%rsi
	ret
	.p2align 4,,10
.L269:
	leaq	1(%rax), %rdx
	movq	%rdx, 184(%rcx)
	movzbl	(%rax), %eax
	addq	$40, %rsp
	popq	%rbx
	popq	%rsi
	ret
	.p2align 4,,10
.L266:
	cltq
	addq	%rax, %rsi
	movzbl	56(%rbx), %eax
	jmp	.L267
	.p2align 4,,10
.L268:
	xorl	%eax, %eax
	jmp	.L263
	.seh_endproc
	.p2align 4,,15
	.def	_ZL10stbi__skipP13stbi__contexti.part.1;	.scl	3;	.type	32;	.endef
	.seh_proc	_ZL10stbi__skipP13stbi__contexti.part.1
_ZL10stbi__skipP13stbi__contexti.part.1:
.LFB8012:
	.seh_endprologue
	cmpq	$0, 16(%rcx)
	movq	184(%rcx), %rax
	je	.L271
	movq	192(%rcx), %r9
	movq	%r9, %r8
	subq	%rax, %r8
	cmpl	%edx, %r8d
	jge	.L271
	subl	%r8d, %edx
	movq	40(%rcx), %r8
	movq	%r9, 184(%rcx)
	movq	24(%rcx), %rax
	movq	%r8, %rcx
	rex.W jmp	*%rax
	.p2align 4,,10
.L271:
	movslq	%edx, %rdx
	addq	%rax, %rdx
	movq	%rdx, 184(%rcx)
	ret
	.seh_endproc
	.p2align 4,,15
	.def	_ZL22stbi__resample_row_h_2PhS_S_ii;	.scl	3;	.type	32;	.endef
	.seh_proc	_ZL22stbi__resample_row_h_2PhS_S_ii
_ZL22stbi__resample_row_h_2PhS_S_ii:
.LFB902:
	pushq	%rdi
	.seh_pushreg	%rdi
	pushq	%rsi
	.seh_pushreg	%rsi
	pushq	%rbx
	.seh_pushreg	%rbx
	subq	$112, %rsp
	.seh_stackalloc	112
	movaps	%xmm6, (%rsp)
	.seh_savexmm	%xmm6, 0
	movaps	%xmm7, 16(%rsp)
	.seh_savexmm	%xmm7, 16
	movaps	%xmm8, 32(%rsp)
	.seh_savexmm	%xmm8, 32
	movaps	%xmm9, 48(%rsp)
	.seh_savexmm	%xmm9, 48
	movaps	%xmm10, 64(%rsp)
	.seh_savexmm	%xmm10, 64
	movaps	%xmm11, 80(%rsp)
	.seh_savexmm	%xmm11, 80
	movaps	%xmm12, 96(%rsp)
	.seh_savexmm	%xmm12, 96
	.seh_endprologue
	cmpl	$1, %r9d
	movq	%rcx, %rax
	movzbl	(%rdx), %ecx
	je	.L290
	movb	%cl, (%rax)
	movzbl	(%rdx), %ecx
	leal	(%rcx,%rcx,2), %r8d
	movzbl	1(%rdx), %ecx
	leal	2(%r8,%rcx), %ecx
	sarl	$2, %ecx
	movb	%cl, 1(%rax)
	leal	-1(%r9), %ecx
	cmpl	$1, %ecx
	jle	.L282
	leal	-2(%r9), %r8d
	leaq	2(%rax,%r8,2), %r11
	movq	%r8, %rbx
	leaq	2(%rax), %r10
	cmpq	%r11, %rdx
	leaq	2(%rdx,%r8), %r8
	setnb	%r11b
	cmpq	%r8, %r10
	setnb	%r8b
	orb	%r8b, %r11b
	je	.L276
	cmpl	$15, %ebx
	jbe	.L276
	movl	%ebx, %esi
	xorl	%r11d, %r11d
	pxor	%xmm4, %xmm4
	movdqa	.LC0(%rip), %xmm7
	movdqa	.LC1(%rip), %xmm6
	leaq	1(%rdx), %r8
	shrl	$4, %esi
	pxor	%xmm3, %xmm3
	movdqa	.LC2(%rip), %xmm5
	.p2align 4,,10
.L277:
	movdqu	(%r8), %xmm2
	movdqa	%xmm7, %xmm10
	movdqa	%xmm7, %xmm9
	addl	$1, %r11d
	movdqu	-1(%r8), %xmm11
	addq	$32, %r10
	addq	$16, %r8
	movdqa	%xmm2, %xmm1
	punpckhbw	%xmm4, %xmm2
	pmullw	%xmm2, %xmm9
	punpcklbw	%xmm4, %xmm1
	pmullw	%xmm1, %xmm10
	pmulhw	%xmm7, %xmm1
	pmulhw	%xmm7, %xmm2
	movdqa	%xmm10, %xmm0
	punpcklwd	%xmm1, %xmm0
	punpckhwd	%xmm1, %xmm10
	movdqa	%xmm9, %xmm1
	paddd	%xmm6, %xmm0
	punpcklwd	%xmm2, %xmm1
	punpckhwd	%xmm2, %xmm9
	movdqa	%xmm11, %xmm2
	paddd	%xmm6, %xmm10
	punpcklbw	%xmm4, %xmm2
	movdqa	%xmm2, %xmm8
	punpckhwd	%xmm3, %xmm2
	paddd	%xmm10, %xmm2
	punpcklwd	%xmm3, %xmm8
	paddd	%xmm0, %xmm8
	psrad	$2, %xmm2
	paddd	%xmm6, %xmm1
	psrad	$2, %xmm8
	punpckhbw	%xmm4, %xmm11
	paddd	%xmm6, %xmm9
	movdqa	%xmm8, %xmm12
	punpcklwd	%xmm2, %xmm8
	punpckhwd	%xmm2, %xmm12
	movdqa	%xmm8, %xmm2
	punpcklwd	%xmm12, %xmm8
	punpckhwd	%xmm12, %xmm2
	punpcklwd	%xmm2, %xmm8
	movdqa	%xmm11, %xmm2
	punpckhwd	%xmm3, %xmm11
	punpcklwd	%xmm3, %xmm2
	paddd	%xmm1, %xmm2
	paddd	%xmm9, %xmm11
	pand	%xmm5, %xmm8
	psrad	$2, %xmm2
	psrad	$2, %xmm11
	movdqa	%xmm2, %xmm12
	punpckhwd	%xmm11, %xmm12
	punpcklwd	%xmm11, %xmm2
	movdqa	%xmm2, %xmm11
	punpcklwd	%xmm12, %xmm2
	punpckhwd	%xmm12, %xmm11
	punpcklwd	%xmm11, %xmm2
	pand	%xmm5, %xmm2
	packuswb	%xmm2, %xmm8
	movdqu	-15(%r8), %xmm2
	movdqa	%xmm2, %xmm11
	punpckhbw	%xmm4, %xmm2
	punpcklbw	%xmm4, %xmm11
	movdqa	%xmm11, %xmm12
	punpckhwd	%xmm3, %xmm11
	paddd	%xmm11, %xmm10
	punpcklwd	%xmm3, %xmm12
	paddd	%xmm12, %xmm0
	psrad	$2, %xmm10
	psrad	$2, %xmm0
	movdqa	%xmm0, %xmm11
	punpcklwd	%xmm10, %xmm0
	punpckhwd	%xmm10, %xmm11
	movdqa	%xmm0, %xmm10
	punpcklwd	%xmm11, %xmm0
	punpckhwd	%xmm11, %xmm10
	punpcklwd	%xmm10, %xmm0
	movdqa	%xmm2, %xmm10
	punpckhwd	%xmm3, %xmm2
	punpcklwd	%xmm3, %xmm10
	paddd	%xmm10, %xmm1
	paddd	%xmm2, %xmm9
	pand	%xmm5, %xmm0
	psrad	$2, %xmm1
	psrad	$2, %xmm9
	movdqa	%xmm1, %xmm2
	punpckhwd	%xmm9, %xmm2
	punpcklwd	%xmm9, %xmm1
	movdqa	%xmm1, %xmm9
	punpcklwd	%xmm2, %xmm1
	punpckhwd	%xmm2, %xmm9
	punpcklwd	%xmm9, %xmm1
	pand	%xmm5, %xmm1
	packuswb	%xmm1, %xmm0
	movdqa	%xmm8, %xmm1
	punpckhbw	%xmm0, %xmm8
	movups	%xmm8, -16(%r10)
	punpcklbw	%xmm0, %xmm1
	movups	%xmm1, -32(%r10)
	cmpl	%r11d, %esi
	ja	.L277
	movl	%ebx, %r8d
	andl	$-16, %r8d
	leal	1(%r8), %r10d
	cmpl	%r8d, %ebx
	je	.L280
	movslq	%r10d, %r8
	addl	%r10d, %r10d
	movq	%r8, %r11
	movslq	%r10d, %r10
	negq	%r11
	leaq	(%r10,%r11,2), %rsi
	addq	%rax, %rsi
	.p2align 4,,10
.L279:
	movzbl	(%rdx,%r8), %r10d
	movzbl	-1(%rdx,%r8), %r11d
	leal	2(%r10,%r10,2), %ebx
	addl	%ebx, %r11d
	sarl	$2, %r11d
	movb	%r11b, (%rsi,%r8,2)
	movzbl	1(%rdx,%r8), %r10d
	addl	%ebx, %r10d
	sarl	$2, %r10d
	movb	%r10b, 1(%rsi,%r8,2)
	addq	$1, %r8
	cmpl	%r8d, %ecx
	jg	.L279
.L280:
	addl	%ecx, %ecx
	movslq	%ecx, %rcx
	leaq	1(%rcx), %r10
.L275:
	movslq	%r9d, %r9
	leaq	-1(%rdx,%r9), %r8
	movzbl	-2(%rdx,%r9), %edx
	leal	(%rdx,%rdx,2), %r9d
	movzbl	(%r8), %edx
	leal	2(%r9,%rdx), %edx
	sarl	$2, %edx
	movb	%dl, (%rax,%rcx)
	movzbl	(%r8), %edx
	movb	%dl, (%rax,%r10)
.L274:
	movaps	(%rsp), %xmm6
	movaps	16(%rsp), %xmm7
	movaps	32(%rsp), %xmm8
	movaps	48(%rsp), %xmm9
	movaps	64(%rsp), %xmm10
	movaps	80(%rsp), %xmm11
	movaps	96(%rsp), %xmm12
	addq	$112, %rsp
	popq	%rbx
	popq	%rsi
	popq	%rdi
	ret
	.p2align 4,,10
.L290:
	movb	%cl, 1(%rax)
	movb	%cl, (%rax)
	jmp	.L274
	.p2align 4,,10
.L276:
	leal	-3(%r9), %r11d
	movq	%rdx, %r8
	leaq	1(%rdx,%r11), %rdi
	.p2align 4,,10
.L281:
	movzbl	1(%r8), %r11d
	addq	$1, %r8
	addq	$2, %r10
	movzbl	-1(%r8), %ebx
	leal	2(%r11,%r11,2), %esi
	addl	%esi, %ebx
	sarl	$2, %ebx
	movb	%bl, -2(%r10)
	movzbl	1(%r8), %r11d
	addl	%esi, %r11d
	sarl	$2, %r11d
	movb	%r11b, -1(%r10)
	cmpq	%rdi, %r8
	jne	.L281
	jmp	.L280
	.p2align 4,,10
.L282:
	movl	$3, %r10d
	movl	$2, %ecx
	jmp	.L275
	.seh_endproc
	.p2align 4,,15
	.def	_ZL28stbi__resample_row_hv_2_simdPhS_S_ii;	.scl	3;	.type	32;	.endef
	.seh_proc	_ZL28stbi__resample_row_hv_2_simdPhS_S_ii
_ZL28stbi__resample_row_hv_2_simdPhS_S_ii:
.LFB904:
	pushq	%rbp
	.seh_pushreg	%rbp
	pushq	%rdi
	.seh_pushreg	%rdi
	pushq	%rsi
	.seh_pushreg	%rsi
	pushq	%rbx
	.seh_pushreg	%rbx
	.seh_endprologue
	movq	%rcx, %rax
	movzbl	(%rdx), %ecx
	leal	(%rcx,%rcx,2), %r11d
	movzbl	(%r8), %ecx
	addl	%ecx, %r11d
	cmpl	$1, %r9d
	je	.L302
	leal	-1(%r9), %ebp
	movl	%ebp, %ebx
	andl	$-8, %ebx
	jle	.L298
	subl	$1, %ebx
	movdqa	.LC29(%rip), %xmm4
	xorl	%r10d, %r10d
	pxor	%xmm3, %xmm3
	shrl	$3, %ebx
	movl	%ebx, %ecx
	leaq	8(,%rcx,8), %rsi
	.p2align 4,,10
.L295:
	movq	(%r8,%r10), %xmm1
	movq	(%rdx,%r10), %xmm0
	movdqa	%xmm1, %xmm2
	movzbl	8(%rdx,%r10), %ecx
	punpcklbw	%xmm3, %xmm0
	movdqa	%xmm0, %xmm1
	punpcklbw	%xmm3, %xmm2
	psllw	$2, %xmm1
	paddw	%xmm2, %xmm1
	leal	(%rcx,%rcx,2), %ecx
	psubw	%xmm0, %xmm1
	movdqa	%xmm1, %xmm0
	movdqa	%xmm1, %xmm5
	movdqa	%xmm1, %xmm2
	pslldq	$2, %xmm0
	pinsrw	$0, %r11d, %xmm0
	movzbl	8(%r8,%r10), %r11d
	psllw	$2, %xmm5
	paddw	%xmm4, %xmm5
	psrldq	$2, %xmm2
	paddw	%xmm5, %xmm0
	psubw	%xmm1, %xmm0
	addl	%r11d, %ecx
	pinsrw	$7, %ecx, %xmm2
	paddw	%xmm5, %xmm2
	psubw	%xmm1, %xmm2
	movdqa	%xmm0, %xmm1
	punpcklwd	%xmm2, %xmm1
	psrlw	$4, %xmm1
	punpckhwd	%xmm2, %xmm0
	movdqa	%xmm1, %xmm5
	psrlw	$4, %xmm0
	packuswb	%xmm0, %xmm5
	movups	%xmm5, (%rax,%r10,2)
	movzbl	7(%rdx,%r10), %ecx
	leal	(%rcx,%rcx,2), %r11d
	movzbl	7(%r8,%r10), %ecx
	addq	$8, %r10
	addl	%ecx, %r11d
	cmpq	%r10, %rsi
	jne	.L295
	addl	$1, %ebx
	leal	0(,%rbx,8), %esi
	sall	$4, %ebx
	movslq	%esi, %r10
	movslq	%ebx, %rcx
	addl	$1, %esi
	movzbl	(%rdx,%r10), %ebx
	addq	%rax, %rcx
	movzbl	(%r8,%r10), %r10d
	leal	(%rbx,%rbx,2), %ebx
	addl	%r10d, %ebx
.L294:
	leal	(%rbx,%rbx,2), %r10d
	leal	8(%r11,%r10), %r10d
	sarl	$4, %r10d
	cmpl	%esi, %r9d
	movb	%r10b, (%rcx)
	jle	.L299
	leal	(%rsi,%rsi), %edi
	subl	%esi, %ebp
	movslq	%esi, %rsi
	movslq	%edi, %rdi
	addq	%rsi, %rdx
	addq	$1, %rbp
	addq	%rax, %rdi
	xorl	%r11d, %r11d
	addq	%r8, %rsi
	.p2align 4,,10
.L297:
	movzbl	(%rdx,%r11), %ecx
	leal	(%rcx,%rcx,2), %r10d
	movzbl	(%rsi,%r11), %ecx
	addl	%ecx, %r10d
	leal	(%rbx,%rbx,2), %ecx
	leal	8(%r10,%rcx), %r8d
	leal	(%r10,%r10,2), %ecx
	sarl	$4, %r8d
	leal	8(%rbx,%rcx), %ebx
	movb	%r8b, -1(%rdi,%r11,2)
	sarl	$4, %ebx
	movb	%bl, (%rdi,%r11,2)
	addq	$1, %r11
	movl	%r10d, %ebx
	cmpq	%r11, %rbp
	jne	.L297
.L296:
	addl	%r9d, %r9d
	addl	$2, %r10d
	movslq	%r9d, %r9
	sarl	$2, %r10d
	movb	%r10b, -1(%rax,%r9)
	popq	%rbx
	popq	%rsi
	popq	%rdi
	popq	%rbp
	ret
	.p2align 4,,10
.L302:
	addl	$2, %r11d
	sarl	$2, %r11d
	movb	%r11b, 1(%rax)
	movb	%r11b, (%rax)
	popq	%rbx
	popq	%rsi
	popq	%rdi
	popq	%rbp
	ret
	.p2align 4,,10
.L299:
	movl	%ebx, %r10d
	jmp	.L296
	.p2align 4,,10
.L298:
	movq	%rax, %rcx
	movl	%r11d, %ebx
	movl	$1, %esi
	jmp	.L294
	.seh_endproc
	.section .rdata,"dr"
	.align 8
.LC30:
	.ascii "req_comp >= 1 && req_comp <= 4\0"
.LC31:
	.ascii "outofmem\0"
.LC32:
	.ascii "0\0"
	.text
	.p2align 4,,15
	.def	_ZL22stbi__convert_format16Ptiijj.part.31;	.scl	3;	.type	32;	.endef
	.seh_proc	_ZL22stbi__convert_format16Ptiijj.part.31
_ZL22stbi__convert_format16Ptiijj.part.31:
.LFB8042:
	pushq	%r15
	.seh_pushreg	%r15
	pushq	%r14
	.seh_pushreg	%r14
	pushq	%r13
	.seh_pushreg	%r13
	pushq	%r12
	.seh_pushreg	%r12
	pushq	%rbp
	.seh_pushreg	%rbp
	pushq	%rdi
	.seh_pushreg	%rdi
	pushq	%rsi
	.seh_pushreg	%rsi
	pushq	%rbx
	.seh_pushreg	%rbx
	subq	$296, %rsp
	.seh_stackalloc	296
	movaps	%xmm6, 144(%rsp)
	.seh_savexmm	%xmm6, 144
	movaps	%xmm7, 160(%rsp)
	.seh_savexmm	%xmm7, 160
	movaps	%xmm8, 176(%rsp)
	.seh_savexmm	%xmm8, 176
	movaps	%xmm9, 192(%rsp)
	.seh_savexmm	%xmm9, 192
	movaps	%xmm10, 208(%rsp)
	.seh_savexmm	%xmm10, 208
	movaps	%xmm11, 224(%rsp)
	.seh_savexmm	%xmm11, 224
	movaps	%xmm12, 240(%rsp)
	.seh_savexmm	%xmm12, 240
	movaps	%xmm13, 256(%rsp)
	.seh_savexmm	%xmm13, 256
	movaps	%xmm14, 272(%rsp)
	.seh_savexmm	%xmm14, 272
	.seh_endprologue
	movl	400(%rsp), %r14d
	movq	%rcx, %r15
	movl	%edx, 376(%rsp)
	movl	%r8d, %ebp
	movl	%r9d, %ebx
	leal	-1(%r8), %eax
	cmpl	$3, %eax
	ja	.L493
.L304:
	leal	(%r14,%r14), %ecx
	imull	%ebx, %ecx
	imull	%ebp, %ecx
	call	malloc
	testq	%rax, %rax
	je	.L494
	testl	%r14d, %r14d
	jle	.L307
	movl	376(%rsp), %edi
	leal	-2(%rbx), %edx
	movl	%ebp, %esi
	movl	$1, %r9d
	imull	%ebx, %esi
	leal	-1(%rbx), %r12d
	pcmpeqd	%xmm6, %xmm6
	imull	%ebx, %edi
	movl	%esi, 52(%rsp)
	cmpl	$-1, %edx
	movl	%r9d, %esi
	cmovge	%ebx, %esi
	setl	%dl
	cmpl	$6, %r12d
	setbe	%cl
	movl	%r12d, %ebx
	movl	%edi, 40(%rsp)
	movl	%esi, %edi
	movl	%esi, %r13d
	orl	%edx, %ecx
	andl	$-8, %edi
	shrl	$3, %r13d
	movb	%cl, 98(%rsp)
	movl	%esi, 60(%rsp)
	leaq	.L310(%rip), %r9
	subl	%edi, %ebx
	movl	%edi, %ecx
	cmpl	$7, %r12d
	movl	%ebx, 68(%rsp)
	leaq	0(,%rcx,4), %rbx
	setbe	%r8b
	movl	%edi, 64(%rsp)
	movq	%rbx, 80(%rsp)
	leaq	0(,%rcx,8), %rdi
	orl	%edx, %r8d
	leal	-1(%rsi), %edx
	movq	%rdi, 72(%rsp)
	movl	%edx, %ebx
	andl	$-8, %edx
	movb	%r8b, 99(%rsp)
	leaq	0(,%rdx,8), %rsi
	shrl	$3, %ebx
	movq	%rsi, 120(%rsp)
	leaq	(%rcx,%rcx), %rsi
	movl	376(%rsp), %ecx
	movl	%ebx, 56(%rsp)
	leaq	(%rdx,%rdx), %rdi
	movl	%r12d, %ebx
	subl	%edx, %ebx
	movq	%rdi, 104(%rsp)
	xorl	%edi, %edi
	movl	%ebx, 100(%rsp)
	leaq	0(,%rdx,4), %rbx
	movq	%rbx, 112(%rsp)
	leal	-10(%rbp,%rcx,8), %ebp
	xorl	%ebx, %ebx
	movq	%rsi, 88(%rsp)
	xorl	%esi, %esi
	.p2align 4,,10
.L351:
	movl	%esi, %edx
	cmpl	$25, %ebp
	leaq	(%r15,%rdx,2), %rcx
	movl	%edi, %edx
	leaq	(%rax,%rdx,2), %rdx
	ja	.L308
	movl	%ebp, %r8d
	movslq	(%r9,%r8,4), %r8
	addq	%r9, %r8
	jmp	*%r8
	.section .rdata,"dr"
	.align 4
.L310:
	.long	.L309-.L310
	.long	.L311-.L310
	.long	.L312-.L310
	.long	.L308-.L310
	.long	.L308-.L310
	.long	.L308-.L310
	.long	.L308-.L310
	.long	.L313-.L310
	.long	.L308-.L310
	.long	.L314-.L310
	.long	.L315-.L310
	.long	.L308-.L310
	.long	.L308-.L310
	.long	.L308-.L310
	.long	.L308-.L310
	.long	.L316-.L310
	.long	.L317-.L310
	.long	.L308-.L310
	.long	.L318-.L310
	.long	.L308-.L310
	.long	.L308-.L310
	.long	.L308-.L310
	.long	.L308-.L310
	.long	.L319-.L310
	.long	.L320-.L310
	.long	.L321-.L310
	.text
	.p2align 4,,10
.L320:
	testl	%r12d, %r12d
	js	.L323
	cmpb	$0, 98(%rsp)
	jne	.L357
	movq	%rcx, %r8
	movq	%rdx, %r10
	xorl	%r11d, %r11d
	pxor	%xmm5, %xmm5
	.p2align 4,,10
.L348:
	movdqu	(%r8), %xmm4
	addl	$1, %r11d
	addq	$64, %r8
	addq	$32, %r10
	movdqu	-48(%r8), %xmm3
	movdqu	-32(%r8), %xmm2
	movdqa	%xmm4, %xmm1
	movdqa	%xmm4, %xmm0
	movdqu	-16(%r8), %xmm7
	punpckhwd	%xmm3, %xmm1
	punpcklwd	%xmm3, %xmm0
	punpcklwd	%xmm3, %xmm4
	movdqa	%xmm0, %xmm8
	movdqa	%xmm2, %xmm3
	punpcklwd	%xmm1, %xmm0
	punpcklwd	%xmm1, %xmm4
	punpckhwd	%xmm1, %xmm8
	punpcklwd	%xmm7, %xmm3
	punpcklwd	%xmm8, %xmm0
	punpckhwd	%xmm8, %xmm4
	movdqa	%xmm2, %xmm1
	movdqa	%xmm3, %xmm8
	punpcklwd	%xmm7, %xmm2
	punpckhwd	%xmm7, %xmm1
	punpcklwd	%xmm1, %xmm3
	punpcklwd	%xmm1, %xmm2
	movdqa	%xmm0, %xmm7
	punpckhwd	%xmm1, %xmm8
	movdqa	%xmm0, %xmm1
	punpcklwd	%xmm8, %xmm3
	punpckhwd	%xmm8, %xmm2
	punpcklwd	%xmm3, %xmm1
	movdqa	%xmm1, %xmm8
	punpckhwd	%xmm3, %xmm7
	punpcklwd	%xmm3, %xmm0
	punpckhwd	%xmm7, %xmm8
	punpcklwd	%xmm7, %xmm1
	punpcklwd	%xmm7, %xmm0
	punpcklwd	%xmm8, %xmm1
	punpckhwd	%xmm8, %xmm0
	movdqa	%xmm4, %xmm3
	movdqa	%xmm4, %xmm8
	punpcklwd	%xmm2, %xmm4
	punpckhwd	%xmm2, %xmm3
	punpcklwd	%xmm2, %xmm8
	movdqa	%xmm1, %xmm2
	movdqa	%xmm8, %xmm7
	punpcklwd	%xmm5, %xmm2
	punpckhwd	%xmm3, %xmm7
	punpcklwd	%xmm3, %xmm8
	punpcklwd	%xmm3, %xmm4
	movdqa	%xmm2, %xmm3
	punpcklwd	%xmm7, %xmm8
	punpckhwd	%xmm7, %xmm4
	punpckhwd	%xmm5, %xmm1
	pslld	$2, %xmm3
	paddd	%xmm2, %xmm3
	pslld	$2, %xmm3
	psubd	%xmm2, %xmm3
	pslld	$2, %xmm3
	paddd	%xmm2, %xmm3
	movdqa	%xmm8, %xmm2
	punpckhwd	%xmm5, %xmm8
	punpcklwd	%xmm5, %xmm2
	movdqa	%xmm2, %xmm7
	pslld	$2, %xmm7
	paddd	%xmm2, %xmm7
	movdqa	%xmm7, %xmm2
	pslld	$4, %xmm2
	psubd	%xmm7, %xmm2
	movdqa	%xmm2, %xmm7
	pslld	$1, %xmm7
	paddd	%xmm7, %xmm3
	movdqa	%xmm0, %xmm7
	punpckhwd	%xmm5, %xmm0
	movdqa	%xmm3, %xmm2
	punpcklwd	%xmm5, %xmm7
	movdqa	%xmm7, %xmm3
	pslld	$3, %xmm3
	psubd	%xmm7, %xmm3
	pslld	$2, %xmm3
	paddd	%xmm3, %xmm7
	movdqa	%xmm2, %xmm3
	movdqa	%xmm1, %xmm2
	pslld	$2, %xmm2
	paddd	%xmm7, %xmm3
	paddd	%xmm1, %xmm2
	psrad	$8, %xmm3
	pslld	$2, %xmm2
	psubd	%xmm1, %xmm2
	pslld	$2, %xmm2
	paddd	%xmm2, %xmm1
	movdqa	%xmm8, %xmm2
	pslld	$2, %xmm2
	paddd	%xmm2, %xmm8
	movdqa	%xmm8, %xmm2
	pslld	$4, %xmm2
	psubd	%xmm8, %xmm2
	pslld	$1, %xmm2
	paddd	%xmm2, %xmm1
	movdqa	%xmm0, %xmm2
	pslld	$3, %xmm2
	psubd	%xmm0, %xmm2
	pslld	$2, %xmm2
	paddd	%xmm2, %xmm0
	paddd	%xmm1, %xmm0
	movdqa	%xmm3, %xmm1
	psrad	$8, %xmm0
	punpckhwd	%xmm0, %xmm1
	punpcklwd	%xmm0, %xmm3
	movdqa	%xmm3, %xmm0
	punpcklwd	%xmm1, %xmm3
	punpckhwd	%xmm1, %xmm0
	punpcklwd	%xmm0, %xmm3
	movdqa	%xmm3, %xmm0
	punpckhwd	%xmm4, %xmm3
	punpcklwd	%xmm4, %xmm0
	movups	%xmm3, -16(%r10)
	movups	%xmm0, -32(%r10)
	cmpl	%r11d, %r13d
	ja	.L348
	addq	72(%rsp), %rcx
	addq	80(%rsp), %rdx
	movl	64(%rsp), %r10d
	cmpl	%r10d, 60(%rsp)
	je	.L323
	movl	68(%rsp), %r10d
.L346:
	movzwl	(%rcx), %r8d
	imull	$77, %r8d, %r11d
	movzwl	2(%rcx), %r8d
	imull	$150, %r8d, %r8d
	addl	%r11d, %r8d
	movzwl	4(%rcx), %r11d
	imull	$29, %r11d, %r11d
	addl	%r11d, %r8d
	sarl	$8, %r8d
	testl	%r10d, %r10d
	movw	%r8w, (%rdx)
	movzwl	6(%rcx), %r8d
	movw	%r8w, 2(%rdx)
	je	.L323
	movzwl	8(%rcx), %r8d
	imull	$77, %r8d, %r11d
	movzwl	10(%rcx), %r8d
	imull	$150, %r8d, %r8d
	addl	%r11d, %r8d
	movzwl	12(%rcx), %r11d
	imull	$29, %r11d, %r11d
	addl	%r11d, %r8d
	sarl	$8, %r8d
	cmpl	$1, %r10d
	movw	%r8w, 4(%rdx)
	movzwl	14(%rcx), %r8d
	movw	%r8w, 6(%rdx)
	je	.L323
	movzwl	16(%rcx), %r8d
	imull	$77, %r8d, %r11d
	movzwl	18(%rcx), %r8d
	imull	$150, %r8d, %r8d
	addl	%r11d, %r8d
	movzwl	20(%rcx), %r11d
	imull	$29, %r11d, %r11d
	addl	%r11d, %r8d
	sarl	$8, %r8d
	cmpl	$2, %r10d
	movw	%r8w, 8(%rdx)
	movzwl	22(%rcx), %r8d
	movw	%r8w, 10(%rdx)
	je	.L323
	movzwl	24(%rcx), %r8d
	imull	$77, %r8d, %r11d
	movzwl	26(%rcx), %r8d
	imull	$150, %r8d, %r8d
	addl	%r11d, %r8d
	movzwl	28(%rcx), %r11d
	imull	$29, %r11d, %r11d
	addl	%r11d, %r8d
	sarl	$8, %r8d
	cmpl	$3, %r10d
	movw	%r8w, 12(%rdx)
	movzwl	30(%rcx), %r8d
	movw	%r8w, 14(%rdx)
	je	.L323
	movzwl	32(%rcx), %r8d
	imull	$77, %r8d, %r11d
	movzwl	34(%rcx), %r8d
	imull	$150, %r8d, %r8d
	addl	%r11d, %r8d
	movzwl	36(%rcx), %r11d
	imull	$29, %r11d, %r11d
	addl	%r11d, %r8d
	sarl	$8, %r8d
	cmpl	$4, %r10d
	movw	%r8w, 16(%rdx)
	movzwl	38(%rcx), %r8d
	movw	%r8w, 18(%rdx)
	je	.L323
	movzwl	40(%rcx), %r8d
	imull	$77, %r8d, %r11d
	movzwl	42(%rcx), %r8d
	imull	$150, %r8d, %r8d
	addl	%r11d, %r8d
	movzwl	44(%rcx), %r11d
	imull	$29, %r11d, %r11d
	addl	%r11d, %r8d
	sarl	$8, %r8d
	cmpl	$5, %r10d
	movw	%r8w, 20(%rdx)
	movzwl	46(%rcx), %r8d
	movw	%r8w, 22(%rdx)
	je	.L323
	movzwl	48(%rcx), %r8d
	imull	$77, %r8d, %r10d
	movzwl	50(%rcx), %r8d
	imull	$150, %r8d, %r8d
	addl	%r10d, %r8d
	movzwl	52(%rcx), %r10d
	imull	$29, %r10d, %r10d
	addl	%r10d, %r8d
	sarl	$8, %r8d
	movw	%r8w, 24(%rdx)
	movzwl	54(%rcx), %ecx
	movw	%cx, 26(%rdx)
	.p2align 4,,10
.L323:
	addl	$1, %ebx
	addl	40(%rsp), %esi
	addl	52(%rsp), %edi
	cmpl	%r14d, %ebx
	jne	.L351
.L307:
	movq	%r15, %rcx
	movq	%rax, 40(%rsp)
	call	free
	movq	40(%rsp), %rax
.L303:
	movaps	144(%rsp), %xmm6
	movaps	160(%rsp), %xmm7
	movaps	176(%rsp), %xmm8
	movaps	192(%rsp), %xmm9
	movaps	208(%rsp), %xmm10
	movaps	224(%rsp), %xmm11
	movaps	240(%rsp), %xmm12
	movaps	256(%rsp), %xmm13
	movaps	272(%rsp), %xmm14
	addq	$296, %rsp
	popq	%rbx
	popq	%rsi
	popq	%rdi
	popq	%rbp
	popq	%r12
	popq	%r13
	popq	%r14
	popq	%r15
	ret
	.p2align 4,,10
.L321:
	testl	%r12d, %r12d
	js	.L323
	movl	%r12d, %r8d
	.p2align 4,,10
.L350:
	movzwl	(%rcx), %r10d
	subl	$1, %r8d
	addq	$8, %rcx
	addq	$6, %rdx
	movw	%r10w, -6(%rdx)
	movzwl	-6(%rcx), %r10d
	movw	%r10w, -4(%rdx)
	movzwl	-4(%rcx), %r10d
	movw	%r10w, -2(%rdx)
	cmpl	$-1, %r8d
	jne	.L350
	addl	$1, %ebx
	addl	40(%rsp), %esi
	addl	52(%rsp), %edi
	cmpl	%r14d, %ebx
	jne	.L351
	jmp	.L307
	.p2align 4,,10
.L319:
	testl	%r12d, %r12d
	js	.L323
	cmpb	$0, 99(%rsp)
	jne	.L356
	movq	%rcx, %r8
	movq	%rdx, %r11
	xorl	%r10d, %r10d
	pxor	%xmm4, %xmm4
	.p2align 4,,10
.L345:
	movdqu	(%r8), %xmm7
	addl	$1, %r10d
	addq	$64, %r8
	addq	$16, %r11
	movdqu	-48(%r8), %xmm10
	movdqu	-32(%r8), %xmm2
	movdqa	%xmm7, %xmm1
	movdqa	%xmm7, %xmm9
	movdqu	-16(%r8), %xmm8
	punpcklwd	%xmm10, %xmm1
	movdqa	%xmm1, %xmm13
	punpckhwd	%xmm10, %xmm9
	movdqa	%xmm2, %xmm3
	punpckhwd	%xmm9, %xmm13
	movdqa	%xmm2, %xmm5
	punpcklwd	%xmm9, %xmm1
	punpcklwd	%xmm8, %xmm3
	punpcklwd	%xmm13, %xmm1
	movdqa	%xmm3, %xmm12
	movdqa	%xmm1, %xmm11
	movdqa	%xmm1, %xmm0
	punpckhwd	%xmm8, %xmm5
	punpcklwd	%xmm10, %xmm7
	punpckhwd	%xmm5, %xmm12
	punpcklwd	%xmm5, %xmm3
	punpcklwd	%xmm9, %xmm7
	punpcklwd	%xmm12, %xmm3
	punpckhwd	%xmm13, %xmm7
	punpckhwd	%xmm3, %xmm11
	punpcklwd	%xmm3, %xmm0
	punpcklwd	%xmm3, %xmm1
	movdqa	%xmm7, %xmm3
	movdqa	%xmm0, %xmm14
	punpcklwd	%xmm8, %xmm2
	punpcklwd	%xmm5, %xmm2
	punpckhwd	%xmm12, %xmm2
	punpckhwd	%xmm2, %xmm3
	punpcklwd	%xmm2, %xmm7
	movdqa	%xmm7, %xmm2
	punpckhwd	%xmm11, %xmm14
	punpckhwd	%xmm3, %xmm2
	punpcklwd	%xmm3, %xmm7
	punpcklwd	%xmm11, %xmm0
	punpcklwd	%xmm2, %xmm7
	punpcklwd	%xmm14, %xmm0
	movdqa	%xmm0, %xmm2
	punpcklwd	%xmm11, %xmm1
	punpckhwd	%xmm14, %xmm1
	punpcklwd	%xmm4, %xmm2
	movdqa	%xmm2, %xmm3
	punpckhwd	%xmm4, %xmm0
	pslld	$2, %xmm3
	paddd	%xmm2, %xmm3
	pslld	$2, %xmm3
	psubd	%xmm2, %xmm3
	pslld	$2, %xmm3
	paddd	%xmm2, %xmm3
	movdqa	%xmm7, %xmm2
	punpckhwd	%xmm4, %xmm7
	punpcklwd	%xmm4, %xmm2
	movdqa	%xmm2, %xmm5
	pslld	$2, %xmm5
	paddd	%xmm2, %xmm5
	movdqa	%xmm5, %xmm2
	pslld	$4, %xmm2
	psubd	%xmm5, %xmm2
	movdqa	%xmm2, %xmm5
	pslld	$1, %xmm5
	paddd	%xmm5, %xmm3
	movdqa	%xmm1, %xmm5
	punpckhwd	%xmm4, %xmm1
	movdqa	%xmm3, %xmm2
	punpcklwd	%xmm4, %xmm5
	movdqa	%xmm5, %xmm3
	pslld	$3, %xmm3
	psubd	%xmm5, %xmm3
	pslld	$2, %xmm3
	paddd	%xmm3, %xmm5
	movdqa	%xmm2, %xmm3
	movdqa	%xmm0, %xmm2
	pslld	$2, %xmm2
	paddd	%xmm5, %xmm3
	paddd	%xmm0, %xmm2
	psrad	$8, %xmm3
	pslld	$2, %xmm2
	psubd	%xmm0, %xmm2
	pslld	$2, %xmm2
	paddd	%xmm2, %xmm0
	movdqa	%xmm7, %xmm2
	pslld	$2, %xmm2
	paddd	%xmm2, %xmm7
	movdqa	%xmm7, %xmm2
	pslld	$4, %xmm2
	psubd	%xmm7, %xmm2
	pslld	$1, %xmm2
	paddd	%xmm2, %xmm0
	movdqa	%xmm1, %xmm2
	pslld	$3, %xmm2
	psubd	%xmm1, %xmm2
	pslld	$2, %xmm2
	paddd	%xmm2, %xmm1
	paddd	%xmm0, %xmm1
	movdqa	%xmm3, %xmm0
	psrad	$8, %xmm1
	punpckhwd	%xmm1, %xmm0
	punpcklwd	%xmm1, %xmm3
	movdqa	%xmm3, %xmm1
	punpcklwd	%xmm0, %xmm3
	punpckhwd	%xmm0, %xmm1
	punpcklwd	%xmm1, %xmm3
	movups	%xmm3, -16(%r11)
	cmpl	%r10d, 56(%rsp)
	ja	.L345
	addq	120(%rsp), %rcx
	addq	104(%rsp), %rdx
	movl	100(%rsp), %r10d
.L344:
	movzwl	(%rcx), %r8d
	imull	$77, %r8d, %r11d
	movzwl	2(%rcx), %r8d
	imull	$150, %r8d, %r8d
	addl	%r11d, %r8d
	movzwl	4(%rcx), %r11d
	imull	$29, %r11d, %r11d
	addl	%r11d, %r8d
	sarl	$8, %r8d
	testl	%r10d, %r10d
	movw	%r8w, (%rdx)
	je	.L323
	movzwl	8(%rcx), %r8d
	imull	$77, %r8d, %r11d
	movzwl	10(%rcx), %r8d
	imull	$150, %r8d, %r8d
	addl	%r11d, %r8d
	movzwl	12(%rcx), %r11d
	imull	$29, %r11d, %r11d
	addl	%r11d, %r8d
	sarl	$8, %r8d
	cmpl	$1, %r10d
	movw	%r8w, 2(%rdx)
	je	.L323
	movzwl	16(%rcx), %r8d
	imull	$77, %r8d, %r11d
	movzwl	18(%rcx), %r8d
	imull	$150, %r8d, %r8d
	addl	%r11d, %r8d
	movzwl	20(%rcx), %r11d
	imull	$29, %r11d, %r11d
	addl	%r11d, %r8d
	sarl	$8, %r8d
	cmpl	$2, %r10d
	movw	%r8w, 4(%rdx)
	je	.L323
	movzwl	24(%rcx), %r8d
	imull	$77, %r8d, %r11d
	movzwl	26(%rcx), %r8d
	imull	$150, %r8d, %r8d
	addl	%r11d, %r8d
	movzwl	28(%rcx), %r11d
	imull	$29, %r11d, %r11d
	addl	%r11d, %r8d
	sarl	$8, %r8d
	cmpl	$3, %r10d
	movw	%r8w, 6(%rdx)
	je	.L323
	movzwl	32(%rcx), %r8d
	imull	$77, %r8d, %r11d
	movzwl	34(%rcx), %r8d
	imull	$150, %r8d, %r8d
	addl	%r11d, %r8d
	movzwl	36(%rcx), %r11d
	imull	$29, %r11d, %r11d
	addl	%r11d, %r8d
	sarl	$8, %r8d
	cmpl	$4, %r10d
	movw	%r8w, 8(%rdx)
	je	.L323
	movzwl	40(%rcx), %r8d
	imull	$77, %r8d, %r11d
	movzwl	42(%rcx), %r8d
	imull	$150, %r8d, %r8d
	addl	%r11d, %r8d
	movzwl	44(%rcx), %r11d
	imull	$29, %r11d, %r11d
	addl	%r11d, %r8d
	sarl	$8, %r8d
	cmpl	$5, %r10d
	movw	%r8w, 10(%rdx)
	je	.L323
	movzwl	48(%rcx), %r8d
	imull	$77, %r8d, %r11d
	movzwl	50(%rcx), %r8d
	imull	$150, %r8d, %r8d
	addl	%r11d, %r8d
	movzwl	52(%rcx), %r11d
	imull	$29, %r11d, %r11d
	addl	%r11d, %r8d
	sarl	$8, %r8d
	cmpl	$6, %r10d
	movw	%r8w, 12(%rdx)
	je	.L323
	movzwl	56(%rcx), %r10d
	addl	$1, %ebx
	movzwl	58(%rcx), %r8d
	addl	40(%rsp), %esi
	addl	52(%rsp), %edi
	imull	$77, %r10d, %r10d
	imull	$150, %r8d, %r8d
	addl	%r10d, %r8d
	movzwl	60(%rcx), %r10d
	imull	$29, %r10d, %r10d
	addl	%r10d, %r8d
	sarl	$8, %r8d
	cmpl	%r14d, %ebx
	movw	%r8w, 14(%rdx)
	jne	.L351
	jmp	.L307
	.p2align 4,,10
.L318:
	testl	%r12d, %r12d
	js	.L323
	movl	%r12d, %r8d
	.p2align 4,,10
.L341:
	movzwl	(%rcx), %r10d
	subl	$1, %r8d
	addq	$6, %rcx
	addq	$8, %rdx
	movw	%r10w, -8(%rdx)
	movzwl	-4(%rcx), %r10d
	movw	%r10w, -6(%rdx)
	movzwl	-2(%rcx), %r10d
	movw	%r10w, -4(%rdx)
	movl	$-1, %r10d
	movw	%r10w, -2(%rdx)
	cmpl	$-1, %r8d
	jne	.L341
	addl	$1, %ebx
	addl	40(%rsp), %esi
	addl	52(%rsp), %edi
	cmpl	%r14d, %ebx
	jne	.L351
	jmp	.L307
	.p2align 4,,10
.L316:
	testl	%r12d, %r12d
	js	.L323
	movl	%r12d, %r11d
	.p2align 4,,10
.L342:
	movzwl	(%rcx), %r8d
	subl	$1, %r11d
	addq	$6, %rcx
	addq	$2, %rdx
	imull	$77, %r8d, %r10d
	movzwl	-4(%rcx), %r8d
	imull	$150, %r8d, %r8d
	addl	%r10d, %r8d
	movzwl	-2(%rcx), %r10d
	imull	$29, %r10d, %r10d
	addl	%r10d, %r8d
	sarl	$8, %r8d
	movw	%r8w, -2(%rdx)
	cmpl	$-1, %r11d
	jne	.L342
	addl	$1, %ebx
	addl	40(%rsp), %esi
	addl	52(%rsp), %edi
	cmpl	%r14d, %ebx
	jne	.L351
	jmp	.L307
	.p2align 4,,10
.L315:
	testl	%r12d, %r12d
	js	.L323
	cmpb	$0, 98(%rsp)
	jne	.L355
	movq	%rcx, %r10
	movq	%rdx, %r8
	xorl	%r11d, %r11d
	.p2align 4,,10
.L339:
	movdqu	(%r10), %xmm1
	addl	$1, %r11d
	addq	$32, %r10
	addq	$64, %r8
	movdqu	-16(%r10), %xmm3
	movdqa	%xmm1, %xmm0
	movdqa	%xmm1, %xmm2
	punpcklwd	%xmm3, %xmm0
	movdqa	%xmm0, %xmm4
	punpckhwd	%xmm3, %xmm2
	punpcklwd	%xmm3, %xmm1
	punpckhwd	%xmm2, %xmm4
	punpcklwd	%xmm2, %xmm0
	punpcklwd	%xmm2, %xmm1
	punpcklwd	%xmm4, %xmm0
	punpckhwd	%xmm4, %xmm1
	movdqa	%xmm0, %xmm3
	movdqa	%xmm0, %xmm2
	movdqa	%xmm0, %xmm4
	punpcklwd	%xmm0, %xmm3
	punpckhwd	%xmm0, %xmm2
	punpcklwd	%xmm1, %xmm4
	punpckhwd	%xmm1, %xmm0
	movdqa	%xmm3, %xmm1
	punpckhwd	%xmm4, %xmm3
	movups	%xmm3, -48(%r8)
	punpcklwd	%xmm4, %xmm1
	movups	%xmm1, -64(%r8)
	movdqa	%xmm2, %xmm1
	punpckhwd	%xmm0, %xmm2
	punpcklwd	%xmm0, %xmm1
	movups	%xmm2, -16(%r8)
	movups	%xmm1, -32(%r8)
	cmpl	%r13d, %r11d
	jb	.L339
	addq	80(%rsp), %rcx
	addq	72(%rsp), %rdx
	movl	64(%rsp), %r10d
	cmpl	%r10d, 60(%rsp)
	je	.L323
	movl	68(%rsp), %r8d
.L337:
	movzwl	(%rcx), %r10d
	testl	%r8d, %r8d
	movw	%r10w, 4(%rdx)
	movw	%r10w, 2(%rdx)
	movw	%r10w, (%rdx)
	movzwl	2(%rcx), %r10d
	movw	%r10w, 6(%rdx)
	je	.L323
	movzwl	4(%rcx), %r10d
	cmpl	$1, %r8d
	movw	%r10w, 12(%rdx)
	movw	%r10w, 10(%rdx)
	movw	%r10w, 8(%rdx)
	movzwl	6(%rcx), %r10d
	movw	%r10w, 14(%rdx)
	je	.L323
	movzwl	8(%rcx), %r10d
	cmpl	$2, %r8d
	movw	%r10w, 20(%rdx)
	movw	%r10w, 18(%rdx)
	movw	%r10w, 16(%rdx)
	movzwl	10(%rcx), %r10d
	movw	%r10w, 22(%rdx)
	je	.L323
	movzwl	12(%rcx), %r10d
	cmpl	$3, %r8d
	movw	%r10w, 28(%rdx)
	movw	%r10w, 26(%rdx)
	movw	%r10w, 24(%rdx)
	movzwl	14(%rcx), %r10d
	movw	%r10w, 30(%rdx)
	je	.L323
	movzwl	16(%rcx), %r10d
	cmpl	$4, %r8d
	movw	%r10w, 36(%rdx)
	movw	%r10w, 34(%rdx)
	movw	%r10w, 32(%rdx)
	movzwl	18(%rcx), %r10d
	movw	%r10w, 38(%rdx)
	je	.L323
	movzwl	20(%rcx), %r10d
	cmpl	$5, %r8d
	movw	%r10w, 44(%rdx)
	movw	%r10w, 42(%rdx)
	movw	%r10w, 40(%rdx)
	movzwl	22(%rcx), %r10d
	movw	%r10w, 46(%rdx)
	je	.L323
	movzwl	24(%rcx), %r8d
	addl	$1, %ebx
	addl	40(%rsp), %esi
	addl	52(%rsp), %edi
	cmpl	%r14d, %ebx
	movw	%r8w, 52(%rdx)
	movw	%r8w, 50(%rdx)
	movw	%r8w, 48(%rdx)
	movzwl	26(%rcx), %ecx
	movw	%cx, 54(%rdx)
	jne	.L351
	jmp	.L307
	.p2align 4,,10
.L317:
	testl	%r12d, %r12d
	js	.L323
	movl	%r12d, %r11d
	.p2align 4,,10
.L343:
	movzwl	(%rcx), %r8d
	subl	$1, %r11d
	addq	$6, %rcx
	addq	$4, %rdx
	imull	$77, %r8d, %r10d
	movzwl	-4(%rcx), %r8d
	imull	$150, %r8d, %r8d
	addl	%r10d, %r8d
	movzwl	-2(%rcx), %r10d
	imull	$29, %r10d, %r10d
	addl	%r10d, %r8d
	sarl	$8, %r8d
	movw	%r8w, -4(%rdx)
	movl	$-1, %r8d
	movw	%r8w, -2(%rdx)
	cmpl	$-1, %r11d
	jne	.L343
	addl	$1, %ebx
	addl	40(%rsp), %esi
	addl	52(%rsp), %edi
	cmpl	%r14d, %ebx
	jne	.L351
	jmp	.L307
	.p2align 4,,10
.L314:
	testl	%r12d, %r12d
	js	.L323
	movl	%r12d, %r10d
	.p2align 4,,10
.L336:
	movzwl	(%rcx), %r8d
	subl	$1, %r10d
	addq	$4, %rcx
	addq	$6, %rdx
	movw	%r8w, -2(%rdx)
	movw	%r8w, -4(%rdx)
	movw	%r8w, -6(%rdx)
	cmpl	$-1, %r10d
	jne	.L336
	addl	$1, %ebx
	addl	40(%rsp), %esi
	addl	52(%rsp), %edi
	cmpl	%r14d, %ebx
	jne	.L351
	jmp	.L307
	.p2align 4,,10
.L313:
	testl	%r12d, %r12d
	js	.L323
	cmpb	$0, 99(%rsp)
	jne	.L354
	movl	56(%rsp), %r11d
	xorl	%r8d, %r8d
	xorl	%r10d, %r10d
	.p2align 4,,10
.L335:
	movdqu	(%rcx,%r8,2), %xmm0
	addl	$1, %r10d
	movdqu	16(%rcx,%r8,2), %xmm2
	movdqa	%xmm0, %xmm1
	punpckhwd	%xmm2, %xmm1
	punpcklwd	%xmm2, %xmm0
	movdqa	%xmm0, %xmm2
	punpcklwd	%xmm1, %xmm0
	punpckhwd	%xmm1, %xmm2
	punpcklwd	%xmm2, %xmm0
	movups	%xmm0, (%rdx,%r8)
	addq	$16, %r8
	cmpl	%r11d, %r10d
	jb	.L335
	addq	112(%rsp), %rcx
	addq	104(%rsp), %rdx
	movl	100(%rsp), %r8d
.L334:
	movzwl	(%rcx), %r10d
	testl	%r8d, %r8d
	movw	%r10w, (%rdx)
	je	.L323
	movzwl	4(%rcx), %r10d
	cmpl	$1, %r8d
	movw	%r10w, 2(%rdx)
	je	.L323
	movzwl	8(%rcx), %r10d
	cmpl	$2, %r8d
	movw	%r10w, 4(%rdx)
	je	.L323
	movzwl	12(%rcx), %r10d
	cmpl	$3, %r8d
	movw	%r10w, 6(%rdx)
	je	.L323
	movzwl	16(%rcx), %r10d
	cmpl	$4, %r8d
	movw	%r10w, 8(%rdx)
	je	.L323
	movzwl	20(%rcx), %r10d
	cmpl	$5, %r8d
	movw	%r10w, 10(%rdx)
	je	.L323
	movzwl	24(%rcx), %r10d
	cmpl	$6, %r8d
	movw	%r10w, 12(%rdx)
	je	.L323
	movzwl	28(%rcx), %ecx
	addl	$1, %ebx
	addl	40(%rsp), %esi
	addl	52(%rsp), %edi
	cmpl	%r14d, %ebx
	movw	%cx, 14(%rdx)
	jne	.L351
	jmp	.L307
	.p2align 4,,10
.L312:
	testl	%r12d, %r12d
	js	.L323
	cmpb	$0, 98(%rsp)
	jne	.L353
	movq	%rdx, %r8
	movq	%rcx, %r11
	xorl	%r10d, %r10d
	.p2align 4,,10
.L332:
	movdqu	(%r11), %xmm0
	addl	$1, %r10d
	addq	$64, %r8
	addq	$16, %r11
	movdqa	%xmm0, %xmm2
	movdqa	%xmm0, %xmm1
	movdqa	%xmm0, %xmm3
	punpcklwd	%xmm0, %xmm2
	punpckhwd	%xmm0, %xmm1
	punpcklwd	%xmm6, %xmm3
	movdqa	%xmm2, %xmm4
	punpckhwd	%xmm3, %xmm2
	movups	%xmm2, -48(%r8)
	movdqa	%xmm1, %xmm2
	punpckhwd	%xmm6, %xmm0
	punpcklwd	%xmm3, %xmm4
	punpcklwd	%xmm0, %xmm2
	movups	%xmm4, -64(%r8)
	punpckhwd	%xmm0, %xmm1
	movups	%xmm2, -32(%r8)
	movups	%xmm1, -16(%r8)
	cmpl	%r10d, %r13d
	ja	.L332
	addq	88(%rsp), %rcx
	addq	72(%rsp), %rdx
	movl	64(%rsp), %r10d
	cmpl	%r10d, 60(%rsp)
	je	.L323
	movl	68(%rsp), %r8d
.L330:
	movzwl	(%rcx), %r10d
	movl	$-1, %r11d
	testl	%r8d, %r8d
	movw	%r11w, 6(%rdx)
	movw	%r10w, 4(%rdx)
	movw	%r10w, 2(%rdx)
	movw	%r10w, (%rdx)
	je	.L323
	movzwl	2(%rcx), %r10d
	cmpl	$1, %r8d
	movw	%r10w, 12(%rdx)
	movw	%r10w, 10(%rdx)
	movw	%r10w, 8(%rdx)
	movl	$-1, %r10d
	movw	%r10w, 14(%rdx)
	je	.L323
	movzwl	4(%rcx), %r10d
	movl	$-1, %r11d
	cmpl	$2, %r8d
	movw	%r11w, 22(%rdx)
	movw	%r10w, 20(%rdx)
	movw	%r10w, 18(%rdx)
	movw	%r10w, 16(%rdx)
	je	.L323
	movzwl	6(%rcx), %r10d
	cmpl	$3, %r8d
	movw	%r10w, 28(%rdx)
	movw	%r10w, 26(%rdx)
	movw	%r10w, 24(%rdx)
	movl	$-1, %r10d
	movw	%r10w, 30(%rdx)
	je	.L323
	movzwl	8(%rcx), %r10d
	movl	$-1, %r11d
	cmpl	$4, %r8d
	movw	%r11w, 38(%rdx)
	movw	%r10w, 36(%rdx)
	movw	%r10w, 34(%rdx)
	movw	%r10w, 32(%rdx)
	je	.L323
	movzwl	10(%rcx), %r10d
	cmpl	$5, %r8d
	movw	%r10w, 44(%rdx)
	movw	%r10w, 42(%rdx)
	movw	%r10w, 40(%rdx)
	movl	$-1, %r10d
	movw	%r10w, 46(%rdx)
	je	.L323
	movzwl	12(%rcx), %ecx
	addl	$1, %ebx
	movl	$-1, %r11d
	addl	40(%rsp), %esi
	movw	%r11w, 54(%rdx)
	addl	52(%rsp), %edi
	cmpl	%r14d, %ebx
	movw	%cx, 52(%rdx)
	movw	%cx, 50(%rdx)
	movw	%cx, 48(%rdx)
	jne	.L351
	jmp	.L307
	.p2align 4,,10
.L311:
	testl	%r12d, %r12d
	js	.L323
	movl	%r12d, %r10d
	.p2align 4,,10
.L329:
	movzwl	(%rcx), %r8d
	subl	$1, %r10d
	addq	$2, %rcx
	addq	$6, %rdx
	movw	%r8w, -2(%rdx)
	movw	%r8w, -4(%rdx)
	movw	%r8w, -6(%rdx)
	cmpl	$-1, %r10d
	jne	.L329
	addl	$1, %ebx
	addl	40(%rsp), %esi
	addl	52(%rsp), %edi
	cmpl	%r14d, %ebx
	jne	.L351
	jmp	.L307
	.p2align 4,,10
.L309:
	testl	%r12d, %r12d
	js	.L323
	cmpb	$0, 98(%rsp)
	jne	.L352
	xorl	%r8d, %r8d
	xorl	%r10d, %r10d
	.p2align 4,,10
.L326:
	movdqu	(%rcx,%r8), %xmm0
	addl	$1, %r10d
	movdqa	%xmm0, %xmm1
	punpckhwd	%xmm6, %xmm0
	movups	%xmm0, 16(%rdx,%r8,2)
	punpcklwd	%xmm6, %xmm1
	movups	%xmm1, (%rdx,%r8,2)
	addq	$16, %r8
	cmpl	%r10d, %r13d
	ja	.L326
	addq	88(%rsp), %rcx
	addq	80(%rsp), %rdx
	movl	64(%rsp), %r10d
	cmpl	%r10d, 60(%rsp)
	je	.L323
	movl	68(%rsp), %r8d
.L324:
	movzwl	(%rcx), %r10d
	movl	$-1, %r11d
	testl	%r8d, %r8d
	movw	%r11w, 2(%rdx)
	movw	%r10w, (%rdx)
	je	.L323
	movzwl	2(%rcx), %r10d
	cmpl	$1, %r8d
	movw	%r10w, 4(%rdx)
	movl	$-1, %r10d
	movw	%r10w, 6(%rdx)
	je	.L323
	movzwl	4(%rcx), %r10d
	movl	$-1, %r11d
	cmpl	$2, %r8d
	movw	%r11w, 10(%rdx)
	movw	%r10w, 8(%rdx)
	je	.L323
	movzwl	6(%rcx), %r10d
	cmpl	$3, %r8d
	movw	%r10w, 12(%rdx)
	movl	$-1, %r10d
	movw	%r10w, 14(%rdx)
	je	.L323
	movzwl	8(%rcx), %r10d
	movl	$-1, %r11d
	cmpl	$4, %r8d
	movw	%r11w, 18(%rdx)
	movw	%r10w, 16(%rdx)
	je	.L323
	movzwl	10(%rcx), %r10d
	cmpl	$5, %r8d
	movw	%r10w, 20(%rdx)
	movl	$-1, %r10d
	movw	%r10w, 22(%rdx)
	je	.L323
	movzwl	12(%rcx), %ecx
	addl	$1, %ebx
	addl	40(%rsp), %esi
	addl	52(%rsp), %edi
	cmpl	%r14d, %ebx
	movw	%cx, 24(%rdx)
	movl	$-1, %ecx
	movw	%cx, 26(%rdx)
	jne	.L351
	jmp	.L307
	.p2align 4,,10
.L308:
	leaq	.LC3(%rip), %rdx
	movl	$1555, %r8d
	addl	$1, %ebx
	movq	%rax, 136(%rsp)
	leaq	.LC32(%rip), %rcx
	movq	%r9, 128(%rsp)
	call	_assert
	addl	40(%rsp), %esi
	addl	52(%rsp), %edi
	cmpl	%r14d, %ebx
	movq	136(%rsp), %rax
	movq	128(%rsp), %r9
	jne	.L351
	jmp	.L307
	.p2align 4,,10
.L493:
	leaq	.LC3(%rip), %rdx
	movl	$1526, %r8d
	leaq	.LC30(%rip), %rcx
	call	_assert
	jmp	.L304
.L352:
	movl	%r12d, %r8d
	jmp	.L324
.L357:
	movl	%r12d, %r10d
	jmp	.L346
.L356:
	movl	%r12d, %r10d
	jmp	.L344
.L355:
	movl	%r12d, %r8d
	jmp	.L337
.L354:
	movl	%r12d, %r8d
	jmp	.L334
.L353:
	movl	%r12d, %r8d
	jmp	.L330
.L494:
	movq	%r15, %rcx
	movq	%rax, 40(%rsp)
	call	free
	leaq	.LC31(%rip), %rax
	movq	%rax, _ZL22stbi__g_failure_reason(%rip)
	movq	40(%rsp), %rax
	jmp	.L303
	.seh_endproc
	.p2align 4,,15
	.def	_Z9resize_uiiii.part.51;	.scl	3;	.type	32;	.endef
	.seh_proc	_Z9resize_uiiii.part.51
_Z9resize_uiiii.part.51:
.LFB8062:
	.seh_endprologue
	pxor	%xmm0, %xmm0
	pxor	%xmm1, %xmm1
	cvtsi2ss	%ecx, %xmm0
	cmpl	%edx, %ecx
	cvtsi2ss	%edx, %xmm1
	movaps	%xmm0, %xmm2
	jg	.L496
	movaps	%xmm1, %xmm2
.L496:
	pxor	%xmm3, %xmm3
	cvtsi2ss	%r8d, %xmm3
	divss	%xmm3, %xmm2
	divss	%xmm2, %xmm1
	divss	%xmm2, %xmm0
	movd	%xmm1, %eax
	movq	%rax, %rdx
	salq	$32, %rdx
	movd	%xmm0, %eax
	orq	%rdx, %rax
	ret
	.seh_endproc
	.section .rdata,"dr"
	.align 8
.LC33:
	.ascii "C:/libraries/include/stb/stb_image_write.h\0"
.LC34:
	.ascii "p\0"
	.text
	.p2align 4,,15
	.def	_ZL14stbiw__sbgrowfPPvii.constprop.119;	.scl	3;	.type	32;	.endef
	.seh_proc	_ZL14stbiw__sbgrowfPPvii.constprop.119
_ZL14stbiw__sbgrowfPPvii.constprop.119:
.LFB8139:
	pushq	%rsi
	.seh_pushreg	%rsi
	pushq	%rbx
	.seh_pushreg	%rbx
	subq	$40, %rsp
	.seh_stackalloc	40
	.seh_endprologue
	movq	%rcx, %rbx
	movq	(%rcx), %rcx
	testq	%rcx, %rcx
	je	.L499
	movl	-8(%rcx), %eax
	subq	$8, %rcx
	leal	1(%rax,%rax), %esi
	imull	%esi, %edx
	movslq	%edx, %rdx
	addq	$8, %rdx
	call	realloc
	testq	%rax, %rax
	movq	%rax, %rdx
	je	.L505
.L500:
	cmpq	$0, (%rbx)
	je	.L506
.L504:
	leaq	8(%rdx), %rax
	movq	%rax, (%rbx)
	movl	%esi, (%rdx)
	addq	$40, %rsp
	popq	%rbx
	popq	%rsi
	ret
	.p2align 4,,10
.L499:
	addl	%edx, %edx
	movl	$2, %esi
	movslq	%edx, %rdx
	addq	$8, %rdx
	call	realloc
	testq	%rax, %rax
	movq	%rax, %rdx
	jne	.L500
.L505:
	leaq	.LC33(%rip), %rdx
	movl	$666, %r8d
	leaq	.LC34(%rip), %rcx
	call	_assert
	movq	(%rbx), %rax
	addq	$40, %rsp
	popq	%rbx
	popq	%rsi
	ret
	.p2align 4,,10
.L506:
	movl	$0, 4(%rdx)
	jmp	.L504
	.seh_endproc
	.p2align 4,,15
	.def	_ZL14stbiw__outfileP19stbi__write_contextiiiiiiPviiPKcz.constprop.120;	.scl	3;	.type	32;	.endef
	.seh_proc	_ZL14stbiw__outfileP19stbi__write_contextiiiiiiPviiPKcz.constprop.120
_ZL14stbiw__outfileP19stbi__write_contextiiiiiiPviiPKcz.constprop.120:
.LFB8138:
	pushq	%r15
	.seh_pushreg	%r15
	pushq	%r14
	.seh_pushreg	%r14
	pushq	%r13
	.seh_pushreg	%r13
	pushq	%r12
	.seh_pushreg	%r12
	pushq	%rbp
	.seh_pushreg	%rbp
	pushq	%rdi
	.seh_pushreg	%rdi
	pushq	%rsi
	.seh_pushreg	%rsi
	pushq	%rbx
	.seh_pushreg	%rbx
	subq	$88, %rsp
	.seh_stackalloc	88
	.seh_endprologue
	movl	192(%rsp), %ebx
	movl	200(%rsp), %ebp
	movl	224(%rsp), %r13d
	movq	240(%rsp), %r15
	testl	%ebx, %ebx
	movq	%rcx, %rsi
	movl	%r9d, %r12d
	js	.L528
	testl	%r9d, %r9d
	js	.L528
	leaq	248(%rsp), %rdx
	movq	%rdx, 72(%rsp)
	leaq	68(%rsp), %rdi
.L509:
	movzbl	(%r15), %eax
	testb	%al, %al
	je	.L511
.L550:
	addq	$1, %r15
	cmpb	$49, %al
	je	.L513
	jle	.L549
	cmpb	$50, %al
	je	.L515
	cmpb	$52, %al
	jne	.L512
	movl	(%rdx), %eax
	leaq	8(%rdx), %r14
	movl	$4, %r8d
	movq	8(%rsi), %rcx
	movl	%eax, %edx
	movb	%al, 68(%rsp)
	shrl	$16, %edx
	movb	%ah, 69(%rsp)
	shrl	$24, %eax
	movb	%dl, 70(%rsp)
	movq	%rdi, %rdx
	movb	%al, 71(%rsp)
	call	*(%rsi)
	movzbl	(%r15), %eax
	movq	%r14, %rdx
	testb	%al, %al
	jne	.L550
	.p2align 4,,10
.L511:
	testl	%ebx, %ebx
	movl	$0, 68(%rsp)
	je	.L517
	leal	-1(%rbx), %eax
	movl	%ebp, %edi
	movslq	%ebp, %r14
	imull	%r12d, %edi
	movl	%eax, 44(%rsp)
	leaq	-1(%r14), %r15
	imull	%edi, %eax
	movl	%edi, 52(%rsp)
	movl	%eax, 48(%rsp)
	leaq	68(%rsp), %rax
	movq	%rax, 56(%rsp)
	leaq	65(%rsp), %rax
	movq	%rax, 32(%rsp)
	.p2align 4,,10
.L527:
	testl	%r12d, %r12d
	je	.L551
	movslq	48(%rsp), %rbx
	xorl	%edi, %edi
	addq	216(%rsp), %rbx
	movq	8(%rsi), %rcx
	movq	(%rsi), %rax
	jmp	.L526
	.p2align 4,,10
.L521:
	cmpl	$4, %ebp
	jne	.L519
	testl	%r13d, %r13d
	movzbl	(%rbx), %edx
	movzbl	1(%rbx), %r8d
	movzbl	2(%rbx), %r9d
	jne	.L520
	movzbl	3(%rbx), %r11d
	subl	$255, %r9d
	subl	$255, %edx
	imull	%r11d, %r9d
	imull	%r11d, %r8d
	imull	%edx, %r11d
	movslq	%r9d, %r10
	imulq	$-2139062143, %r10, %r10
	movslq	%r11d, %rdx
	imulq	$-2139062143, %rdx, %rdx
	shrq	$32, %r10
	addl	%r9d, %r10d
	sarl	$31, %r9d
	sarl	$7, %r10d
	shrq	$32, %rdx
	subl	%r9d, %r10d
	addl	%r11d, %edx
	sarl	$31, %r11d
	subl	$1, %r10d
	sarl	$7, %edx
	movb	%r10b, 65(%rsp)
	movl	$2155905153, %r10d
	subl	%r11d, %edx
	imulq	%r10, %r8
	subl	$1, %edx
	movb	%dl, 67(%rsp)
	movq	32(%rsp), %rdx
	shrq	$39, %r8
	movb	%r8b, 66(%rsp)
	movl	$3, %r8d
	call	*%rax
	movq	8(%rsi), %rcx
	movq	(%rsi), %rax
.L525:
	addl	$1, %edi
	addq	%r14, %rbx
	cmpl	%edi, %r12d
	je	.L518
	.p2align 4,,10
.L526:
	cmpl	$3, %ebp
	je	.L552
	jg	.L521
	cmpl	$1, %ebp
	jl	.L519
	movl	208(%rsp), %edx
	testl	%edx, %edx
	je	.L524
	movzbl	(%rbx), %edx
	movb	%dl, 65(%rsp)
	movb	%dl, 66(%rsp)
.L548:
	movb	%dl, 67(%rsp)
	movl	$3, %r8d
	movq	32(%rsp), %rdx
	call	*%rax
	movq	(%rsi), %rax
	movq	8(%rsi), %rcx
.L519:
	cmpl	$1, %r13d
	jne	.L525
	leaq	(%r15,%rbx), %rdx
	addl	$1, %edi
	movl	$1, %r8d
	call	*%rax
	addq	%r14, %rbx
	cmpl	%edi, %r12d
	movq	8(%rsi), %rcx
	movq	(%rsi), %rax
	jne	.L526
.L518:
	movl	232(%rsp), %r8d
	movq	56(%rsp), %rdx
	call	*%rax
	movl	52(%rsp), %ebx
	subl	$1, 44(%rsp)
	movl	44(%rsp), %eax
	subl	%ebx, 48(%rsp)
	cmpl	$-1, %eax
	jne	.L527
.L517:
	movl	$1, %eax
	jmp	.L507
	.p2align 4,,10
.L528:
	xorl	%eax, %eax
.L507:
	addq	$88, %rsp
	popq	%rbx
	popq	%rsi
	popq	%rdi
	popq	%rbp
	popq	%r12
	popq	%r13
	popq	%r14
	popq	%r15
	ret
	.p2align 4,,10
.L552:
	movzbl	(%rbx), %edx
	movzbl	1(%rbx), %r8d
	movzbl	2(%rbx), %r9d
.L520:
	movb	%r9b, 65(%rsp)
	movb	%r8b, 66(%rsp)
	jmp	.L548
	.p2align 4,,10
.L524:
	movl	$1, %r8d
	movq	%rbx, %rdx
	call	*%rax
	movq	(%rsi), %rax
	movq	8(%rsi), %rcx
	jmp	.L519
	.p2align 4,,10
.L549:
	cmpb	$32, %al
	je	.L509
.L512:
	leaq	.LC33(%rip), %rdx
	movl	$266, %r8d
	leaq	.LC32(%rip), %rcx
	call	_assert
	jmp	.L511
	.p2align 4,,10
.L515:
	movl	(%rdx), %eax
	leaq	8(%rdx), %r14
	movl	$2, %r8d
	movq	%rdi, %rdx
	movq	8(%rsi), %rcx
	movb	%al, 68(%rsp)
	movb	%ah, 69(%rsp)
	call	*(%rsi)
	movq	%r14, %rdx
	jmp	.L509
	.p2align 4,,10
.L513:
	movl	(%rdx), %eax
	leaq	8(%rdx), %r14
	movl	$1, %r8d
	movq	%rdi, %rdx
	movq	8(%rsi), %rcx
	movb	%al, 68(%rsp)
	call	*(%rsi)
	movq	%r14, %rdx
	jmp	.L509
	.p2align 4,,10
.L551:
	movq	8(%rsi), %rcx
	movq	(%rsi), %rax
	jmp	.L518
	.seh_endproc
	.p2align 4,,15
	.def	_ZL26stbi__free_jpeg_componentsP10stbi__jpegii.constprop.127;	.scl	3;	.type	32;	.endef
	.seh_proc	_ZL26stbi__free_jpeg_componentsP10stbi__jpegii.constprop.127
_ZL26stbi__free_jpeg_componentsP10stbi__jpegii.constprop.127:
.LFB8131:
	pushq	%rsi
	.seh_pushreg	%rsi
	pushq	%rbx
	.seh_pushreg	%rbx
	subq	$40, %rsp
	.seh_stackalloc	40
	.seh_endprologue
	testl	%edx, %edx
	jle	.L554
	leal	-1(%rdx), %eax
	leaq	(%rax,%rax,2), %rax
	leaq	18128(%rcx), %rbx
	salq	$5, %rax
	leaq	18224(%rcx,%rax), %rsi
.L558:
	movq	8(%rbx), %rcx
	testq	%rcx, %rcx
	je	.L555
	call	free
	movq	$0, 8(%rbx)
	movq	$0, (%rbx)
.L555:
	movq	16(%rbx), %rcx
	testq	%rcx, %rcx
	je	.L556
	call	free
	movq	$0, 16(%rbx)
	movq	$0, 32(%rbx)
.L556:
	movq	24(%rbx), %rcx
	testq	%rcx, %rcx
	je	.L557
	call	free
	movq	$0, 24(%rbx)
.L557:
	addq	$96, %rbx
	cmpq	%rsi, %rbx
	jne	.L558
.L554:
	xorl	%eax, %eax
	addq	$40, %rsp
	popq	%rbx
	popq	%rsi
	ret
	.seh_endproc
	.p2align 4,,15
	.def	__tcf_2;	.scl	3;	.type	32;	.endef
	.seh_proc	__tcf_2
__tcf_2:
.LFB7481:
	pushq	%rsi
	.seh_pushreg	%rsi
	pushq	%rbx
	.seh_pushreg	%rbx
	subq	$40, %rsp
	.seh_stackalloc	40
	.seh_endprologue
	movq	8+_ZZ12image_selectB5cxx11iE8selected(%rip), %rsi
	movq	_ZZ12image_selectB5cxx11iE8selected(%rip), %rbx
	cmpq	%rbx, %rsi
	je	.L570
	.p2align 4,,10
.L571:
	movq	(%rbx), %rcx
	leaq	16(%rbx), %rax
	cmpq	%rax, %rcx
	je	.L572
	call	_ZdlPv
	addq	$32, %rbx
	cmpq	%rbx, %rsi
	jne	.L571
.L573:
	movq	_ZZ12image_selectB5cxx11iE8selected(%rip), %rbx
.L570:
	testq	%rbx, %rbx
	je	.L569
	movq	%rbx, %rcx
	addq	$40, %rsp
	popq	%rbx
	popq	%rsi
	jmp	_ZdlPv
	.p2align 4,,10
.L572:
	addq	$32, %rbx
	cmpq	%rbx, %rsi
	jne	.L571
	jmp	.L573
	.p2align 4,,10
.L569:
	addq	$40, %rsp
	popq	%rbx
	popq	%rsi
	ret
	.seh_endproc
	.section .rdata,"dr"
.LC35:
	.ascii "#?RADIANCE\12\0"
.LC36:
	.ascii "#?RGBE\12\0"
	.text
	.p2align 4,,15
	.def	_ZL14stbi__hdr_testP13stbi__context;	.scl	3;	.type	32;	.endef
	.seh_proc	_ZL14stbi__hdr_testP13stbi__context
_ZL14stbi__hdr_testP13stbi__context:
.LFB988:
	pushq	%rbp
	.seh_pushreg	%rbp
	pushq	%rdi
	.seh_pushreg	%rdi
	pushq	%rsi
	.seh_pushreg	%rsi
	pushq	%rbx
	.seh_pushreg	%rbx
	subq	$40, %rsp
	.seh_stackalloc	40
	.seh_endprologue
	leaq	.LC35(%rip), %rsi
	movq	184(%rcx), %rdx
	movq	%rcx, %rbx
	movq	192(%rcx), %rcx
	leaq	56(%rbx), %rdi
	leaq	57(%rbx), %rbp
	jmp	.L582
	.p2align 4,,10
.L577:
	movl	48(%rbx), %eax
	testl	%eax, %eax
	je	.L578
	movq	%rdi, %rdx
	movq	40(%rbx), %rcx
	movl	52(%rbx), %r8d
	call	*16(%rbx)
	movq	%rbp, %rdx
	testl	%eax, %eax
	jne	.L579
	movl	$0, 48(%rbx)
	movq	%rbp, %rcx
	movb	$0, 56(%rbx)
.L580:
	movq	%rcx, 192(%rbx)
	movq	%rbp, 184(%rbx)
.L578:
	movsbl	(%rsi), %r8d
	cmpl	%eax, %r8d
	jne	.L581
.L600:
	addq	$1, %rsi
	cmpb	$0, (%rsi)
	je	.L599
.L582:
	cmpq	%rcx, %rdx
	jnb	.L577
	leaq	1(%rdx), %r8
	movq	%r8, 184(%rbx)
	movzbl	(%rdx), %eax
	movq	%r8, %rdx
	movsbl	(%rsi), %r8d
	cmpl	%eax, %r8d
	je	.L600
.L581:
	movq	200(%rbx), %rdx
	leaq	.LC36(%rip), %rsi
	movq	208(%rbx), %rcx
	leaq	56(%rbx), %rdi
	leaq	57(%rbx), %rbp
	movq	%rdx, 184(%rbx)
	movq	%rcx, 192(%rbx)
	jmp	.L589
	.p2align 4,,10
.L584:
	movl	48(%rbx), %eax
	testl	%eax, %eax
	je	.L585
	movq	%rdi, %rdx
	movq	40(%rbx), %rcx
	movl	52(%rbx), %r8d
	call	*16(%rbx)
	movq	%rbp, %rdx
	testl	%eax, %eax
	jne	.L586
	movl	$0, 48(%rbx)
	movq	%rbp, %rcx
	movb	$0, 56(%rbx)
.L587:
	movq	%rcx, 192(%rbx)
	movq	%rbp, 184(%rbx)
.L585:
	movsbl	(%rsi), %r8d
	cmpl	%eax, %r8d
	jne	.L590
.L602:
	addq	$1, %rsi
	cmpb	$0, (%rsi)
	je	.L601
.L589:
	cmpq	%rdx, %rcx
	jbe	.L584
	leaq	1(%rdx), %r8
	movq	%r8, 184(%rbx)
	movzbl	(%rdx), %eax
	movq	%r8, %rdx
	movsbl	(%rsi), %r8d
	cmpl	%eax, %r8d
	je	.L602
.L590:
	xorl	%eax, %eax
.L588:
	movdqu	200(%rbx), %xmm0
	movups	%xmm0, 184(%rbx)
	addq	$40, %rsp
	popq	%rbx
	popq	%rsi
	popq	%rdi
	popq	%rbp
	ret
	.p2align 4,,10
.L579:
	cltq
	leaq	(%rdi,%rax), %rcx
	movzbl	56(%rbx), %eax
	jmp	.L580
	.p2align 4,,10
.L599:
	movdqu	200(%rbx), %xmm0
	movl	$1, %eax
	movups	%xmm0, 184(%rbx)
	addq	$40, %rsp
	popq	%rbx
	popq	%rsi
	popq	%rdi
	popq	%rbp
	ret
	.p2align 4,,10
.L586:
	cltq
	leaq	(%rdi,%rax), %rcx
	movzbl	56(%rbx), %eax
	jmp	.L587
	.p2align 4,,10
.L601:
	movl	$1, %eax
	jmp	.L588
	.seh_endproc
	.p2align 4,,15
	.def	_ZL20stbi__pnm_getintegerP13stbi__contextPc;	.scl	3;	.type	32;	.endef
	.seh_proc	_ZL20stbi__pnm_getintegerP13stbi__contextPc
_ZL20stbi__pnm_getintegerP13stbi__contextPc:
.LFB1001:
	pushq	%r12
	.seh_pushreg	%r12
	pushq	%rbp
	.seh_pushreg	%rbp
	pushq	%rdi
	.seh_pushreg	%rdi
	pushq	%rsi
	.seh_pushreg	%rsi
	pushq	%rbx
	.seh_pushreg	%rbx
	subq	$32, %rsp
	.seh_stackalloc	32
	.seh_endprologue
	xorl	%esi, %esi
	leaq	57(%rcx), %rdi
	movq	%rcx, %rbx
	movq	%rdx, %rbp
	jmp	.L613
	.p2align 4,,10
.L617:
	movl	48(%rbx), %edx
	testl	%edx, %edx
	je	.L603
.L608:
	movq	184(%rbx), %rax
	cmpq	192(%rbx), %rax
	jnb	.L603
	movsbl	0(%rbp), %ecx
	movl	%ecx, %edx
	subl	$48, %edx
	cmpb	$9, %dl
	ja	.L603
	leal	(%rsi,%rsi,4), %edx
	leal	-48(%rcx,%rdx,2), %esi
.L614:
	leaq	1(%rax), %rdx
	movq	%rdx, 184(%rbx)
	movzbl	(%rax), %eax
.L610:
	movb	%al, 0(%rbp)
.L613:
	cmpq	$0, 16(%rbx)
	je	.L608
	movq	40(%rbx), %rcx
	call	*32(%rbx)
	testl	%eax, %eax
	jne	.L617
	movsbl	0(%rbp), %edx
	movl	%edx, %eax
	subl	$48, %eax
	cmpb	$9, %al
	ja	.L603
	leal	(%rsi,%rsi,4), %eax
	leal	-48(%rdx,%rax,2), %esi
	movq	184(%rbx), %rax
	cmpq	192(%rbx), %rax
	jb	.L614
	movl	48(%rbx), %eax
	testl	%eax, %eax
	je	.L616
	leaq	56(%rbx), %r12
	movq	40(%rbx), %rcx
	movl	52(%rbx), %r8d
	movq	%r12, %rdx
	call	*16(%rbx)
	testl	%eax, %eax
	jne	.L611
	movl	$0, 48(%rbx)
	movq	%rdi, %r12
	movb	$0, 56(%rbx)
.L612:
	movq	%r12, 192(%rbx)
	movq	%rdi, 184(%rbx)
	jmp	.L610
	.p2align 4,,10
.L611:
	cltq
	addq	%rax, %r12
	movzbl	56(%rbx), %eax
	jmp	.L612
	.p2align 4,,10
.L603:
	movl	%esi, %eax
	addq	$32, %rsp
	popq	%rbx
	popq	%rsi
	popq	%rdi
	popq	%rbp
	popq	%r12
	ret
	.p2align 4,,10
.L616:
	xorl	%eax, %eax
	jmp	.L610
	.seh_endproc
	.p2align 4,,15
	.def	_ZL26stbi__gif_parse_colortableP13stbi__contextPA4_hii;	.scl	3;	.type	32;	.endef
	.seh_proc	_ZL26stbi__gif_parse_colortableP13stbi__contextPA4_hii
_ZL26stbi__gif_parse_colortableP13stbi__contextPA4_hii:
.LFB978:
	pushq	%r14
	.seh_pushreg	%r14
	pushq	%r13
	.seh_pushreg	%r13
	pushq	%r12
	.seh_pushreg	%r12
	pushq	%rbp
	.seh_pushreg	%rbp
	pushq	%rdi
	.seh_pushreg	%rdi
	pushq	%rsi
	.seh_pushreg	%rsi
	pushq	%rbx
	.seh_pushreg	%rbx
	subq	$32, %rsp
	.seh_stackalloc	32
	.seh_endprologue
	testl	%r8d, %r8d
	movq	%rcx, %rbx
	movl	%r8d, %r12d
	movl	%r9d, %r13d
	jle	.L618
	leaq	57(%rcx), %rbp
	movq	%rdx, %rsi
	xorl	%edi, %edi
	jmp	.L632
	.p2align 4,,10
.L620:
	movl	48(%rbx), %ecx
	testl	%ecx, %ecx
	je	.L633
	leaq	56(%rbx), %r14
	movq	40(%rbx), %rcx
	movl	52(%rbx), %r8d
	movq	%r14, %rdx
	call	*16(%rbx)
	testl	%eax, %eax
	jne	.L622
	movl	$0, 48(%rbx)
	movq	%rbp, %r14
	movb	$0, 56(%rbx)
.L623:
	movq	%r14, 192(%rbx)
	movq	%rbp, 184(%rbx)
.L621:
	movb	%al, 2(%rsi)
	movq	184(%rbx), %rax
	cmpq	192(%rbx), %rax
	jb	.L637
	movl	48(%rbx), %edx
	testl	%edx, %edx
	je	.L634
	leaq	56(%rbx), %r14
	movq	40(%rbx), %rcx
	movl	52(%rbx), %r8d
	movq	%r14, %rdx
	call	*16(%rbx)
	testl	%eax, %eax
	jne	.L626
	movl	$0, 48(%rbx)
	movq	%rbp, %r14
	movb	$0, 56(%rbx)
.L627:
	movq	%r14, 192(%rbx)
	movq	%rbp, 184(%rbx)
.L625:
	movb	%al, 1(%rsi)
	movq	184(%rbx), %rax
	cmpq	192(%rbx), %rax
	jb	.L638
	movl	48(%rbx), %eax
	testl	%eax, %eax
	je	.L635
	leaq	56(%rbx), %r14
	movq	40(%rbx), %rcx
	movl	52(%rbx), %r8d
	movq	%r14, %rdx
	call	*16(%rbx)
	testl	%eax, %eax
	jne	.L630
	movl	$0, 48(%rbx)
	movq	%rbp, %r14
	movb	$0, 56(%rbx)
.L631:
	movq	%r14, 192(%rbx)
	movq	%rbp, 184(%rbx)
.L629:
	cmpl	%edi, %r13d
	movb	%al, (%rsi)
	setne	%al
	addl	$1, %edi
	addq	$4, %rsi
	negl	%eax
	movb	%al, -1(%rsi)
	cmpl	%edi, %r12d
	je	.L618
.L632:
	movq	184(%rbx), %rax
	cmpq	192(%rbx), %rax
	jnb	.L620
	leaq	1(%rax), %rdx
	movq	%rdx, 184(%rbx)
	movzbl	(%rax), %eax
	jmp	.L621
	.p2align 4,,10
.L638:
	leaq	1(%rax), %rdx
	movq	%rdx, 184(%rbx)
	movzbl	(%rax), %eax
	jmp	.L629
	.p2align 4,,10
.L637:
	leaq	1(%rax), %rdx
	movq	%rdx, 184(%rbx)
	movzbl	(%rax), %eax
	jmp	.L625
	.p2align 4,,10
.L626:
	cltq
	addq	%rax, %r14
	movzbl	56(%rbx), %eax
	jmp	.L627
	.p2align 4,,10
.L622:
	cltq
	addq	%rax, %r14
	movzbl	56(%rbx), %eax
	jmp	.L623
	.p2align 4,,10
.L630:
	cltq
	addq	%rax, %r14
	movzbl	56(%rbx), %eax
	jmp	.L631
	.p2align 4,,10
.L618:
	addq	$32, %rsp
	popq	%rbx
	popq	%rsi
	popq	%rdi
	popq	%rbp
	popq	%r12
	popq	%r13
	popq	%r14
	ret
	.p2align 4,,10
.L633:
	xorl	%eax, %eax
	jmp	.L621
	.p2align 4,,10
.L635:
	xorl	%eax, %eax
	jmp	.L629
	.p2align 4,,10
.L634:
	xorl	%eax, %eax
	jmp	.L625
	.seh_endproc
	.section .rdata,"dr"
.LC37:
	.ascii "bad sizes\0"
.LC38:
	.ascii "bad codelengths\0"
	.text
	.p2align 4,,15
	.def	_ZL20stbi__zbuild_huffmanP14stbi__zhuffmanPKhi;	.scl	3;	.type	32;	.endef
	.seh_proc	_ZL20stbi__zbuild_huffmanP14stbi__zhuffmanPKhi
_ZL20stbi__zbuild_huffmanP14stbi__zhuffmanPKhi:
.LFB918:
	pushq	%r15
	.seh_pushreg	%r15
	pushq	%r14
	.seh_pushreg	%r14
	pushq	%r13
	.seh_pushreg	%r13
	pushq	%r12
	.seh_pushreg	%r12
	pushq	%rbp
	.seh_pushreg	%rbp
	pushq	%rdi
	.seh_pushreg	%rdi
	pushq	%rsi
	.seh_pushreg	%rsi
	pushq	%rbx
	.seh_pushreg	%rbx
	subq	$216, %rsp
	.seh_stackalloc	216
	.seh_endprologue
	xorl	%eax, %eax
	movq	%rdx, %rbx
	movq	%rcx, %r9
	movl	$8, %ecx
	leaq	128(%rsp), %rdx
	movl	%r8d, %esi
	movl	$1024, %r8d
	movq	%rdx, %rdi
	xorl	%edx, %edx
	rep stosq
	movq	%r9, %rcx
	movl	$0, (%rdi)
	call	memset
	leal	-1(%rsi), %ecx
	movq	%rbx, %rdx
	movq	%rax, %r9
	leaq	1(%rbx), %rax
	leaq	(%rax,%rcx), %r8
	jmp	.L640
	.p2align 4,,10
.L712:
	addq	$1, %rax
.L640:
	movzbl	(%rdx), %edx
	addl	$1, 128(%rsp,%rdx,4)
	cmpq	%rax, %r8
	movq	%rax, %rdx
	jne	.L712
	movl	132(%rsp), %r8d
	movl	$0, 128(%rsp)
	cmpl	$2, %r8d
	jg	.L641
	movl	136(%rsp), %edx
	cmpl	$4, %edx
	jg	.L641
	movl	140(%rsp), %r10d
	cmpl	$8, %r10d
	jg	.L641
	movl	144(%rsp), %r11d
	cmpl	$16, %r11d
	jg	.L641
	movl	148(%rsp), %esi
	cmpl	$32, %esi
	jg	.L641
	movl	152(%rsp), %edi
	cmpl	$64, %edi
	jg	.L641
	movl	156(%rsp), %ebp
	cmpl	$128, %ebp
	jg	.L641
	movl	160(%rsp), %r12d
	cmpl	$256, %r12d
	jg	.L641
	movl	164(%rsp), %r13d
	cmpl	$512, %r13d
	jg	.L641
	movl	168(%rsp), %r14d
	cmpl	$1024, %r14d
	jg	.L641
	movl	172(%rsp), %eax
	cmpl	$2048, %eax
	movl	%eax, 44(%rsp)
	jg	.L641
	movl	176(%rsp), %eax
	cmpl	$4096, %eax
	movl	%eax, 48(%rsp)
	jg	.L641
	movl	180(%rsp), %eax
	cmpl	$8192, %eax
	movl	%eax, 52(%rsp)
	jg	.L641
	movl	184(%rsp), %eax
	cmpl	$16384, %eax
	movl	%eax, 56(%rsp)
	jg	.L641
	movl	188(%rsp), %eax
	cmpl	$32768, %eax
	movl	%eax, 60(%rsp)
	jg	.L641
	xorl	%eax, %eax
	xorl	%r15d, %r15d
	movl	$0, 68(%rsp)
	movw	%ax, 1026(%r9)
	movl	%r8d, %eax
	sall	$15, %eax
	movw	%r15w, 1126(%r9)
	movl	%eax, 1060(%r9)
	leal	(%r8,%r8), %eax
	movl	%eax, 72(%rsp)
	movw	%ax, 1028(%r9)
	addl	%edx, %eax
	testl	%edx, %edx
	movw	%r8w, 1128(%r9)
	je	.L644
	cmpl	$4, %eax
	jg	.L645
.L644:
	movl	%eax, %r15d
	addl	%eax, %eax
	addl	%r8d, %edx
	sall	$14, %r15d
	movl	%eax, 76(%rsp)
	movw	%ax, 1030(%r9)
	addl	%r10d, %eax
	testl	%r10d, %r10d
	movl	%r15d, 1064(%r9)
	movw	%dx, 1130(%r9)
	je	.L646
	cmpl	$8, %eax
	jg	.L645
.L646:
	movl	%eax, %r8d
	addl	%eax, %eax
	addl	%r10d, %edx
	sall	$13, %r8d
	movl	%eax, 80(%rsp)
	movw	%ax, 1032(%r9)
	addl	%r11d, %eax
	testl	%r11d, %r11d
	movl	%r8d, 1068(%r9)
	movw	%dx, 1132(%r9)
	je	.L647
	cmpl	$16, %eax
	jg	.L645
.L647:
	movl	%eax, %r8d
	addl	%eax, %eax
	addl	%r11d, %edx
	sall	$12, %r8d
	movl	%eax, 84(%rsp)
	movw	%ax, 1034(%r9)
	addl	%esi, %eax
	testl	%esi, %esi
	movl	%r8d, 1072(%r9)
	movw	%dx, 1134(%r9)
	je	.L648
	cmpl	$32, %eax
	jg	.L645
.L648:
	movl	%eax, %r8d
	addl	%eax, %eax
	addl	%esi, %edx
	sall	$11, %r8d
	movl	%eax, 88(%rsp)
	movw	%ax, 1036(%r9)
	addl	%edi, %eax
	testl	%edi, %edi
	movl	%r8d, 1076(%r9)
	movw	%dx, 1136(%r9)
	je	.L649
	cmpl	$64, %eax
	jg	.L645
.L649:
	movl	%eax, %r8d
	addl	%eax, %eax
	addl	%edi, %edx
	sall	$10, %r8d
	movl	%eax, 92(%rsp)
	movw	%ax, 1038(%r9)
	addl	%ebp, %eax
	testl	%ebp, %ebp
	movl	%r8d, 1080(%r9)
	movw	%dx, 1138(%r9)
	je	.L650
	cmpl	$128, %eax
	jg	.L645
.L650:
	movl	%eax, %r8d
	addl	%eax, %eax
	addl	%ebp, %edx
	sall	$9, %r8d
	movl	%eax, 96(%rsp)
	movw	%ax, 1040(%r9)
	addl	%r12d, %eax
	testl	%r12d, %r12d
	movl	%r8d, 1084(%r9)
	movw	%dx, 1140(%r9)
	je	.L651
	cmpl	$256, %eax
	jg	.L645
.L651:
	movl	%eax, %r8d
	addl	%eax, %eax
	addl	%r12d, %edx
	sall	$8, %r8d
	movl	%eax, 100(%rsp)
	movw	%ax, 1042(%r9)
	addl	%r13d, %eax
	testl	%r13d, %r13d
	movl	%r8d, 1088(%r9)
	movw	%dx, 1142(%r9)
	je	.L652
	cmpl	$512, %eax
	jg	.L645
.L652:
	movl	%eax, %r8d
	addl	%eax, %eax
	addl	%r13d, %edx
	sall	$7, %r8d
	movl	%eax, 104(%rsp)
	movw	%ax, 1044(%r9)
	addl	%r14d, %eax
	testl	%r14d, %r14d
	movl	%r8d, 1092(%r9)
	movw	%dx, 1144(%r9)
	je	.L653
	cmpl	$1024, %eax
	jg	.L645
.L653:
	movl	44(%rsp), %edi
	movl	%eax, %r8d
	addl	%eax, %eax
	addl	%r14d, %edx
	sall	$6, %r8d
	movl	%eax, 108(%rsp)
	movw	%ax, 1046(%r9)
	movl	%r8d, 1096(%r9)
	addl	%edi, %eax
	testl	%edi, %edi
	movw	%dx, 1146(%r9)
	je	.L654
	cmpl	$2048, %eax
	jg	.L645
.L654:
	movl	48(%rsp), %edi
	movl	%eax, %r8d
	addl	%eax, %eax
	addl	44(%rsp), %edx
	sall	$5, %r8d
	movl	%eax, 112(%rsp)
	movw	%ax, 1048(%r9)
	movl	%r8d, 1100(%r9)
	addl	%edi, %eax
	testl	%edi, %edi
	movw	%dx, 1148(%r9)
	je	.L655
	cmpl	$4096, %eax
	jg	.L645
.L655:
	movl	52(%rsp), %edi
	movl	%eax, %r8d
	addl	%eax, %eax
	addl	48(%rsp), %edx
	sall	$4, %r8d
	movl	%eax, 116(%rsp)
	movw	%ax, 1050(%r9)
	movl	%r8d, 1104(%r9)
	addl	%edi, %eax
	testl	%edi, %edi
	movw	%dx, 1150(%r9)
	je	.L656
	cmpl	$8192, %eax
	jg	.L645
.L656:
	movl	56(%rsp), %esi
	leal	0(,%rax,8), %r8d
	addl	%eax, %eax
	addl	52(%rsp), %edx
	movl	%eax, 120(%rsp)
	movw	%ax, 1052(%r9)
	movl	%r8d, 1108(%r9)
	addl	%esi, %eax
	testl	%esi, %esi
	movw	%dx, 1152(%r9)
	je	.L657
	cmpl	$16384, %eax
	jg	.L645
.L657:
	movl	60(%rsp), %edi
	leal	0(,%rax,4), %r8d
	addl	%eax, %eax
	addl	56(%rsp), %edx
	movl	%eax, 124(%rsp)
	movw	%ax, 1054(%r9)
	movl	%r8d, 1112(%r9)
	addl	%edi, %eax
	testl	%edi, %edi
	movw	%dx, 1154(%r9)
	jne	.L713
.L658:
	addl	%eax, %eax
	xorl	%r10d, %r10d
	movl	$1, %r13d
	movl	$65536, 1120(%r9)
	movl	%eax, 1116(%r9)
	leaq	1(%rcx), %rbp
	movl	$16, %r12d
	.p2align 4,,10
.L662:
	movzbl	(%rbx,%r10), %eax
	testl	%eax, %eax
	movl	%eax, %ecx
	je	.L659
	movzbl	%al, %edx
	movslq	%eax, %r11
	leaq	(%r9,%rdx,2), %rsi
	movl	64(%rsp,%r11,4), %r8d
	movzwl	1024(%rsi), %edx
	movzwl	1124(%rsi), %esi
	movl	%r8d, %edi
	subl	%edx, %edi
	movl	%edi, %edx
	addl	%esi, %edx
	cmpl	$9, %eax
	movslq	%edx, %rdx
	movb	%al, 1156(%r9,%rdx)
	movw	%r10w, 1444(%r9,%rdx,2)
	jle	.L714
.L660:
	addl	$1, %r8d
	movl	%r8d, 64(%rsp,%r11,4)
.L659:
	addq	$1, %r10
	cmpq	%r10, %rbp
	jne	.L662
	movl	$1, %eax
	jmp	.L639
	.p2align 4,,10
.L641:
	leaq	.LC37(%rip), %rax
	movq	%rax, _ZL22stbi__g_failure_reason(%rip)
	xorl	%eax, %eax
.L639:
	addq	$216, %rsp
	popq	%rbx
	popq	%rsi
	popq	%rdi
	popq	%rbp
	popq	%r12
	popq	%r13
	popq	%r14
	popq	%r15
	ret
	.p2align 4,,10
.L713:
	cmpl	$32768, %eax
	jle	.L658
	.p2align 4,,10
.L645:
	leaq	.LC38(%rip), %rax
	movq	%rax, _ZL22stbi__g_failure_reason(%rip)
	xorl	%eax, %eax
	jmp	.L639
	.p2align 4,,10
.L714:
	leal	(%r8,%r8), %edx
	movl	%r8d, %esi
	sarl	%esi
	andl	$43690, %edx
	andl	$21845, %esi
	orl	%edx, %esi
	movl	%esi, %edx
	sall	$2, %esi
	sarl	$2, %edx
	andl	$52428, %esi
	andl	$13107, %edx
	orl	%esi, %edx
	movl	%edx, %esi
	sall	$4, %edx
	sarl	$4, %esi
	andl	$61680, %edx
	andl	$3855, %esi
	orl	%edx, %esi
	movl	%esi, %edx
	sall	$8, %esi
	movzwl	%si, %edi
	movl	%r13d, %esi
	sarl	$8, %edx
	sall	%cl, %esi
	movl	%r12d, %ecx
	orl	%edi, %edx
	subl	%eax, %ecx
	sall	$9, %eax
	movslq	%esi, %rsi
	sarl	%cl, %edx
	orl	%r10d, %eax
	movslq	%edx, %rdx
	.p2align 4,,10
.L661:
	movw	%ax, (%r9,%rdx,2)
	addq	%rsi, %rdx
	cmpl	$511, %edx
	jle	.L661
	jmp	.L660
	.seh_endproc
	.p2align 4,,15
	.def	_ZL25stbi__pnm_skip_whitespaceP13stbi__contextPc;	.scl	3;	.type	32;	.endef
	.seh_proc	_ZL25stbi__pnm_skip_whitespaceP13stbi__contextPc
_ZL25stbi__pnm_skip_whitespaceP13stbi__contextPc:
.LFB999:
	pushq	%rbp
	.seh_pushreg	%rbp
	pushq	%rdi
	.seh_pushreg	%rdi
	pushq	%rsi
	.seh_pushreg	%rsi
	pushq	%rbx
	.seh_pushreg	%rbx
	subq	$40, %rsp
	.seh_stackalloc	40
	.seh_endprologue
	leaq	57(%rcx), %rbp
	movq	%rcx, %rbx
	movq	%rdx, %rsi
	.p2align 4,,10
.L716:
	cmpq	$0, 16(%rbx)
	je	.L764
.L717:
	movq	40(%rbx), %rcx
	call	*32(%rbx)
	testl	%eax, %eax
	je	.L721
	movl	48(%rbx), %r9d
	testl	%r9d, %r9d
	je	.L726
	movq	184(%rbx), %rdx
	cmpq	192(%rbx), %rdx
	movq	%rdx, %rax
	jb	.L719
	cmpq	$0, 16(%rbx)
	je	.L715
.L723:
	movq	40(%rbx), %rcx
	call	*32(%rbx)
	testl	%eax, %eax
	je	.L728
	movl	48(%rbx), %ecx
	testl	%ecx, %ecx
	je	.L715
	movq	192(%rbx), %rax
	cmpq	%rax, 184(%rbx)
	jnb	.L715
.L728:
	cmpb	$35, (%rsi)
	jne	.L715
	.p2align 4,,10
.L735:
	cmpq	$0, 16(%rbx)
	je	.L740
	movq	40(%rbx), %rcx
	call	*32(%rbx)
	testl	%eax, %eax
	je	.L739
	movl	48(%rbx), %edx
	testl	%edx, %edx
	je	.L716
.L740:
	movq	184(%rbx), %rax
	cmpq	192(%rbx), %rax
	jnb	.L716
	movzbl	(%rsi), %edx
	cmpb	$13, %dl
	je	.L716
	cmpb	$10, %dl
	je	.L716
.L747:
	leaq	1(%rax), %rdx
	movq	%rdx, 184(%rbx)
	movzbl	(%rax), %eax
	movb	%al, (%rsi)
	jmp	.L735
	.p2align 4,,10
.L739:
	movzbl	(%rsi), %eax
	cmpb	$10, %al
	je	.L716
	cmpb	$13, %al
	je	.L716
	movq	184(%rbx), %rax
	cmpq	192(%rbx), %rax
	jb	.L747
	movl	48(%rbx), %eax
	testl	%eax, %eax
	je	.L751
	leaq	56(%rbx), %rdi
	movq	40(%rbx), %rcx
	movl	52(%rbx), %r8d
	movq	%rdi, %rdx
	call	*16(%rbx)
	testl	%eax, %eax
	jne	.L743
	movl	$0, 48(%rbx)
	movq	%rbp, %rdi
	movb	$0, 56(%rbx)
.L744:
	movq	%rdi, 192(%rbx)
	movq	%rbp, 184(%rbx)
	movb	%al, (%rsi)
	jmp	.L735
	.p2align 4,,10
.L743:
	cltq
	addq	%rax, %rdi
	movzbl	56(%rbx), %eax
	jmp	.L744
	.p2align 4,,10
.L721:
	movzbl	(%rsi), %eax
	cmpb	$32, %al
	je	.L725
	cmpb	$9, %al
	je	.L725
	subl	$10, %eax
	cmpb	$3, %al
	jbe	.L725
.L726:
	cmpq	$0, 16(%rbx)
	jne	.L723
	movq	192(%rbx), %rax
	cmpq	%rax, 184(%rbx)
	jb	.L728
.L715:
	addq	$40, %rsp
	popq	%rbx
	popq	%rsi
	popq	%rdi
	popq	%rbp
	ret
	.p2align 4,,10
.L725:
	movq	184(%rbx), %rax
	cmpq	192(%rbx), %rax
	jb	.L745
	movl	48(%rbx), %r8d
	testl	%r8d, %r8d
	je	.L750
	leaq	56(%rbx), %rdi
	movq	40(%rbx), %rcx
	movl	52(%rbx), %r8d
	movq	%rdi, %rdx
	call	*16(%rbx)
	testl	%eax, %eax
	jne	.L731
	movl	$0, 48(%rbx)
	movq	%rbp, %rdi
	movb	$0, 56(%rbx)
.L732:
	movq	%rdi, 192(%rbx)
	movq	%rbp, 184(%rbx)
	movb	%al, (%rsi)
.L765:
	cmpq	$0, 16(%rbx)
	jne	.L717
.L764:
	movq	184(%rbx), %rdx
	cmpq	192(%rbx), %rdx
	movq	%rdx, %rax
	jnb	.L715
.L719:
	movzbl	(%rsi), %ecx
	cmpb	$9, %cl
	je	.L745
	cmpb	$32, %cl
	je	.L745
	subl	$10, %ecx
	cmpb	$3, %cl
	ja	.L726
	movq	%rdx, %rax
	.p2align 4,,10
.L745:
	leaq	1(%rax), %rdx
	movq	%rdx, 184(%rbx)
	movzbl	(%rax), %eax
	movb	%al, (%rsi)
	jmp	.L765
	.p2align 4,,10
.L751:
	xorl	%eax, %eax
	movb	%al, (%rsi)
	jmp	.L735
	.p2align 4,,10
.L731:
	cltq
	addq	%rax, %rdi
	movzbl	56(%rbx), %eax
	jmp	.L732
.L750:
	xorl	%eax, %eax
	movb	%al, (%rsi)
	jmp	.L765
	.seh_endproc
	.p2align 4,,15
	.def	_ZL13stbi__get16beP13stbi__context;	.scl	3;	.type	32;	.endef
	.seh_proc	_ZL13stbi__get16beP13stbi__context
_ZL13stbi__get16beP13stbi__context:
.LFB866:
	pushq	%rdi
	.seh_pushreg	%rdi
	pushq	%rsi
	.seh_pushreg	%rsi
	pushq	%rbx
	.seh_pushreg	%rbx
	subq	$32, %rsp
	.seh_stackalloc	32
	.seh_endprologue
	movq	%rcx, %rbx
	movq	184(%rcx), %rcx
	movq	192(%rbx), %rdx
	cmpq	%rdx, %rcx
	jb	.L779
	movl	48(%rbx), %esi
	testl	%esi, %esi
	je	.L766
	leaq	56(%rbx), %rdi
	movq	40(%rbx), %rcx
	movl	52(%rbx), %r8d
	movq	%rdi, %rdx
	call	*16(%rbx)
	movslq	%eax, %rsi
	leaq	57(%rbx), %rax
	testl	%esi, %esi
	jne	.L770
	movl	$0, 48(%rbx)
	movq	%rax, %rdx
	movb	$0, 56(%rbx)
.L771:
	cmpq	%rdx, %rax
	movq	%rdx, 192(%rbx)
	movq	%rax, 184(%rbx)
	jb	.L772
.L780:
	movl	48(%rbx), %eax
	testl	%eax, %eax
	je	.L766
	leaq	56(%rbx), %rdi
	movq	40(%rbx), %rcx
	movq	%rdi, %rdx
	movl	52(%rbx), %r8d
	call	*16(%rbx)
	leaq	57(%rbx), %rdx
	testl	%eax, %eax
	jne	.L774
	movl	$0, 48(%rbx)
	movq	%rdx, %rdi
	movb	$0, 56(%rbx)
.L775:
	movq	%rdi, 192(%rbx)
	movq	%rdx, 184(%rbx)
.L766:
	movl	%esi, %eax
	addq	$32, %rsp
	popq	%rbx
	popq	%rsi
	popq	%rdi
	ret
	.p2align 4,,10
.L779:
	leaq	1(%rcx), %rax
	movq	%rax, 184(%rbx)
	movzbl	(%rcx), %esi
	sall	$8, %esi
	cmpq	%rdx, %rax
	jnb	.L780
.L772:
	leaq	1(%rax), %rdx
	movq	%rdx, 184(%rbx)
	movzbl	(%rax), %eax
	addl	%eax, %esi
	movl	%esi, %eax
	addq	$32, %rsp
	popq	%rbx
	popq	%rsi
	popq	%rdi
	ret
	.p2align 4,,10
.L774:
	cltq
	addq	%rax, %rdi
	movzbl	56(%rbx), %eax
	addl	%eax, %esi
	jmp	.L775
	.p2align 4,,10
.L770:
	leaq	(%rdi,%rsi), %rdx
	movzbl	56(%rbx), %esi
	sall	$8, %esi
	jmp	.L771
	.seh_endproc
	.p2align 4,,15
	.def	_ZL13stbi__get32beP13stbi__context;	.scl	3;	.type	32;	.endef
	.seh_proc	_ZL13stbi__get32beP13stbi__context
_ZL13stbi__get32beP13stbi__context:
.LFB867:
	pushq	%rsi
	.seh_pushreg	%rsi
	pushq	%rbx
	.seh_pushreg	%rbx
	subq	$40, %rsp
	.seh_stackalloc	40
	.seh_endprologue
	movq	%rcx, %rsi
	call	_ZL13stbi__get16beP13stbi__context
	movq	%rsi, %rcx
	movl	%eax, %ebx
	call	_ZL13stbi__get16beP13stbi__context
	sall	$16, %ebx
	addl	%ebx, %eax
	addq	$40, %rsp
	popq	%rbx
	popq	%rsi
	ret
	.seh_endproc
	.p2align 4,,15
	.def	_ZL13stbi__get16leP13stbi__context;	.scl	3;	.type	32;	.endef
	.seh_proc	_ZL13stbi__get16leP13stbi__context
_ZL13stbi__get16leP13stbi__context:
.LFB868:
	pushq	%rdi
	.seh_pushreg	%rdi
	pushq	%rsi
	.seh_pushreg	%rsi
	pushq	%rbx
	.seh_pushreg	%rbx
	subq	$32, %rsp
	.seh_stackalloc	32
	.seh_endprologue
	movq	%rcx, %rbx
	movq	184(%rcx), %rcx
	movq	192(%rbx), %rdx
	cmpq	%rdx, %rcx
	jb	.L795
	movl	48(%rbx), %esi
	testl	%esi, %esi
	je	.L782
	leaq	56(%rbx), %rdi
	movq	40(%rbx), %rcx
	movl	52(%rbx), %r8d
	movq	%rdi, %rdx
	call	*16(%rbx)
	movslq	%eax, %rsi
	leaq	57(%rbx), %rax
	testl	%esi, %esi
	jne	.L786
	movl	$0, 48(%rbx)
	movq	%rax, %rdx
	movb	$0, 56(%rbx)
.L787:
	cmpq	%rdx, %rax
	movq	%rdx, 192(%rbx)
	movq	%rax, 184(%rbx)
	jb	.L788
.L796:
	movl	48(%rbx), %eax
	testl	%eax, %eax
	je	.L782
	leaq	56(%rbx), %rdi
	movq	40(%rbx), %rcx
	movq	%rdi, %rdx
	movl	52(%rbx), %r8d
	call	*16(%rbx)
	leaq	57(%rbx), %rdx
	testl	%eax, %eax
	jne	.L790
	movl	$0, 48(%rbx)
	movq	%rdx, %rdi
	movb	$0, 56(%rbx)
.L791:
	movq	%rdi, 192(%rbx)
	movq	%rdx, 184(%rbx)
.L782:
	movl	%esi, %eax
	addq	$32, %rsp
	popq	%rbx
	popq	%rsi
	popq	%rdi
	ret
	.p2align 4,,10
.L795:
	leaq	1(%rcx), %rax
	cmpq	%rdx, %rax
	movq	%rax, 184(%rbx)
	movzbl	(%rcx), %esi
	jnb	.L796
.L788:
	leaq	1(%rax), %rdx
	movq	%rdx, 184(%rbx)
	movzbl	(%rax), %eax
	sall	$8, %eax
	addl	%eax, %esi
	movl	%esi, %eax
	addq	$32, %rsp
	popq	%rbx
	popq	%rsi
	popq	%rdi
	ret
	.p2align 4,,10
.L790:
	cltq
	addq	%rax, %rdi
	movzbl	56(%rbx), %eax
	sall	$8, %eax
	addl	%eax, %esi
	jmp	.L791
	.p2align 4,,10
.L786:
	leaq	(%rdi,%rsi), %rdx
	movzbl	56(%rbx), %esi
	jmp	.L787
	.seh_endproc
	.p2align 4,,15
	.def	_ZL13stbi__get32leP13stbi__context;	.scl	3;	.type	32;	.endef
	.seh_proc	_ZL13stbi__get32leP13stbi__context
_ZL13stbi__get32leP13stbi__context:
.LFB869:
	pushq	%rsi
	.seh_pushreg	%rsi
	pushq	%rbx
	.seh_pushreg	%rbx
	subq	$40, %rsp
	.seh_stackalloc	40
	.seh_endprologue
	movq	%rcx, %rbx
	call	_ZL13stbi__get16leP13stbi__context
	movq	%rbx, %rcx
	movl	%eax, %esi
	call	_ZL13stbi__get16leP13stbi__context
	sall	$16, %eax
	addl	%esi, %eax
	addq	$40, %rsp
	popq	%rbx
	popq	%rsi
	ret
	.seh_endproc
	.section .rdata,"dr"
.LC39:
	.ascii "bad file\0"
	.text
	.p2align 4,,15
	.def	_ZL13stbi__readvalP13stbi__contextiPh;	.scl	3;	.type	32;	.endef
	.seh_proc	_ZL13stbi__readvalP13stbi__contextiPh
_ZL13stbi__readvalP13stbi__contextiPh:
.LFB971:
	pushq	%r15
	.seh_pushreg	%r15
	pushq	%r14
	.seh_pushreg	%r14
	pushq	%r13
	.seh_pushreg	%r13
	pushq	%r12
	.seh_pushreg	%r12
	pushq	%rbp
	.seh_pushreg	%rbp
	pushq	%rdi
	.seh_pushreg	%rdi
	pushq	%rsi
	.seh_pushreg	%rsi
	pushq	%rbx
	.seh_pushreg	%rbx
	subq	$40, %rsp
	.seh_stackalloc	40
	.seh_endprologue
	xorl	%esi, %esi
	movl	$128, %edi
	movq	%rcx, %rbx
	movl	%edx, %ebp
	movq	%r8, %r12
	leaq	57(%rcx), %r14
.L810:
	testl	%edi, %ebp
	je	.L799
	cmpq	$0, 16(%rbx)
	je	.L804
	movq	40(%rbx), %rcx
	call	*32(%rbx)
	testl	%eax, %eax
	je	.L803
	movl	48(%rbx), %edx
	testl	%edx, %edx
	je	.L801
.L804:
	movq	184(%rbx), %rax
	cmpq	192(%rbx), %rax
	jnb	.L801
	leaq	(%r12,%rsi), %r15
.L811:
	leaq	1(%rax), %rdx
	movq	%rdx, 184(%rbx)
	movzbl	(%rax), %eax
.L807:
	movb	%al, (%r15)
.L799:
	addq	$1, %rsi
	sarl	%edi
	cmpq	$4, %rsi
	jne	.L810
.L818:
	movq	%r12, %rax
	addq	$40, %rsp
	popq	%rbx
	popq	%rsi
	popq	%rdi
	popq	%rbp
	popq	%r12
	popq	%r13
	popq	%r14
	popq	%r15
	ret
	.p2align 4,,10
.L803:
	movq	184(%rbx), %rax
	leaq	(%r12,%rsi), %r15
	cmpq	192(%rbx), %rax
	jb	.L811
	movl	48(%rbx), %eax
	testl	%eax, %eax
	je	.L812
	leaq	56(%rbx), %r13
	movq	40(%rbx), %rcx
	movl	52(%rbx), %r8d
	movq	%r13, %rdx
	call	*16(%rbx)
	testl	%eax, %eax
	je	.L819
	cltq
	addq	%rax, %r13
	movzbl	56(%rbx), %eax
.L809:
	movq	%r13, 192(%rbx)
	movq	%r14, 184(%rbx)
	jmp	.L807
	.p2align 4,,10
.L819:
	movl	$0, 48(%rbx)
	movq	%r14, %r13
	movb	$0, 56(%rbx)
	jmp	.L809
	.p2align 4,,10
.L812:
	xorl	%eax, %eax
	jmp	.L807
	.p2align 4,,10
.L801:
	leaq	.LC39(%rip), %rax
	xorl	%r12d, %r12d
	movq	%rax, _ZL22stbi__g_failure_reason(%rip)
	jmp	.L818
	.seh_endproc
	.section .rdata,"dr"
.LC40:
	.ascii "111 221 2222 11\0"
	.text
	.p2align 4,,15
	.def	_ZL13stbiw__writefP19stbi__write_contextPKcz.constprop.124;	.scl	3;	.type	32;	.endef
	.seh_proc	_ZL13stbiw__writefP19stbi__write_contextPKcz.constprop.124
_ZL13stbiw__writefP19stbi__write_contextPKcz.constprop.124:
.LFB8134:
	pushq	%rbp
	.seh_pushreg	%rbp
	pushq	%rdi
	.seh_pushreg	%rdi
	pushq	%rsi
	.seh_pushreg	%rsi
	pushq	%rbx
	.seh_pushreg	%rbx
	subq	$56, %rsp
	.seh_stackalloc	56
	.seh_endprologue
	leaq	.LC40(%rip), %rbx
	movl	$49, %eax
	leaq	112(%rsp), %rdx
	movq	%rcx, %rsi
	movq	%r8, 112(%rsp)
	movq	%r9, 120(%rsp)
	leaq	36(%rsp), %rdi
	movq	%rdx, 40(%rsp)
.L821:
	addq	$1, %rbx
	cmpb	$49, %al
	je	.L825
	jle	.L835
	cmpb	$50, %al
	je	.L827
	cmpb	$52, %al
	jne	.L824
	movl	(%rdx), %eax
	leaq	8(%rdx), %rbp
	movl	$4, %r8d
	movq	8(%rsi), %rcx
	movl	%eax, %edx
	movb	%al, 36(%rsp)
	movb	%ah, 37(%rsp)
	shrl	$16, %edx
	shrl	$24, %eax
	movb	%dl, 38(%rsp)
	movq	%rdi, %rdx
	movb	%al, 39(%rsp)
	call	*(%rsi)
	movq	%rbp, %rdx
.L822:
	movzbl	(%rbx), %eax
	testb	%al, %al
	jne	.L821
	addq	$56, %rsp
	popq	%rbx
	popq	%rsi
	popq	%rdi
	popq	%rbp
	ret
	.p2align 4,,10
.L835:
	cmpb	$32, %al
	je	.L822
.L824:
	leaq	.LC33(%rip), %rdx
	movl	$266, %r8d
	leaq	.LC32(%rip), %rcx
	call	_assert
	nop
	addq	$56, %rsp
	popq	%rbx
	popq	%rsi
	popq	%rdi
	popq	%rbp
	ret
	.p2align 4,,10
.L825:
	movl	(%rdx), %eax
	leaq	8(%rdx), %rbp
	movl	$1, %r8d
	movq	%rdi, %rdx
	movq	8(%rsi), %rcx
	movb	%al, 36(%rsp)
	call	*(%rsi)
	movq	%rbp, %rdx
	jmp	.L822
	.p2align 4,,10
.L827:
	movl	(%rdx), %eax
	leaq	8(%rdx), %rbp
	movl	$2, %r8d
	movq	%rdi, %rdx
	movq	8(%rsi), %rcx
	movb	%al, 36(%rsp)
	movb	%ah, 37(%rsp)
	call	*(%rsi)
	movq	%rbp, %rdx
	jmp	.L822
	.seh_endproc
	.p2align 4,,15
	.def	_ZL19stbi_write_tga_coreP19stbi__write_contextiiiPv;	.scl	3;	.type	32;	.endef
	.seh_proc	_ZL19stbi_write_tga_coreP19stbi__write_contextiiiPv
_ZL19stbi_write_tga_coreP19stbi__write_contextiiiPv:
.LFB1021:
	pushq	%r15
	.seh_pushreg	%r15
	pushq	%r14
	.seh_pushreg	%r14
	pushq	%r13
	.seh_pushreg	%r13
	pushq	%r12
	.seh_pushreg	%r12
	pushq	%rbp
	.seh_pushreg	%rbp
	pushq	%rdi
	.seh_pushreg	%rdi
	pushq	%rsi
	.seh_pushreg	%rsi
	pushq	%rbx
	.seh_pushreg	%rbx
	subq	$264, %rsp
	.seh_stackalloc	264
	.seh_endprologue
	movl	%edx, 344(%rsp)
	movl	%r9d, %edx
	movq	%rcx, %rsi
	movl	%r8d, %ebx
	leal	-2(%r9), %eax
	movl	%r9d, %ebp
	andl	$-3, %eax
	cmpl	$1, %eax
	movl	%eax, %r14d
	sbbl	$0, %edx
	cmpl	$1, %edx
	setle	%al
	movzbl	%al, %ecx
	movzbl	%al, %eax
	addl	$10, %ecx
	addl	$2, %eax
	testl	%r8d, %r8d
	js	.L873
	movl	344(%rsp), %r12d
	testl	%r12d, %r12d
	js	.L873
	movl	stbi_write_tga_with_rle(%rip), %edi
	xorl	%r8d, %r8d
	testl	%r14d, %r14d
	sete	%r8b
	leal	0(,%r8,8), %r9d
	addl	%r8d, %edx
	sall	$3, %edx
	testl	%edi, %edi
	je	.L899
	movl	344(%rsp), %eax
	movl	%r9d, 104(%rsp)
	xorl	%r8d, %r8d
	xorl	%r9d, %r9d
	movl	%edx, 96(%rsp)
	leaq	.LC40(%rip), %rdx
	movl	%ecx, 32(%rsp)
	movq	%rsi, %rcx
	movl	%ebx, 88(%rsp)
	movl	%eax, 80(%rsp)
	movl	$0, 72(%rsp)
	movl	$0, 64(%rsp)
	movl	$0, 56(%rsp)
	movl	$0, 48(%rsp)
	movl	$0, 40(%rsp)
	call	_ZL13stbiw__writefP19stbi__write_contextPKcz.constprop.124
	leal	-1(%rbx), %eax
	cmpl	$-1, %eax
	movl	%eax, 228(%rsp)
	je	.L842
	movl	344(%rsp), %r11d
	testl	%r11d, %r11d
	je	.L842
	movl	344(%rsp), %eax
	movslq	%ebp, %r13
	movl	%r14d, 196(%rsp)
	negl	%eax
	imull	%ebp, %eax
	cltq
	movq	%rax, 232(%rsp)
	movl	228(%rsp), %eax
	imull	344(%rsp), %eax
	imull	%ebp, %eax
	cltq
	addq	368(%rsp), %rax
	movq	%rax, 208(%rsp)
	movl	344(%rsp), %eax
	subl	$1, %eax
	movl	%eax, 224(%rsp)
	leaq	252(%rsp), %rax
	movq	%rax, 216(%rsp)
	leaq	-1(%r13), %rax
	movq	%rax, %r14
	.p2align 4,,10
.L868:
	xorl	%r15d, %r15d
	.p2align 4,,10
.L867:
	movl	%ebp, %eax
	xorl	%edx, %edx
	movl	$1, %r12d
	imull	%r15d, %eax
	leal	1(%r15), %edi
	movl	%edi, 200(%rsp)
	movslq	%eax, %rbx
	addq	208(%rsp), %rbx
	cmpl	%r15d, 224(%rsp)
	jg	.L900
.L843:
	movb	%dl, 252(%rsp)
	movq	8(%rsi), %rcx
	movl	$1, %r8d
	xorl	%edi, %edi
	movq	216(%rsp), %rdx
	leaq	253(%rsp), %r15
	call	*(%rsi)
	jmp	.L860
	.p2align 4,,10
.L902:
	cmpl	$1, %ebp
	jl	.L852
	movq	8(%rsi), %rcx
	movl	$1, %r8d
	movq	%rbx, %rdx
	call	*(%rsi)
.L857:
	movl	196(%rsp), %r11d
	testl	%r11d, %r11d
	jne	.L852
.L859:
	leaq	(%r14,%rbx), %rdx
	movq	8(%rsi), %rcx
	movl	$1, %r8d
	call	*(%rsi)
.L852:
	addl	$1, %edi
	addq	%r13, %rbx
	cmpl	%edi, %r12d
	je	.L901
.L860:
	cmpl	$3, %ebp
	je	.L853
	jle	.L902
	cmpl	$4, %ebp
	jne	.L852
	movl	196(%rsp), %r10d
	movzbl	1(%rbx), %edx
	movq	(%rsi), %r9
	movq	8(%rsi), %rcx
	testl	%r10d, %r10d
	movzbl	(%rbx), %eax
	movzbl	2(%rbx), %r8d
	je	.L858
	movzbl	3(%rbx), %r11d
	subl	$255, %r8d
	subl	$255, %eax
	imull	%r11d, %r8d
	imull	%r11d, %edx
	imull	%eax, %r11d
	movslq	%r8d, %r10
	imulq	$-2139062143, %r10, %r10
	movslq	%r11d, %rax
	imulq	$-2139062143, %rax, %rax
	shrq	$32, %r10
	addl	%r8d, %r10d
	sarl	$31, %r8d
	sarl	$7, %r10d
	shrq	$32, %rax
	subl	%r8d, %r10d
	addl	%r11d, %eax
	sarl	$31, %r11d
	subl	$1, %r10d
	sarl	$7, %eax
	movl	$3, %r8d
	movb	%r10b, 253(%rsp)
	movl	$2155905153, %r10d
	subl	%r11d, %eax
	imulq	%r10, %rdx
	subl	$1, %eax
	movb	%al, 255(%rsp)
	shrq	$39, %rdx
	movb	%dl, 254(%rsp)
	movq	%r15, %rdx
	call	*%r9
	jmp	.L859
.L899:
	movl	%eax, 104(%rsp)
	leaq	.LC40(%rip), %rax
	movq	%rsi, %rcx
	movl	344(%rsp), %edi
	movq	%rax, 80(%rsp)
	movq	368(%rsp), %rax
	movl	%r8d, 64(%rsp)
	movl	$-1, %r8d
	movl	%r9d, 176(%rsp)
	movl	%edx, 168(%rsp)
	movl	%edi, %r9d
	movl	%r8d, %edx
	movl	$0, 112(%rsp)
	movl	$0, 96(%rsp)
	movl	$0, 88(%rsp)
	movl	$0, 72(%rsp)
	movq	%rax, 56(%rsp)
	movl	$0, 48(%rsp)
	movl	%ebp, 40(%rsp)
	movl	%ebx, 32(%rsp)
	movl	%ebx, 160(%rsp)
	movl	%edi, 152(%rsp)
	movl	$0, 144(%rsp)
	movl	$0, 136(%rsp)
	movl	$0, 128(%rsp)
	movl	$0, 120(%rsp)
	call	_ZL14stbiw__outfileP19stbi__write_contextiiiiiiPviiPKcz.constprop.120
.L836:
	addq	$264, %rsp
	popq	%rbx
	popq	%rsi
	popq	%rdi
	popq	%rbp
	popq	%r12
	popq	%r13
	popq	%r14
	popq	%r15
	ret
	.p2align 4,,10
.L853:
	movzbl	1(%rbx), %edx
	movq	(%rsi), %r9
	movq	8(%rsi), %rcx
	movzbl	(%rbx), %eax
	movzbl	2(%rbx), %r8d
.L858:
	movb	%r8b, 253(%rsp)
	movl	$3, %r8d
	movb	%dl, 254(%rsp)
	movq	%r15, %rdx
	movb	%al, 255(%rsp)
	call	*%r9
	jmp	.L857
	.p2align 4,,10
.L901:
	movl	200(%rsp), %r15d
.L861:
	cmpl	%r15d, 344(%rsp)
	jg	.L867
	subl	$1, 228(%rsp)
	movl	228(%rsp), %eax
	movq	232(%rsp), %rbx
	addq	%rbx, 208(%rsp)
	cmpl	$-1, %eax
	jne	.L868
.L842:
	movl	$1, %eax
	jmp	.L836
	.p2align 4,,10
.L900:
	movq	208(%rsp), %r12
	leal	(%rax,%rbp), %edi
	movq	%rbx, %rcx
	movq	%r13, %r8
	movslq	%edi, %rdx
	addq	%r12, %rdx
	call	memcmp
	leal	2(%r15), %ecx
	testl	%eax, %eax
	movl	%ecx, 200(%rsp)
	je	.L844
	cmpl	%ecx, 344(%rsp)
	jle	.L875
	addl	%ebp, %edi
	movq	%r13, %rax
	movq	%rbx, 200(%rsp)
	movl	%ebp, %r13d
	movslq	%edi, %rdi
	movq	%rsi, 336(%rsp)
	movq	%rax, %rbp
	addq	%r12, %rdi
	movl	$2, %r12d
	movq	%rdi, %rsi
	movq	%rbx, %rdi
	movl	344(%rsp), %ebx
	jmp	.L846
	.p2align 4,,10
.L903:
	addl	$1, %r12d
	addq	%rbp, %rdi
	addq	%rbp, %rsi
	leal	(%r15,%r12), %eax
	cmpl	%eax, %ebx
	jle	.L877
	cmpl	$127, %r12d
	jg	.L877
.L846:
	movq	%rbp, %r8
	movq	%rsi, %rdx
	movq	%rdi, %rcx
	call	memcmp
	testl	%eax, %eax
	jne	.L903
	movq	%rbp, %rax
	subl	$1, %r12d
	movl	%r13d, %ebp
	movq	200(%rsp), %rbx
	movq	336(%rsp), %rsi
	leal	-1(%r12), %edx
	movq	%rax, %r13
	leal	(%r12,%r15), %eax
	movl	%eax, 200(%rsp)
	jmp	.L843
	.p2align 4,,10
.L844:
	cmpl	%ecx, 344(%rsp)
	jle	.L876
	addl	%ebp, %edi
	movq	%rsi, 336(%rsp)
	movl	$2, %r12d
	movslq	%edi, %rdi
	addq	208(%rsp), %rdi
	movq	%rdi, %rsi
	movl	344(%rsp), %edi
	jmp	.L850
	.p2align 4,,10
.L849:
	addl	$1, %r12d
	addq	%r13, %rsi
	leal	(%r15,%r12), %eax
	cmpl	%eax, %edi
	jle	.L878
	cmpl	$127, %r12d
	jg	.L878
.L850:
	movq	%r13, %r8
	movq	%rsi, %rdx
	movq	%rbx, %rcx
	call	memcmp
	testl	%eax, %eax
	je	.L849
	movq	336(%rsp), %rsi
	leal	127(%r12), %edx
	addl	%r12d, %r15d
.L848:
	movb	%dl, 252(%rsp)
	movq	8(%rsi), %rcx
	movl	$1, %r8d
	movq	216(%rsp), %rdx
	call	*(%rsi)
	cmpl	$3, %ebp
	je	.L869
	jg	.L870
	cmpl	$1, %ebp
	jl	.L863
	movq	8(%rsi), %rcx
	movl	$1, %r8d
	movq	%rbx, %rdx
	call	*(%rsi)
.L863:
	movl	196(%rsp), %eax
	testl	%eax, %eax
	jne	.L861
	leaq	(%rbx,%r14), %rdx
	movq	8(%rsi), %rcx
	movl	$1, %r8d
	call	*(%rsi)
	jmp	.L861
	.p2align 4,,10
.L870:
	cmpl	$4, %ebp
	jne	.L863
	movl	196(%rsp), %r10d
	movq	(%rsi), %r9
	movq	8(%rsi), %rcx
	movzbl	(%rbx), %edx
	testl	%r10d, %r10d
	movzbl	1(%rbx), %eax
	movzbl	2(%rbx), %r8d
	je	.L865
	movzbl	3(%rbx), %r10d
	movl	$2155905153, %edi
	movzbl	%r8b, %r11d
	subl	$255, %r11d
	imull	%r10d, %eax
	imull	%r10d, %r11d
	imulq	%rdi, %rax
	movslq	%r11d, %r8
	imulq	$-2139062143, %r8, %r8
	shrq	$39, %rax
	movb	%al, 254(%rsp)
	movzbl	%dl, %eax
	subl	$255, %eax
	shrq	$32, %r8
	imull	%eax, %r10d
	leaq	253(%rsp), %rdx
	addl	%r11d, %r8d
	sarl	$7, %r8d
	sarl	$31, %r11d
	subl	%r11d, %r8d
	movslq	%r10d, %rax
	subl	$1, %r8d
	imulq	$-2139062143, %rax, %rax
	movb	%r8b, 253(%rsp)
	movl	$3, %r8d
	shrq	$32, %rax
	addl	%r10d, %eax
	sarl	$31, %r10d
	sarl	$7, %eax
	subl	%r10d, %eax
	subl	$1, %eax
	movb	%al, 255(%rsp)
	call	*%r9
	jmp	.L861
	.p2align 4,,10
.L869:
	movq	(%rsi), %r9
	movq	8(%rsi), %rcx
	movzbl	(%rbx), %edx
	movzbl	1(%rbx), %eax
	movzbl	2(%rbx), %r8d
.L865:
	movb	%r8b, 253(%rsp)
	movl	$3, %r8d
	movb	%dl, 255(%rsp)
	leaq	253(%rsp), %rdx
	movb	%al, 254(%rsp)
	call	*%r9
	jmp	.L863
	.p2align 4,,10
.L878:
	movq	336(%rsp), %rsi
	leal	127(%r12), %edx
	movl	%eax, %r15d
	jmp	.L848
	.p2align 4,,10
.L877:
	movq	200(%rsp), %rbx
	movq	%rbp, %rdi
	movl	%r13d, %ebp
	movl	%eax, 200(%rsp)
	movq	336(%rsp), %rsi
	leal	-1(%r12), %edx
	movq	%rdi, %r13
	jmp	.L843
	.p2align 4,,10
.L873:
	xorl	%eax, %eax
	jmp	.L836
.L875:
	movl	$1, %edx
	movl	$2, %r12d
	jmp	.L843
.L876:
	movl	%ecx, %r15d
	movl	$-127, %edx
	jmp	.L848
	.seh_endproc
	.p2align 4,,15
	.def	_ZL18stbiw__zlib_flushfPhPjPi;	.scl	3;	.type	32;	.endef
	.seh_proc	_ZL18stbiw__zlib_flushfPhPjPi
_ZL18stbiw__zlib_flushfPhPjPi:
.LFB1032:
	pushq	%r13
	.seh_pushreg	%r13
	pushq	%r12
	.seh_pushreg	%r12
	pushq	%rbp
	.seh_pushreg	%rbp
	pushq	%rdi
	.seh_pushreg	%rdi
	pushq	%rsi
	.seh_pushreg	%rsi
	pushq	%rbx
	.seh_pushreg	%rbx
	subq	$40, %rsp
	.seh_stackalloc	40
	.seh_endprologue
	cmpl	$7, (%r8)
	movq	%rcx, %rbx
	movq	%rdx, %rsi
	movq	%r8, %r12
	jle	.L912
	leaq	.LC33(%rip), %rbp
	leaq	.LC34(%rip), %rdi
	jmp	.L909
	.p2align 4,,10
.L914:
	movslq	-4(%rbx), %rax
	movl	-8(%rbx), %ecx
	leal	1(%rax), %edx
	cmpl	%ecx, %edx
	jl	.L907
	leal	1(%rcx,%rcx), %r13d
	leaq	-8(%rbx), %rcx
	movslq	%r13d, %rdx
	addq	$8, %rdx
	call	realloc
	testq	%rax, %rax
	je	.L911
.L908:
	leaq	8(%rax), %rbx
	movl	%r13d, (%rax)
	movslq	4(%rax), %rax
	leal	1(%rax), %edx
.L907:
	movl	(%rsi), %ecx
	movl	%edx, -4(%rbx)
	movb	%cl, (%rbx,%rax)
	shrl	$8, (%rsi)
	movl	(%r12), %eax
	subl	$8, %eax
	cmpl	$7, %eax
	movl	%eax, (%r12)
	jle	.L912
.L909:
	testq	%rbx, %rbx
	jne	.L914
	xorl	%ecx, %ecx
	movl	$10, %edx
	call	realloc
	testq	%rax, %rax
	je	.L911
	movl	$0, 4(%rax)
	movl	$2, %r13d
	jmp	.L908
	.p2align 4,,10
.L912:
	movq	%rbx, %rax
	addq	$40, %rsp
	popq	%rbx
	popq	%rsi
	popq	%rdi
	popq	%rbp
	popq	%r12
	popq	%r13
	ret
	.p2align 4,,10
.L911:
	movq	%rbp, %rdx
	movl	$666, %r8d
	movq	%rdi, %rcx
	call	_assert
	movslq	-4(%rbx), %rax
	leal	1(%rax), %edx
	jmp	.L907
	.seh_endproc
	.p2align 4,,15
	.def	_ZL20stbi__convert_formatPhiijj.part.27;	.scl	3;	.type	32;	.endef
	.seh_proc	_ZL20stbi__convert_formatPhiijj.part.27
_ZL20stbi__convert_formatPhiijj.part.27:
.LFB8038:
	pushq	%r15
	.seh_pushreg	%r15
	pushq	%r14
	.seh_pushreg	%r14
	pushq	%r13
	.seh_pushreg	%r13
	pushq	%r12
	.seh_pushreg	%r12
	pushq	%rbp
	.seh_pushreg	%rbp
	pushq	%rdi
	.seh_pushreg	%rdi
	pushq	%rsi
	.seh_pushreg	%rsi
	pushq	%rbx
	.seh_pushreg	%rbx
	subq	$296, %rsp
	.seh_stackalloc	296
	movaps	%xmm6, 128(%rsp)
	.seh_savexmm	%xmm6, 128
	movaps	%xmm7, 144(%rsp)
	.seh_savexmm	%xmm7, 144
	movaps	%xmm8, 160(%rsp)
	.seh_savexmm	%xmm8, 160
	movaps	%xmm9, 176(%rsp)
	.seh_savexmm	%xmm9, 176
	movaps	%xmm10, 192(%rsp)
	.seh_savexmm	%xmm10, 192
	movaps	%xmm11, 208(%rsp)
	.seh_savexmm	%xmm11, 208
	movaps	%xmm12, 224(%rsp)
	.seh_savexmm	%xmm12, 224
	movaps	%xmm13, 240(%rsp)
	.seh_savexmm	%xmm13, 240
	movaps	%xmm14, 256(%rsp)
	.seh_savexmm	%xmm14, 256
	movaps	%xmm15, 272(%rsp)
	.seh_savexmm	%xmm15, 272
	.seh_endprologue
	movl	400(%rsp), %r12d
	leal	-1(%r8), %eax
	movq	%rcx, 368(%rsp)
	movl	%edx, %r15d
	movl	%r8d, %r14d
	cmpl	$3, %eax
	movl	%r9d, %ebx
	ja	.L1253
.L916:
	xorl	%r9d, %r9d
	movl	%r12d, %r8d
	movl	%ebx, %edx
	movl	%r14d, %ecx
	call	_ZL21stbi__mad3sizes_validiiii
	testl	%eax, %eax
	je	.L919
	movl	%r14d, %esi
	imull	%ebx, %esi
	movl	%esi, %ecx
	imull	%r12d, %ecx
	movslq	%ecx, %rcx
	call	malloc
	testq	%rax, %rax
	je	.L919
	testl	%r12d, %r12d
	jle	.L920
	leal	-2(%rbx), %edx
	movl	%r15d, %r9d
	movl	$1, %ecx
	movq	%rax, 40(%rsp)
	leal	-1(%rbx), %ebp
	movl	%ecx, %edi
	movl	%esi, %r10d
	movl	%r12d, 400(%rsp)
	imull	%ebx, %r9d
	leal	-10(%r14,%r15,8), %r14d
	cmpl	$-1, %edx
	movdqa	.LC2(%rip), %xmm8
	cmovge	%ebx, %edi
	setl	%dl
	cmpl	$14, %ebp
	movdqa	.LC41(%rip), %xmm15
	setbe	%cl
	movl	%ebp, %ebx
	movl	%edi, %esi
	movl	%edi, %r13d
	orl	%edx, %ecx
	movl	%edi, 56(%rsp)
	andl	$-16, %esi
	shrl	$4, %r13d
	movb	%cl, 86(%rsp)
	movl	%r9d, %r12d
	subl	%esi, %ebx
	movl	%esi, 60(%rsp)
	movdqa	%xmm8, %xmm9
	movl	%r10d, %r15d
	movl	%ebx, 80(%rsp)
	movl	%esi, %ebx
	movl	400(%rsp), %r9d
	leaq	0(,%rbx,4), %rsi
	movq	%rbx, 96(%rsp)
	addq	%rbx, %rbx
	cmpl	$15, %ebp
	setbe	%cl
	movq	%rsi, 64(%rsp)
	orl	%edx, %ecx
	movq	%rbx, 72(%rsp)
	leal	-1(%rdi), %edx
	movb	%cl, 87(%rsp)
	movl	%edx, %esi
	andl	$-16, %edx
	shrl	$4, %esi
	movl	%edx, %edi
	movl	%esi, 52(%rsp)
	leaq	0(,%rdi,4), %rbx
	movl	%ebp, %esi
	subl	%edx, %esi
	movq	%rdi, 88(%rsp)
	addq	%rdi, %rdi
	movl	%esi, 120(%rsp)
	xorl	%esi, %esi
	movq	%rbx, 112(%rsp)
	xorl	%ebx, %ebx
	movq	%rdi, 104(%rsp)
	xorl	%edi, %edi
	.p2align 4,,10
.L964:
	movl	%esi, %ecx
	movl	%edi, %edx
	addq	368(%rsp), %rcx
	addq	40(%rsp), %rdx
	cmpl	$25, %r14d
	ja	.L921
	leaq	.L923(%rip), %r10
	movl	%r14d, %r8d
	movslq	(%r10,%r8,4), %r8
	addq	%r10, %r8
	jmp	*%r8
	.section .rdata,"dr"
	.align 4
.L923:
	.long	.L922-.L923
	.long	.L924-.L923
	.long	.L925-.L923
	.long	.L921-.L923
	.long	.L921-.L923
	.long	.L921-.L923
	.long	.L921-.L923
	.long	.L926-.L923
	.long	.L921-.L923
	.long	.L927-.L923
	.long	.L928-.L923
	.long	.L921-.L923
	.long	.L921-.L923
	.long	.L921-.L923
	.long	.L921-.L923
	.long	.L929-.L923
	.long	.L930-.L923
	.long	.L921-.L923
	.long	.L931-.L923
	.long	.L921-.L923
	.long	.L921-.L923
	.long	.L921-.L923
	.long	.L921-.L923
	.long	.L932-.L923
	.long	.L933-.L923
	.long	.L934-.L923
	.text
	.p2align 4,,10
.L924:
	testl	%ebp, %ebp
	js	.L936
	movq	40(%rsp), %rax
	movl	%ebp, %r10d
	.p2align 4,,10
.L942:
	movzbl	(%rcx), %r8d
	subl	$1, %r10d
	addq	$1, %rcx
	addq	$3, %rdx
	movb	%r8b, -1(%rdx)
	movb	%r8b, -2(%rdx)
	movb	%r8b, -3(%rdx)
	cmpl	$-1, %r10d
	jne	.L942
	movq	%rax, 40(%rsp)
	.p2align 4,,10
.L936:
	addl	$1, %ebx
	addl	%r12d, %esi
	addl	%r15d, %edi
	cmpl	%ebx, %r9d
	jne	.L964
	movq	40(%rsp), %rax
.L920:
	movq	368(%rsp), %rcx
	movq	%rax, 40(%rsp)
	call	free
	movq	40(%rsp), %rax
.L915:
	movaps	128(%rsp), %xmm6
	movaps	144(%rsp), %xmm7
	movaps	160(%rsp), %xmm8
	movaps	176(%rsp), %xmm9
	movaps	192(%rsp), %xmm10
	movaps	208(%rsp), %xmm11
	movaps	224(%rsp), %xmm12
	movaps	240(%rsp), %xmm13
	movaps	256(%rsp), %xmm14
	movaps	272(%rsp), %xmm15
	addq	$296, %rsp
	popq	%rbx
	popq	%rsi
	popq	%rdi
	popq	%rbp
	popq	%r12
	popq	%r13
	popq	%r14
	popq	%r15
	ret
	.p2align 4,,10
.L934:
	testl	%ebp, %ebp
	js	.L936
	movq	40(%rsp), %rax
	movl	%ebp, %r8d
	.p2align 4,,10
.L963:
	movzbl	(%rcx), %r10d
	subl	$1, %r8d
	addq	$4, %rcx
	addq	$3, %rdx
	movb	%r10b, -3(%rdx)
	movzbl	-3(%rcx), %r10d
	movb	%r10b, -2(%rdx)
	movzbl	-2(%rcx), %r10d
	movb	%r10b, -1(%rdx)
	cmpl	$-1, %r8d
	jne	.L963
	movq	%rax, 40(%rsp)
	jmp	.L936
	.p2align 4,,10
.L933:
	testl	%ebp, %ebp
	js	.L936
	cmpb	$0, 86(%rsp)
	jne	.L970
	movq	40(%rsp), %rax
	movq	%rcx, %r8
	movq	%rdx, %r10
	xorl	%r11d, %r11d
	pxor	%xmm5, %xmm5
	.p2align 4,,10
.L961:
	movdqu	(%r8), %xmm2
	movdqa	%xmm8, %xmm6
	movdqa	%xmm8, %xmm4
	movdqa	%xmm8, %xmm7
	movdqu	16(%r8), %xmm1
	addl	$1, %r11d
	addq	$64, %r8
	addq	$32, %r10
	movdqu	-32(%r8), %xmm0
	pand	%xmm2, %xmm6
	psrlw	$8, %xmm2
	movdqu	-16(%r8), %xmm3
	pand	%xmm1, %xmm4
	psrlw	$8, %xmm1
	packuswb	%xmm4, %xmm6
	packuswb	%xmm1, %xmm2
	movdqa	%xmm8, %xmm4
	movdqa	%xmm8, %xmm1
	pand	%xmm2, %xmm7
	pand	%xmm3, %xmm4
	pand	%xmm0, %xmm1
	psrlw	$8, %xmm3
	packuswb	%xmm4, %xmm1
	psrlw	$8, %xmm0
	movdqa	%xmm8, %xmm4
	movdqa	.LC43(%rip), %xmm13
	packuswb	%xmm3, %xmm0
	movdqa	%xmm8, %xmm3
	pand	%xmm6, %xmm4
	psrlw	$8, %xmm6
	pand	%xmm1, %xmm3
	psrlw	$8, %xmm1
	packuswb	%xmm3, %xmm4
	movdqa	.LC42(%rip), %xmm3
	packuswb	%xmm1, %xmm6
	movdqa	%xmm8, %xmm1
	movdqa	%xmm4, %xmm14
	movdqa	%xmm6, %xmm11
	pand	%xmm0, %xmm1
	packuswb	%xmm1, %xmm7
	movdqa	%xmm15, %xmm1
	movdqa	%xmm7, %xmm12
	punpcklbw	%xmm5, %xmm14
	punpcklbw	%xmm5, %xmm12
	pmullw	%xmm14, %xmm1
	punpcklbw	%xmm5, %xmm11
	pmullw	%xmm12, %xmm3
	punpckhbw	%xmm5, %xmm4
	punpckhbw	%xmm5, %xmm7
	pmulhw	.LC42(%rip), %xmm12
	pmullw	%xmm11, %xmm13
	punpckhbw	%xmm5, %xmm6
	pmulhw	.LC43(%rip), %xmm11
	pmulhw	%xmm15, %xmm14
	psrlw	$8, %xmm0
	movdqa	%xmm3, %xmm10
	punpckhwd	%xmm12, %xmm3
	psrlw	$8, %xmm2
	punpcklwd	%xmm12, %xmm10
	packuswb	%xmm0, %xmm2
	movdqa	%xmm1, %xmm0
	punpckhwd	%xmm14, %xmm1
	punpcklwd	%xmm14, %xmm0
	paddd	%xmm10, %xmm0
	movdqa	%xmm13, %xmm10
	punpcklwd	%xmm11, %xmm10
	paddd	%xmm10, %xmm0
	movdqa	%xmm1, %xmm10
	movdqa	%xmm3, %xmm1
	paddd	%xmm10, %xmm1
	psrad	$8, %xmm0
	movdqa	%xmm13, %xmm3
	punpckhwd	%xmm11, %xmm3
	paddd	%xmm3, %xmm1
	movdqa	%xmm0, %xmm3
	movdqa	%xmm15, %xmm11
	psrad	$8, %xmm1
	punpckhwd	%xmm1, %xmm3
	punpcklwd	%xmm1, %xmm0
	movdqa	%xmm0, %xmm1
	punpcklwd	%xmm3, %xmm0
	punpckhwd	%xmm3, %xmm1
	movdqa	.LC42(%rip), %xmm3
	pmullw	%xmm4, %xmm11
	punpcklwd	%xmm1, %xmm0
	pmulhw	%xmm15, %xmm4
	pand	%xmm8, %xmm0
	pmullw	%xmm7, %xmm3
	pmulhw	.LC42(%rip), %xmm7
	movdqa	%xmm11, %xmm10
	punpcklwd	%xmm4, %xmm10
	punpckhwd	%xmm4, %xmm11
	movdqa	%xmm3, %xmm1
	punpckhwd	%xmm7, %xmm3
	paddd	%xmm11, %xmm3
	punpcklwd	%xmm7, %xmm1
	paddd	%xmm10, %xmm1
	movdqa	.LC43(%rip), %xmm10
	pmullw	%xmm6, %xmm10
	pmulhw	.LC43(%rip), %xmm6
	movdqa	%xmm10, %xmm12
	punpckhwd	%xmm6, %xmm10
	paddd	%xmm10, %xmm3
	punpcklwd	%xmm6, %xmm12
	paddd	%xmm12, %xmm1
	psrad	$8, %xmm3
	psrad	$8, %xmm1
	movdqa	%xmm1, %xmm4
	punpcklwd	%xmm3, %xmm1
	punpckhwd	%xmm3, %xmm4
	movdqa	%xmm1, %xmm3
	punpcklwd	%xmm4, %xmm1
	punpckhwd	%xmm4, %xmm3
	punpcklwd	%xmm3, %xmm1
	pand	%xmm8, %xmm1
	packuswb	%xmm1, %xmm0
	movdqa	%xmm0, %xmm1
	punpckhbw	%xmm2, %xmm0
	movups	%xmm0, -16(%r10)
	punpcklbw	%xmm2, %xmm1
	movups	%xmm1, -32(%r10)
	cmpl	%r11d, %r13d
	ja	.L961
	addq	64(%rsp), %rcx
	movq	%rax, 40(%rsp)
	addq	72(%rsp), %rdx
	movl	60(%rsp), %r11d
	cmpl	%r11d, 56(%rsp)
	je	.L936
	movl	80(%rsp), %r10d
.L959:
	movzbl	(%rcx), %r8d
	imull	$77, %r8d, %r11d
	movzbl	1(%rcx), %r8d
	imull	$150, %r8d, %r8d
	addl	%r11d, %r8d
	movzbl	2(%rcx), %r11d
	imull	$29, %r11d, %r11d
	addl	%r11d, %r8d
	testl	%r10d, %r10d
	movl	%r8d, %eax
	movb	%ah, (%rdx)
	movzbl	3(%rcx), %r8d
	movb	%r8b, 1(%rdx)
	je	.L936
	movzbl	4(%rcx), %r8d
	imull	$77, %r8d, %r11d
	movzbl	5(%rcx), %r8d
	imull	$150, %r8d, %r8d
	addl	%r11d, %r8d
	movzbl	6(%rcx), %r11d
	imull	$29, %r11d, %r11d
	addl	%r11d, %r8d
	cmpl	$1, %r10d
	movl	%r8d, %eax
	movb	%ah, 2(%rdx)
	movzbl	7(%rcx), %r8d
	movb	%r8b, 3(%rdx)
	je	.L936
	movzbl	8(%rcx), %r8d
	imull	$77, %r8d, %r11d
	movzbl	9(%rcx), %r8d
	imull	$150, %r8d, %r8d
	addl	%r11d, %r8d
	movzbl	10(%rcx), %r11d
	imull	$29, %r11d, %r11d
	addl	%r11d, %r8d
	cmpl	$2, %r10d
	movl	%r8d, %eax
	movb	%ah, 4(%rdx)
	movzbl	11(%rcx), %r8d
	movb	%r8b, 5(%rdx)
	je	.L936
	movzbl	12(%rcx), %r8d
	imull	$77, %r8d, %r11d
	movzbl	13(%rcx), %r8d
	imull	$150, %r8d, %r8d
	addl	%r11d, %r8d
	movzbl	14(%rcx), %r11d
	imull	$29, %r11d, %r11d
	addl	%r11d, %r8d
	cmpl	$3, %r10d
	movl	%r8d, %eax
	movb	%ah, 6(%rdx)
	movzbl	15(%rcx), %r8d
	movb	%r8b, 7(%rdx)
	je	.L936
	movzbl	16(%rcx), %r8d
	imull	$77, %r8d, %r11d
	movzbl	17(%rcx), %r8d
	imull	$150, %r8d, %r8d
	addl	%r11d, %r8d
	movzbl	18(%rcx), %r11d
	imull	$29, %r11d, %r11d
	addl	%r11d, %r8d
	cmpl	$4, %r10d
	movl	%r8d, %eax
	movb	%ah, 8(%rdx)
	movzbl	19(%rcx), %r8d
	movb	%r8b, 9(%rdx)
	je	.L936
	movzbl	20(%rcx), %r8d
	imull	$77, %r8d, %r11d
	movzbl	21(%rcx), %r8d
	imull	$150, %r8d, %r8d
	addl	%r11d, %r8d
	movzbl	22(%rcx), %r11d
	imull	$29, %r11d, %r11d
	addl	%r11d, %r8d
	cmpl	$5, %r10d
	movl	%r8d, %eax
	movb	%ah, 10(%rdx)
	movzbl	23(%rcx), %r8d
	movb	%r8b, 11(%rdx)
	je	.L936
	movzbl	24(%rcx), %r8d
	imull	$77, %r8d, %r11d
	movzbl	25(%rcx), %r8d
	imull	$150, %r8d, %r8d
	addl	%r11d, %r8d
	movzbl	26(%rcx), %r11d
	imull	$29, %r11d, %r11d
	addl	%r11d, %r8d
	cmpl	$6, %r10d
	movl	%r8d, %eax
	movb	%ah, 12(%rdx)
	movzbl	27(%rcx), %r8d
	movb	%r8b, 13(%rdx)
	je	.L936
	movzbl	28(%rcx), %r8d
	imull	$77, %r8d, %r11d
	movzbl	29(%rcx), %r8d
	imull	$150, %r8d, %r8d
	addl	%r11d, %r8d
	movzbl	30(%rcx), %r11d
	imull	$29, %r11d, %r11d
	addl	%r11d, %r8d
	cmpl	$7, %r10d
	movl	%r8d, %eax
	movb	%ah, 14(%rdx)
	movzbl	31(%rcx), %r8d
	movb	%r8b, 15(%rdx)
	je	.L936
	movzbl	32(%rcx), %r8d
	imull	$77, %r8d, %r11d
	movzbl	33(%rcx), %r8d
	imull	$150, %r8d, %r8d
	addl	%r11d, %r8d
	movzbl	34(%rcx), %r11d
	imull	$29, %r11d, %r11d
	addl	%r11d, %r8d
	cmpl	$8, %r10d
	movl	%r8d, %eax
	movb	%ah, 16(%rdx)
	movzbl	35(%rcx), %r8d
	movb	%r8b, 17(%rdx)
	je	.L936
	movzbl	36(%rcx), %r8d
	imull	$77, %r8d, %r11d
	movzbl	37(%rcx), %r8d
	imull	$150, %r8d, %r8d
	addl	%r11d, %r8d
	movzbl	38(%rcx), %r11d
	imull	$29, %r11d, %r11d
	addl	%r11d, %r8d
	cmpl	$9, %r10d
	movl	%r8d, %eax
	movb	%ah, 18(%rdx)
	movzbl	39(%rcx), %r8d
	movb	%r8b, 19(%rdx)
	je	.L936
	movzbl	40(%rcx), %r8d
	imull	$77, %r8d, %r11d
	movzbl	41(%rcx), %r8d
	imull	$150, %r8d, %r8d
	addl	%r11d, %r8d
	movzbl	42(%rcx), %r11d
	imull	$29, %r11d, %r11d
	addl	%r11d, %r8d
	cmpl	$10, %r10d
	movl	%r8d, %eax
	movb	%ah, 20(%rdx)
	movzbl	43(%rcx), %r8d
	movb	%r8b, 21(%rdx)
	je	.L936
	movzbl	44(%rcx), %r8d
	imull	$77, %r8d, %r11d
	movzbl	45(%rcx), %r8d
	imull	$150, %r8d, %r8d
	addl	%r11d, %r8d
	movzbl	46(%rcx), %r11d
	imull	$29, %r11d, %r11d
	addl	%r11d, %r8d
	cmpl	$11, %r10d
	movl	%r8d, %eax
	movb	%ah, 22(%rdx)
	movzbl	47(%rcx), %r8d
	movb	%r8b, 23(%rdx)
	je	.L936
	movzbl	48(%rcx), %r8d
	imull	$77, %r8d, %r11d
	movzbl	49(%rcx), %r8d
	imull	$150, %r8d, %r8d
	addl	%r11d, %r8d
	movzbl	50(%rcx), %r11d
	imull	$29, %r11d, %r11d
	addl	%r11d, %r8d
	cmpl	$12, %r10d
	movl	%r8d, %eax
	movb	%ah, 24(%rdx)
	movzbl	51(%rcx), %r8d
	movb	%r8b, 25(%rdx)
	je	.L936
	movzbl	52(%rcx), %r8d
	imull	$77, %r8d, %r11d
	movzbl	53(%rcx), %r8d
	imull	$150, %r8d, %r8d
	addl	%r11d, %r8d
	movzbl	54(%rcx), %r11d
	imull	$29, %r11d, %r11d
	addl	%r11d, %r8d
	cmpl	$13, %r10d
	movl	%r8d, %eax
	movb	%ah, 26(%rdx)
	movzbl	55(%rcx), %r8d
	movb	%r8b, 27(%rdx)
	je	.L936
	movzbl	56(%rcx), %r8d
	imull	$77, %r8d, %r10d
	movzbl	57(%rcx), %r8d
	imull	$150, %r8d, %r8d
	addl	%r10d, %r8d
	movzbl	58(%rcx), %r10d
	imull	$29, %r10d, %r10d
	addl	%r10d, %r8d
	movl	%r8d, %eax
	movb	%ah, 28(%rdx)
	movzbl	59(%rcx), %ecx
	movb	%cl, 29(%rdx)
	jmp	.L936
	.p2align 4,,10
.L932:
	testl	%ebp, %ebp
	js	.L936
	cmpb	$0, 87(%rsp)
	jne	.L969
	movq	40(%rsp), %rax
	movq	%rcx, %r8
	movq	%rdx, %r11
	xorl	%r10d, %r10d
	movdqa	.LC42(%rip), %xmm14
	pxor	%xmm10, %xmm10
	.p2align 4,,10
.L958:
	movdqu	(%r8), %xmm0
	movdqa	%xmm9, %xmm1
	movdqa	%xmm9, %xmm2
	movdqa	%xmm9, %xmm4
	movdqu	16(%r8), %xmm6
	movdqa	%xmm9, %xmm7
	addl	$1, %r10d
	addq	$64, %r8
	movdqu	-32(%r8), %xmm3
	pand	%xmm0, %xmm1
	psrlw	$8, %xmm0
	addq	$16, %r11
	movdqu	-16(%r8), %xmm5
	pand	%xmm6, %xmm2
	packuswb	%xmm2, %xmm1
	movdqa	%xmm9, %xmm2
	pand	%xmm3, %xmm4
	psrlw	$8, %xmm6
	pand	%xmm5, %xmm2
	packuswb	%xmm2, %xmm4
	pand	%xmm4, %xmm7
	packuswb	%xmm6, %xmm0
	movdqa	%xmm9, %xmm2
	psrlw	$8, %xmm4
	pand	%xmm9, %xmm0
	pand	%xmm1, %xmm2
	psrlw	$8, %xmm5
	packuswb	%xmm7, %xmm2
	movdqa	%xmm2, %xmm11
	psrlw	$8, %xmm1
	punpcklbw	%xmm10, %xmm11
	psrlw	$8, %xmm3
	packuswb	%xmm4, %xmm1
	movdqa	%xmm1, %xmm6
	movdqa	%xmm2, %xmm4
	packuswb	%xmm5, %xmm3
	movdqa	%xmm1, %xmm5
	pand	%xmm9, %xmm3
	movdqa	.LC41(%rip), %xmm1
	packuswb	%xmm3, %xmm0
	movdqa	%xmm14, %xmm2
	movdqa	%xmm0, %xmm7
	movdqa	%xmm0, %xmm3
	pmullw	%xmm11, %xmm1
	punpcklbw	%xmm10, %xmm7
	punpcklbw	%xmm10, %xmm6
	pmulhw	.LC41(%rip), %xmm11
	pmullw	%xmm7, %xmm2
	punpckhbw	%xmm10, %xmm4
	punpckhbw	%xmm10, %xmm3
	punpckhbw	%xmm10, %xmm5
	pmulhw	%xmm14, %xmm7
	movdqa	%xmm1, %xmm0
	punpckhwd	%xmm11, %xmm1
	movdqa	%xmm2, %xmm12
	punpcklwd	%xmm11, %xmm0
	movdqa	%xmm1, %xmm11
	punpcklwd	%xmm7, %xmm12
	paddd	%xmm12, %xmm0
	punpckhwd	%xmm7, %xmm2
	movdqa	.LC43(%rip), %xmm12
	movdqa	%xmm2, %xmm1
	movdqa	.LC43(%rip), %xmm7
	pmullw	%xmm6, %xmm12
	paddd	%xmm11, %xmm1
	movdqa	.LC41(%rip), %xmm11
	pmulhw	.LC43(%rip), %xmm6
	pmullw	%xmm5, %xmm7
	pmulhw	.LC43(%rip), %xmm5
	pmullw	%xmm4, %xmm11
	movdqa	%xmm12, %xmm13
	punpckhwd	%xmm6, %xmm12
	paddd	%xmm12, %xmm1
	punpcklwd	%xmm6, %xmm13
	movdqa	%xmm14, %xmm6
	paddd	%xmm13, %xmm0
	psrad	$8, %xmm1
	pmullw	%xmm3, %xmm6
	psrad	$8, %xmm0
	pmulhw	%xmm14, %xmm3
	movdqa	%xmm0, %xmm2
	punpcklwd	%xmm1, %xmm0
	punpckhwd	%xmm1, %xmm2
	movdqa	%xmm0, %xmm1
	punpcklwd	%xmm2, %xmm0
	punpckhwd	%xmm2, %xmm1
	movdqa	%xmm4, %xmm2
	punpcklwd	%xmm1, %xmm0
	movdqa	%xmm11, %xmm4
	movdqa	%xmm6, %xmm1
	punpckhwd	%xmm3, %xmm6
	pand	%xmm9, %xmm0
	pmulhw	.LC41(%rip), %xmm2
	punpcklwd	%xmm3, %xmm1
	punpcklwd	%xmm2, %xmm4
	punpckhwd	%xmm2, %xmm11
	paddd	%xmm4, %xmm1
	movdqa	%xmm6, %xmm2
	movdqa	%xmm7, %xmm4
	punpckhwd	%xmm5, %xmm7
	punpcklwd	%xmm5, %xmm4
	paddd	%xmm11, %xmm2
	paddd	%xmm4, %xmm1
	psrad	$8, %xmm1
	paddd	%xmm7, %xmm2
	psrad	$8, %xmm2
	movdqa	%xmm1, %xmm3
	punpckhwd	%xmm2, %xmm3
	punpcklwd	%xmm2, %xmm1
	movdqa	%xmm1, %xmm2
	punpcklwd	%xmm3, %xmm1
	punpckhwd	%xmm3, %xmm2
	punpcklwd	%xmm2, %xmm1
	pand	%xmm9, %xmm1
	packuswb	%xmm1, %xmm0
	movups	%xmm0, -16(%r11)
	cmpl	%r10d, 52(%rsp)
	ja	.L958
	addq	112(%rsp), %rcx
	movq	%rax, 40(%rsp)
	addq	88(%rsp), %rdx
	movl	120(%rsp), %r10d
.L957:
	movzbl	(%rcx), %r8d
	imull	$77, %r8d, %r11d
	movzbl	1(%rcx), %r8d
	imull	$150, %r8d, %r8d
	addl	%r11d, %r8d
	movzbl	2(%rcx), %r11d
	imull	$29, %r11d, %r11d
	addl	%r11d, %r8d
	testl	%r10d, %r10d
	movl	%r8d, %eax
	movb	%ah, (%rdx)
	je	.L936
	movzbl	4(%rcx), %r8d
	imull	$77, %r8d, %r11d
	movzbl	5(%rcx), %r8d
	imull	$150, %r8d, %r8d
	addl	%r11d, %r8d
	movzbl	6(%rcx), %r11d
	imull	$29, %r11d, %r11d
	addl	%r11d, %r8d
	cmpl	$1, %r10d
	movl	%r8d, %eax
	movb	%ah, 1(%rdx)
	je	.L936
	movzbl	8(%rcx), %r8d
	imull	$77, %r8d, %r11d
	movzbl	9(%rcx), %r8d
	imull	$150, %r8d, %r8d
	addl	%r11d, %r8d
	movzbl	10(%rcx), %r11d
	imull	$29, %r11d, %r11d
	addl	%r11d, %r8d
	cmpl	$2, %r10d
	movl	%r8d, %eax
	movb	%ah, 2(%rdx)
	je	.L936
	movzbl	12(%rcx), %r8d
	imull	$77, %r8d, %r11d
	movzbl	13(%rcx), %r8d
	imull	$150, %r8d, %r8d
	addl	%r11d, %r8d
	movzbl	14(%rcx), %r11d
	imull	$29, %r11d, %r11d
	addl	%r11d, %r8d
	cmpl	$3, %r10d
	movl	%r8d, %eax
	movb	%ah, 3(%rdx)
	je	.L936
	movzbl	16(%rcx), %r8d
	imull	$77, %r8d, %r11d
	movzbl	17(%rcx), %r8d
	imull	$150, %r8d, %r8d
	addl	%r11d, %r8d
	movzbl	18(%rcx), %r11d
	imull	$29, %r11d, %r11d
	addl	%r11d, %r8d
	cmpl	$4, %r10d
	movl	%r8d, %eax
	movb	%ah, 4(%rdx)
	je	.L936
	movzbl	20(%rcx), %r8d
	imull	$77, %r8d, %r11d
	movzbl	21(%rcx), %r8d
	imull	$150, %r8d, %r8d
	addl	%r11d, %r8d
	movzbl	22(%rcx), %r11d
	imull	$29, %r11d, %r11d
	addl	%r11d, %r8d
	cmpl	$5, %r10d
	movl	%r8d, %eax
	movb	%ah, 5(%rdx)
	je	.L936
	movzbl	24(%rcx), %r8d
	imull	$77, %r8d, %r11d
	movzbl	25(%rcx), %r8d
	imull	$150, %r8d, %r8d
	addl	%r11d, %r8d
	movzbl	26(%rcx), %r11d
	imull	$29, %r11d, %r11d
	addl	%r11d, %r8d
	cmpl	$6, %r10d
	movl	%r8d, %eax
	movb	%ah, 6(%rdx)
	je	.L936
	movzbl	28(%rcx), %r8d
	imull	$77, %r8d, %r11d
	movzbl	29(%rcx), %r8d
	imull	$150, %r8d, %r8d
	addl	%r11d, %r8d
	movzbl	30(%rcx), %r11d
	imull	$29, %r11d, %r11d
	addl	%r11d, %r8d
	cmpl	$7, %r10d
	movl	%r8d, %eax
	movb	%ah, 7(%rdx)
	je	.L936
	movzbl	32(%rcx), %r8d
	imull	$77, %r8d, %r11d
	movzbl	33(%rcx), %r8d
	imull	$150, %r8d, %r8d
	addl	%r11d, %r8d
	movzbl	34(%rcx), %r11d
	imull	$29, %r11d, %r11d
	addl	%r11d, %r8d
	cmpl	$8, %r10d
	movl	%r8d, %eax
	movb	%ah, 8(%rdx)
	je	.L936
	movzbl	36(%rcx), %r8d
	imull	$77, %r8d, %r11d
	movzbl	37(%rcx), %r8d
	imull	$150, %r8d, %r8d
	addl	%r11d, %r8d
	movzbl	38(%rcx), %r11d
	imull	$29, %r11d, %r11d
	addl	%r11d, %r8d
	cmpl	$9, %r10d
	movl	%r8d, %eax
	movb	%ah, 9(%rdx)
	je	.L936
	movzbl	40(%rcx), %r8d
	imull	$77, %r8d, %r11d
	movzbl	41(%rcx), %r8d
	imull	$150, %r8d, %r8d
	addl	%r11d, %r8d
	movzbl	42(%rcx), %r11d
	imull	$29, %r11d, %r11d
	addl	%r11d, %r8d
	cmpl	$10, %r10d
	movl	%r8d, %eax
	movb	%ah, 10(%rdx)
	je	.L936
	movzbl	44(%rcx), %r8d
	imull	$77, %r8d, %r11d
	movzbl	45(%rcx), %r8d
	imull	$150, %r8d, %r8d
	addl	%r11d, %r8d
	movzbl	46(%rcx), %r11d
	imull	$29, %r11d, %r11d
	addl	%r11d, %r8d
	cmpl	$11, %r10d
	movl	%r8d, %eax
	movb	%ah, 11(%rdx)
	je	.L936
	movzbl	48(%rcx), %r8d
	imull	$77, %r8d, %r11d
	movzbl	49(%rcx), %r8d
	imull	$150, %r8d, %r8d
	addl	%r11d, %r8d
	movzbl	50(%rcx), %r11d
	imull	$29, %r11d, %r11d
	addl	%r11d, %r8d
	cmpl	$12, %r10d
	movl	%r8d, %eax
	movb	%ah, 12(%rdx)
	je	.L936
	movzbl	52(%rcx), %r8d
	imull	$77, %r8d, %r11d
	movzbl	53(%rcx), %r8d
	imull	$150, %r8d, %r8d
	addl	%r11d, %r8d
	movzbl	54(%rcx), %r11d
	imull	$29, %r11d, %r11d
	addl	%r11d, %r8d
	cmpl	$13, %r10d
	movl	%r8d, %eax
	movb	%ah, 13(%rdx)
	je	.L936
	movzbl	56(%rcx), %r8d
	imull	$77, %r8d, %r11d
	movzbl	57(%rcx), %r8d
	imull	$150, %r8d, %r8d
	addl	%r11d, %r8d
	movzbl	58(%rcx), %r11d
	imull	$29, %r11d, %r11d
	addl	%r11d, %r8d
	cmpl	$14, %r10d
	movl	%r8d, %eax
	movb	%ah, 14(%rdx)
	je	.L936
	movzbl	60(%rcx), %r10d
	movzbl	61(%rcx), %r8d
	movzbl	62(%rcx), %ecx
	imull	$77, %r10d, %r10d
	imull	$150, %r8d, %r8d
	imull	$29, %ecx, %ecx
	addl	%r10d, %r8d
	addl	%r8d, %ecx
	movb	%ch, 15(%rdx)
	jmp	.L936
	.p2align 4,,10
.L931:
	testl	%ebp, %ebp
	js	.L936
	movq	40(%rsp), %rax
	movl	%ebp, %r8d
	.p2align 4,,10
.L954:
	movzbl	(%rcx), %r10d
	subl	$1, %r8d
	movb	$-1, 3(%rdx)
	addq	$3, %rcx
	addq	$4, %rdx
	movb	%r10b, -4(%rdx)
	movzbl	-2(%rcx), %r10d
	movb	%r10b, -3(%rdx)
	movzbl	-1(%rcx), %r10d
	movb	%r10b, -2(%rdx)
	cmpl	$-1, %r8d
	jne	.L954
	movq	%rax, 40(%rsp)
	jmp	.L936
	.p2align 4,,10
.L929:
	testl	%ebp, %ebp
	js	.L936
	movq	40(%rsp), %rax
	movl	%ebp, %r11d
	movq	%rdx, %r10
	.p2align 4,,10
.L955:
	movzbl	(%rcx), %r8d
	subl	$1, %r11d
	addq	$3, %rcx
	addq	$1, %r10
	movzbl	-2(%rcx), %edx
	imull	$77, %r8d, %r8d
	imull	$150, %edx, %edx
	addl	%edx, %r8d
	movzbl	-1(%rcx), %edx
	imull	$29, %edx, %edx
	addl	%r8d, %edx
	movzbl	%dh, %edx
	movb	%dl, -1(%r10)
	cmpl	$-1, %r11d
	jne	.L955
	movq	%rax, 40(%rsp)
	jmp	.L936
	.p2align 4,,10
.L930:
	testl	%ebp, %ebp
	js	.L936
	movq	40(%rsp), %rax
	movl	%ebp, %r11d
	movq	%rdx, %r10
	.p2align 4,,10
.L956:
	movzbl	(%rcx), %r8d
	subl	$1, %r11d
	addq	$3, %rcx
	addq	$2, %r10
	movzbl	-2(%rcx), %edx
	movb	$-1, -1(%r10)
	imull	$77, %r8d, %r8d
	imull	$150, %edx, %edx
	addl	%edx, %r8d
	movzbl	-1(%rcx), %edx
	imull	$29, %edx, %edx
	addl	%r8d, %edx
	movzbl	%dh, %edx
	movb	%dl, -2(%r10)
	cmpl	$-1, %r11d
	jne	.L956
	movq	%rax, 40(%rsp)
	jmp	.L936
	.p2align 4,,10
.L928:
	testl	%ebp, %ebp
	js	.L936
	cmpb	$0, 86(%rsp)
	jne	.L968
	movq	40(%rsp), %rax
	movq	%rcx, %r10
	movq	%rdx, %r8
	xorl	%r11d, %r11d
	movdqa	.LC2(%rip), %xmm4
	.p2align 4,,10
.L952:
	movdqu	(%r10), %xmm1
	movdqa	%xmm4, %xmm0
	movdqa	%xmm4, %xmm3
	addl	$1, %r11d
	movdqu	16(%r10), %xmm2
	addq	$64, %r8
	addq	$32, %r10
	pand	%xmm1, %xmm0
	psrlw	$8, %xmm1
	pand	%xmm2, %xmm3
	psrlw	$8, %xmm2
	packuswb	%xmm3, %xmm0
	movdqa	%xmm0, %xmm3
	packuswb	%xmm2, %xmm1
	movdqa	%xmm0, %xmm5
	movdqa	%xmm0, %xmm2
	punpcklbw	%xmm0, %xmm3
	punpckhbw	%xmm0, %xmm2
	punpcklbw	%xmm1, %xmm5
	punpckhbw	%xmm1, %xmm0
	movdqa	%xmm3, %xmm1
	punpcklbw	%xmm5, %xmm1
	movups	%xmm1, -64(%r8)
	movdqa	%xmm2, %xmm1
	punpckhbw	%xmm5, %xmm3
	punpcklbw	%xmm0, %xmm1
	movups	%xmm3, -48(%r8)
	punpckhbw	%xmm0, %xmm2
	movups	%xmm1, -32(%r8)
	movups	%xmm2, -16(%r8)
	cmpl	%r11d, %r13d
	ja	.L952
	addq	72(%rsp), %rcx
	movq	%rax, 40(%rsp)
	addq	64(%rsp), %rdx
	movl	60(%rsp), %r11d
	cmpl	%r11d, 56(%rsp)
	je	.L936
	movl	80(%rsp), %r8d
.L950:
	movzbl	(%rcx), %r10d
	testl	%r8d, %r8d
	movb	%r10b, 2(%rdx)
	movb	%r10b, 1(%rdx)
	movb	%r10b, (%rdx)
	movzbl	1(%rcx), %r10d
	movb	%r10b, 3(%rdx)
	je	.L936
	movzbl	2(%rcx), %r10d
	cmpl	$1, %r8d
	movb	%r10b, 6(%rdx)
	movb	%r10b, 5(%rdx)
	movb	%r10b, 4(%rdx)
	movzbl	3(%rcx), %r10d
	movb	%r10b, 7(%rdx)
	je	.L936
	movzbl	4(%rcx), %r10d
	cmpl	$2, %r8d
	movb	%r10b, 10(%rdx)
	movb	%r10b, 9(%rdx)
	movb	%r10b, 8(%rdx)
	movzbl	5(%rcx), %r10d
	movb	%r10b, 11(%rdx)
	je	.L936
	movzbl	6(%rcx), %r10d
	cmpl	$3, %r8d
	movb	%r10b, 14(%rdx)
	movb	%r10b, 13(%rdx)
	movb	%r10b, 12(%rdx)
	movzbl	7(%rcx), %r10d
	movb	%r10b, 15(%rdx)
	je	.L936
	movzbl	8(%rcx), %r10d
	cmpl	$4, %r8d
	movb	%r10b, 18(%rdx)
	movb	%r10b, 17(%rdx)
	movb	%r10b, 16(%rdx)
	movzbl	9(%rcx), %r10d
	movb	%r10b, 19(%rdx)
	je	.L936
	movzbl	10(%rcx), %r10d
	cmpl	$5, %r8d
	movb	%r10b, 22(%rdx)
	movb	%r10b, 21(%rdx)
	movb	%r10b, 20(%rdx)
	movzbl	11(%rcx), %r10d
	movb	%r10b, 23(%rdx)
	je	.L936
	movzbl	12(%rcx), %r10d
	cmpl	$6, %r8d
	movb	%r10b, 26(%rdx)
	movb	%r10b, 25(%rdx)
	movb	%r10b, 24(%rdx)
	movzbl	13(%rcx), %r10d
	movb	%r10b, 27(%rdx)
	je	.L936
	movzbl	14(%rcx), %r10d
	cmpl	$7, %r8d
	movb	%r10b, 30(%rdx)
	movb	%r10b, 29(%rdx)
	movb	%r10b, 28(%rdx)
	movzbl	15(%rcx), %r10d
	movb	%r10b, 31(%rdx)
	je	.L936
	movzbl	16(%rcx), %r10d
	cmpl	$8, %r8d
	movb	%r10b, 34(%rdx)
	movb	%r10b, 33(%rdx)
	movb	%r10b, 32(%rdx)
	movzbl	17(%rcx), %r10d
	movb	%r10b, 35(%rdx)
	je	.L936
	movzbl	18(%rcx), %r10d
	cmpl	$9, %r8d
	movb	%r10b, 38(%rdx)
	movb	%r10b, 37(%rdx)
	movb	%r10b, 36(%rdx)
	movzbl	19(%rcx), %r10d
	movb	%r10b, 39(%rdx)
	je	.L936
	movzbl	20(%rcx), %r10d
	cmpl	$10, %r8d
	movb	%r10b, 42(%rdx)
	movb	%r10b, 41(%rdx)
	movb	%r10b, 40(%rdx)
	movzbl	21(%rcx), %r10d
	movb	%r10b, 43(%rdx)
	je	.L936
	movzbl	22(%rcx), %r10d
	cmpl	$11, %r8d
	movb	%r10b, 46(%rdx)
	movb	%r10b, 45(%rdx)
	movb	%r10b, 44(%rdx)
	movzbl	23(%rcx), %r10d
	movb	%r10b, 47(%rdx)
	je	.L936
	movzbl	24(%rcx), %r10d
	cmpl	$12, %r8d
	movb	%r10b, 50(%rdx)
	movb	%r10b, 49(%rdx)
	movb	%r10b, 48(%rdx)
	movzbl	25(%rcx), %r10d
	movb	%r10b, 51(%rdx)
	je	.L936
	movzbl	26(%rcx), %r10d
	cmpl	$13, %r8d
	movb	%r10b, 54(%rdx)
	movb	%r10b, 53(%rdx)
	movb	%r10b, 52(%rdx)
	movzbl	27(%rcx), %r10d
	movb	%r10b, 55(%rdx)
	je	.L936
	movzbl	28(%rcx), %r8d
	movb	%r8b, 58(%rdx)
	movb	%r8b, 57(%rdx)
	movb	%r8b, 56(%rdx)
	movzbl	29(%rcx), %ecx
	movb	%cl, 59(%rdx)
	jmp	.L936
	.p2align 4,,10
.L927:
	testl	%ebp, %ebp
	js	.L936
	movq	40(%rsp), %rax
	movl	%ebp, %r10d
	.p2align 4,,10
.L949:
	movzbl	(%rcx), %r8d
	subl	$1, %r10d
	addq	$2, %rcx
	addq	$3, %rdx
	movb	%r8b, -1(%rdx)
	movb	%r8b, -2(%rdx)
	movb	%r8b, -3(%rdx)
	cmpl	$-1, %r10d
	jne	.L949
	movq	%rax, 40(%rsp)
	jmp	.L936
	.p2align 4,,10
.L922:
	testl	%ebp, %ebp
	js	.L936
	cmpb	$0, 86(%rsp)
	jne	.L965
	movq	40(%rsp), %rax
	xorl	%r8d, %r8d
	xorl	%r10d, %r10d
	pcmpeqd	%xmm1, %xmm1
	.p2align 4,,10
.L939:
	movdqu	(%rcx,%r8), %xmm0
	addl	$1, %r10d
	movdqa	%xmm0, %xmm2
	punpckhbw	%xmm1, %xmm0
	movups	%xmm0, 16(%rdx,%r8,2)
	punpcklbw	%xmm1, %xmm2
	movups	%xmm2, (%rdx,%r8,2)
	addq	$16, %r8
	cmpl	%r10d, %r13d
	ja	.L939
	addq	96(%rsp), %rcx
	movq	%rax, 40(%rsp)
	addq	72(%rsp), %rdx
	movl	60(%rsp), %r11d
	cmpl	%r11d, 56(%rsp)
	je	.L936
	movl	80(%rsp), %r8d
.L937:
	movzbl	(%rcx), %r10d
	testl	%r8d, %r8d
	movb	$-1, 1(%rdx)
	movb	%r10b, (%rdx)
	je	.L936
	movzbl	1(%rcx), %r10d
	cmpl	$1, %r8d
	movb	$-1, 3(%rdx)
	movb	%r10b, 2(%rdx)
	je	.L936
	movzbl	2(%rcx), %r10d
	cmpl	$2, %r8d
	movb	$-1, 5(%rdx)
	movb	%r10b, 4(%rdx)
	je	.L936
	movzbl	3(%rcx), %r10d
	cmpl	$3, %r8d
	movb	$-1, 7(%rdx)
	movb	%r10b, 6(%rdx)
	je	.L936
	movzbl	4(%rcx), %r10d
	cmpl	$4, %r8d
	movb	$-1, 9(%rdx)
	movb	%r10b, 8(%rdx)
	je	.L936
	movzbl	5(%rcx), %r10d
	cmpl	$5, %r8d
	movb	$-1, 11(%rdx)
	movb	%r10b, 10(%rdx)
	je	.L936
	movzbl	6(%rcx), %r10d
	cmpl	$6, %r8d
	movb	$-1, 13(%rdx)
	movb	%r10b, 12(%rdx)
	je	.L936
	movzbl	7(%rcx), %r10d
	cmpl	$7, %r8d
	movb	$-1, 15(%rdx)
	movb	%r10b, 14(%rdx)
	je	.L936
	movzbl	8(%rcx), %r10d
	cmpl	$8, %r8d
	movb	$-1, 17(%rdx)
	movb	%r10b, 16(%rdx)
	je	.L936
	movzbl	9(%rcx), %r10d
	cmpl	$9, %r8d
	movb	$-1, 19(%rdx)
	movb	%r10b, 18(%rdx)
	je	.L936
	movzbl	10(%rcx), %r10d
	cmpl	$10, %r8d
	movb	$-1, 21(%rdx)
	movb	%r10b, 20(%rdx)
	je	.L936
	movzbl	11(%rcx), %r10d
	cmpl	$11, %r8d
	movb	$-1, 23(%rdx)
	movb	%r10b, 22(%rdx)
	je	.L936
	movzbl	12(%rcx), %r10d
	cmpl	$12, %r8d
	movb	$-1, 25(%rdx)
	movb	%r10b, 24(%rdx)
	je	.L936
	movzbl	13(%rcx), %r10d
	cmpl	$13, %r8d
	movb	$-1, 27(%rdx)
	movb	%r10b, 26(%rdx)
	je	.L936
	movzbl	14(%rcx), %ecx
	movb	$-1, 29(%rdx)
	movb	%cl, 28(%rdx)
	jmp	.L936
	.p2align 4,,10
.L925:
	testl	%ebp, %ebp
	js	.L936
	cmpb	$0, 86(%rsp)
	jne	.L966
	movq	40(%rsp), %rax
	movq	%rdx, %r8
	movq	%rcx, %r11
	xorl	%r10d, %r10d
	pcmpeqd	%xmm4, %xmm4
	.p2align 4,,10
.L945:
	movdqu	(%r11), %xmm0
	addl	$1, %r10d
	addq	$64, %r8
	addq	$16, %r11
	movdqa	%xmm0, %xmm2
	movdqa	%xmm0, %xmm1
	movdqa	%xmm0, %xmm3
	punpcklbw	%xmm0, %xmm2
	punpckhbw	%xmm0, %xmm1
	punpcklbw	%xmm4, %xmm3
	movdqa	%xmm2, %xmm5
	punpckhbw	%xmm3, %xmm2
	movups	%xmm2, -48(%r8)
	movdqa	%xmm1, %xmm2
	punpckhbw	%xmm4, %xmm0
	punpcklbw	%xmm3, %xmm5
	punpcklbw	%xmm0, %xmm2
	movups	%xmm5, -64(%r8)
	punpckhbw	%xmm0, %xmm1
	movups	%xmm2, -32(%r8)
	movups	%xmm1, -16(%r8)
	cmpl	%r10d, %r13d
	ja	.L945
	addq	96(%rsp), %rcx
	movq	%rax, 40(%rsp)
	addq	64(%rsp), %rdx
	movl	60(%rsp), %r11d
	cmpl	%r11d, 56(%rsp)
	je	.L936
	movl	80(%rsp), %r8d
.L943:
	movzbl	(%rcx), %r10d
	testl	%r8d, %r8d
	movb	$-1, 3(%rdx)
	movb	%r10b, 2(%rdx)
	movb	%r10b, 1(%rdx)
	movb	%r10b, (%rdx)
	je	.L936
	movzbl	1(%rcx), %r10d
	cmpl	$1, %r8d
	movb	$-1, 7(%rdx)
	movb	%r10b, 6(%rdx)
	movb	%r10b, 5(%rdx)
	movb	%r10b, 4(%rdx)
	je	.L936
	movzbl	2(%rcx), %r10d
	cmpl	$2, %r8d
	movb	$-1, 11(%rdx)
	movb	%r10b, 10(%rdx)
	movb	%r10b, 9(%rdx)
	movb	%r10b, 8(%rdx)
	je	.L936
	movzbl	3(%rcx), %r10d
	cmpl	$3, %r8d
	movb	$-1, 15(%rdx)
	movb	%r10b, 14(%rdx)
	movb	%r10b, 13(%rdx)
	movb	%r10b, 12(%rdx)
	je	.L936
	movzbl	4(%rcx), %r10d
	cmpl	$4, %r8d
	movb	$-1, 19(%rdx)
	movb	%r10b, 18(%rdx)
	movb	%r10b, 17(%rdx)
	movb	%r10b, 16(%rdx)
	je	.L936
	movzbl	5(%rcx), %r10d
	cmpl	$5, %r8d
	movb	$-1, 23(%rdx)
	movb	%r10b, 22(%rdx)
	movb	%r10b, 21(%rdx)
	movb	%r10b, 20(%rdx)
	je	.L936
	movzbl	6(%rcx), %r10d
	cmpl	$6, %r8d
	movb	$-1, 27(%rdx)
	movb	%r10b, 26(%rdx)
	movb	%r10b, 25(%rdx)
	movb	%r10b, 24(%rdx)
	je	.L936
	movzbl	7(%rcx), %r10d
	cmpl	$7, %r8d
	movb	$-1, 31(%rdx)
	movb	%r10b, 30(%rdx)
	movb	%r10b, 29(%rdx)
	movb	%r10b, 28(%rdx)
	je	.L936
	movzbl	8(%rcx), %r10d
	cmpl	$8, %r8d
	movb	$-1, 35(%rdx)
	movb	%r10b, 34(%rdx)
	movb	%r10b, 33(%rdx)
	movb	%r10b, 32(%rdx)
	je	.L936
	movzbl	9(%rcx), %r10d
	cmpl	$9, %r8d
	movb	$-1, 39(%rdx)
	movb	%r10b, 38(%rdx)
	movb	%r10b, 37(%rdx)
	movb	%r10b, 36(%rdx)
	je	.L936
	movzbl	10(%rcx), %r10d
	cmpl	$10, %r8d
	movb	$-1, 43(%rdx)
	movb	%r10b, 42(%rdx)
	movb	%r10b, 41(%rdx)
	movb	%r10b, 40(%rdx)
	je	.L936
	movzbl	11(%rcx), %r10d
	cmpl	$11, %r8d
	movb	$-1, 47(%rdx)
	movb	%r10b, 46(%rdx)
	movb	%r10b, 45(%rdx)
	movb	%r10b, 44(%rdx)
	je	.L936
	movzbl	12(%rcx), %r10d
	cmpl	$12, %r8d
	movb	$-1, 51(%rdx)
	movb	%r10b, 50(%rdx)
	movb	%r10b, 49(%rdx)
	movb	%r10b, 48(%rdx)
	je	.L936
	movzbl	13(%rcx), %r10d
	cmpl	$13, %r8d
	movb	$-1, 55(%rdx)
	movb	%r10b, 54(%rdx)
	movb	%r10b, 53(%rdx)
	movb	%r10b, 52(%rdx)
	je	.L936
	movzbl	14(%rcx), %ecx
	movb	$-1, 59(%rdx)
	movb	%cl, 58(%rdx)
	movb	%cl, 57(%rdx)
	movb	%cl, 56(%rdx)
	jmp	.L936
	.p2align 4,,10
.L926:
	testl	%ebp, %ebp
	js	.L936
	cmpb	$0, 87(%rsp)
	jne	.L967
	movl	52(%rsp), %r11d
	xorl	%r8d, %r8d
	xorl	%r10d, %r10d
	movq	40(%rsp), %rax
	movdqa	.LC2(%rip), %xmm4
	.p2align 4,,10
.L948:
	movdqu	(%rcx,%r8,2), %xmm0
	addl	$1, %r10d
	movdqu	16(%rcx,%r8,2), %xmm1
	pand	%xmm4, %xmm0
	pand	%xmm4, %xmm1
	packuswb	%xmm1, %xmm0
	movups	%xmm0, (%rdx,%r8)
	addq	$16, %r8
	cmpl	%r10d, %r11d
	ja	.L948
	addq	104(%rsp), %rcx
	movq	%rax, 40(%rsp)
	addq	88(%rsp), %rdx
	movl	120(%rsp), %r8d
.L947:
	movzbl	(%rcx), %r10d
	testl	%r8d, %r8d
	movb	%r10b, (%rdx)
	je	.L936
	movzbl	2(%rcx), %r10d
	cmpl	$1, %r8d
	movb	%r10b, 1(%rdx)
	je	.L936
	movzbl	4(%rcx), %r10d
	cmpl	$2, %r8d
	movb	%r10b, 2(%rdx)
	je	.L936
	movzbl	6(%rcx), %r10d
	cmpl	$3, %r8d
	movb	%r10b, 3(%rdx)
	je	.L936
	movzbl	8(%rcx), %r10d
	cmpl	$4, %r8d
	movb	%r10b, 4(%rdx)
	je	.L936
	movzbl	10(%rcx), %r10d
	cmpl	$5, %r8d
	movb	%r10b, 5(%rdx)
	je	.L936
	movzbl	12(%rcx), %r10d
	cmpl	$6, %r8d
	movb	%r10b, 6(%rdx)
	je	.L936
	movzbl	14(%rcx), %r10d
	cmpl	$7, %r8d
	movb	%r10b, 7(%rdx)
	je	.L936
	movzbl	16(%rcx), %r10d
	cmpl	$8, %r8d
	movb	%r10b, 8(%rdx)
	je	.L936
	movzbl	18(%rcx), %r10d
	cmpl	$9, %r8d
	movb	%r10b, 9(%rdx)
	je	.L936
	movzbl	20(%rcx), %r10d
	cmpl	$10, %r8d
	movb	%r10b, 10(%rdx)
	je	.L936
	movzbl	22(%rcx), %r10d
	cmpl	$11, %r8d
	movb	%r10b, 11(%rdx)
	je	.L936
	movzbl	24(%rcx), %r10d
	cmpl	$12, %r8d
	movb	%r10b, 12(%rdx)
	je	.L936
	movzbl	26(%rcx), %r10d
	cmpl	$13, %r8d
	movb	%r10b, 13(%rdx)
	je	.L936
	movzbl	28(%rcx), %r10d
	cmpl	$14, %r8d
	movb	%r10b, 14(%rdx)
	je	.L936
	movzbl	30(%rcx), %ecx
	movb	%cl, 15(%rdx)
	jmp	.L936
	.p2align 4,,10
.L921:
	movl	$1506, %r8d
	movl	%r9d, 124(%rsp)
	leaq	.LC3(%rip), %rdx
	leaq	.LC32(%rip), %rcx
	call	_assert
	movl	124(%rsp), %r9d
	jmp	.L936
	.p2align 4,,10
.L1253:
	leaq	.LC3(%rip), %rdx
	movl	$1477, %r8d
	leaq	.LC30(%rip), %rcx
	call	_assert
	jmp	.L916
	.p2align 4,,10
.L919:
	movq	368(%rsp), %rcx
	call	free
	leaq	.LC31(%rip), %rax
	movq	%rax, _ZL22stbi__g_failure_reason(%rip)
	xorl	%eax, %eax
	jmp	.L915
.L969:
	movl	%ebp, %r10d
	jmp	.L957
.L968:
	movl	%ebp, %r8d
	jmp	.L950
.L970:
	movl	%ebp, %r10d
	jmp	.L959
.L967:
	movl	%ebp, %r8d
	jmp	.L947
.L965:
	movl	%ebp, %r8d
	jmp	.L937
.L966:
	movl	%ebp, %r8d
	jmp	.L943
	.seh_endproc
	.p2align 4,,15
	.def	_ZL17stbi__malloc_mad3iiii;	.scl	3;	.type	32;	.endef
	.seh_proc	_ZL17stbi__malloc_mad3iiii
_ZL17stbi__malloc_mad3iiii:
.LFB831:
	.seh_endprologue
	testl	%ecx, %ecx
	movl	%edx, %r10d
	js	.L1254
	testl	%edx, %edx
	js	.L1254
	testl	%edx, %edx
	jne	.L1268
.L1256:
	testl	%r8d, %r8d
	js	.L1254
	imull	%r10d, %ecx
	testl	%r8d, %r8d
	jne	.L1269
.L1257:
	imull	%ecx, %r8d
	movl	$2147483647, %eax
	subl	%r9d, %eax
	cmpl	%r8d, %eax
	jl	.L1254
	leal	(%r9,%r8), %ecx
	movslq	%ecx, %rcx
	jmp	malloc
	.p2align 4,,10
.L1268:
	movl	$2147483647, %eax
	cltd
	idivl	%r10d
	cmpl	%eax, %ecx
	jle	.L1256
.L1254:
	xorl	%eax, %eax
	ret
	.p2align 4,,10
.L1269:
	movl	$2147483647, %eax
	cltd
	idivl	%r8d
	cmpl	%eax, %ecx
	jle	.L1257
	jmp	.L1254
	.seh_endproc
	.section .rdata,"dr"
	.align 8
.LC44:
	.ascii "out_n == s->img_n || out_n == s->img_n+1\0"
.LC45:
	.ascii "not enough pixels\0"
.LC46:
	.ascii "invalid filter\0"
.LC47:
	.ascii "img_width_bytes <= x\0"
.LC48:
	.ascii "img_n+1 == out_n\0"
.LC52:
	.ascii "img_n == 3\0"
	.text
	.p2align 4,,15
	.def	_ZL26stbi__create_png_image_rawP9stbi__pngPhjijjii.isra.36;	.scl	3;	.type	32;	.endef
	.seh_proc	_ZL26stbi__create_png_image_rawP9stbi__pngPhjijjii.isra.36
_ZL26stbi__create_png_image_rawP9stbi__pngPhjijjii.isra.36:
.LFB8047:
	pushq	%r15
	.seh_pushreg	%r15
	pushq	%r14
	.seh_pushreg	%r14
	pushq	%r13
	.seh_pushreg	%r13
	pushq	%r12
	.seh_pushreg	%r12
	pushq	%rbp
	.seh_pushreg	%rbp
	pushq	%rdi
	.seh_pushreg	%rdi
	pushq	%rsi
	.seh_pushreg	%rsi
	pushq	%rbx
	.seh_pushreg	%rbx
	subq	$616, %rsp
	.seh_stackalloc	616
	movaps	%xmm6, 448(%rsp)
	.seh_savexmm	%xmm6, 448
	movaps	%xmm7, 464(%rsp)
	.seh_savexmm	%xmm7, 464
	movaps	%xmm8, 480(%rsp)
	.seh_savexmm	%xmm8, 480
	movaps	%xmm9, 496(%rsp)
	.seh_savexmm	%xmm9, 496
	movaps	%xmm10, 512(%rsp)
	.seh_savexmm	%xmm10, 512
	movaps	%xmm11, 528(%rsp)
	.seh_savexmm	%xmm11, 528
	movaps	%xmm12, 544(%rsp)
	.seh_savexmm	%xmm12, 544
	movaps	%xmm13, 560(%rsp)
	.seh_savexmm	%xmm13, 560
	movaps	%xmm14, 576(%rsp)
	.seh_savexmm	%xmm14, 576
	movaps	%xmm15, 592(%rsp)
	.seh_savexmm	%xmm15, 592
	.seh_endprologue
	cmpl	$16, 744(%rsp)
	movl	720(%rsp), %eax
	movq	%rcx, %r12
	movq	%rdx, 696(%rsp)
	movq	%r8, %r13
	movl	%r9d, %ebp
	je	.L1926
	movl	%eax, 216(%rsp)
	movl	$1, %edi
	movl	$1, %r14d
.L1271:
	movl	8(%r12), %eax
	movl	728(%rsp), %esi
	cmpl	%eax, 720(%rsp)
	movl	%eax, 296(%rsp)
	movl	%esi, 256(%rsp)
	je	.L1272
	addl	$1, %eax
	cmpl	%eax, 720(%rsp)
	jne	.L1927
.L1272:
	movl	216(%rsp), %r8d
	xorl	%r9d, %r9d
	movl	736(%rsp), %edx
	movl	728(%rsp), %ecx
	call	_ZL17stbi__malloc_mad3iiii
	movq	%rax, %rbx
	movq	696(%rsp), %rax
	testq	%rbx, %rbx
	movq	%rbx, (%rax)
	je	.L1928
	movl	296(%rsp), %eax
	imull	728(%rsp), %eax
	movl	(%r12), %esi
	movl	%eax, 376(%rsp)
	imull	744(%rsp), %eax
	addl	$7, %eax
	shrl	$3, %eax
	movl	%eax, 232(%rsp)
	addl	$1, %eax
	imull	736(%rsp), %eax
	cmpl	%esi, 728(%rsp)
	je	.L1929
.L1275:
	cmpl	%ebp, %eax
	ja	.L1277
.L1276:
	movl	736(%rsp), %ebp
	testl	%ebp, %ebp
	je	.L1278
	movzbl	0(%r13), %r15d
	leaq	1(%r13), %rbp
	cmpl	$4, %r15d
	jg	.L1279
	movl	%edi, %esi
	movl	296(%rsp), %edi
	movq	$0, 240(%rsp)
	movl	720(%rsp), %eax
	movq	%r13, 704(%rsp)
	imull	728(%rsp), %eax
	movl	$0, 212(%rsp)
	imull	%edi, %r14d
	imull	%eax, %esi
	cmpl	$7, 744(%rsp)
	movl	%eax, 344(%rsp)
	movl	%r14d, %r12d
	movl	%esi, 260(%rsp)
	setle	%dl
	cmpl	%edi, 720(%rsp)
	movl	%esi, 228(%rsp)
	sete	%al
	orl	%eax, %edx
	leal	1(%rdi), %eax
	movb	%dl, 264(%rsp)
	movl	%eax, 348(%rsp)
	movl	728(%rsp), %eax
	subl	$1, %eax
	movl	%eax, 300(%rsp)
	movl	%esi, %eax
	negq	%rax
	movq	%rax, 288(%rsp)
	.p2align 4,,10
.L1281:
	cmpl	$7, 744(%rsp)
	jg	.L1282
	movl	232(%rsp), %eax
	cmpl	%eax, 728(%rsp)
	jb	.L1930
.L1283:
	movl	232(%rsp), %edi
	movl	344(%rsp), %eax
	movl	%edi, 256(%rsp)
	subl	%edi, %eax
	movl	212(%rsp), %edi
	addq	%rax, %rbx
	movq	288(%rsp), %rax
	testl	%edi, %edi
	leaq	(%rbx,%rax), %rdx
	je	.L1931
	movl	$1, %r12d
.L1284:
	leaq	.L1289(%rip), %r8
	xorl	%eax, %eax
	movl	%r15d, %r9d
	.p2align 4,,10
.L1296:
	cmpl	$6, %r15d
	ja	.L1287
	movslq	(%r8,%r9,4), %rcx
	addq	%r8, %rcx
	jmp	*%rcx
	.section .rdata,"dr"
	.align 4
.L1289:
	.long	.L1295-.L1289
	.long	.L1295-.L1289
	.long	.L1293-.L1289
	.long	.L1292-.L1289
	.long	.L1293-.L1289
	.long	.L1295-.L1289
	.long	.L1295-.L1289
	.text
	.p2align 4,,10
.L1295:
	movzbl	0(%rbp,%rax), %ecx
	movb	%cl, (%rbx,%rax)
.L1287:
	addq	$1, %rax
	cmpl	%eax, %r12d
	jg	.L1296
	cmpl	$8, 744(%rsp)
	je	.L1932
.L1297:
	cmpl	$16, 744(%rsp)
	je	.L1933
	addq	$2, 704(%rsp)
	leaq	1(%rdx), %rsi
	addq	$1, %rbx
.L1299:
	cmpb	$0, 264(%rsp)
	je	.L1302
.L1935:
	movl	256(%rsp), %eax
	leal	-1(%rax), %r14d
	imull	%r12d, %r14d
	cmpl	$6, %r15d
	movslq	%r14d, %rax
	movq	%rax, 80(%rsp)
	ja	.L1303
	leaq	.L1305(%rip), %rdx
	movl	%r15d, %eax
	movslq	(%rdx,%rax,4), %rax
	addq	%rdx, %rax
	jmp	*%rax
	.section .rdata,"dr"
	.align 4
.L1305:
	.long	.L1304-.L1305
	.long	.L1306-.L1305
	.long	.L1307-.L1305
	.long	.L1308-.L1305
	.long	.L1309-.L1305
	.long	.L1310-.L1305
	.long	.L1311-.L1305
	.text
	.p2align 4,,10
.L1293:
	movzbl	(%rdx,%rax), %ecx
	addb	0(%rbp,%rax), %cl
	movb	%cl, (%rbx,%rax)
	jmp	.L1287
	.p2align 4,,10
.L1292:
	movzbl	(%rdx,%rax), %ecx
	sarl	%ecx
	addb	0(%rbp,%rax), %cl
	movb	%cl, (%rbx,%rax)
	jmp	.L1287
	.p2align 4,,10
.L1927:
	leaq	.LC3(%rip), %rdx
	movl	$4294, %r8d
	leaq	.LC44(%rip), %rcx
	call	_assert
	jmp	.L1272
	.p2align 4,,10
.L1929:
	movl	4(%r12), %esi
	cmpl	%esi, 736(%rsp)
	jne	.L1275
	cmpl	%ebp, %eax
	je	.L1276
	.p2align 4,,10
.L1277:
	leaq	.LC45(%rip), %rax
	movq	%rax, _ZL22stbi__g_failure_reason(%rip)
	xorl	%eax, %eax
.L1270:
	movaps	448(%rsp), %xmm6
	movaps	464(%rsp), %xmm7
	movaps	480(%rsp), %xmm8
	movaps	496(%rsp), %xmm9
	movaps	512(%rsp), %xmm10
	movaps	528(%rsp), %xmm11
	movaps	544(%rsp), %xmm12
	movaps	560(%rsp), %xmm13
	movaps	576(%rsp), %xmm14
	movaps	592(%rsp), %xmm15
	addq	$616, %rsp
	popq	%rbx
	popq	%rsi
	popq	%rdi
	popq	%rbp
	popq	%r12
	popq	%r13
	popq	%r14
	popq	%r15
	ret
	.p2align 4,,10
.L1282:
	movl	212(%rsp), %esi
	movq	288(%rsp), %rax
	testl	%esi, %esi
	leaq	(%rbx,%rax), %rdx
	je	.L1934
.L1285:
	testl	%r12d, %r12d
	jg	.L1284
	cmpl	$8, 744(%rsp)
	jne	.L1297
	.p2align 4,,10
.L1932:
	movslq	296(%rsp), %rax
	cmpl	%eax, 720(%rsp)
	je	.L1298
	movb	$-1, (%rbx,%rax)
.L1298:
	movslq	720(%rsp), %rsi
	addq	%rbp, %rax
	movq	%rax, 704(%rsp)
	addq	%rsi, %rbx
	addq	%rdx, %rsi
	cmpb	$0, 264(%rsp)
	jne	.L1935
.L1302:
	movl	348(%rsp), %eax
	cmpl	%eax, 720(%rsp)
	je	.L1379
	leaq	.LC3(%rip), %rdx
	movl	$4377, %r8d
	leaq	.LC48(%rip), %rcx
	call	_assert
.L1379:
	cmpl	$6, %r15d
	ja	.L1380
	leaq	.L1382(%rip), %rcx
	movl	%r15d, %edx
	movslq	(%rcx,%rdx,4), %rax
	addq	%rcx, %rax
	jmp	*%rax
	.section .rdata,"dr"
	.align 4
.L1382:
	.long	.L1381-.L1382
	.long	.L1383-.L1382
	.long	.L1384-.L1382
	.long	.L1385-.L1382
	.long	.L1386-.L1382
	.long	.L1387-.L1382
	.long	.L1388-.L1382
	.text
	.p2align 4,,10
.L1304:
	movq	80(%rsp), %r8
	movq	%rbx, %rcx
	movq	704(%rsp), %rdx
	call	memcpy
	.p2align 4,,10
.L1303:
	movq	80(%rsp), %rax
	addq	%rax, 704(%rsp)
.L1378:
	addl	$1, 212(%rsp)
	movl	212(%rsp), %eax
	cmpl	%eax, 736(%rsp)
	je	.L1936
	movq	696(%rsp), %rsi
	movl	228(%rsp), %eax
	movq	(%rsi), %rbx
	movq	%rax, %rdi
	movq	%rax, 240(%rsp)
	addq	%rax, %rbx
	movq	704(%rsp), %rax
	movzbl	(%rax), %r15d
	leaq	1(%rax), %rbp
	movl	260(%rsp), %eax
	addl	%eax, %edi
	cmpl	$4, %r15d
	movl	%edi, 228(%rsp)
	jle	.L1281
.L1279:
	leaq	.LC46(%rip), %rax
	movq	%rax, _ZL22stbi__g_failure_reason(%rip)
	xorl	%eax, %eax
	jmp	.L1270
	.p2align 4,,10
.L1390:
	xorl	%eax, %eax
	.p2align 4,,10
.L1398:
	movzbl	(%rcx,%rax), %edx
	movb	%dl, (%rbx,%rax)
	addq	$1, %rax
	cmpq	%rax, %r13
	jne	.L1398
	.p2align 4,,10
.L1389:
	movb	$-1, (%rbx,%rbp)
	addq	%rbp, %rcx
	addq	32(%rsp), %rbx
	addl	%r15d, %edi
	subl	$1, %esi
	jne	.L1400
	movl	728(%rsp), %eax
	subl	$2, %eax
	addq	$1, %rax
	imulq	%rax, %rbp
	addq	%rbp, 704(%rsp)
	.p2align 4,,10
.L1380:
	cmpl	$16, 744(%rsp)
	jne	.L1378
	movl	728(%rsp), %r11d
	movq	696(%rsp), %rax
	testl	%r11d, %r11d
	movq	(%rax), %rax
	je	.L1378
	movq	240(%rsp), %rbx
	movslq	%r12d, %rcx
	movslq	216(%rsp), %rdx
	movl	728(%rsp), %r8d
	leaq	1(%rbx,%rcx), %rcx
	addq	%rcx, %rax
	xorl	%ecx, %ecx
	.p2align 4,,10
.L1471:
	addl	$1, %ecx
	movb	$-1, (%rax)
	addq	%rdx, %rax
	cmpl	%ecx, %r8d
	jne	.L1471
	jmp	.L1378
	.p2align 4,,10
.L1933:
	movl	296(%rsp), %esi
	movslq	%r12d, %rax
	cmpl	%esi, 720(%rsp)
	je	.L1301
	movb	$-1, (%rbx,%rax)
	movb	$-1, 1(%rbx,%rax)
.L1301:
	movslq	216(%rsp), %rsi
	addq	%rbp, %rax
	movq	%rax, 704(%rsp)
	addq	%rsi, %rbx
	addq	%rdx, %rsi
	jmp	.L1299
	.p2align 4,,10
.L1930:
	leaq	.LC3(%rip), %rdx
	movl	$4315, %r8d
	leaq	.LC47(%rip), %rcx
	call	_assert
	jmp	.L1283
	.p2align 4,,10
.L1926:
	addl	%eax, %eax
	movl	$2, %edi
	movl	$2, %r14d
	movl	%eax, 216(%rsp)
	jmp	.L1271
	.p2align 4,,10
.L1928:
	leaq	.LC31(%rip), %rax
	movq	%rax, _ZL22stbi__g_failure_reason(%rip)
	xorl	%eax, %eax
	jmp	.L1270
	.p2align 4,,10
.L1387:
	movl	300(%rsp), %esi
	testl	%esi, %esi
	je	.L1380
	movslq	216(%rsp), %rdi
	leaq	16(%rbx), %r8
	movslq	%r12d, %r14
	movl	%esi, 64(%rsp)
	movq	704(%rsp), %rcx
	movl	%r15d, 144(%rsp)
	movq	%rdi, %rax
	movq	%rdi, 80(%rsp)
	subq	%rdi, %rbx
	movl	%r14d, %edi
	movl	%eax, %r13d
	movl	%eax, %esi
	negl	%edi
	negl	%r13d
	movl	%edi, 96(%rsp)
	movl	704(%rsp), %edi
	movslq	%r13d, %r13
	leaq	-16(%r13), %rax
	movq	%rax, 48(%rsp)
	movl	$1, %eax
	subl	%esi, %eax
	negl	%edi
	cltq
	movl	%edi, %r15d
	movq	%rax, 112(%rsp)
	movl	$2, %eax
	subl	%esi, %eax
	cltq
	movq	%rax, 128(%rsp)
	.p2align 4,,10
.L1459:
	leaq	-16(%r8), %r10
	testl	%r12d, %r12d
	jle	.L1449
	movq	48(%rsp), %rax
	addq	%r8, %rax
	leaq	16(%r13), %rax
	setnc	%dl
	testq	%rax, %rax
	setle	%al
	orl	%eax, %edx
	leaq	16(%rcx), %rax
	cmpq	%rax, %r10
	setnb	%al
	cmpq	%r8, %rcx
	setnb	%r9b
	orl	%r9d, %eax
	testb	%al, %dl
	je	.L1450
	cmpl	$18, %r12d
	jbe	.L1450
	leal	-1(%r12), %r9d
	movl	%r15d, %edx
	andl	$15, %edx
	leal	15(%rdx), %eax
	cmpl	%eax, %r9d
	jb	.L1661
	testl	%edx, %edx
	je	.L1662
	movzbl	-16(%r8,%r13), %eax
	sarl	%eax
	addb	(%rcx), %al
	cmpl	$1, %edx
	movb	%al, -16(%r8)
	je	.L1663
	movq	112(%rsp), %rax
	movzbl	-16(%r8,%rax), %eax
	sarl	%eax
	addb	1(%rcx), %al
	cmpl	$2, %edx
	movb	%al, -15(%r8)
	je	.L1664
	movq	128(%rsp), %rax
	movzbl	-16(%r8,%rax), %eax
	sarl	%eax
	addb	2(%rcx), %al
	cmpl	$3, %edx
	movb	%al, -14(%r8)
	movl	$3, %eax
	je	.L1452
	movl	216(%rsp), %esi
	subl	%esi, %eax
	cltq
	movzbl	-16(%r8,%rax), %eax
	sarl	%eax
	addb	3(%rcx), %al
	cmpl	$4, %edx
	movb	%al, -13(%r8)
	movl	$4, %eax
	je	.L1452
	subl	%esi, %eax
	cltq
	movzbl	-16(%r8,%rax), %eax
	sarl	%eax
	addb	4(%rcx), %al
	cmpl	$5, %edx
	movb	%al, -12(%r8)
	je	.L1667
	movl	$5, %eax
	subl	%esi, %eax
	cltq
	movzbl	-16(%r8,%rax), %eax
	sarl	%eax
	addb	5(%rcx), %al
	cmpl	$6, %edx
	movb	%al, -11(%r8)
	movl	$6, %eax
	je	.L1452
	subl	%esi, %eax
	cltq
	movzbl	-16(%r8,%rax), %eax
	sarl	%eax
	addb	6(%rcx), %al
	cmpl	$7, %edx
	movb	%al, -10(%r8)
	movl	$7, %eax
	je	.L1452
	subl	%esi, %eax
	cltq
	movzbl	-16(%r8,%rax), %eax
	sarl	%eax
	addb	7(%rcx), %al
	cmpl	$8, %edx
	movb	%al, -9(%r8)
	movl	$8, %eax
	je	.L1452
	subl	%esi, %eax
	cltq
	movzbl	-16(%r8,%rax), %eax
	sarl	%eax
	addb	8(%rcx), %al
	cmpl	$9, %edx
	movb	%al, -8(%r8)
	movl	$9, %eax
	je	.L1452
	subl	%esi, %eax
	cltq
	movzbl	-16(%r8,%rax), %eax
	sarl	%eax
	addb	9(%rcx), %al
	cmpl	$10, %edx
	movb	%al, -7(%r8)
	movl	$10, %eax
	je	.L1452
	subl	%esi, %eax
	cltq
	movzbl	-16(%r8,%rax), %eax
	sarl	%eax
	addb	10(%rcx), %al
	cmpl	$11, %edx
	movb	%al, -6(%r8)
	movl	$11, %eax
	je	.L1452
	subl	%esi, %eax
	cltq
	movzbl	-16(%r8,%rax), %eax
	sarl	%eax
	addb	11(%rcx), %al
	cmpl	$12, %edx
	movb	%al, -5(%r8)
	movl	$12, %eax
	je	.L1452
	subl	%esi, %eax
	cltq
	movzbl	-16(%r8,%rax), %eax
	sarl	%eax
	addb	12(%rcx), %al
	cmpl	$13, %edx
	movb	%al, -4(%r8)
	movl	$13, %eax
	je	.L1452
	subl	%esi, %eax
	cltq
	movzbl	-16(%r8,%rax), %eax
	sarl	%eax
	addb	13(%rcx), %al
	cmpl	$14, %edx
	movb	%al, -3(%r8)
	movl	$14, %eax
	je	.L1452
	subl	%esi, %eax
	cltq
	movzbl	-16(%r8,%rax), %eax
	sarl	%eax
	addb	14(%rcx), %al
	movb	%al, -2(%r8)
	movl	$15, %eax
	.p2align 4,,10
.L1452:
	movl	%r12d, %esi
	movl	%edx, %r11d
	xorl	%r9d, %r9d
	pxor	%xmm2, %xmm2
	leaq	(%rcx,%r11), %rdi
	subl	%edx, %esi
	xorl	%edx, %edx
	movl	%esi, %ebp
	movl	%esi, 32(%rsp)
	leaq	0(%r13,%r11), %rsi
	shrl	$4, %ebp
	addq	%r10, %r11
	addq	%r10, %rsi
	.p2align 4,,10
.L1454:
	movdqu	(%rsi,%rdx), %xmm1
	addl	$1, %r9d
	movdqa	%xmm1, %xmm0
	punpckhbw	%xmm2, %xmm1
	psrlw	$1, %xmm1
	pand	.LC2(%rip), %xmm1
	punpcklbw	%xmm2, %xmm0
	psrlw	$1, %xmm0
	pand	.LC2(%rip), %xmm0
	packuswb	%xmm1, %xmm0
	paddb	(%rdi,%rdx), %xmm0
	movups	%xmm0, (%r11,%rdx)
	addq	$16, %rdx
	cmpl	%r9d, %ebp
	ja	.L1454
	movl	32(%rsp), %esi
	movl	%esi, %edx
	andl	$-16, %edx
	addl	%edx, %eax
	cmpl	%edx, %esi
	je	.L1449
.L1451:
	cltq
	.p2align 4,,10
.L1456:
	movzbl	(%rbx,%rax), %edx
	sarl	%edx
	addb	(%rcx,%rax), %dl
	movb	%dl, (%r10,%rax)
	addq	$1, %rax
	cmpl	%eax, %r12d
	jg	.L1456
.L1449:
	movq	80(%rsp), %rax
	movb	$-1, -16(%r8,%r14)
	addq	%r14, %rcx
	addl	96(%rsp), %r15d
	addq	%rax, %r8
	addq	%rax, %rbx
	subl	$1, 64(%rsp)
	jne	.L1459
.L1922:
	movl	728(%rsp), %eax
	subl	$2, %eax
	addq	$1, %rax
	imulq	%rax, %r14
	addq	%r14, 704(%rsp)
	jmp	.L1380
	.p2align 4,,10
.L1386:
	movl	300(%rsp), %ecx
	testl	%ecx, %ecx
	je	.L1380
	movslq	216(%rsp), %rdi
	movslq	%r12d, %r14
	movl	%ecx, 360(%rsp)
	movq	%r14, 352(%rsp)
	movl	%r12d, 272(%rsp)
	movq	%rdi, %rax
	movq	%rdi, 368(%rsp)
	negl	%eax
	movslq	%eax, %rdi
	leaq	16(%rbx), %rax
	movq	%rdi, 336(%rsp)
	movq	%rax, 312(%rsp)
	leaq	(%rsi,%rdi), %rdx
	movl	%r14d, %eax
	movq	704(%rsp), %r14
	leaq	(%rbx,%rdi), %rbp
	negl	%eax
	movq	%rdx, 328(%rsp)
	movl	%eax, 380(%rsp)
	movl	704(%rsp), %eax
	movq	%rbp, 320(%rsp)
	negl	%eax
	movl	%eax, 304(%rsp)
	movl	$16, %eax
	subq	%rdi, %rax
	addq	%rax, %rdi
	movq	%rax, 384(%rsp)
	leal	-1(%r12), %eax
	movq	%rdi, 392(%rsp)
	movl	%eax, 424(%rsp)
	addq	$1, %rax
	movq	%rax, 400(%rsp)
	.p2align 4,,10
.L1448:
	movq	336(%rsp), %rax
	movq	%rdx, %r13
	movq	%rbp, %rbx
	movl	272(%rsp), %esi
	subq	%rax, %r13
	subq	%rax, %rbx
	testl	%esi, %esi
	jle	.L1434
	movq	312(%rsp), %rdi
	addq	$16, %rax
	testq	%rax, %rax
	leaq	0(%rbp), %rax
	setle	%r8b
	cmpq	%rax, %rdi
	setbe	%al
	orl	%r8d, %eax
	cmpl	$16, %esi
	movq	384(%rsp), %rsi
	seta	%r8b
	andl	%eax, %r8d
	movq	392(%rsp), %rax
	addq	%rdx, %rax
	cmpq	%rax, %rbx
	leaq	(%rdx), %rax
	setnb	%cl
	cmpq	%rax, %rdi
	setbe	%al
	orl	%ecx, %eax
	leaq	(%rdx,%rsi), %rcx
	andl	%r8d, %eax
	cmpq	%rcx, %rbx
	setnb	%cl
	cmpq	%r13, %rdi
	setbe	%r8b
	orl	%r8d, %ecx
	testb	%cl, %al
	je	.L1435
	leaq	16(%r14), %rax
	cmpq	%rax, %rbx
	setnb	%cl
	cmpq	%rdi, %r14
	setnb	%al
	orb	%al, %cl
	je	.L1435
	movl	304(%rsp), %edi
	andl	$15, %edi
	leal	15(%rdi), %eax
	cmpl	%eax, 424(%rsp)
	movl	%edi, 32(%rsp)
	jb	.L1656
	testl	%edi, %edi
	movl	%edi, %eax
	je	.L1657
	leal	-1(%rdi), %r12d
	movl	$1, %ecx
	addq	$2, %r12
	.p2align 4,,10
.L1439:
	movzbl	-1(%r13,%rcx), %r11d
	movzbl	-1(%rbp,%rcx), %r10d
	movzbl	-1(%rdx,%rcx), %esi
	movzbl	-1(%r14,%rcx), %edi
	leal	(%r11,%r10), %eax
	subl	%esi, %eax
	movl	%eax, %r9d
	subl	%r11d, %r9d
	movl	%r9d, %r8d
	sarl	$31, %r8d
	xorl	%r8d, %r9d
	subl	%r8d, %r9d
	movl	%eax, %r8d
	subl	%r10d, %eax
	subl	%esi, %r8d
	movl	%r8d, %r15d
	sarl	$31, %r15d
	xorl	%r15d, %r8d
	subl	%r15d, %r8d
	movl	%eax, %r15d
	sarl	$31, %r15d
	xorl	%r15d, %eax
	subl	%r15d, %eax
	cmpl	%r8d, %r9d
	movl	%r8d, %r15d
	cmovle	%r9d, %r15d
	cmpl	%r15d, %eax
	jle	.L1440
	cmpl	%r8d, %r9d
	cmovg	%esi, %r11d
	movl	%r11d, %r10d
.L1440:
	addl	%edi, %r10d
	movl	%ecx, %r9d
	movb	%r10b, -1(%rbx,%rcx)
	addq	$1, %rcx
	cmpq	%r12, %rcx
	jne	.L1439
	movl	32(%rsp), %eax
.L1437:
	movl	272(%rsp), %ebp
	movl	%eax, %r8d
	xorl	%ecx, %ecx
	pxor	%xmm5, %xmm5
	leaq	(%r14,%r8), %rsi
	leaq	0(%r13,%r8), %r10
	subl	%eax, %ebp
	movq	336(%rsp), %rax
	movl	%ebp, %edi
	shrl	$4, %edi
	leaq	(%r8,%rax), %rdx
	addq	%rbx, %r8
	xorl	%eax, %eax
	leaq	0(%r13,%rdx), %r11
	addq	%rbx, %rdx
	.p2align 4,,10
.L1441:
	movdqu	(%r11,%rax), %xmm0
	pxor	%xmm6, %xmm6
	addl	$1, %ecx
	movdqa	%xmm0, %xmm1
	punpckhbw	%xmm6, %xmm0
	movdqa	%xmm0, %xmm3
	movdqa	%xmm0, %xmm2
	movdqu	(%r10,%rax), %xmm0
	punpcklbw	%xmm6, %xmm1
	movdqa	%xmm1, %xmm4
	punpcklwd	%xmm5, %xmm3
	movdqa	%xmm1, %xmm13
	punpckhwd	%xmm5, %xmm4
	movaps	%xmm4, 32(%rsp)
	punpckhwd	%xmm5, %xmm2
	movdqa	%xmm0, %xmm10
	punpckhbw	%xmm6, %xmm0
	movdqa	%xmm0, %xmm11
	movdqa	%xmm0, %xmm14
	movdqu	(%rdx,%rax), %xmm0
	punpcklbw	%xmm6, %xmm10
	movdqa	%xmm10, %xmm12
	punpcklwd	%xmm5, %xmm13
	punpcklwd	%xmm5, %xmm12
	punpckhwd	%xmm5, %xmm10
	movaps	%xmm10, 64(%rsp)
	punpckhwd	%xmm5, %xmm14
	movdqa	%xmm0, %xmm1
	movaps	%xmm3, 48(%rsp)
	punpckhbw	%xmm6, %xmm0
	punpcklwd	%xmm5, %xmm11
	punpcklbw	%xmm6, %xmm1
	movdqa	%xmm1, %xmm7
	movdqa	%xmm1, %xmm15
	movdqa	%xmm0, %xmm6
	punpcklwd	%xmm5, %xmm7
	movdqa	%xmm7, %xmm8
	movdqa	%xmm7, %xmm1
	punpckhwd	%xmm5, %xmm15
	paddd	%xmm12, %xmm8
	movaps	%xmm1, 96(%rsp)
	movdqa	%xmm15, %xmm7
	paddd	64(%rsp), %xmm7
	psubd	%xmm13, %xmm8
	psubd	32(%rsp), %xmm7
	movaps	%xmm15, 112(%rsp)
	punpckhwd	%xmm5, %xmm0
	movdqa	%xmm8, %xmm9
	psubd	96(%rsp), %xmm9
	movdqa	%xmm0, %xmm3
	punpcklwd	%xmm5, %xmm6
	paddd	%xmm14, %xmm0
	movdqa	%xmm6, %xmm4
	movdqa	%xmm2, %xmm10
	movaps	%xmm3, 144(%rsp)
	movdqa	%xmm9, %xmm1
	psubd	%xmm2, %xmm0
	movaps	%xmm4, 128(%rsp)
	movdqa	%xmm8, %xmm3
	psrad	$31, %xmm1
	paddd	%xmm11, %xmm6
	psubd	48(%rsp), %xmm6
	movaps	%xmm10, 80(%rsp)
	pxor	%xmm1, %xmm9
	psubd	%xmm1, %xmm9
	movdqa	%xmm7, %xmm1
	psubd	112(%rsp), %xmm1
	psubd	%xmm12, %xmm3
	movdqa	%xmm0, %xmm15
	psubd	%xmm13, %xmm8
	movaps	%xmm9, 160(%rsp)
	movdqa	%xmm1, %xmm2
	movdqa	%xmm0, %xmm9
	psubd	80(%rsp), %xmm0
	psrad	$31, %xmm2
	psubd	%xmm14, %xmm9
	psubd	144(%rsp), %xmm15
	pxor	%xmm2, %xmm1
	psubd	%xmm2, %xmm1
	movdqa	%xmm6, %xmm2
	psubd	128(%rsp), %xmm2
	movaps	%xmm1, 176(%rsp)
	movdqa	%xmm2, %xmm1
	psrad	$31, %xmm2
	pxor	%xmm2, %xmm1
	psubd	%xmm2, %xmm1
	movdqa	%xmm15, %xmm2
	psrad	$31, %xmm2
	movaps	%xmm1, 192(%rsp)
	pxor	%xmm2, %xmm15
	psubd	%xmm2, %xmm15
	movdqa	%xmm3, %xmm2
	psrad	$31, %xmm2
	pxor	%xmm2, %xmm3
	psubd	%xmm2, %xmm3
	movdqa	%xmm7, %xmm2
	psubd	64(%rsp), %xmm2
	psubd	32(%rsp), %xmm7
	movdqa	%xmm2, %xmm4
	psrad	$31, %xmm4
	pxor	%xmm4, %xmm2
	psubd	%xmm4, %xmm2
	movdqa	%xmm6, %xmm4
	psubd	48(%rsp), %xmm6
	psubd	%xmm11, %xmm4
	movdqa	%xmm4, %xmm1
	psrad	$31, %xmm4
	pxor	%xmm4, %xmm1
	psubd	%xmm4, %xmm1
	movdqa	%xmm9, %xmm4
	psrad	$31, %xmm4
	pxor	%xmm4, %xmm9
	psubd	%xmm4, %xmm9
	movdqa	%xmm8, %xmm4
	psrad	$31, %xmm4
	pxor	%xmm4, %xmm8
	psubd	%xmm4, %xmm8
	movdqa	%xmm7, %xmm4
	psrad	$31, %xmm4
	pxor	%xmm4, %xmm7
	psubd	%xmm4, %xmm7
	movdqa	%xmm6, %xmm4
	psrad	$31, %xmm4
	pxor	%xmm4, %xmm6
	psubd	%xmm4, %xmm6
	movdqa	%xmm0, %xmm4
	psrad	$31, %xmm4
	pxor	%xmm4, %xmm0
	psubd	%xmm4, %xmm0
	movdqa	%xmm3, %xmm4
	pcmpgtd	%xmm8, %xmm4
	movdqa	%xmm4, %xmm10
	pand	%xmm4, %xmm8
	pandn	%xmm3, %xmm10
	por	%xmm10, %xmm8
	movdqa	%xmm2, %xmm10
	pcmpgtd	%xmm7, %xmm10
	movdqa	%xmm10, %xmm3
	pand	%xmm10, %xmm7
	pandn	%xmm2, %xmm10
	movdqa	%xmm1, %xmm2
	pcmpgtd	%xmm6, %xmm2
	por	%xmm10, %xmm7
	movdqa	%xmm2, %xmm10
	pand	%xmm2, %xmm6
	pandn	%xmm1, %xmm10
	por	%xmm10, %xmm6
	movdqa	%xmm9, %xmm10
	pcmpgtd	%xmm0, %xmm10
	movdqa	%xmm10, %xmm1
	pand	%xmm10, %xmm0
	pandn	%xmm9, %xmm10
	movdqa	160(%rsp), %xmm9
	por	%xmm10, %xmm0
	pcmpgtd	%xmm8, %xmm9
	movdqa	176(%rsp), %xmm8
	pcmpgtd	%xmm7, %xmm8
	movdqa	192(%rsp), %xmm7
	movdqa	%xmm9, %xmm10
	pcmpgtd	%xmm6, %xmm7
	movdqa	%xmm15, %xmm6
	pxor	%xmm15, %xmm15
	pand	%xmm12, %xmm10
	pcmpgtd	%xmm0, %xmm6
	movdqa	%xmm4, %xmm0
	pcmpeqd	%xmm15, %xmm4
	pand	%xmm9, %xmm0
	pand	%xmm0, %xmm13
	movdqa	64(%rsp), %xmm15
	pand	%xmm9, %xmm4
	pandn	96(%rsp), %xmm9
	pand	%xmm4, %xmm12
	por	%xmm10, %xmm9
	pandn	%xmm9, %xmm4
	por	%xmm4, %xmm12
	pandn	%xmm12, %xmm0
	pxor	%xmm12, %xmm12
	por	%xmm0, %xmm13
	movdqa	%xmm3, %xmm0
	pcmpeqd	%xmm12, %xmm3
	movdqa	%xmm8, %xmm10
	pand	%xmm8, %xmm0
	pand	%xmm15, %xmm10
	pand	%xmm8, %xmm3
	pandn	112(%rsp), %xmm8
	por	%xmm10, %xmm8
	movdqa	%xmm15, %xmm10
	movdqa	32(%rsp), %xmm15
	pand	%xmm3, %xmm10
	pandn	%xmm8, %xmm3
	por	%xmm3, %xmm10
	pand	%xmm0, %xmm15
	pandn	%xmm10, %xmm0
	por	%xmm15, %xmm0
	movdqa	%xmm13, %xmm15
	punpckhwd	%xmm0, %xmm15
	punpcklwd	%xmm0, %xmm13
	movdqa	%xmm13, %xmm0
	punpcklwd	%xmm15, %xmm13
	punpckhwd	%xmm15, %xmm0
	punpcklwd	%xmm0, %xmm13
	movdqa	%xmm2, %xmm0
	pcmpeqd	%xmm12, %xmm2
	movdqa	%xmm7, %xmm15
	pand	%xmm7, %xmm0
	pand	%xmm11, %xmm15
	pand	%xmm7, %xmm2
	pand	%xmm2, %xmm11
	pandn	128(%rsp), %xmm7
	por	%xmm15, %xmm7
	pand	.LC2(%rip), %xmm13
	pandn	%xmm7, %xmm2
	movdqa	48(%rsp), %xmm7
	por	%xmm11, %xmm2
	pand	%xmm0, %xmm7
	pandn	%xmm2, %xmm0
	por	%xmm7, %xmm0
	movdqa	%xmm1, %xmm7
	pcmpeqd	%xmm12, %xmm1
	movdqa	%xmm6, %xmm2
	pand	%xmm6, %xmm7
	movdqa	%xmm7, %xmm3
	pand	%xmm14, %xmm2
	pand	%xmm6, %xmm1
	pandn	144(%rsp), %xmm6
	por	%xmm2, %xmm6
	movdqa	%xmm14, %xmm2
	pand	%xmm1, %xmm2
	pandn	%xmm6, %xmm1
	por	%xmm2, %xmm1
	pandn	%xmm1, %xmm3
	movdqa	80(%rsp), %xmm2
	movdqa	%xmm3, %xmm1
	pand	%xmm7, %xmm2
	por	%xmm2, %xmm1
	movdqa	%xmm0, %xmm2
	punpcklwd	%xmm1, %xmm0
	punpckhwd	%xmm1, %xmm2
	movdqa	%xmm0, %xmm1
	punpcklwd	%xmm2, %xmm0
	punpckhwd	%xmm2, %xmm1
	punpcklwd	%xmm1, %xmm0
	pand	.LC2(%rip), %xmm0
	packuswb	%xmm0, %xmm13
	paddb	(%rsi,%rax), %xmm13
	movups	%xmm13, (%r8,%rax)
	addq	$16, %rax
	cmpl	%ecx, %edi
	ja	.L1441
	movl	%ebp, %eax
	andl	$-16, %eax
	leal	(%rax,%r9), %edx
	cmpl	%eax, %ebp
	je	.L1434
.L1436:
	movl	272(%rsp), %edi
	movslq	%edx, %rdx
	movq	320(%rsp), %rbp
	movq	328(%rsp), %r12
	.p2align 4,,10
.L1444:
	movzbl	0(%r13,%rdx), %r10d
	movzbl	0(%rbp,%rdx), %r9d
	movzbl	(%r12,%rdx), %r11d
	movzbl	(%r14,%rdx), %esi
	leal	(%r10,%r9), %eax
	subl	%r11d, %eax
	movl	%eax, %r8d
	subl	%r10d, %r8d
	movl	%r8d, %ecx
	sarl	$31, %ecx
	xorl	%ecx, %r8d
	subl	%ecx, %r8d
	movl	%eax, %ecx
	subl	%r9d, %eax
	subl	%r11d, %ecx
	movl	%ecx, %r15d
	sarl	$31, %r15d
	xorl	%r15d, %ecx
	subl	%r15d, %ecx
	movl	%eax, %r15d
	sarl	$31, %r15d
	xorl	%r15d, %eax
	subl	%r15d, %eax
	cmpl	%ecx, %r8d
	movl	%ecx, %r15d
	cmovle	%r8d, %r15d
	cmpl	%r15d, %eax
	jle	.L1445
	cmpl	%ecx, %r8d
	cmovg	%r11d, %r10d
	movl	%r10d, %r9d
.L1445:
	addl	%esi, %r9d
	movb	%r9b, (%rbx,%rdx)
	addq	$1, %rdx
	cmpl	%edx, %edi
	jg	.L1444
.L1434:
	movq	352(%rsp), %rax
	movq	%r13, %rdx
	movq	%rbx, %rbp
	movl	380(%rsp), %edi
	addl	%edi, 304(%rsp)
	addq	%rax, %r14
	movb	$-1, (%rbx,%rax)
	movq	368(%rsp), %rax
	addq	%rax, 312(%rsp)
	addq	%rax, 328(%rsp)
	addq	%rax, 320(%rsp)
	subl	$1, 360(%rsp)
	jne	.L1448
	movl	728(%rsp), %eax
	movl	272(%rsp), %r12d
	subl	$2, %eax
	addq	$1, %rax
	imulq	352(%rsp), %rax
	addq	%rax, 704(%rsp)
	jmp	.L1380
	.p2align 4,,10
.L1385:
	movl	300(%rsp), %edi
	testl	%edi, %edi
	je	.L1380
	movslq	216(%rsp), %r13
	movslq	%r12d, %rcx
	movq	%rbx, %r10
	movl	%r15d, 176(%rsp)
	movq	%rcx, 48(%rsp)
	leaq	16(%rbx), %r14
	negl	%ecx
	movl	%ecx, 112(%rsp)
	movl	704(%rsp), %ecx
	movl	%edi, 80(%rsp)
	movq	%r13, %rax
	subq	%r13, %r10
	negl	%eax
	movslq	%eax, %rdx
	negl	%ecx
	leaq	16(%rdx), %rax
	movl	%ecx, 32(%rsp)
	movq	704(%rsp), %rcx
	movq	%rdx, %r15
	movq	%rax, 128(%rsp)
	movl	$1, %eax
	subl	%r13d, %eax
	cltq
	movq	%rax, 144(%rsp)
	movl	$2, %eax
	subl	%r13d, %eax
	cltq
	movq	%rax, 160(%rsp)
	.p2align 4,,10
.L1433:
	testl	%r12d, %r12d
	jle	.L1423
	cmpq	$0, 128(%rsp)
	leaq	(%rbx,%r15), %r9
	setle	%dl
	cmpq	%r9, %r14
	setbe	%al
	orl	%eax, %edx
	leaq	16(%rsi), %rax
	cmpq	%rax, %rbx
	setnb	%al
	cmpq	%r14, %rsi
	setnb	%r8b
	orl	%r8d, %eax
	andl	%eax, %edx
	cmpl	$17, %r12d
	seta	%al
	testb	%al, %dl
	je	.L1424
	leaq	16(%rcx), %rax
	cmpq	%rax, %rbx
	setnb	%dl
	cmpq	%r14, %rcx
	setnb	%al
	orb	%al, %dl
	je	.L1424
	movl	32(%rsp), %eax
	leal	-1(%r12), %r8d
	andl	$15, %eax
	leal	15(%rax), %edx
	cmpl	%edx, %r8d
	jb	.L1640
	testl	%eax, %eax
	je	.L1641
	movzbl	(%rsi), %edx
	movzbl	(%rbx,%r15), %r8d
	addl	%r8d, %edx
	sarl	%edx
	addb	(%rcx), %dl
	cmpl	$1, %eax
	movb	%dl, (%rbx)
	je	.L1642
	movq	144(%rsp), %rdi
	movzbl	1(%rsi), %r8d
	movzbl	(%rbx,%rdi), %edx
	addl	%r8d, %edx
	sarl	%edx
	addb	1(%rcx), %dl
	cmpl	$2, %eax
	movb	%dl, 1(%rbx)
	je	.L1643
	movq	160(%rsp), %rdi
	movzbl	2(%rsi), %r8d
	movzbl	(%rbx,%rdi), %edx
	addl	%r8d, %edx
	sarl	%edx
	addb	2(%rcx), %dl
	cmpl	$3, %eax
	movb	%dl, 2(%rbx)
	je	.L1644
	movl	216(%rsp), %edi
	movl	$3, %edx
	movzbl	3(%rsi), %r8d
	subl	%edi, %edx
	movslq	%edx, %rdx
	movzbl	(%rbx,%rdx), %edx
	addl	%r8d, %edx
	sarl	%edx
	addb	3(%rcx), %dl
	cmpl	$4, %eax
	movb	%dl, 3(%rbx)
	je	.L1645
	movl	$4, %edx
	movzbl	4(%rsi), %r8d
	subl	%edi, %edx
	movslq	%edx, %rdx
	movzbl	(%rbx,%rdx), %edx
	addl	%r8d, %edx
	sarl	%edx
	addb	4(%rcx), %dl
	cmpl	$5, %eax
	movb	%dl, 4(%rbx)
	je	.L1646
	movl	$5, %edx
	movzbl	5(%rsi), %r8d
	subl	%edi, %edx
	movslq	%edx, %rdx
	movzbl	(%rbx,%rdx), %edx
	addl	%r8d, %edx
	sarl	%edx
	addb	5(%rcx), %dl
	cmpl	$6, %eax
	movb	%dl, 5(%rbx)
	je	.L1647
	movl	$6, %edx
	movzbl	6(%rsi), %r8d
	subl	%edi, %edx
	movslq	%edx, %rdx
	movzbl	(%rbx,%rdx), %edx
	addl	%r8d, %edx
	sarl	%edx
	addb	6(%rcx), %dl
	cmpl	$7, %eax
	movb	%dl, 6(%rbx)
	je	.L1648
	movl	$7, %edx
	movzbl	7(%rsi), %r8d
	subl	%edi, %edx
	movslq	%edx, %rdx
	movzbl	(%rbx,%rdx), %edx
	addl	%r8d, %edx
	sarl	%edx
	addb	7(%rcx), %dl
	cmpl	$8, %eax
	movb	%dl, 7(%rbx)
	je	.L1649
	movl	$8, %edx
	movzbl	8(%rsi), %r8d
	subl	%edi, %edx
	movslq	%edx, %rdx
	movzbl	(%rbx,%rdx), %edx
	addl	%r8d, %edx
	sarl	%edx
	addb	8(%rcx), %dl
	cmpl	$9, %eax
	movb	%dl, 8(%rbx)
	je	.L1650
	movl	$9, %edx
	movzbl	9(%rsi), %r8d
	subl	%edi, %edx
	movslq	%edx, %rdx
	movzbl	(%rbx,%rdx), %edx
	addl	%r8d, %edx
	sarl	%edx
	addb	9(%rcx), %dl
	cmpl	$10, %eax
	movb	%dl, 9(%rbx)
	je	.L1651
	movl	$10, %edx
	movzbl	10(%rsi), %r8d
	subl	%edi, %edx
	movslq	%edx, %rdx
	movzbl	(%rbx,%rdx), %edx
	addl	%r8d, %edx
	sarl	%edx
	addb	10(%rcx), %dl
	cmpl	$11, %eax
	movb	%dl, 10(%rbx)
	je	.L1652
	movl	$11, %edx
	movzbl	11(%rsi), %r8d
	subl	%edi, %edx
	movslq	%edx, %rdx
	movzbl	(%rbx,%rdx), %edx
	addl	%r8d, %edx
	sarl	%edx
	addb	11(%rcx), %dl
	cmpl	$12, %eax
	movb	%dl, 11(%rbx)
	je	.L1653
	movl	$12, %edx
	movzbl	12(%rsi), %r8d
	subl	%edi, %edx
	movslq	%edx, %rdx
	movzbl	(%rbx,%rdx), %edx
	addl	%r8d, %edx
	sarl	%edx
	addb	12(%rcx), %dl
	cmpl	$13, %eax
	movb	%dl, 12(%rbx)
	je	.L1654
	movl	$13, %edx
	movzbl	13(%rsi), %r8d
	subl	%edi, %edx
	movslq	%edx, %rdx
	movzbl	(%rbx,%rdx), %edx
	addl	%r8d, %edx
	sarl	%edx
	addb	13(%rcx), %dl
	cmpl	$14, %eax
	movb	%dl, 13(%rbx)
	je	.L1655
	movl	$14, %edx
	movzbl	14(%rsi), %r8d
	movl	$15, 96(%rsp)
	subl	%edi, %edx
	movslq	%edx, %rdx
	movzbl	(%rbx,%rdx), %edx
	addl	%r8d, %edx
	sarl	%edx
	addb	14(%rcx), %dl
	movb	%dl, 14(%rbx)
	jmp	.L1426
	.p2align 4,,10
.L1384:
	movl	300(%rsp), %eax
	testl	%eax, %eax
	je	.L1380
	movslq	216(%rsp), %rdi
	movslq	%r12d, %r13
	movl	%eax, 32(%rsp)
	addq	$16, %rbx
	movl	704(%rsp), %r14d
	leal	-1(%r12), %eax
	movl	%r15d, 112(%rsp)
	movq	704(%rsp), %rcx
	movl	%eax, 80(%rsp)
	addq	$1, %rax
	movq	%rax, 96(%rsp)
	movq	%rdi, 48(%rsp)
	movl	%r13d, %edi
	negl	%edi
	negl	%r14d
	movl	%edi, 64(%rsp)
	.p2align 4,,10
.L1422:
	leaq	-16(%rbx), %r9
	testl	%r12d, %r12d
	jle	.L1412
	leaq	16(%rsi), %rax
	cmpq	%rax, %r9
	setnb	%dl
	cmpq	%rbx, %rsi
	setnb	%al
	orl	%eax, %edx
	leaq	16(%rcx), %rax
	cmpq	%rax, %r9
	setnb	%al
	cmpq	%rbx, %rcx
	setnb	%r8b
	orl	%r8d, %eax
	testb	%al, %dl
	je	.L1413
	cmpl	$19, %r12d
	jbe	.L1413
	movl	%r14d, %edx
	andl	$15, %edx
	leal	15(%rdx), %eax
	cmpl	%eax, 80(%rsp)
	jb	.L1624
	testl	%edx, %edx
	je	.L1625
	movzbl	(%rsi), %eax
	addb	(%rcx), %al
	cmpl	$1, %edx
	movb	%al, -16(%rbx)
	je	.L1626
	movzbl	1(%rsi), %eax
	addb	1(%rcx), %al
	cmpl	$2, %edx
	movb	%al, -15(%rbx)
	je	.L1627
	movzbl	2(%rsi), %eax
	addb	2(%rcx), %al
	cmpl	$3, %edx
	movb	%al, -14(%rbx)
	je	.L1628
	movzbl	3(%rsi), %eax
	addb	3(%rcx), %al
	cmpl	$4, %edx
	movb	%al, -13(%rbx)
	je	.L1629
	movzbl	4(%rsi), %eax
	addb	4(%rcx), %al
	cmpl	$5, %edx
	movb	%al, -12(%rbx)
	je	.L1630
	movzbl	5(%rsi), %eax
	addb	5(%rcx), %al
	cmpl	$6, %edx
	movb	%al, -11(%rbx)
	je	.L1631
	movzbl	6(%rsi), %eax
	addb	6(%rcx), %al
	cmpl	$7, %edx
	movb	%al, -10(%rbx)
	je	.L1632
	movzbl	7(%rsi), %eax
	addb	7(%rcx), %al
	cmpl	$8, %edx
	movb	%al, -9(%rbx)
	je	.L1633
	movzbl	8(%rsi), %eax
	addb	8(%rcx), %al
	cmpl	$9, %edx
	movb	%al, -8(%rbx)
	je	.L1634
	movzbl	9(%rsi), %eax
	addb	9(%rcx), %al
	cmpl	$10, %edx
	movb	%al, -7(%rbx)
	je	.L1635
	movzbl	10(%rsi), %eax
	addb	10(%rcx), %al
	cmpl	$11, %edx
	movb	%al, -6(%rbx)
	je	.L1636
	movzbl	11(%rsi), %eax
	addb	11(%rcx), %al
	cmpl	$12, %edx
	movb	%al, -5(%rbx)
	je	.L1637
	movzbl	12(%rsi), %eax
	addb	12(%rcx), %al
	cmpl	$13, %edx
	movb	%al, -4(%rbx)
	je	.L1638
	movzbl	13(%rsi), %eax
	addb	13(%rcx), %al
	cmpl	$14, %edx
	movb	%al, -3(%rbx)
	je	.L1639
	movzbl	14(%rsi), %eax
	addb	14(%rcx), %al
	movb	%al, -2(%rbx)
	movl	$15, %eax
	jmp	.L1415
	.p2align 4,,10
.L1388:
	movl	300(%rsp), %esi
	testl	%esi, %esi
	je	.L1380
	movslq	216(%rsp), %rdi
	movl	%esi, 64(%rsp)
	leaq	16(%rbx), %r8
	movslq	%r12d, %r14
	movq	704(%rsp), %rcx
	movl	%r15d, 160(%rsp)
	movq	%rdi, %rax
	movq	%rdi, 80(%rsp)
	subq	%rdi, %rbx
	movl	%r14d, %edi
	movl	%eax, %esi
	negl	%eax
	negl	%edi
	movslq	%eax, %r13
	movl	%edi, 96(%rsp)
	movl	704(%rsp), %edi
	leaq	-16(%r13), %rax
	movq	%rax, 48(%rsp)
	leal	-1(%r12), %eax
	movl	%eax, 112(%rsp)
	movl	$1, %eax
	subl	%esi, %eax
	negl	%edi
	cltq
	movl	%edi, %r15d
	movq	%rax, 128(%rsp)
	movl	$2, %eax
	subl	%esi, %eax
	cltq
	movq	%rax, 144(%rsp)
	.p2align 4,,10
.L1470:
	leaq	-16(%r8), %r10
	testl	%r12d, %r12d
	jle	.L1460
	movq	48(%rsp), %rax
	addq	%r8, %rax
	leaq	16(%r13), %rax
	setnc	%dl
	testq	%rax, %rax
	setle	%al
	orl	%eax, %edx
	leaq	16(%rcx), %rax
	cmpq	%rax, %r10
	setnb	%al
	cmpq	%r8, %rcx
	setnb	%r9b
	orl	%r9d, %eax
	testb	%al, %dl
	je	.L1461
	cmpl	$19, %r12d
	jbe	.L1461
	movl	%r15d, %edx
	andl	$15, %edx
	leal	15(%rdx), %eax
	cmpl	%eax, 112(%rsp)
	jb	.L1677
	testl	%edx, %edx
	je	.L1678
	movzbl	-16(%r8,%r13), %eax
	addb	(%rcx), %al
	cmpl	$1, %edx
	movb	%al, -16(%r8)
	je	.L1679
	movq	128(%rsp), %rsi
	movzbl	1(%rcx), %eax
	addb	-16(%r8,%rsi), %al
	cmpl	$2, %edx
	movb	%al, -15(%r8)
	je	.L1680
	movq	144(%rsp), %rsi
	movzbl	2(%rcx), %eax
	addb	-16(%r8,%rsi), %al
	cmpl	$3, %edx
	movb	%al, -14(%r8)
	movl	$3, %eax
	je	.L1463
	movl	216(%rsp), %edi
	movzbl	3(%rcx), %r9d
	subl	%edi, %eax
	cltq
	addb	-16(%r8,%rax), %r9b
	cmpl	$4, %edx
	movl	$4, %eax
	movb	%r9b, -13(%r8)
	je	.L1463
	subl	%edi, %eax
	movzbl	4(%rcx), %r9d
	cltq
	addb	-16(%r8,%rax), %r9b
	cmpl	$5, %edx
	movl	$5, %eax
	movb	%r9b, -12(%r8)
	je	.L1463
	subl	%edi, %eax
	movzbl	5(%rcx), %r9d
	cltq
	addb	-16(%r8,%rax), %r9b
	cmpl	$6, %edx
	movb	%r9b, -11(%r8)
	je	.L1684
	movl	$6, %eax
	movzbl	6(%rcx), %r9d
	subl	%edi, %eax
	cltq
	addb	-16(%r8,%rax), %r9b
	cmpl	$7, %edx
	movl	$7, %eax
	movb	%r9b, -10(%r8)
	je	.L1463
	subl	%edi, %eax
	movzbl	7(%rcx), %r9d
	cltq
	addb	-16(%r8,%rax), %r9b
	cmpl	$8, %edx
	movl	$8, %eax
	movb	%r9b, -9(%r8)
	je	.L1463
	subl	%edi, %eax
	movzbl	8(%rcx), %r9d
	cltq
	addb	-16(%r8,%rax), %r9b
	cmpl	$9, %edx
	movl	$9, %eax
	movb	%r9b, -8(%r8)
	je	.L1463
	subl	%edi, %eax
	movzbl	9(%rcx), %r9d
	cltq
	addb	-16(%r8,%rax), %r9b
	cmpl	$10, %edx
	movl	$10, %eax
	movb	%r9b, -7(%r8)
	je	.L1463
	subl	%edi, %eax
	movzbl	10(%rcx), %r9d
	cltq
	addb	-16(%r8,%rax), %r9b
	cmpl	$11, %edx
	movl	$11, %eax
	movb	%r9b, -6(%r8)
	je	.L1463
	subl	%edi, %eax
	movzbl	11(%rcx), %r9d
	cltq
	addb	-16(%r8,%rax), %r9b
	cmpl	$12, %edx
	movl	$12, %eax
	movb	%r9b, -5(%r8)
	je	.L1463
	subl	%edi, %eax
	movzbl	12(%rcx), %r9d
	cltq
	addb	-16(%r8,%rax), %r9b
	cmpl	$13, %edx
	movl	$13, %eax
	movb	%r9b, -4(%r8)
	je	.L1463
	subl	%edi, %eax
	movzbl	13(%rcx), %r9d
	cltq
	addb	-16(%r8,%rax), %r9b
	cmpl	$14, %edx
	movl	$14, %eax
	movb	%r9b, -3(%r8)
	je	.L1463
	subl	%edi, %eax
	movzbl	14(%rcx), %r9d
	cltq
	addb	-16(%r8,%rax), %r9b
	movl	$15, %eax
	movb	%r9b, -2(%r8)
	.p2align 4,,10
.L1463:
	movl	%r12d, %esi
	movl	%edx, %r11d
	xorl	%r9d, %r9d
	leaq	(%rcx,%r11), %rdi
	subl	%edx, %esi
	xorl	%edx, %edx
	movl	%esi, %ebp
	movl	%esi, 32(%rsp)
	leaq	0(%r13,%r11), %rsi
	shrl	$4, %ebp
	addq	%r10, %r11
	addq	%r10, %rsi
	.p2align 4,,10
.L1465:
	movdqu	(%rsi,%rdx), %xmm0
	paddb	(%rdi,%rdx), %xmm0
	addl	$1, %r9d
	movups	%xmm0, (%r11,%rdx)
	addq	$16, %rdx
	cmpl	%r9d, %ebp
	ja	.L1465
	movl	32(%rsp), %edi
	movl	%edi, %edx
	andl	$-16, %edx
	addl	%edx, %eax
	cmpl	%edx, %edi
	je	.L1460
.L1462:
	cltq
	.p2align 4,,10
.L1467:
	movzbl	(%rbx,%rax), %edx
	addb	(%rcx,%rax), %dl
	movb	%dl, (%r10,%rax)
	addq	$1, %rax
	cmpl	%eax, %r12d
	jg	.L1467
.L1460:
	movq	80(%rsp), %rax
	movb	$-1, -16(%r8,%r14)
	addq	%r14, %rcx
	addl	96(%rsp), %r15d
	addq	%rax, %r8
	addq	%rax, %rbx
	subl	$1, 64(%rsp)
	jne	.L1470
	jmp	.L1922
	.p2align 4,,10
.L1310:
	testl	%r14d, %r14d
	jle	.L1303
	movl	%r12d, %ecx
	negl	%ecx
	movslq	%ecx, %rdi
	leaq	16(%rdi), %rax
	leaq	16(%rbx), %rcx
	testq	%rax, %rax
	leaq	(%rbx,%rdi), %rsi
	setle	%dl
	cmpq	%rsi, %rcx
	setbe	%al
	orl	%eax, %edx
	movq	704(%rsp), %rax
	addq	$16, %rax
	cmpq	%rax, %rbx
	setnb	%al
	cmpq	%rcx, 704(%rsp)
	setnb	%cl
	orl	%ecx, %eax
	testb	%al, %dl
	je	.L1358
	cmpl	$18, %r14d
	jbe	.L1358
	movq	704(%rsp), %rcx
	leal	-1(%r14), %edx
	negq	%rcx
	andl	$15, %ecx
	leal	15(%rcx), %eax
	cmpl	%eax, %edx
	jb	.L1562
	testl	%ecx, %ecx
	je	.L1563
	movzbl	(%rsi), %eax
	movq	704(%rsp), %rdx
	sarl	%eax
	addb	(%rdx), %al
	cmpl	$1, %ecx
	movb	%al, (%rbx)
	je	.L1564
	movl	$1, %eax
	subl	%r12d, %eax
	cltq
	movzbl	(%rbx,%rax), %eax
	sarl	%eax
	addb	1(%rdx), %al
	cmpl	$2, %ecx
	movb	%al, 1(%rbx)
	je	.L1565
	movl	$2, %eax
	subl	%r12d, %eax
	cltq
	movzbl	(%rbx,%rax), %eax
	sarl	%eax
	addb	2(%rdx), %al
	cmpl	$3, %ecx
	movb	%al, 2(%rbx)
	je	.L1566
	movl	$3, %eax
	subl	%r12d, %eax
	cltq
	movzbl	(%rbx,%rax), %eax
	sarl	%eax
	addb	3(%rdx), %al
	cmpl	$4, %ecx
	movb	%al, 3(%rbx)
	je	.L1567
	movl	$4, %eax
	subl	%r12d, %eax
	cltq
	movzbl	(%rbx,%rax), %eax
	sarl	%eax
	addb	4(%rdx), %al
	cmpl	$5, %ecx
	movb	%al, 4(%rbx)
	je	.L1360
	movl	$5, %eax
	subl	%r12d, %eax
	cltq
	movzbl	(%rbx,%rax), %eax
	sarl	%eax
	addb	5(%rdx), %al
	cmpl	$6, %ecx
	movb	%al, 5(%rbx)
	je	.L1568
	movl	$6, %eax
	subl	%r12d, %eax
	cltq
	movzbl	(%rbx,%rax), %eax
	sarl	%eax
	addb	6(%rdx), %al
	cmpl	$7, %ecx
	movb	%al, 6(%rbx)
	je	.L1569
	movl	$7, %eax
	subl	%r12d, %eax
	cltq
	movzbl	(%rbx,%rax), %eax
	sarl	%eax
	addb	7(%rdx), %al
	cmpl	$8, %ecx
	movb	%al, 7(%rbx)
	je	.L1570
	movl	$8, %eax
	subl	%r12d, %eax
	cltq
	movzbl	(%rbx,%rax), %eax
	sarl	%eax
	addb	8(%rdx), %al
	cmpl	$9, %ecx
	movb	%al, 8(%rbx)
	je	.L1571
	movl	$9, %eax
	subl	%r12d, %eax
	cltq
	movzbl	(%rbx,%rax), %eax
	sarl	%eax
	addb	9(%rdx), %al
	cmpl	$10, %ecx
	movb	%al, 9(%rbx)
	je	.L1572
	movl	$10, %eax
	subl	%r12d, %eax
	cltq
	movzbl	(%rbx,%rax), %eax
	sarl	%eax
	addb	10(%rdx), %al
	cmpl	$11, %ecx
	movb	%al, 10(%rbx)
	je	.L1573
	movl	$11, %eax
	subl	%r12d, %eax
	cltq
	movzbl	(%rbx,%rax), %eax
	sarl	%eax
	addb	11(%rdx), %al
	cmpl	$12, %ecx
	movb	%al, 11(%rbx)
	je	.L1574
	movl	$12, %eax
	subl	%r12d, %eax
	cltq
	movzbl	(%rbx,%rax), %eax
	sarl	%eax
	addb	12(%rdx), %al
	cmpl	$13, %ecx
	movb	%al, 12(%rbx)
	je	.L1575
	movl	$13, %eax
	subl	%r12d, %eax
	cltq
	movzbl	(%rbx,%rax), %eax
	sarl	%eax
	addb	13(%rdx), %al
	cmpl	$14, %ecx
	movb	%al, 13(%rbx)
	je	.L1576
	movl	$14, %eax
	movl	$15, %r15d
	subl	%r12d, %eax
	cltq
	movzbl	(%rbx,%rax), %eax
	sarl	%eax
	addb	14(%rdx), %al
	movb	%al, 14(%rbx)
.L1360:
	movq	704(%rsp), %r9
	movl	%r14d, %r11d
	movl	%ecx, %r8d
	xorl	%eax, %eax
	subl	%ecx, %r11d
	xorl	%edx, %edx
	pxor	%xmm2, %xmm2
	leaq	(%rdi,%r8), %rcx
	movl	%r11d, %r10d
	shrl	$4, %r10d
	addq	%rbx, %rcx
	addq	%r8, %r9
	addq	%rbx, %r8
	.p2align 4,,10
.L1363:
	movdqu	(%rcx,%rax), %xmm1
	addl	$1, %edx
	movdqa	%xmm1, %xmm0
	punpckhbw	%xmm2, %xmm1
	psrlw	$1, %xmm1
	pand	.LC2(%rip), %xmm1
	punpcklbw	%xmm2, %xmm0
	psrlw	$1, %xmm0
	pand	.LC2(%rip), %xmm0
	packuswb	%xmm1, %xmm0
	paddb	(%r9,%rax), %xmm0
	movups	%xmm0, (%r8,%rax)
	addq	$16, %rax
	cmpl	%edx, %r10d
	ja	.L1363
	movl	%r11d, %eax
	andl	$-16, %eax
	addl	%eax, %r15d
	cmpl	%eax, %r11d
	je	.L1303
.L1359:
	movq	704(%rsp), %rdx
	movslq	%r15d, %r15
	.p2align 4,,10
.L1365:
	movzbl	(%rsi,%r15), %eax
	sarl	%eax
	addb	(%rdx,%r15), %al
	movb	%al, (%rbx,%r15)
	addq	$1, %r15
	cmpl	%r15d, %r14d
	jg	.L1365
	jmp	.L1303
	.p2align 4,,10
.L1309:
	testl	%r14d, %r14d
	jle	.L1303
	leaq	16(%rbx), %rcx
	movl	%r12d, %edx
	negl	%edx
	movslq	%edx, %rax
	leaq	16(%rax), %r9
	movq	%rax, 32(%rsp)
	leaq	(%rbx,%rax), %r11
	leaq	(%rsi,%rax), %r15
	movq	%r11, 304(%rsp)
	leaq	(%rsi,%r9), %rax
	cmpq	%rax, %rbx
	setnb	%r8b
	cmpq	%r15, %rcx
	setbe	%al
	orl	%eax, %r8d
	testq	%r9, %r9
	setle	%dl
	cmpq	%r11, %rcx
	setbe	%al
	orl	%edx, %eax
	andl	%r8d, %eax
	cmpl	$16, %r14d
	seta	%dl
	andl	%edx, %eax
	leaq	16(%rsi), %rdx
	cmpq	%rdx, %rbx
	setnb	%dl
	cmpq	%rcx, %rsi
	setnb	%r8b
	orl	%r8d, %edx
	testb	%dl, %al
	je	.L1344
	movq	704(%rsp), %rax
	addq	$16, %rax
	cmpq	%rax, %rbx
	setnb	%al
	cmpq	%rcx, 704(%rsp)
	setnb	%dl
	orb	%dl, %al
	je	.L1344
	movq	704(%rsp), %rax
	leal	-1(%r14), %edx
	negq	%rax
	movl	%eax, %edi
	andl	$15, %edi
	leal	15(%rdi), %eax
	movl	%edi, 48(%rsp)
	cmpl	%eax, %edx
	jb	.L1557
	testl	%edi, %edi
	je	.L1558
	movl	%r14d, 64(%rsp)
	movq	704(%rsp), %r14
	leal	-1(%rdi), %ebp
	movl	$1, %edx
	movl	%r12d, 96(%rsp)
	addq	$2, %rbp
	movq	%r11, %r12
	.p2align 4,,10
.L1348:
	movzbl	-1(%rsi,%rdx), %r10d
	movzbl	-1(%r12,%rdx), %r9d
	movzbl	-1(%r15,%rdx), %r11d
	movzbl	-1(%r14,%rdx), %edi
	leal	(%r10,%r9), %eax
	subl	%r11d, %eax
	movl	%eax, %r8d
	subl	%r10d, %r8d
	movl	%r8d, %ecx
	sarl	$31, %ecx
	xorl	%ecx, %r8d
	subl	%ecx, %r8d
	movl	%eax, %ecx
	subl	%r9d, %eax
	subl	%r11d, %ecx
	movl	%ecx, %r13d
	sarl	$31, %r13d
	xorl	%r13d, %ecx
	subl	%r13d, %ecx
	movl	%eax, %r13d
	sarl	$31, %r13d
	xorl	%r13d, %eax
	subl	%r13d, %eax
	cmpl	%ecx, %r8d
	movl	%ecx, %r13d
	cmovle	%r8d, %r13d
	cmpl	%r13d, %eax
	jle	.L1349
	cmpl	%ecx, %r8d
	cmovg	%r11d, %r10d
	movl	%r10d, %r9d
.L1349:
	addl	%edi, %r9d
	movl	%edx, %r10d
	movb	%r9b, -1(%rbx,%rdx)
	addq	$1, %rdx
	cmpq	%rdx, %rbp
	jne	.L1348
	movl	64(%rsp), %r14d
	movl	96(%rsp), %r12d
	movl	48(%rsp), %edi
.L1346:
	movq	32(%rsp), %rdx
	movl	%r14d, %r13d
	movl	%edi, %eax
	movq	704(%rsp), %r11
	leaq	(%rsi,%rax), %r8
	subl	%edi, %r13d
	movdqa	.LC2(%rip), %xmm5
	leaq	(%rbx,%rax), %rdi
	movl	%r13d, %ebp
	shrl	$4, %ebp
	addq	%rax, %rdx
	movaps	%xmm5, 272(%rsp)
	pxor	%xmm5, %xmm5
	leaq	(%rsi,%rdx), %rcx
	addq	%rax, %r11
	xorl	%eax, %eax
	leaq	(%rbx,%rdx), %r9
	xorl	%edx, %edx
	.p2align 4,,10
.L1351:
	movdqu	(%rcx,%rax), %xmm0
	pxor	%xmm7, %xmm7
	addl	$1, %edx
	movdqu	(%r8,%rax), %xmm6
	movdqa	%xmm0, %xmm1
	punpckhbw	%xmm7, %xmm0
	movdqa	%xmm0, %xmm2
	movdqa	%xmm0, %xmm14
	movdqu	(%r9,%rax), %xmm0
	punpcklbw	%xmm7, %xmm1
	movdqa	%xmm6, %xmm11
	movdqa	%xmm1, %xmm3
	movdqa	%xmm1, %xmm4
	punpckhbw	%xmm7, %xmm6
	punpcklwd	%xmm5, %xmm3
	punpcklwd	%xmm5, %xmm2
	movdqa	%xmm0, %xmm1
	punpcklbw	%xmm7, %xmm11
	punpckhbw	%xmm7, %xmm0
	punpckhwd	%xmm5, %xmm4
	punpcklbw	%xmm7, %xmm1
	movdqa	%xmm1, %xmm7
	movdqa	%xmm11, %xmm13
	movaps	%xmm3, 32(%rsp)
	punpcklwd	%xmm5, %xmm7
	movdqa	%xmm7, %xmm9
	punpcklwd	%xmm5, %xmm13
	movdqa	%xmm1, %xmm15
	paddd	%xmm13, %xmm9
	psubd	32(%rsp), %xmm9
	movdqa	%xmm7, %xmm1
	punpckhwd	%xmm5, %xmm15
	movdqa	%xmm0, %xmm10
	movaps	%xmm1, 112(%rsp)
	movdqa	%xmm15, %xmm8
	punpckhwd	%xmm5, %xmm11
	punpcklwd	%xmm5, %xmm10
	movdqa	%xmm10, %xmm3
	movdqa	%xmm10, %xmm7
	movdqa	%xmm9, %xmm10
	psubd	112(%rsp), %xmm10
	movaps	%xmm4, 48(%rsp)
	paddd	%xmm11, %xmm8
	movdqa	%xmm6, %xmm12
	psubd	48(%rsp), %xmm8
	punpckhwd	%xmm5, %xmm6
	punpckhwd	%xmm5, %xmm0
	punpcklwd	%xmm5, %xmm12
	movdqa	%xmm10, %xmm1
	paddd	%xmm12, %xmm7
	movdqa	%xmm0, %xmm4
	movaps	%xmm15, 128(%rsp)
	psrad	$31, %xmm1
	psubd	%xmm2, %xmm7
	punpckhwd	%xmm5, %xmm14
	movaps	%xmm3, 144(%rsp)
	pxor	%xmm1, %xmm10
	psubd	%xmm1, %xmm10
	movdqa	%xmm8, %xmm1
	paddd	%xmm6, %xmm0
	movaps	%xmm14, 64(%rsp)
	movdqa	%xmm7, %xmm15
	psubd	128(%rsp), %xmm1
	movdqa	%xmm2, %xmm14
	psubd	144(%rsp), %xmm15
	psubd	64(%rsp), %xmm0
	movdqa	%xmm9, %xmm3
	movaps	%xmm4, 160(%rsp)
	movdqa	%xmm1, %xmm2
	psubd	%xmm13, %xmm3
	movaps	%xmm10, 176(%rsp)
	psrad	$31, %xmm2
	movdqa	%xmm0, %xmm10
	psubd	32(%rsp), %xmm9
	movaps	%xmm14, 96(%rsp)
	pxor	%xmm2, %xmm1
	psubd	%xmm2, %xmm1
	movdqa	%xmm15, %xmm2
	psubd	%xmm6, %xmm10
	psrad	$31, %xmm2
	movaps	%xmm1, 192(%rsp)
	pxor	%xmm2, %xmm15
	psubd	%xmm2, %xmm15
	movdqa	%xmm0, %xmm2
	psubd	160(%rsp), %xmm2
	psubd	64(%rsp), %xmm0
	movdqa	%xmm2, %xmm1
	psrad	$31, %xmm2
	pxor	%xmm2, %xmm1
	psubd	%xmm2, %xmm1
	movdqa	%xmm3, %xmm2
	psrad	$31, %xmm2
	movaps	%xmm1, 240(%rsp)
	pxor	%xmm2, %xmm3
	psubd	%xmm2, %xmm3
	movdqa	%xmm8, %xmm2
	psubd	48(%rsp), %xmm8
	psubd	%xmm11, %xmm2
	movdqa	%xmm2, %xmm4
	psrad	$31, %xmm4
	pxor	%xmm4, %xmm2
	psubd	%xmm4, %xmm2
	movdqa	%xmm7, %xmm4
	psubd	96(%rsp), %xmm7
	psubd	%xmm12, %xmm4
	movdqa	%xmm4, %xmm1
	psrad	$31, %xmm4
	pxor	%xmm4, %xmm1
	psubd	%xmm4, %xmm1
	movdqa	%xmm10, %xmm4
	psrad	$31, %xmm4
	pxor	%xmm4, %xmm10
	psubd	%xmm4, %xmm10
	movdqa	%xmm9, %xmm4
	psrad	$31, %xmm4
	pxor	%xmm4, %xmm9
	psubd	%xmm4, %xmm9
	movdqa	%xmm8, %xmm4
	psrad	$31, %xmm4
	pxor	%xmm4, %xmm8
	psubd	%xmm4, %xmm8
	movdqa	%xmm7, %xmm4
	psrad	$31, %xmm4
	pxor	%xmm4, %xmm7
	psubd	%xmm4, %xmm7
	movdqa	%xmm0, %xmm4
	psrad	$31, %xmm4
	pxor	%xmm4, %xmm0
	psubd	%xmm4, %xmm0
	movdqa	%xmm3, %xmm4
	pcmpgtd	%xmm9, %xmm4
	movdqa	%xmm4, %xmm14
	pand	%xmm4, %xmm9
	pandn	%xmm3, %xmm14
	por	%xmm14, %xmm9
	movdqa	%xmm2, %xmm14
	pcmpgtd	%xmm8, %xmm14
	movdqa	%xmm14, %xmm3
	pand	%xmm14, %xmm8
	pandn	%xmm2, %xmm14
	movdqa	%xmm1, %xmm2
	pcmpgtd	%xmm7, %xmm2
	por	%xmm14, %xmm8
	movdqa	%xmm2, %xmm14
	pand	%xmm2, %xmm7
	pandn	%xmm1, %xmm14
	por	%xmm14, %xmm7
	movdqa	%xmm10, %xmm14
	pcmpgtd	%xmm0, %xmm14
	movdqa	%xmm14, %xmm1
	pand	%xmm14, %xmm0
	pandn	%xmm10, %xmm14
	movdqa	176(%rsp), %xmm10
	por	%xmm14, %xmm0
	pcmpgtd	%xmm9, %xmm10
	movdqa	192(%rsp), %xmm9
	pcmpgtd	%xmm8, %xmm9
	movdqa	%xmm15, %xmm8
	pxor	%xmm15, %xmm15
	pcmpgtd	%xmm7, %xmm8
	movdqa	%xmm10, %xmm14
	movdqa	240(%rsp), %xmm7
	pand	%xmm13, %xmm14
	pcmpgtd	%xmm0, %xmm7
	movdqa	%xmm4, %xmm0
	pcmpeqd	%xmm15, %xmm4
	pand	%xmm10, %xmm0
	pand	%xmm10, %xmm4
	pandn	112(%rsp), %xmm10
	por	%xmm14, %xmm10
	movdqa	32(%rsp), %xmm14
	pand	%xmm4, %xmm13
	pandn	%xmm10, %xmm4
	por	%xmm4, %xmm13
	movdqa	%xmm9, %xmm10
	pand	%xmm0, %xmm14
	pandn	%xmm13, %xmm0
	pxor	%xmm13, %xmm13
	por	%xmm14, %xmm0
	movdqa	%xmm3, %xmm14
	pcmpeqd	%xmm13, %xmm3
	pand	%xmm11, %xmm10
	pand	%xmm9, %xmm14
	movdqa	%xmm14, %xmm4
	pand	%xmm9, %xmm3
	pand	%xmm3, %xmm11
	pandn	128(%rsp), %xmm9
	por	%xmm10, %xmm9
	pandn	%xmm9, %xmm3
	por	%xmm3, %xmm11
	movdqa	48(%rsp), %xmm3
	pandn	%xmm11, %xmm4
	pand	%xmm14, %xmm3
	por	%xmm3, %xmm4
	movdqa	%xmm0, %xmm3
	punpcklwd	%xmm4, %xmm0
	punpckhwd	%xmm4, %xmm3
	movdqa	%xmm0, %xmm4
	punpcklwd	%xmm3, %xmm0
	punpckhwd	%xmm3, %xmm4
	movdqa	%xmm2, %xmm3
	pcmpeqd	%xmm13, %xmm2
	punpcklwd	%xmm4, %xmm0
	movdqa	%xmm8, %xmm4
	pand	%xmm8, %xmm3
	pand	%xmm12, %xmm4
	pand	%xmm8, %xmm2
	pand	%xmm2, %xmm12
	pandn	144(%rsp), %xmm8
	por	%xmm4, %xmm8
	movdqa	96(%rsp), %xmm4
	pandn	%xmm8, %xmm2
	por	%xmm2, %xmm12
	pand	%xmm3, %xmm4
	pandn	%xmm12, %xmm3
	movdqa	%xmm3, %xmm2
	movdqa	%xmm1, %xmm3
	pcmpeqd	%xmm13, %xmm1
	por	%xmm4, %xmm2
	movdqa	%xmm7, %xmm4
	pand	%xmm7, %xmm3
	pand	%xmm6, %xmm4
	pand	%xmm7, %xmm1
	pand	%xmm1, %xmm6
	pandn	160(%rsp), %xmm7
	por	%xmm4, %xmm7
	movdqa	64(%rsp), %xmm4
	pandn	%xmm7, %xmm1
	movdqa	%xmm2, %xmm7
	por	%xmm6, %xmm1
	pand	%xmm3, %xmm4
	pandn	%xmm1, %xmm3
	movdqa	%xmm3, %xmm1
	movdqa	%xmm2, %xmm3
	por	%xmm4, %xmm1
	punpckhwd	%xmm1, %xmm3
	punpcklwd	%xmm1, %xmm7
	movdqa	%xmm7, %xmm1
	movdqa	%xmm7, %xmm2
	punpcklwd	%xmm3, %xmm1
	movdqa	272(%rsp), %xmm7
	punpckhwd	%xmm3, %xmm2
	punpcklwd	%xmm2, %xmm1
	pand	%xmm7, %xmm0
	pand	%xmm7, %xmm1
	packuswb	%xmm1, %xmm0
	paddb	(%r11,%rax), %xmm0
	movups	%xmm0, (%rdi,%rax)
	addq	$16, %rax
	cmpl	%edx, %ebp
	ja	.L1351
	movl	%r13d, %eax
	andl	$-16, %eax
	leal	(%rax,%r10), %edx
	cmpl	%eax, %r13d
	je	.L1303
.L1345:
	movl	%r12d, 32(%rsp)
	movq	304(%rsp), %rbp
	movslq	%edx, %rdx
	movq	704(%rsp), %r12
	.p2align 4,,10
.L1354:
	movzbl	(%rsi,%rdx), %r10d
	movzbl	0(%rbp,%rdx), %r9d
	movzbl	(%r15,%rdx), %r11d
	movzbl	(%r12,%rdx), %edi
	leal	(%r10,%r9), %eax
	subl	%r11d, %eax
	movl	%eax, %r8d
	subl	%r10d, %r8d
	movl	%r8d, %ecx
	sarl	$31, %ecx
	xorl	%ecx, %r8d
	subl	%ecx, %r8d
	movl	%eax, %ecx
	subl	%r9d, %eax
	subl	%r11d, %ecx
	movl	%ecx, %r13d
	sarl	$31, %r13d
	xorl	%r13d, %ecx
	subl	%r13d, %ecx
	movl	%eax, %r13d
	sarl	$31, %r13d
	xorl	%r13d, %eax
	subl	%r13d, %eax
	cmpl	%ecx, %r8d
	movl	%ecx, %r13d
	cmovle	%r8d, %r13d
	cmpl	%r13d, %eax
	jle	.L1355
	cmpl	%ecx, %r8d
	cmovg	%r11d, %r10d
	movl	%r10d, %r9d
.L1355:
	addl	%edi, %r9d
	movb	%r9b, (%rbx,%rdx)
	addq	$1, %rdx
	cmpl	%edx, %r14d
	jg	.L1354
.L1920:
	movl	32(%rsp), %r12d
	jmp	.L1303
	.p2align 4,,10
.L1306:
	testl	%r14d, %r14d
	jle	.L1303
	movq	704(%rsp), %rax
	movl	%r12d, %ecx
	negl	%ecx
	movslq	%ecx, %rdi
	leaq	16(%rbx), %rcx
	leaq	(%rbx,%rdi), %rsi
	addq	$16, %rax
	cmpq	%rax, %rbx
	setnb	%dl
	cmpq	%rcx, 704(%rsp)
	setnb	%al
	orl	%eax, %edx
	leaq	16(%rdi), %rax
	testq	%rax, %rax
	setle	%al
	cmpq	%rcx, %rsi
	setnb	%cl
	orl	%ecx, %eax
	testb	%al, %dl
	je	.L1313
	cmpl	$19, %r14d
	jbe	.L1313
	movq	704(%rsp), %rcx
	leal	-1(%r14), %eax
	negq	%rcx
	andl	$15, %ecx
	leal	15(%rcx), %edx
	cmpl	%eax, %edx
	ja	.L1512
	testl	%ecx, %ecx
	je	.L1513
	movq	704(%rsp), %rdx
	movzbl	(%rsi), %eax
	addb	(%rdx), %al
	cmpl	$1, %ecx
	movb	%al, (%rbx)
	je	.L1315
	movl	$1, %eax
	movzbl	1(%rdx), %edx
	subl	%r12d, %eax
	cltq
	addb	(%rbx,%rax), %dl
	cmpl	$2, %ecx
	movb	%dl, 1(%rbx)
	je	.L1514
	movq	704(%rsp), %rdx
	movl	$2, %eax
	subl	%r12d, %eax
	cltq
	movzbl	2(%rdx), %edx
	addb	(%rbx,%rax), %dl
	cmpl	$3, %ecx
	movb	%dl, 2(%rbx)
	je	.L1515
	movq	704(%rsp), %rdx
	movl	$3, %eax
	subl	%r12d, %eax
	cltq
	movzbl	3(%rdx), %edx
	addb	(%rbx,%rax), %dl
	cmpl	$4, %ecx
	movb	%dl, 3(%rbx)
	je	.L1516
	movq	704(%rsp), %rdx
	movl	$4, %eax
	subl	%r12d, %eax
	cltq
	movzbl	4(%rdx), %edx
	addb	(%rbx,%rax), %dl
	cmpl	$5, %ecx
	movb	%dl, 4(%rbx)
	je	.L1517
	movq	704(%rsp), %rdx
	movl	$5, %eax
	subl	%r12d, %eax
	cltq
	movzbl	5(%rdx), %edx
	addb	(%rbx,%rax), %dl
	cmpl	$6, %ecx
	movb	%dl, 5(%rbx)
	je	.L1518
	movq	704(%rsp), %rdx
	movl	$6, %eax
	subl	%r12d, %eax
	cltq
	movzbl	6(%rdx), %edx
	addb	(%rbx,%rax), %dl
	cmpl	$7, %ecx
	movb	%dl, 6(%rbx)
	je	.L1519
	movq	704(%rsp), %rdx
	movl	$7, %eax
	subl	%r12d, %eax
	cltq
	movzbl	7(%rdx), %edx
	addb	(%rbx,%rax), %dl
	cmpl	$8, %ecx
	movb	%dl, 7(%rbx)
	je	.L1520
	movq	704(%rsp), %rdx
	movl	$8, %eax
	subl	%r12d, %eax
	cltq
	movzbl	8(%rdx), %edx
	addb	(%rbx,%rax), %dl
	cmpl	$9, %ecx
	movb	%dl, 8(%rbx)
	je	.L1521
	movq	704(%rsp), %rdx
	movl	$9, %eax
	subl	%r12d, %eax
	cltq
	movzbl	9(%rdx), %edx
	addb	(%rbx,%rax), %dl
	cmpl	$10, %ecx
	movb	%dl, 9(%rbx)
	je	.L1522
	movq	704(%rsp), %rdx
	movl	$10, %eax
	subl	%r12d, %eax
	cltq
	movzbl	10(%rdx), %edx
	addb	(%rbx,%rax), %dl
	cmpl	$11, %ecx
	movb	%dl, 10(%rbx)
	je	.L1523
	movq	704(%rsp), %rdx
	movl	$11, %eax
	subl	%r12d, %eax
	cltq
	movzbl	11(%rdx), %edx
	addb	(%rbx,%rax), %dl
	cmpl	$12, %ecx
	movb	%dl, 11(%rbx)
	je	.L1524
	movq	704(%rsp), %rdx
	movl	$12, %eax
	subl	%r12d, %eax
	cltq
	movzbl	12(%rdx), %edx
	addb	(%rbx,%rax), %dl
	cmpl	$13, %ecx
	movb	%dl, 12(%rbx)
	je	.L1525
	movq	704(%rsp), %rdx
	movl	$13, %eax
	subl	%r12d, %eax
	cltq
	movzbl	13(%rdx), %edx
	addb	(%rbx,%rax), %dl
	cmpl	$14, %ecx
	movb	%dl, 13(%rbx)
	je	.L1526
	movq	704(%rsp), %rdx
	movl	$14, %eax
	movl	$15, %r15d
	subl	%r12d, %eax
	cltq
	movzbl	14(%rdx), %edx
	addb	(%rbx,%rax), %dl
	movb	%dl, 14(%rbx)
.L1315:
	movq	704(%rsp), %r9
	movl	%r14d, %r11d
	movl	%ecx, %r8d
	xorl	%eax, %eax
	subl	%ecx, %r11d
	xorl	%edx, %edx
	leaq	(%r8,%rdi), %rcx
	movl	%r11d, %r10d
	shrl	$4, %r10d
	addq	%rbx, %rcx
	addq	%r8, %r9
	addq	%rbx, %r8
	.p2align 4,,10
.L1318:
	movdqu	(%rcx,%rax), %xmm0
	paddb	(%r9,%rax), %xmm0
	addl	$1, %edx
	movups	%xmm0, (%r8,%rax)
	addq	$16, %rax
	cmpl	%edx, %r10d
	ja	.L1318
	movl	%r11d, %eax
	andl	$-16, %eax
	addl	%eax, %r15d
	cmpl	%eax, %r11d
	je	.L1303
.L1314:
	movq	704(%rsp), %rdx
	movslq	%r15d, %r15
	.p2align 4,,10
.L1321:
	movzbl	(%rdx,%r15), %eax
	addb	(%rsi,%r15), %al
	movb	%al, (%rbx,%r15)
	addq	$1, %r15
	cmpl	%r15d, %r14d
	jg	.L1321
	jmp	.L1303
	.p2align 4,,10
.L1311:
	testl	%r14d, %r14d
	jle	.L1303
	movl	%r12d, %ecx
	negl	%ecx
	movslq	%ecx, %rdi
	leaq	16(%rdi), %rax
	leaq	16(%rbx), %rcx
	testq	%rax, %rax
	leaq	(%rbx,%rdi), %r8
	setle	%dl
	cmpq	%r8, %rcx
	setbe	%al
	orl	%eax, %edx
	movq	704(%rsp), %rax
	addq	$16, %rax
	cmpq	%rax, %rbx
	setnb	%al
	cmpq	%rcx, 704(%rsp)
	setnb	%cl
	orl	%ecx, %eax
	testb	%al, %dl
	je	.L1368
	cmpl	$19, %r14d
	jbe	.L1368
	movq	704(%rsp), %rcx
	leal	-1(%r14), %edx
	negq	%rcx
	andl	$15, %ecx
	leal	15(%rcx), %eax
	cmpl	%eax, %edx
	jb	.L1577
	testl	%ecx, %ecx
	je	.L1578
	movq	704(%rsp), %rsi
	movzbl	(%r8), %eax
	addb	(%rsi), %al
	cmpl	$1, %ecx
	movb	%al, (%rbx)
	je	.L1579
	movl	$1, %eax
	movzbl	1(%rsi), %edx
	subl	%r12d, %eax
	cltq
	addb	(%rbx,%rax), %dl
	cmpl	$2, %ecx
	movb	%dl, 1(%rbx)
	je	.L1580
	movl	$2, %eax
	movzbl	2(%rsi), %edx
	subl	%r12d, %eax
	cltq
	addb	(%rbx,%rax), %dl
	cmpl	$3, %ecx
	movb	%dl, 2(%rbx)
	je	.L1581
	movl	$3, %eax
	movzbl	3(%rsi), %edx
	subl	%r12d, %eax
	cltq
	addb	(%rbx,%rax), %dl
	cmpl	$4, %ecx
	movb	%dl, 3(%rbx)
	je	.L1582
	movl	$4, %eax
	movzbl	4(%rsi), %edx
	subl	%r12d, %eax
	cltq
	addb	(%rbx,%rax), %dl
	cmpl	$5, %ecx
	movb	%dl, 4(%rbx)
	je	.L1583
	movl	$5, %eax
	movzbl	5(%rsi), %edx
	subl	%r12d, %eax
	cltq
	addb	(%rbx,%rax), %dl
	cmpl	$6, %ecx
	movb	%dl, 5(%rbx)
	je	.L1370
	movl	$6, %eax
	movzbl	6(%rsi), %edx
	subl	%r12d, %eax
	cltq
	addb	(%rbx,%rax), %dl
	cmpl	$7, %ecx
	movb	%dl, 6(%rbx)
	je	.L1584
	movl	$7, %eax
	movzbl	7(%rsi), %edx
	subl	%r12d, %eax
	cltq
	addb	(%rbx,%rax), %dl
	cmpl	$8, %ecx
	movb	%dl, 7(%rbx)
	je	.L1585
	movl	$8, %eax
	movzbl	8(%rsi), %edx
	subl	%r12d, %eax
	cltq
	addb	(%rbx,%rax), %dl
	cmpl	$9, %ecx
	movb	%dl, 8(%rbx)
	je	.L1586
	movl	$9, %eax
	movzbl	9(%rsi), %edx
	subl	%r12d, %eax
	cltq
	addb	(%rbx,%rax), %dl
	cmpl	$10, %ecx
	movb	%dl, 9(%rbx)
	je	.L1587
	movl	$10, %eax
	movzbl	10(%rsi), %edx
	subl	%r12d, %eax
	cltq
	addb	(%rbx,%rax), %dl
	cmpl	$11, %ecx
	movb	%dl, 10(%rbx)
	je	.L1588
	movl	$11, %eax
	movzbl	11(%rsi), %edx
	subl	%r12d, %eax
	cltq
	addb	(%rbx,%rax), %dl
	cmpl	$12, %ecx
	movb	%dl, 11(%rbx)
	je	.L1589
	movl	$12, %eax
	movzbl	12(%rsi), %edx
	subl	%r12d, %eax
	cltq
	addb	(%rbx,%rax), %dl
	cmpl	$13, %ecx
	movb	%dl, 12(%rbx)
	je	.L1590
	movl	$13, %eax
	movzbl	13(%rsi), %edx
	subl	%r12d, %eax
	cltq
	addb	(%rbx,%rax), %dl
	cmpl	$14, %ecx
	movb	%dl, 13(%rbx)
	je	.L1591
	movl	$14, %eax
	movzbl	14(%rsi), %edx
	movl	$15, %r15d
	subl	%r12d, %eax
	cltq
	addb	(%rbx,%rax), %dl
	movb	%dl, 14(%rbx)
.L1370:
	movq	704(%rsp), %r10
	movl	%r14d, %esi
	movl	%ecx, %r9d
	xorl	%eax, %eax
	subl	%ecx, %esi
	xorl	%edx, %edx
	leaq	(%rdi,%r9), %rcx
	movl	%esi, %r11d
	shrl	$4, %r11d
	addq	%rbx, %rcx
	addq	%r9, %r10
	addq	%rbx, %r9
	.p2align 4,,10
.L1373:
	movdqu	(%rcx,%rax), %xmm0
	paddb	(%r10,%rax), %xmm0
	addl	$1, %edx
	movups	%xmm0, (%r9,%rax)
	addq	$16, %rax
	cmpl	%edx, %r11d
	ja	.L1373
	movl	%esi, %eax
	andl	$-16, %eax
	addl	%eax, %r15d
	cmpl	%eax, %esi
	je	.L1303
.L1369:
	movq	704(%rsp), %rdx
	movslq	%r15d, %r15
	.p2align 4,,10
.L1375:
	movzbl	(%r8,%r15), %eax
	addb	(%rdx,%r15), %al
	movb	%al, (%rbx,%r15)
	addq	$1, %r15
	cmpl	%r15d, %r14d
	jg	.L1375
	jmp	.L1303
	.p2align 4,,10
.L1383:
	movl	300(%rsp), %edi
	testl	%edi, %edi
	je	.L1380
	movslq	216(%rsp), %rsi
	movl	%edi, 64(%rsp)
	leaq	16(%rbx), %r8
	movslq	%r12d, %r14
	movq	704(%rsp), %rcx
	movl	%r15d, 160(%rsp)
	movq	%rsi, %rax
	movq	%rsi, 80(%rsp)
	subq	%rsi, %rbx
	movl	%r14d, %esi
	movl	%eax, %edi
	negl	%eax
	negl	%esi
	movslq	%eax, %r13
	movl	%esi, 96(%rsp)
	movl	704(%rsp), %esi
	leaq	-16(%r13), %rax
	movq	%rax, 48(%rsp)
	leal	-1(%r12), %eax
	movl	%eax, 112(%rsp)
	movl	$1, %eax
	subl	%edi, %eax
	negl	%esi
	cltq
	movl	%esi, %r15d
	movq	%rax, 128(%rsp)
	movl	$2, %eax
	subl	%edi, %eax
	cltq
	movq	%rax, 144(%rsp)
	.p2align 4,,10
.L1411:
	leaq	-16(%r8), %r10
	testl	%r12d, %r12d
	jle	.L1401
	movq	48(%rsp), %rax
	addq	%r8, %rax
	leaq	16(%r13), %rax
	setnc	%dl
	testq	%rax, %rax
	setle	%al
	orl	%eax, %edx
	leaq	16(%rcx), %rax
	cmpq	%rax, %r10
	setnb	%al
	cmpq	%r8, %rcx
	setnb	%r9b
	orl	%r9d, %eax
	testb	%al, %dl
	je	.L1402
	cmpl	$19, %r12d
	jbe	.L1402
	movl	%r15d, %edx
	andl	$15, %edx
	leal	15(%rdx), %eax
	cmpl	%eax, 112(%rsp)
	jb	.L1608
	testl	%edx, %edx
	je	.L1609
	movzbl	-16(%r8,%r13), %eax
	addb	(%rcx), %al
	cmpl	$1, %edx
	movb	%al, -16(%r8)
	je	.L1610
	movq	128(%rsp), %rdi
	movzbl	1(%rcx), %eax
	addb	-16(%r8,%rdi), %al
	cmpl	$2, %edx
	movb	%al, -15(%r8)
	je	.L1611
	movq	144(%rsp), %rsi
	movzbl	2(%rcx), %eax
	addb	-16(%r8,%rsi), %al
	cmpl	$3, %edx
	movb	%al, -14(%r8)
	movl	$3, %eax
	je	.L1404
	movl	216(%rsp), %esi
	movzbl	3(%rcx), %r9d
	subl	%esi, %eax
	cltq
	addb	-16(%r8,%rax), %r9b
	cmpl	$4, %edx
	movl	$4, %eax
	movb	%r9b, -13(%r8)
	je	.L1404
	subl	%esi, %eax
	movzbl	4(%rcx), %r9d
	cltq
	addb	-16(%r8,%rax), %r9b
	cmpl	$5, %edx
	movl	$5, %eax
	movb	%r9b, -12(%r8)
	je	.L1404
	subl	%esi, %eax
	movzbl	5(%rcx), %r9d
	cltq
	addb	-16(%r8,%rax), %r9b
	cmpl	$6, %edx
	movl	$6, %eax
	movb	%r9b, -11(%r8)
	je	.L1404
	subl	%esi, %eax
	movzbl	6(%rcx), %r9d
	cltq
	addb	-16(%r8,%rax), %r9b
	cmpl	$7, %edx
	movl	$7, %eax
	movb	%r9b, -10(%r8)
	je	.L1404
	subl	%esi, %eax
	movzbl	7(%rcx), %r9d
	cltq
	addb	-16(%r8,%rax), %r9b
	cmpl	$8, %edx
	movl	$8, %eax
	movb	%r9b, -9(%r8)
	je	.L1404
	subl	%esi, %eax
	movzbl	8(%rcx), %r9d
	cltq
	addb	-16(%r8,%rax), %r9b
	cmpl	$9, %edx
	movl	$9, %eax
	movb	%r9b, -8(%r8)
	je	.L1404
	subl	%esi, %eax
	movzbl	9(%rcx), %r9d
	cltq
	addb	-16(%r8,%rax), %r9b
	cmpl	$10, %edx
	movl	$10, %eax
	movb	%r9b, -7(%r8)
	je	.L1404
	subl	%esi, %eax
	movzbl	10(%rcx), %r9d
	cltq
	addb	-16(%r8,%rax), %r9b
	cmpl	$11, %edx
	movl	$11, %eax
	movb	%r9b, -6(%r8)
	je	.L1404
	subl	%esi, %eax
	movzbl	11(%rcx), %r9d
	cltq
	addb	-16(%r8,%rax), %r9b
	cmpl	$12, %edx
	movl	$12, %eax
	movb	%r9b, -5(%r8)
	je	.L1404
	subl	%esi, %eax
	movzbl	12(%rcx), %r9d
	cltq
	addb	-16(%r8,%rax), %r9b
	cmpl	$13, %edx
	movl	$13, %eax
	movb	%r9b, -4(%r8)
	je	.L1404
	subl	%esi, %eax
	movzbl	13(%rcx), %r9d
	cltq
	addb	-16(%r8,%rax), %r9b
	cmpl	$14, %edx
	movl	$14, %eax
	movb	%r9b, -3(%r8)
	je	.L1404
	subl	%esi, %eax
	movzbl	14(%rcx), %r9d
	cltq
	addb	-16(%r8,%rax), %r9b
	movl	$15, %eax
	movb	%r9b, -2(%r8)
	.p2align 4,,10
.L1404:
	movl	%r12d, %edi
	movl	%edx, %r11d
	xorl	%r9d, %r9d
	leaq	0(%r13,%r11), %rsi
	subl	%edx, %edi
	xorl	%edx, %edx
	movl	%edi, %ebp
	movl	%edi, 32(%rsp)
	addq	%r10, %rsi
	leaq	(%rcx,%r11), %rdi
	shrl	$4, %ebp
	addq	%r10, %r11
	.p2align 4,,10
.L1406:
	movdqu	(%rsi,%rdx), %xmm0
	paddb	(%rdi,%rdx), %xmm0
	addl	$1, %r9d
	movups	%xmm0, (%r11,%rdx)
	addq	$16, %rdx
	cmpl	%r9d, %ebp
	ja	.L1406
	movl	32(%rsp), %edi
	movl	%edi, %edx
	andl	$-16, %edx
	addl	%edx, %eax
	cmpl	%edx, %edi
	je	.L1401
.L1403:
	cltq
	.p2align 4,,10
.L1408:
	movzbl	(%rbx,%rax), %edx
	addb	(%rcx,%rax), %dl
	movb	%dl, (%r10,%rax)
	addq	$1, %rax
	cmpl	%eax, %r12d
	jg	.L1408
.L1401:
	movq	80(%rsp), %rax
	movb	$-1, -16(%r8,%r14)
	addq	%r14, %rcx
	addl	96(%rsp), %r15d
	addq	%rax, %r8
	addq	%rax, %rbx
	subl	$1, 64(%rsp)
	jne	.L1411
	jmp	.L1922
	.p2align 4,,10
.L1381:
	movl	300(%rsp), %esi
	testl	%esi, %esi
	je	.L1380
	movslq	216(%rsp), %rax
	movslq	%r12d, %rbp
	movl	%r15d, 64(%rsp)
	movl	704(%rsp), %edi
	movl	%ebp, %edx
	movq	704(%rsp), %rcx
	negl	%edx
	movl	%edx, %r15d
	movq	%rax, 32(%rsp)
	leal	-1(%r12), %eax
	movl	%eax, 48(%rsp)
	leaq	1(%rax), %r13
	negl	%edi
	.p2align 4,,10
.L1400:
	testl	%r12d, %r12d
	jle	.L1389
	leaq	16(%rbx), %rax
	cmpq	%rax, %rcx
	leaq	16(%rcx), %rax
	setnb	%dl
	cmpq	%rax, %rbx
	setnb	%al
	orb	%al, %dl
	je	.L1390
	cmpl	$22, %r12d
	jbe	.L1390
	movl	%edi, %edx
	andl	$15, %edx
	leal	15(%rdx), %eax
	cmpl	%eax, 48(%rsp)
	jb	.L1592
	testl	%edx, %edx
	je	.L1593
	movzbl	(%rcx), %eax
	cmpl	$1, %edx
	movb	%al, (%rbx)
	je	.L1594
	movzbl	1(%rcx), %eax
	cmpl	$2, %edx
	movb	%al, 1(%rbx)
	je	.L1595
	movzbl	2(%rcx), %eax
	cmpl	$3, %edx
	movb	%al, 2(%rbx)
	je	.L1596
	movzbl	3(%rcx), %eax
	cmpl	$4, %edx
	movb	%al, 3(%rbx)
	je	.L1597
	movzbl	4(%rcx), %eax
	cmpl	$5, %edx
	movb	%al, 4(%rbx)
	je	.L1598
	movzbl	5(%rcx), %eax
	cmpl	$6, %edx
	movb	%al, 5(%rbx)
	je	.L1599
	movzbl	6(%rcx), %eax
	cmpl	$7, %edx
	movb	%al, 6(%rbx)
	je	.L1600
	movzbl	7(%rcx), %eax
	cmpl	$8, %edx
	movb	%al, 7(%rbx)
	je	.L1601
	movzbl	8(%rcx), %eax
	cmpl	$9, %edx
	movb	%al, 8(%rbx)
	je	.L1602
	movzbl	9(%rcx), %eax
	cmpl	$10, %edx
	movb	%al, 9(%rbx)
	je	.L1603
	movzbl	10(%rcx), %eax
	cmpl	$11, %edx
	movb	%al, 10(%rbx)
	je	.L1604
	movzbl	11(%rcx), %eax
	cmpl	$12, %edx
	movb	%al, 11(%rbx)
	je	.L1605
	movzbl	12(%rcx), %eax
	cmpl	$13, %edx
	movb	%al, 12(%rbx)
	je	.L1606
	movzbl	13(%rcx), %eax
	cmpl	$14, %edx
	movb	%al, 13(%rbx)
	je	.L1607
	movzbl	14(%rcx), %eax
	movb	%al, 14(%rbx)
	movl	$15, %eax
	jmp	.L1392
	.p2align 4,,10
.L1308:
	testl	%r14d, %r14d
	jle	.L1303
	movl	%r12d, %ecx
	negl	%ecx
	movslq	%ecx, %rbp
	leaq	16(%rbp), %rax
	leaq	16(%rbx), %rcx
	testq	%rax, %rax
	leaq	(%rbx,%rbp), %rdi
	setle	%dl
	cmpq	%rdi, %rcx
	setbe	%al
	orl	%eax, %edx
	leaq	16(%rsi), %rax
	cmpq	%rax, %rbx
	setnb	%al
	cmpq	%rcx, %rsi
	setnb	%r8b
	orl	%r8d, %eax
	andl	%eax, %edx
	cmpl	$17, %r14d
	seta	%al
	testb	%al, %dl
	je	.L1334
	movq	704(%rsp), %rax
	addq	$16, %rax
	cmpq	%rax, %rbx
	setnb	%al
	cmpq	%rcx, 704(%rsp)
	setnb	%dl
	orb	%dl, %al
	je	.L1334
	movq	704(%rsp), %rcx
	leal	-1(%r14), %edx
	negq	%rcx
	andl	$15, %ecx
	leal	15(%rcx), %eax
	cmpl	%eax, %edx
	jb	.L1542
	testl	%ecx, %ecx
	je	.L1543
	movzbl	(%rdi), %edx
	movzbl	(%rsi), %eax
	addl	%edx, %eax
	movq	704(%rsp), %rdx
	sarl	%eax
	addb	(%rdx), %al
	cmpl	$1, %ecx
	movb	%al, (%rbx)
	je	.L1544
	movl	$1, %eax
	movzbl	1(%rsi), %edx
	subl	%r12d, %eax
	cltq
	movzbl	(%rbx,%rax), %eax
	addl	%edx, %eax
	movq	704(%rsp), %rdx
	sarl	%eax
	addb	1(%rdx), %al
	cmpl	$2, %ecx
	movb	%al, 1(%rbx)
	je	.L1545
	movl	$2, %eax
	movzbl	2(%rsi), %edx
	subl	%r12d, %eax
	cltq
	movzbl	(%rbx,%rax), %eax
	addl	%edx, %eax
	movq	704(%rsp), %rdx
	sarl	%eax
	addb	2(%rdx), %al
	cmpl	$3, %ecx
	movb	%al, 2(%rbx)
	je	.L1336
	movl	$3, %eax
	movzbl	3(%rsi), %edx
	subl	%r12d, %eax
	cltq
	movzbl	(%rbx,%rax), %eax
	addl	%edx, %eax
	movq	704(%rsp), %rdx
	sarl	%eax
	addb	3(%rdx), %al
	cmpl	$4, %ecx
	movb	%al, 3(%rbx)
	je	.L1546
	movl	$4, %eax
	movzbl	4(%rsi), %edx
	subl	%r12d, %eax
	cltq
	movzbl	(%rbx,%rax), %eax
	addl	%edx, %eax
	movq	704(%rsp), %rdx
	sarl	%eax
	addb	4(%rdx), %al
	cmpl	$5, %ecx
	movb	%al, 4(%rbx)
	je	.L1547
	movl	$5, %eax
	movzbl	5(%rsi), %edx
	subl	%r12d, %eax
	cltq
	movzbl	(%rbx,%rax), %eax
	addl	%edx, %eax
	movq	704(%rsp), %rdx
	sarl	%eax
	addb	5(%rdx), %al
	cmpl	$6, %ecx
	movb	%al, 5(%rbx)
	je	.L1548
	movl	$6, %eax
	movzbl	6(%rsi), %edx
	subl	%r12d, %eax
	cltq
	movzbl	(%rbx,%rax), %eax
	addl	%edx, %eax
	movq	704(%rsp), %rdx
	sarl	%eax
	addb	6(%rdx), %al
	cmpl	$7, %ecx
	movb	%al, 6(%rbx)
	je	.L1549
	movl	$7, %eax
	movzbl	7(%rsi), %edx
	subl	%r12d, %eax
	cltq
	movzbl	(%rbx,%rax), %eax
	addl	%edx, %eax
	movq	704(%rsp), %rdx
	sarl	%eax
	addb	7(%rdx), %al
	cmpl	$8, %ecx
	movb	%al, 7(%rbx)
	je	.L1550
	movl	$8, %eax
	movzbl	8(%rsi), %edx
	subl	%r12d, %eax
	cltq
	movzbl	(%rbx,%rax), %eax
	addl	%edx, %eax
	movq	704(%rsp), %rdx
	sarl	%eax
	addb	8(%rdx), %al
	cmpl	$9, %ecx
	movb	%al, 8(%rbx)
	je	.L1551
	movl	$9, %eax
	movzbl	9(%rsi), %edx
	subl	%r12d, %eax
	cltq
	movzbl	(%rbx,%rax), %eax
	addl	%edx, %eax
	movq	704(%rsp), %rdx
	sarl	%eax
	addb	9(%rdx), %al
	cmpl	$10, %ecx
	movb	%al, 9(%rbx)
	je	.L1552
	movl	$10, %eax
	movzbl	10(%rsi), %edx
	subl	%r12d, %eax
	cltq
	movzbl	(%rbx,%rax), %eax
	addl	%edx, %eax
	movq	704(%rsp), %rdx
	sarl	%eax
	addb	10(%rdx), %al
	cmpl	$11, %ecx
	movb	%al, 10(%rbx)
	je	.L1553
	movl	$11, %eax
	movzbl	11(%rsi), %edx
	subl	%r12d, %eax
	cltq
	movzbl	(%rbx,%rax), %eax
	addl	%edx, %eax
	movq	704(%rsp), %rdx
	sarl	%eax
	addb	11(%rdx), %al
	cmpl	$12, %ecx
	movb	%al, 11(%rbx)
	je	.L1554
	movl	$12, %eax
	movzbl	12(%rsi), %edx
	subl	%r12d, %eax
	cltq
	movzbl	(%rbx,%rax), %eax
	addl	%edx, %eax
	movq	704(%rsp), %rdx
	sarl	%eax
	addb	12(%rdx), %al
	cmpl	$13, %ecx
	movb	%al, 12(%rbx)
	je	.L1555
	movl	$13, %eax
	movzbl	13(%rsi), %edx
	subl	%r12d, %eax
	cltq
	movzbl	(%rbx,%rax), %eax
	addl	%edx, %eax
	movq	704(%rsp), %rdx
	sarl	%eax
	addb	13(%rdx), %al
	cmpl	$14, %ecx
	movb	%al, 13(%rbx)
	je	.L1556
	movl	$14, %eax
	movzbl	14(%rsi), %edx
	movl	$15, %r15d
	subl	%r12d, %eax
	cltq
	movzbl	(%rbx,%rax), %eax
	addl	%edx, %eax
	movq	704(%rsp), %rdx
	sarl	%eax
	addb	14(%rdx), %al
	movb	%al, 14(%rbx)
.L1336:
	movq	704(%rsp), %r10
	movl	%r14d, %r13d
	movl	%ecx, %r8d
	xorl	%eax, %eax
	subl	%ecx, %r13d
	movdqa	.LC2(%rip), %xmm3
	xorl	%edx, %edx
	pxor	%xmm6, %xmm6
	leaq	0(%rbp,%r8), %rcx
	movl	%r13d, %r11d
	pxor	%xmm5, %xmm5
	leaq	(%rsi,%r8), %r9
	shrl	$4, %r11d
	addq	%rbx, %rcx
	addq	%r8, %r10
	addq	%rbx, %r8
	.p2align 4,,10
.L1339:
	movdqu	(%r9,%rax), %xmm7
	addl	$1, %edx
	movdqu	(%rcx,%rax), %xmm2
	movdqa	%xmm7, %xmm1
	punpckhbw	%xmm6, %xmm7
	movdqa	%xmm2, %xmm4
	punpcklbw	%xmm6, %xmm1
	movdqa	%xmm1, %xmm8
	punpckhbw	%xmm6, %xmm2
	punpcklbw	%xmm6, %xmm4
	movdqa	%xmm4, %xmm0
	punpcklwd	%xmm5, %xmm8
	punpcklwd	%xmm5, %xmm0
	paddd	%xmm8, %xmm0
	movdqa	%xmm1, %xmm8
	movdqa	%xmm4, %xmm1
	psrad	$1, %xmm0
	punpckhwd	%xmm5, %xmm8
	punpckhwd	%xmm5, %xmm1
	paddd	%xmm8, %xmm1
	psrad	$1, %xmm1
	movdqa	%xmm0, %xmm4
	punpckhwd	%xmm1, %xmm4
	punpcklwd	%xmm1, %xmm0
	movdqa	%xmm0, %xmm1
	punpcklwd	%xmm4, %xmm0
	punpckhwd	%xmm4, %xmm1
	movdqa	%xmm7, %xmm4
	punpcklwd	%xmm1, %xmm0
	movdqa	%xmm2, %xmm1
	punpcklwd	%xmm5, %xmm4
	punpcklwd	%xmm5, %xmm1
	paddd	%xmm4, %xmm1
	punpckhwd	%xmm5, %xmm7
	psrad	$1, %xmm1
	punpckhwd	%xmm5, %xmm2
	paddd	%xmm7, %xmm2
	pand	%xmm3, %xmm0
	psrad	$1, %xmm2
	movdqa	%xmm1, %xmm4
	punpckhwd	%xmm2, %xmm4
	punpcklwd	%xmm2, %xmm1
	movdqa	%xmm1, %xmm2
	punpcklwd	%xmm4, %xmm1
	punpckhwd	%xmm4, %xmm2
	punpcklwd	%xmm2, %xmm1
	pand	%xmm3, %xmm1
	packuswb	%xmm1, %xmm0
	paddb	(%r10,%rax), %xmm0
	movups	%xmm0, (%r8,%rax)
	addq	$16, %rax
	cmpl	%edx, %r11d
	ja	.L1339
	movl	%r13d, %eax
	andl	$-16, %eax
	leal	(%rax,%r15), %ecx
	cmpl	%eax, %r13d
	je	.L1303
.L1335:
	movq	704(%rsp), %r8
	movslq	%ecx, %rcx
	.p2align 4,,10
.L1341:
	movzbl	(%rsi,%rcx), %eax
	movzbl	(%rdi,%rcx), %edx
	addl	%edx, %eax
	sarl	%eax
	addb	(%r8,%rcx), %al
	movb	%al, (%rbx,%rcx)
	addq	$1, %rcx
	cmpl	%ecx, %r14d
	jg	.L1341
	jmp	.L1303
	.p2align 4,,10
.L1307:
	testl	%r14d, %r14d
	jle	.L1303
	movq	704(%rsp), %rax
	leaq	16(%rbx), %rcx
	addq	$16, %rax
	cmpq	%rax, %rbx
	setnb	%dl
	cmpq	%rcx, 704(%rsp)
	setnb	%al
	orl	%eax, %edx
	leaq	16(%rsi), %rax
	cmpq	%rax, %rbx
	setnb	%al
	cmpq	%rcx, %rsi
	setnb	%cl
	orl	%ecx, %eax
	testb	%al, %dl
	je	.L1324
	cmpl	$19, %r14d
	jbe	.L1324
	movq	704(%rsp), %r8
	leal	-1(%r14), %eax
	negq	%r8
	andl	$15, %r8d
	leal	15(%r8), %edx
	cmpl	%eax, %edx
	ja	.L1527
	testl	%r8d, %r8d
	je	.L1528
	movq	704(%rsp), %rdi
	movzbl	(%rsi), %eax
	addb	(%rdi), %al
	cmpl	$1, %r8d
	movb	%al, (%rbx)
	je	.L1529
	movzbl	1(%rsi), %eax
	addb	1(%rdi), %al
	cmpl	$2, %r8d
	movb	%al, 1(%rbx)
	je	.L1326
	movzbl	2(%rsi), %eax
	addb	2(%rdi), %al
	cmpl	$3, %r8d
	movb	%al, 2(%rbx)
	je	.L1530
	movzbl	3(%rsi), %eax
	addb	3(%rdi), %al
	cmpl	$4, %r8d
	movb	%al, 3(%rbx)
	je	.L1531
	movzbl	4(%rsi), %eax
	addb	4(%rdi), %al
	cmpl	$5, %r8d
	movb	%al, 4(%rbx)
	je	.L1532
	movzbl	5(%rsi), %eax
	addb	5(%rdi), %al
	cmpl	$6, %r8d
	movb	%al, 5(%rbx)
	je	.L1533
	movzbl	6(%rsi), %eax
	addb	6(%rdi), %al
	cmpl	$7, %r8d
	movb	%al, 6(%rbx)
	je	.L1534
	movzbl	7(%rsi), %eax
	addb	7(%rdi), %al
	cmpl	$8, %r8d
	movb	%al, 7(%rbx)
	je	.L1535
	movzbl	8(%rsi), %eax
	addb	8(%rdi), %al
	cmpl	$9, %r8d
	movb	%al, 8(%rbx)
	je	.L1536
	movzbl	9(%rsi), %eax
	addb	9(%rdi), %al
	cmpl	$10, %r8d
	movb	%al, 9(%rbx)
	je	.L1537
	movzbl	10(%rsi), %eax
	addb	10(%rdi), %al
	cmpl	$11, %r8d
	movb	%al, 10(%rbx)
	je	.L1538
	movzbl	11(%rsi), %eax
	addb	11(%rdi), %al
	cmpl	$12, %r8d
	movb	%al, 11(%rbx)
	je	.L1539
	movzbl	12(%rsi), %eax
	addb	12(%rdi), %al
	cmpl	$13, %r8d
	movb	%al, 12(%rbx)
	je	.L1540
	movzbl	13(%rsi), %eax
	addb	13(%rdi), %al
	cmpl	$14, %r8d
	movb	%al, 13(%rbx)
	je	.L1541
	movzbl	14(%rdi), %eax
	movl	$15, %r15d
	addb	14(%rsi), %al
	movb	%al, 14(%rbx)
.L1326:
	movq	704(%rsp), %r9
	movl	%r14d, %r11d
	movl	%r8d, %ecx
	xorl	%eax, %eax
	subl	%r8d, %r11d
	xorl	%edx, %edx
	leaq	(%rsi,%rcx), %r8
	movl	%r11d, %r10d
	shrl	$4, %r10d
	addq	%rcx, %r9
	addq	%rbx, %rcx
	.p2align 4,,10
.L1329:
	movdqu	(%r8,%rax), %xmm0
	paddb	(%r9,%rax), %xmm0
	addl	$1, %edx
	movups	%xmm0, (%rcx,%rax)
	addq	$16, %rax
	cmpl	%edx, %r10d
	ja	.L1329
	movl	%r11d, %eax
	andl	$-16, %eax
	addl	%eax, %r15d
	cmpl	%r11d, %eax
	je	.L1303
.L1325:
	movq	704(%rsp), %rdx
	movslq	%r15d, %r15
	.p2align 4,,10
.L1331:
	movzbl	(%rdx,%r15), %eax
	addb	(%rsi,%r15), %al
	movb	%al, (%rbx,%r15)
	addq	$1, %r15
	cmpl	%r15d, %r14d
	jg	.L1331
	jmp	.L1303
.L1642:
	movl	$1, 96(%rsp)
	.p2align 4,,10
.L1426:
	movl	%r12d, %edi
	movl	%eax, %r8d
	xorl	%edx, %edx
	pxor	%xmm6, %xmm6
	leaq	(%r15,%r8), %r9
	subl	%eax, %edi
	xorl	%eax, %eax
	pxor	%xmm5, %xmm5
	movl	%edi, 64(%rsp)
	leaq	(%rsi,%r8), %r11
	movl	%edi, %ebp
	addq	%rbx, %r9
	leaq	(%rcx,%r8), %rdi
	shrl	$4, %ebp
	addq	%rbx, %r8
	.p2align 4,,10
.L1428:
	movdqu	(%r9,%rax), %xmm2
	addl	$1, %edx
	movdqu	(%r11,%rax), %xmm3
	movdqa	%xmm2, %xmm4
	movdqa	%xmm2, %xmm7
	movdqa	%xmm3, %xmm1
	punpcklbw	%xmm6, %xmm4
	movdqa	%xmm4, %xmm2
	punpckhwd	%xmm5, %xmm4
	punpcklbw	%xmm6, %xmm1
	movdqa	%xmm1, %xmm0
	punpcklwd	%xmm5, %xmm2
	punpckhwd	%xmm5, %xmm1
	punpcklwd	%xmm5, %xmm0
	paddd	%xmm2, %xmm0
	paddd	%xmm4, %xmm1
	punpckhbw	%xmm6, %xmm3
	psrad	$1, %xmm0
	punpckhbw	%xmm6, %xmm7
	psrad	$1, %xmm1
	movdqa	%xmm0, %xmm2
	punpckhwd	%xmm1, %xmm2
	punpcklwd	%xmm1, %xmm0
	movdqa	%xmm0, %xmm1
	punpcklwd	%xmm2, %xmm0
	punpckhwd	%xmm2, %xmm1
	movdqa	%xmm7, %xmm2
	punpcklwd	%xmm1, %xmm0
	movdqa	%xmm3, %xmm1
	punpcklwd	%xmm5, %xmm2
	punpcklwd	%xmm5, %xmm1
	paddd	%xmm2, %xmm1
	movdqa	%xmm7, %xmm2
	psrad	$1, %xmm1
	punpckhwd	%xmm5, %xmm3
	punpckhwd	%xmm5, %xmm2
	paddd	%xmm3, %xmm2
	psrad	$1, %xmm2
	movdqa	%xmm1, %xmm3
	pand	.LC2(%rip), %xmm0
	punpckhwd	%xmm2, %xmm3
	punpcklwd	%xmm2, %xmm1
	movdqa	%xmm1, %xmm2
	punpcklwd	%xmm3, %xmm1
	punpckhwd	%xmm3, %xmm2
	punpcklwd	%xmm2, %xmm1
	pand	.LC2(%rip), %xmm1
	packuswb	%xmm1, %xmm0
	paddb	(%rdi,%rax), %xmm0
	movups	%xmm0, (%r8,%rax)
	addq	$16, %rax
	cmpl	%edx, %ebp
	ja	.L1428
	movl	64(%rsp), %edi
	movl	96(%rsp), %r8d
	movl	%edi, %eax
	andl	$-16, %eax
	addl	%eax, %r8d
	cmpl	%eax, %edi
	je	.L1423
.L1425:
	movslq	%r8d, %r8
	.p2align 4,,10
.L1430:
	movzbl	(%rsi,%r8), %eax
	movzbl	(%r10,%r8), %edx
	addl	%edx, %eax
	sarl	%eax
	addb	(%rcx,%r8), %al
	movb	%al, (%rbx,%r8)
	addq	$1, %r8
	cmpl	%r8d, %r12d
	jg	.L1430
.L1423:
	movq	48(%rsp), %rax
	addq	%r13, %rsi
	addq	%r13, %r14
	addq	%r13, %r10
	movl	112(%rsp), %edi
	addl	%edi, 32(%rsp)
	addq	%rax, %rcx
	movb	$-1, (%rbx,%rax)
	addq	%r13, %rbx
	subl	$1, 80(%rsp)
	jne	.L1433
	movl	728(%rsp), %eax
	subl	$2, %eax
	addq	$1, %rax
	imulq	48(%rsp), %rax
	addq	%rax, 704(%rsp)
	jmp	.L1380
	.p2align 4,,10
.L1413:
	movq	96(%rsp), %r8
	xorl	%eax, %eax
	.p2align 4,,10
.L1421:
	movzbl	(%rsi,%rax), %edx
	addb	(%rcx,%rax), %dl
	movb	%dl, (%r9,%rax)
	addq	$1, %rax
	cmpq	%rax, %r8
	jne	.L1421
	.p2align 4,,10
.L1412:
	movq	48(%rsp), %rax
	movb	$-1, -16(%rbx,%r13)
	addq	%r13, %rcx
	addl	64(%rsp), %r14d
	addq	%rax, %rsi
	addq	%rax, %rbx
	subl	$1, 32(%rsp)
	jne	.L1422
	movl	728(%rsp), %eax
	subl	$2, %eax
	addq	$1, %rax
	imulq	%r13, %rax
	addq	%rax, 704(%rsp)
	jmp	.L1380
.L1473:
	cmpl	$16, 744(%rsp)
	je	.L1937
.L1278:
	movl	$1, %eax
	jmp	.L1270
	.p2align 4,,10
.L1936:
	cmpl	$7, 744(%rsp)
	jg	.L1473
	movl	376(%rsp), %ebx
	movl	232(%rsp), %eax
	movl	344(%rsp), %r12d
	leal	-8(%rbx), %ecx
	movl	%ecx, 400(%rsp)
	subq	%rax, %r12
	movl	%ecx, %eax
	shrl	$3, %eax
	leal	1(%rax), %edi
	cmpl	$15, %edi
	movq	%rdi, %rsi
	movl	%edi, 424(%rsp)
	seta	392(%rsp)
	movq	%rdi, 288(%rsp)
	salq	$3, %rdi
	movq	%rdi, 264(%rsp)
	movl	%esi, %edi
	andl	$-16, %esi
	movl	%esi, %edx
	shrl	$4, %edi
	movl	%esi, 380(%rsp)
	negl	%edx
	movl	%edi, 384(%rsp)
	movq	%rsi, 368(%rsp)
	leal	(%rbx,%rdx,8), %edi
	salq	$3, %rsi
	movl	%eax, %edx
	negl	%eax
	movq	%rsi, 360(%rsp)
	leal	(%rcx,%rax,8), %eax
	movl	%edi, 444(%rsp)
	leaq	1(%rdx), %rsi
	movl	%eax, 348(%rsp)
	leal	-4(%rbx), %ecx
	movq	%rsi, 176(%rsp)
	leaq	0(,%rsi,8), %rax
	movl	%ecx, 304(%rsp)
	movq	%rax, 336(%rsp)
	movl	%ecx, %eax
	shrl	$2, %eax
	leal	1(%rax), %edi
	cmpl	$15, %edi
	movq	%rdi, %rsi
	movl	%edi, 440(%rsp)
	seta	272(%rsp)
	movq	%rdi, 216(%rsp)
	salq	$2, %rdi
	movq	%rdi, 192(%rsp)
	movl	%esi, %edi
	andl	$-16, %esi
	movl	%esi, %edx
	shrl	$4, %edi
	movl	%esi, 432(%rsp)
	negl	%edx
	movl	%edi, 436(%rsp)
	movq	%rsi, 416(%rsp)
	leal	(%rbx,%rdx,4), %edi
	salq	$2, %rsi
	movl	%eax, %edx
	negl	%eax
	movq	%rsi, 408(%rsp)
	leal	(%rcx,%rax,4), %eax
	movl	%edi, 428(%rsp)
	leaq	1(%rdx), %rsi
	movl	%eax, 240(%rsp)
	movq	%rsi, 112(%rsp)
	leaq	0(,%rsi,4), %rax
	leal	-2(%rbx), %esi
	movq	%rax, 232(%rsp)
	movl	%esi, %eax
	movl	%esi, 256(%rsp)
	shrl	%eax
	leal	1(%rax), %edi
	movl	%eax, %r13d
	cmpl	$15, %edi
	movq	%rdi, %r15
	movq	%rdi, 144(%rsp)
	seta	228(%rsp)
	negl	%eax
	addq	$1, %r13
	leal	(%rsi,%rax,2), %eax
	addq	%rdi, %rdi
	movl	%r15d, %r14d
	movq	%rdi, 128(%rsp)
	movl	%r15d, %edi
	shrl	$4, %r14d
	xorl	%ebp, %ebp
	movl	%eax, 96(%rsp)
	leaq	(%r13,%r13), %rax
	andl	$-16, %edi
	movdqa	.LC2(%rip), %xmm6
	movl	%edi, %edx
	movq	%r13, 32(%rsp)
	movq	696(%rsp), %r13
	movq	%rax, 160(%rsp)
	movl	728(%rsp), %eax
	negl	%edx
	movdqa	%xmm6, %xmm7
	leal	(%rbx,%rdx,2), %ebx
	movl	%edi, 344(%rsp)
	movdqa	.LC51(%rip), %xmm15
	movdqa	%xmm6, %xmm11
	movl	%ebx, 328(%rsp)
	movl	%edi, %ebx
	movl	296(%rsp), %esi
	xorl	%edi, %edi
	movq	%rbx, 320(%rsp)
	addq	%rbx, %rbx
	addl	$1073741823, %eax
	movq	%rbx, 312(%rsp)
	movl	744(%rsp), %ebx
	sall	$2, %eax
	movl	%r14d, 296(%rsp)
	cltq
	movl	%r15d, 352(%rsp)
	movq	%rax, 48(%rsp)
	movl	728(%rsp), %eax
	leal	-3(%rax,%rax,2), %eax
	cltq
	movq	%rax, 64(%rsp)
	movl	728(%rsp), %eax
	addl	$2147483647, %eax
	addl	%eax, %eax
	cltq
	movq	%rax, 80(%rsp)
	.p2align 4,,10
.L1508:
	movq	0(%r13), %r8
	movl	%edi, %edx
	movl	$1, %ecx
	movl	752(%rsp), %r10d
	leaq	(%rdx,%r12), %rax
	leaq	(%r8,%rdx), %r9
	addq	%rax, %r8
	testl	%r10d, %r10d
	jne	.L1474
	leaq	_ZL23stbi__depth_scale_table(%rip), %r10
	movslq	%ebx, %rcx
	movzbl	(%r10,%rcx), %ecx
.L1474:
	cmpl	$4, %ebx
	je	.L1938
	cmpl	$2, %ebx
	je	.L1939
	cmpl	$1, %ebx
	je	.L1940
.L1484:
	cmpl	%esi, 720(%rsp)
	je	.L1503
	addq	0(%r13), %rdx
	cmpl	$1, %esi
	movq	%rdx, %r14
	je	.L1941
	cmpl	$3, %esi
	je	.L1506
	leaq	.LC3(%rip), %rdx
	movl	$4466, %r8d
	leaq	.LC52(%rip), %rcx
	call	_assert
.L1506:
	movl	300(%rsp), %ecx
	testl	%ecx, %ecx
	js	.L1503
	movq	48(%rsp), %rax
	movq	64(%rsp), %rdx
	addq	%r14, %rax
	addq	%r14, %rdx
	.p2align 4,,10
.L1507:
	movb	$-1, 3(%rax)
	movzbl	2(%rdx), %r8d
	subl	$1, %ecx
	subq	$4, %rax
	subq	$3, %rdx
	movb	%r8b, 6(%rax)
	movzbl	4(%rdx), %r8d
	movb	%r8b, 5(%rax)
	movzbl	3(%rdx), %r8d
	movb	%r8b, 4(%rax)
	cmpl	$-1, %ecx
	jne	.L1507
.L1503:
	addl	$1, %ebp
	addl	260(%rsp), %edi
	cmpl	%ebp, 212(%rsp)
	jne	.L1508
	jmp	.L1278
	.p2align 4,,10
.L1435:
	movq	400(%rsp), %r12
	xorl	%r11d, %r11d
	.p2align 4,,10
.L1447:
	movzbl	0(%r13,%r11), %esi
	movzbl	0(%rbp,%r11), %r9d
	movzbl	(%rdx,%r11), %edi
	movzbl	(%r14,%r11), %r10d
	leal	(%rsi,%r9), %eax
	subl	%edi, %eax
	movl	%eax, %r8d
	subl	%esi, %r8d
	movl	%r8d, %ecx
	sarl	$31, %ecx
	xorl	%ecx, %r8d
	subl	%ecx, %r8d
	movl	%eax, %ecx
	subl	%r9d, %eax
	subl	%edi, %ecx
	movl	%ecx, %r15d
	sarl	$31, %r15d
	xorl	%r15d, %ecx
	subl	%r15d, %ecx
	movl	%eax, %r15d
	sarl	$31, %r15d
	xorl	%r15d, %eax
	subl	%r15d, %eax
	cmpl	%ecx, %r8d
	movl	%ecx, %r15d
	cmovle	%r8d, %r15d
	cmpl	%r15d, %eax
	jle	.L1446
	cmpl	%ecx, %r8d
	cmovg	%edi, %esi
	movl	%esi, %r9d
.L1446:
	addl	%r10d, %r9d
	movb	%r9b, (%rbx,%r11)
	addq	$1, %r11
	cmpq	%r11, %r12
	jne	.L1447
	jmp	.L1434
	.p2align 4,,10
.L1450:
	movq	48(%rsp), %rsi
	leal	-1(%r12), %r9d
	xorl	%eax, %eax
	addq	$1, %r9
	leaq	(%rsi,%r8), %r11
	.p2align 4,,10
.L1458:
	movzbl	(%r11,%rax), %edx
	sarl	%edx
	addb	(%rcx,%rax), %dl
	movb	%dl, (%r10,%rax)
	addq	$1, %rax
	cmpq	%rax, %r9
	jne	.L1458
	jmp	.L1449
	.p2align 4,,10
.L1424:
	leal	-1(%r12), %r11d
	xorl	%r8d, %r8d
	addq	$1, %r11
	.p2align 4,,10
.L1432:
	movzbl	(%r9,%r8), %eax
	movzbl	(%rsi,%r8), %edx
	addl	%edx, %eax
	sarl	%eax
	addb	(%rcx,%r8), %al
	movb	%al, (%rbx,%r8)
	addq	$1, %r8
	cmpq	%r8, %r11
	jne	.L1432
	jmp	.L1423
	.p2align 4,,10
.L1461:
	movl	112(%rsp), %r9d
	xorl	%eax, %eax
	movq	48(%rsp), %rsi
	addq	$1, %r9
	leaq	(%rsi,%r8), %r11
	.p2align 4,,10
.L1469:
	movzbl	(%rcx,%rax), %edx
	addb	(%r11,%rax), %dl
	movb	%dl, (%r10,%rax)
	addq	$1, %rax
	cmpq	%r9, %rax
	jne	.L1469
	jmp	.L1460
	.p2align 4,,10
.L1402:
	movl	112(%rsp), %r9d
	xorl	%eax, %eax
	movq	48(%rsp), %rsi
	addq	$1, %r9
	leaq	(%rsi,%r8), %r11
	.p2align 4,,10
.L1410:
	movzbl	(%rcx,%rax), %edx
	addb	(%r11,%rax), %dl
	movb	%dl, (%r10,%rax)
	addq	$1, %rax
	cmpq	%rax, %r9
	jne	.L1410
	jmp	.L1401
.L1941:
	movl	300(%rsp), %eax
	testl	%eax, %eax
	js	.L1503
	movslq	%eax, %rdx
	movq	80(%rsp), %rax
	addq	%r14, %rax
	.p2align 4,,10
.L1505:
	movb	$-1, 1(%rax)
	movzbl	(%r14,%rdx), %ecx
	subq	$1, %rdx
	subq	$2, %rax
	movb	%cl, 2(%rax)
	testl	%edx, %edx
	jns	.L1505
	jmp	.L1503
.L1938:
	cmpl	$1, 376(%rsp)
	jle	.L1694
	movq	144(%rsp), %r14
	leaq	(%r14,%r12), %r10
	movq	128(%rsp), %r14
	addq	%rdx, %r10
	cmpq	%r10, %rdx
	setge	%r10b
	leaq	(%rdx,%r14), %r11
	cmpq	%r11, %rax
	setge	%al
	orb	%al, %r10b
	je	.L1477
	cmpb	$0, 228(%rsp)
	je	.L1477
	cmpl	$29, 256(%rsp)
	jbe	.L1695
	movl	296(%rsp), %r11d
	movd	%ecx, %xmm2
	xorl	%eax, %eax
	xorl	%r10d, %r10d
	punpcklbw	%xmm2, %xmm2
	punpcklwd	%xmm2, %xmm2
	pshufd	$0, %xmm2, %xmm2
	movdqa	%xmm2, %xmm4
	punpcklbw	%xmm2, %xmm4
	pxor	%xmm3, %xmm3
	punpckhbw	%xmm2, %xmm2
	.p2align 4,,10
.L1479:
	movdqu	(%r8,%rax), %xmm1
	addl	$1, %r10d
	movdqa	%xmm1, %xmm0
	movdqa	%xmm1, %xmm5
	pand	.LC49(%rip), %xmm1
	punpcklbw	%xmm3, %xmm0
	punpckhbw	%xmm3, %xmm5
	psrlw	$4, %xmm0
	psrlw	$4, %xmm5
	pand	%xmm11, %xmm0
	pand	%xmm11, %xmm5
	packuswb	%xmm5, %xmm0
	movdqa	%xmm0, %xmm5
	punpcklbw	%xmm0, %xmm5
	punpckhbw	%xmm0, %xmm0
	pmullw	%xmm4, %xmm5
	pmullw	%xmm2, %xmm0
	pand	%xmm11, %xmm5
	pand	%xmm11, %xmm0
	packuswb	%xmm0, %xmm5
	movdqa	%xmm1, %xmm0
	punpcklbw	%xmm1, %xmm1
	pmullw	%xmm4, %xmm1
	punpckhbw	%xmm0, %xmm0
	pmullw	%xmm2, %xmm0
	pand	%xmm11, %xmm1
	movdqa	%xmm1, %xmm14
	movdqa	%xmm5, %xmm1
	pand	%xmm11, %xmm0
	packuswb	%xmm0, %xmm14
	punpcklbw	%xmm14, %xmm1
	punpckhbw	%xmm14, %xmm5
	movups	%xmm1, (%r9,%rax,2)
	movups	%xmm5, 16(%r9,%rax,2)
	addq	$16, %rax
	cmpl	%r11d, %r10d
	jb	.L1479
	movq	320(%rsp), %rax
	movl	352(%rsp), %r14d
	cmpl	%r14d, 344(%rsp)
	movl	328(%rsp), %r15d
	leaq	(%r8,%rax), %r11
	movq	312(%rsp), %rax
	leaq	(%r9,%rax), %r10
	je	.L1923
.L1478:
	movzbl	(%r11), %r14d
	sarl	$4, %r14d
	movl	%r14d, %eax
	imull	%ecx, %eax
	movb	%al, (%r10)
	movzbl	(%r11), %eax
	andl	$15, %eax
	imull	%ecx, %eax
	movb	%al, 1(%r10)
	leal	-2(%r15), %eax
	cmpl	$1, %eax
	jle	.L1923
	movzbl	1(%r11), %r14d
	sarl	$4, %r14d
	movl	%r14d, %eax
	imull	%ecx, %eax
	movb	%al, 2(%r10)
	movzbl	1(%r11), %eax
	andl	$15, %eax
	imull	%ecx, %eax
	movb	%al, 3(%r10)
	leal	-4(%r15), %eax
	cmpl	$1, %eax
	jle	.L1923
	movzbl	2(%r11), %r14d
	sarl	$4, %r14d
	movl	%r14d, %eax
	imull	%ecx, %eax
	movb	%al, 4(%r10)
	movzbl	2(%r11), %eax
	andl	$15, %eax
	imull	%ecx, %eax
	movb	%al, 5(%r10)
	leal	-6(%r15), %eax
	cmpl	$1, %eax
	jle	.L1923
	movzbl	3(%r11), %r14d
	sarl	$4, %r14d
	movl	%r14d, %eax
	imull	%ecx, %eax
	movb	%al, 6(%r10)
	movzbl	3(%r11), %eax
	andl	$15, %eax
	imull	%ecx, %eax
	movb	%al, 7(%r10)
	leal	-8(%r15), %eax
	cmpl	$1, %eax
	jle	.L1923
	movzbl	4(%r11), %r14d
	sarl	$4, %r14d
	movl	%r14d, %eax
	imull	%ecx, %eax
	movb	%al, 8(%r10)
	movzbl	4(%r11), %eax
	andl	$15, %eax
	imull	%ecx, %eax
	movb	%al, 9(%r10)
	leal	-10(%r15), %eax
	cmpl	$1, %eax
	jle	.L1923
	movzbl	5(%r11), %r14d
	sarl	$4, %r14d
	movl	%r14d, %eax
	imull	%ecx, %eax
	movb	%al, 10(%r10)
	movzbl	5(%r11), %eax
	andl	$15, %eax
	imull	%ecx, %eax
	movb	%al, 11(%r10)
	leal	-12(%r15), %eax
	cmpl	$1, %eax
	jle	.L1923
	movzbl	6(%r11), %r14d
	sarl	$4, %r14d
	movl	%r14d, %eax
	imull	%ecx, %eax
	movb	%al, 12(%r10)
	movzbl	6(%r11), %eax
	andl	$15, %eax
	imull	%ecx, %eax
	movb	%al, 13(%r10)
	leal	-14(%r15), %eax
	cmpl	$1, %eax
	jle	.L1923
	movzbl	7(%r11), %r14d
	sarl	$4, %r14d
	movl	%r14d, %eax
	imull	%ecx, %eax
	movb	%al, 14(%r10)
	movzbl	7(%r11), %eax
	andl	$15, %eax
	imull	%ecx, %eax
	movb	%al, 15(%r10)
	leal	-16(%r15), %eax
	cmpl	$1, %eax
	jle	.L1923
	movzbl	8(%r11), %r14d
	sarl	$4, %r14d
	movl	%r14d, %eax
	imull	%ecx, %eax
	movb	%al, 16(%r10)
	movzbl	8(%r11), %eax
	andl	$15, %eax
	imull	%ecx, %eax
	movb	%al, 17(%r10)
	leal	-18(%r15), %eax
	cmpl	$1, %eax
	jle	.L1923
	movzbl	9(%r11), %r14d
	sarl	$4, %r14d
	movl	%r14d, %eax
	imull	%ecx, %eax
	movb	%al, 18(%r10)
	movzbl	9(%r11), %eax
	andl	$15, %eax
	imull	%ecx, %eax
	movb	%al, 19(%r10)
	leal	-20(%r15), %eax
	cmpl	$1, %eax
	jle	.L1923
	movzbl	10(%r11), %r14d
	sarl	$4, %r14d
	movl	%r14d, %eax
	imull	%ecx, %eax
	movb	%al, 20(%r10)
	movzbl	10(%r11), %eax
	andl	$15, %eax
	imull	%ecx, %eax
	movb	%al, 21(%r10)
	leal	-22(%r15), %eax
	cmpl	$1, %eax
	jle	.L1923
	movzbl	11(%r11), %r14d
	sarl	$4, %r14d
	movl	%r14d, %eax
	imull	%ecx, %eax
	movb	%al, 22(%r10)
	movzbl	11(%r11), %eax
	andl	$15, %eax
	imull	%ecx, %eax
	movb	%al, 23(%r10)
	leal	-24(%r15), %eax
	cmpl	$1, %eax
	jle	.L1923
	movzbl	12(%r11), %r14d
	sarl	$4, %r14d
	movl	%r14d, %eax
	imull	%ecx, %eax
	movb	%al, 24(%r10)
	movzbl	12(%r11), %eax
	andl	$15, %eax
	imull	%ecx, %eax
	movb	%al, 25(%r10)
	leal	-26(%r15), %eax
	cmpl	$1, %eax
	jle	.L1923
	movzbl	13(%r11), %r14d
	sarl	$4, %r14d
	movl	%r14d, %eax
	imull	%ecx, %eax
	movb	%al, 26(%r10)
	movzbl	13(%r11), %eax
	andl	$15, %eax
	imull	%ecx, %eax
	cmpl	$29, %r15d
	movb	%al, 27(%r10)
	jle	.L1923
	movzbl	14(%r11), %r14d
	sarl	$4, %r14d
	movl	%r14d, %eax
	imull	%ecx, %eax
	movb	%al, 28(%r10)
	movzbl	14(%r11), %eax
	andl	$15, %eax
	imull	%ecx, %eax
	movb	%al, 29(%r10)
.L1923:
	movq	32(%rsp), %rax
	leaq	(%r8,%rax), %r14
.L1481:
	addq	160(%rsp), %r9
	movq	%r14, %r8
	movl	96(%rsp), %eax
.L1476:
	cmpl	$1, %eax
	jne	.L1484
	movzbl	(%r8), %r8d
	movl	%ecx, %eax
	sarl	$4, %r8d
	imull	%r8d, %eax
	movb	%al, (%r9)
	jmp	.L1484
.L1939:
	cmpl	$3, 376(%rsp)
	jle	.L1696
	movq	216(%rsp), %r14
	leaq	(%r14,%r12), %r10
	movq	192(%rsp), %r14
	addq	%rdx, %r10
	cmpq	%r10, %rdx
	setge	%r10b
	leaq	(%rdx,%r14), %r11
	cmpq	%r11, %rax
	setge	%al
	orb	%al, %r10b
	je	.L1487
	cmpb	$0, 272(%rsp)
	je	.L1487
	cmpl	$59, 304(%rsp)
	jbe	.L1697
	movl	436(%rsp), %r11d
	movd	%ecx, %xmm4
	xorl	%eax, %eax
	xorl	%r10d, %r10d
	punpcklbw	%xmm4, %xmm4
	punpcklwd	%xmm4, %xmm4
	pshufd	$0, %xmm4, %xmm4
	movdqa	%xmm4, %xmm5
	punpcklbw	%xmm4, %xmm5
	pxor	%xmm8, %xmm8
	punpckhbw	%xmm4, %xmm4
	.p2align 4,,10
.L1489:
	movdqu	(%r8,%rax), %xmm1
	addl	$1, %r10d
	movdqa	%xmm1, %xmm0
	movdqa	%xmm1, %xmm10
	pand	.LC50(%rip), %xmm1
	punpcklbw	%xmm8, %xmm0
	punpckhbw	%xmm8, %xmm10
	movdqa	%xmm0, %xmm3
	movdqa	%xmm10, %xmm2
	psrlw	$6, %xmm3
	movdqa	%xmm0, %xmm9
	psrlw	$6, %xmm2
	pand	%xmm7, %xmm3
	pand	%xmm7, %xmm2
	packuswb	%xmm2, %xmm3
	movdqa	%xmm3, %xmm2
	psrlw	$4, %xmm9
	punpcklbw	%xmm3, %xmm2
	punpckhbw	%xmm3, %xmm3
	pmullw	%xmm5, %xmm2
	pand	%xmm7, %xmm9
	pmullw	%xmm4, %xmm3
	psrlw	$2, %xmm0
	pand	%xmm7, %xmm2
	pand	%xmm7, %xmm0
	pand	%xmm7, %xmm3
	packuswb	%xmm3, %xmm2
	movdqa	%xmm10, %xmm3
	psrlw	$2, %xmm10
	psrlw	$4, %xmm3
	pand	%xmm7, %xmm10
	packuswb	%xmm10, %xmm0
	pand	.LC50(%rip), %xmm0
	pand	%xmm7, %xmm3
	packuswb	%xmm3, %xmm9
	pand	.LC50(%rip), %xmm9
	movdqa	%xmm9, %xmm3
	punpcklbw	%xmm9, %xmm3
	punpckhbw	%xmm9, %xmm9
	pmullw	%xmm5, %xmm3
	pmullw	%xmm4, %xmm9
	pand	%xmm7, %xmm3
	pand	%xmm7, %xmm9
	packuswb	%xmm9, %xmm3
	movdqa	%xmm0, %xmm9
	punpcklbw	%xmm0, %xmm9
	punpckhbw	%xmm0, %xmm0
	pmullw	%xmm5, %xmm9
	pmullw	%xmm4, %xmm0
	pand	%xmm7, %xmm9
	pand	%xmm7, %xmm0
	packuswb	%xmm0, %xmm9
	movdqa	%xmm1, %xmm0
	punpcklbw	%xmm1, %xmm0
	punpckhbw	%xmm1, %xmm1
	pmullw	%xmm5, %xmm0
	pmullw	%xmm4, %xmm1
	pand	%xmm7, %xmm0
	pand	%xmm7, %xmm1
	packuswb	%xmm1, %xmm0
	movdqa	%xmm2, %xmm1
	punpckhbw	%xmm9, %xmm2
	punpcklbw	%xmm9, %xmm1
	movdqa	%xmm3, %xmm9
	punpckhbw	%xmm0, %xmm3
	punpcklbw	%xmm0, %xmm9
	movdqa	%xmm1, %xmm0
	punpckhbw	%xmm9, %xmm1
	movups	%xmm1, 16(%r9,%rax,4)
	punpcklbw	%xmm9, %xmm0
	movups	%xmm0, (%r9,%rax,4)
	movdqa	%xmm2, %xmm0
	punpckhbw	%xmm3, %xmm2
	punpcklbw	%xmm3, %xmm0
	movups	%xmm2, 48(%r9,%rax,4)
	movups	%xmm0, 32(%r9,%rax,4)
	addq	$16, %rax
	cmpl	%r11d, %r10d
	jb	.L1489
	movq	416(%rsp), %rax
	movl	440(%rsp), %r14d
	cmpl	%r14d, 432(%rsp)
	movl	428(%rsp), %r15d
	leaq	(%r8,%rax), %r10
	movq	408(%rsp), %rax
	leaq	(%r9,%rax), %r11
	je	.L1924
	.p2align 4,,10
.L1491:
	movzbl	(%r10), %r14d
	subl	$4, %r15d
	addq	$4, %r11
	addq	$1, %r10
	sarl	$6, %r14d
	movl	%r14d, %eax
	imull	%ecx, %eax
	movb	%al, -4(%r11)
	movzbl	-1(%r10), %eax
	sarl	$4, %eax
	andl	$3, %eax
	imull	%ecx, %eax
	movb	%al, -3(%r11)
	movzbl	-1(%r10), %eax
	sarl	$2, %eax
	andl	$3, %eax
	imull	%ecx, %eax
	movb	%al, -2(%r11)
	movzbl	-1(%r10), %eax
	andl	$3, %eax
	imull	%ecx, %eax
	cmpl	$3, %r15d
	movb	%al, -1(%r11)
	jg	.L1491
.L1924:
	movq	112(%rsp), %rax
	leaq	(%r8,%rax), %r11
.L1492:
	movq	%r11, %r8
	addq	232(%rsp), %r9
	movl	240(%rsp), %r11d
.L1486:
	testl	%r11d, %r11d
	jle	.L1484
	movzbl	(%r8), %r10d
	sarl	$6, %r10d
	movl	%r10d, %eax
	imull	%ecx, %eax
	cmpl	$1, %r11d
	movb	%al, (%r9)
	je	.L1484
	movzbl	(%r8), %eax
	sarl	$4, %eax
	andl	$3, %eax
	imull	%ecx, %eax
	cmpl	$3, %r11d
	movb	%al, 1(%r9)
	jne	.L1484
	movzbl	(%r8), %eax
	sarl	$2, %eax
	andl	$3, %eax
	imull	%ecx, %eax
	movb	%al, 2(%r9)
	jmp	.L1484
.L1940:
	cmpl	$7, 376(%rsp)
	jle	.L1698
	movq	288(%rsp), %r14
	leaq	(%r14,%r12), %r10
	movq	264(%rsp), %r14
	addq	%rdx, %r10
	cmpq	%r10, %rdx
	setge	%r10b
	leaq	(%rdx,%r14), %r11
	cmpq	%r11, %rax
	setge	%al
	orb	%al, %r10b
	je	.L1496
	cmpb	$0, 392(%rsp)
	je	.L1496
	cmpl	$119, 400(%rsp)
	jbe	.L1699
	movl	384(%rsp), %r14d
	movd	%ecx, %xmm10
	movq	%r9, %rax
	xorl	%r11d, %r11d
	punpcklbw	%xmm10, %xmm10
	xorl	%r10d, %r10d
	punpcklwd	%xmm10, %xmm10
	pshufd	$0, %xmm10, %xmm10
	movdqa	%xmm10, %xmm14
	punpcklbw	%xmm10, %xmm14
	punpckhbw	%xmm10, %xmm10
	.p2align 4,,10
.L1498:
	movdqu	(%r8,%r11), %xmm3
	pxor	%xmm5, %xmm5
	addl	$1, %r10d
	subq	$-128, %rax
	addq	$16, %r11
	movdqa	%xmm3, %xmm0
	movdqa	%xmm3, %xmm12
	pand	%xmm15, %xmm3
	punpcklbw	%xmm5, %xmm0
	punpckhbw	%xmm5, %xmm12
	movdqa	%xmm0, %xmm2
	movdqa	%xmm12, %xmm1
	psrlw	$7, %xmm2
	movdqa	%xmm0, %xmm4
	movdqa	%xmm12, %xmm5
	psrlw	$7, %xmm1
	pand	%xmm6, %xmm2
	movdqa	%xmm0, %xmm8
	movdqa	%xmm12, %xmm9
	pand	%xmm6, %xmm1
	packuswb	%xmm1, %xmm2
	movdqa	%xmm2, %xmm1
	psrlw	$6, %xmm4
	punpcklbw	%xmm2, %xmm1
	punpckhbw	%xmm2, %xmm2
	pmullw	%xmm14, %xmm1
	pand	%xmm6, %xmm4
	pmullw	%xmm10, %xmm2
	movdqa	%xmm0, %xmm13
	psrlw	$5, %xmm5
	pand	%xmm6, %xmm1
	pand	%xmm6, %xmm5
	psrlw	$4, %xmm8
	pand	%xmm6, %xmm2
	packuswb	%xmm2, %xmm1
	movdqa	%xmm12, %xmm2
	pand	%xmm6, %xmm8
	psrlw	$6, %xmm2
	pand	%xmm6, %xmm2
	packuswb	%xmm2, %xmm4
	pand	%xmm15, %xmm4
	movdqa	%xmm4, %xmm2
	punpcklbw	%xmm4, %xmm2
	punpckhbw	%xmm4, %xmm4
	pmullw	%xmm14, %xmm2
	pmullw	%xmm10, %xmm4
	psrlw	$3, %xmm9
	pand	%xmm6, %xmm2
	pand	%xmm6, %xmm9
	psrlw	$2, %xmm13
	pand	%xmm6, %xmm4
	packuswb	%xmm4, %xmm2
	movdqa	%xmm0, %xmm4
	pand	%xmm6, %xmm13
	psrlw	$5, %xmm4
	pand	%xmm6, %xmm4
	packuswb	%xmm5, %xmm4
	pand	%xmm15, %xmm4
	movdqa	%xmm4, %xmm5
	punpcklbw	%xmm4, %xmm5
	punpckhbw	%xmm4, %xmm4
	pmullw	%xmm14, %xmm5
	pmullw	%xmm10, %xmm4
	pand	%xmm6, %xmm5
	pand	%xmm6, %xmm4
	packuswb	%xmm4, %xmm5
	movdqa	%xmm12, %xmm4
	psrlw	$4, %xmm4
	pand	%xmm6, %xmm4
	packuswb	%xmm4, %xmm8
	pand	%xmm15, %xmm8
	movdqa	%xmm8, %xmm4
	punpcklbw	%xmm8, %xmm4
	punpckhbw	%xmm8, %xmm8
	pmullw	%xmm14, %xmm4
	pmullw	%xmm10, %xmm8
	pand	%xmm6, %xmm4
	pand	%xmm6, %xmm8
	packuswb	%xmm8, %xmm4
	movdqa	%xmm0, %xmm8
	psrlw	$1, %xmm0
	psrlw	$3, %xmm8
	pand	%xmm6, %xmm0
	pand	%xmm6, %xmm8
	packuswb	%xmm9, %xmm8
	pand	%xmm15, %xmm8
	movdqa	%xmm8, %xmm9
	punpcklbw	%xmm8, %xmm9
	punpckhbw	%xmm8, %xmm8
	pmullw	%xmm14, %xmm9
	pmullw	%xmm10, %xmm8
	pand	%xmm6, %xmm9
	pand	%xmm6, %xmm8
	packuswb	%xmm8, %xmm9
	movdqa	%xmm12, %xmm8
	psrlw	$1, %xmm12
	psrlw	$2, %xmm8
	pand	%xmm6, %xmm12
	packuswb	%xmm12, %xmm0
	pand	%xmm15, %xmm0
	pand	%xmm6, %xmm8
	movdqa	%xmm0, %xmm12
	packuswb	%xmm8, %xmm13
	pand	%xmm15, %xmm13
	movdqa	%xmm13, %xmm8
	punpcklbw	%xmm0, %xmm12
	pmullw	%xmm14, %xmm12
	punpckhbw	%xmm0, %xmm0
	punpcklbw	%xmm13, %xmm8
	punpckhbw	%xmm13, %xmm13
	pmullw	%xmm14, %xmm8
	pmullw	%xmm10, %xmm13
	pand	%xmm6, %xmm12
	pmullw	%xmm10, %xmm0
	pand	%xmm6, %xmm8
	pand	%xmm6, %xmm13
	packuswb	%xmm13, %xmm8
	movdqa	%xmm12, %xmm13
	movdqa	%xmm3, %xmm12
	punpcklbw	%xmm3, %xmm12
	pmullw	%xmm14, %xmm12
	punpckhbw	%xmm3, %xmm3
	pand	%xmm6, %xmm0
	pmullw	%xmm10, %xmm3
	packuswb	%xmm0, %xmm13
	movdqa	%xmm13, %xmm0
	pand	%xmm6, %xmm12
	movdqa	%xmm12, %xmm13
	movdqa	%xmm1, %xmm12
	punpckhbw	%xmm9, %xmm1
	punpcklbw	%xmm9, %xmm12
	movdqa	%xmm2, %xmm9
	pand	%xmm6, %xmm3
	punpckhbw	%xmm8, %xmm2
	punpcklbw	%xmm8, %xmm9
	packuswb	%xmm3, %xmm13
	movdqa	%xmm5, %xmm8
	movdqa	%xmm13, %xmm3
	movdqa	%xmm4, %xmm13
	punpcklbw	%xmm0, %xmm8
	punpckhbw	%xmm0, %xmm5
	punpckhbw	%xmm3, %xmm4
	punpcklbw	%xmm3, %xmm13
	movdqa	%xmm12, %xmm0
	movdqa	%xmm1, %xmm3
	punpckhbw	%xmm8, %xmm12
	punpcklbw	%xmm8, %xmm0
	punpcklbw	%xmm5, %xmm3
	punpckhbw	%xmm5, %xmm1
	movdqa	%xmm2, %xmm8
	movdqa	%xmm9, %xmm5
	punpcklbw	%xmm4, %xmm8
	punpckhbw	%xmm4, %xmm2
	movdqa	%xmm0, %xmm4
	punpcklbw	%xmm13, %xmm5
	punpckhbw	%xmm5, %xmm0
	movups	%xmm0, -112(%rax)
	movdqa	%xmm12, %xmm0
	punpckhbw	%xmm13, %xmm9
	punpcklbw	%xmm9, %xmm0
	movups	%xmm0, -96(%rax)
	movdqa	%xmm3, %xmm0
	punpcklbw	%xmm8, %xmm0
	movups	%xmm0, -64(%rax)
	movdqa	%xmm1, %xmm0
	punpcklbw	%xmm5, %xmm4
	punpckhbw	%xmm9, %xmm12
	movups	%xmm4, -128(%rax)
	punpcklbw	%xmm2, %xmm0
	punpckhbw	%xmm2, %xmm1
	movups	%xmm12, -80(%rax)
	punpckhbw	%xmm8, %xmm3
	movups	%xmm0, -32(%rax)
	movups	%xmm3, -48(%rax)
	movups	%xmm1, -16(%rax)
	cmpl	%r10d, %r14d
	ja	.L1498
	movq	368(%rsp), %rax
	movl	424(%rsp), %r14d
	cmpl	%r14d, 380(%rsp)
	movl	444(%rsp), %r15d
	leaq	(%r8,%rax), %r10
	movq	360(%rsp), %rax
	leaq	(%r9,%rax), %r11
	je	.L1925
	.p2align 4,,10
.L1500:
	movzbl	(%r10), %r14d
	subl	$8, %r15d
	addq	$8, %r11
	addq	$1, %r10
	sarl	$7, %r14d
	movl	%r14d, %eax
	imull	%ecx, %eax
	movb	%al, -8(%r11)
	movzbl	-1(%r10), %eax
	sarl	$6, %eax
	andl	$1, %eax
	imull	%ecx, %eax
	movb	%al, -7(%r11)
	movzbl	-1(%r10), %eax
	sarl	$5, %eax
	andl	$1, %eax
	imull	%ecx, %eax
	movb	%al, -6(%r11)
	movzbl	-1(%r10), %eax
	sarl	$4, %eax
	andl	$1, %eax
	imull	%ecx, %eax
	movb	%al, -5(%r11)
	movzbl	-1(%r10), %eax
	sarl	$3, %eax
	andl	$1, %eax
	imull	%ecx, %eax
	movb	%al, -4(%r11)
	movzbl	-1(%r10), %eax
	sarl	$2, %eax
	andl	$1, %eax
	imull	%ecx, %eax
	movb	%al, -3(%r11)
	movzbl	-1(%r10), %eax
	sarl	%eax
	andl	$1, %eax
	imull	%ecx, %eax
	movb	%al, -2(%r11)
	movzbl	-1(%r10), %eax
	andl	$1, %eax
	imull	%ecx, %eax
	cmpl	$7, %r15d
	movb	%al, -1(%r11)
	jg	.L1500
.L1925:
	movq	176(%rsp), %rax
	leaq	(%r8,%rax), %r14
.L1501:
	addq	336(%rsp), %r9
	movq	%r14, %r8
	movl	348(%rsp), %r11d
.L1495:
	testl	%r11d, %r11d
	jle	.L1484
	movzbl	(%r8), %r10d
	sarl	$7, %r10d
	movl	%r10d, %eax
	imull	%ecx, %eax
	cmpl	$1, %r11d
	movb	%al, (%r9)
	je	.L1484
	movzbl	(%r8), %eax
	sarl	$6, %eax
	andl	$1, %eax
	imull	%ecx, %eax
	cmpl	$2, %r11d
	movb	%al, 1(%r9)
	je	.L1484
	movzbl	(%r8), %eax
	sarl	$5, %eax
	andl	$1, %eax
	imull	%ecx, %eax
	cmpl	$3, %r11d
	movb	%al, 2(%r9)
	je	.L1484
	movzbl	(%r8), %eax
	sarl	$4, %eax
	andl	$1, %eax
	imull	%ecx, %eax
	cmpl	$4, %r11d
	movb	%al, 3(%r9)
	je	.L1484
	movzbl	(%r8), %eax
	sarl	$3, %eax
	andl	$1, %eax
	imull	%ecx, %eax
	cmpl	$5, %r11d
	movb	%al, 4(%r9)
	je	.L1484
	movzbl	(%r8), %eax
	sarl	$2, %eax
	andl	$1, %eax
	imull	%ecx, %eax
	cmpl	$7, %r11d
	movb	%al, 5(%r9)
	jne	.L1484
	movzbl	(%r8), %eax
	sarl	%eax
	andl	$1, %eax
	imull	%ecx, %eax
	movb	%al, 6(%r9)
	jmp	.L1484
.L1626:
	movl	$1, %eax
	.p2align 4,,10
.L1415:
	movl	%r12d, %r15d
	movl	%edx, %r10d
	xorl	%r8d, %r8d
	leaq	(%rcx,%r10), %rdi
	subl	%edx, %r15d
	xorl	%edx, %edx
	leaq	(%rsi,%r10), %r11
	movl	%r15d, %ebp
	addq	%r9, %r10
	shrl	$4, %ebp
	.p2align 4,,10
.L1417:
	movdqu	(%r11,%rdx), %xmm0
	paddb	(%rdi,%rdx), %xmm0
	addl	$1, %r8d
	movups	%xmm0, (%r10,%rdx)
	addq	$16, %rdx
	cmpl	%r8d, %ebp
	ja	.L1417
	movl	%r15d, %edx
	andl	$-16, %edx
	addl	%edx, %eax
	cmpl	%edx, %r15d
	je	.L1412
.L1414:
	cltq
	.p2align 4,,10
.L1419:
	movzbl	(%rsi,%rax), %edx
	addb	(%rcx,%rax), %dl
	movb	%dl, (%r9,%rax)
	addq	$1, %rax
	cmpl	%eax, %r12d
	jg	.L1419
	jmp	.L1412
.L1594:
	movl	$1, %eax
	.p2align 4,,10
.L1392:
	movl	%r12d, %r14d
	movl	%edx, %r9d
	xorl	%r8d, %r8d
	leaq	(%rcx,%r9), %r10
	subl	%edx, %r14d
	addq	%rbx, %r9
	movl	%r14d, %r11d
	xorl	%edx, %edx
	shrl	$4, %r11d
	.p2align 4,,10
.L1394:
	movdqa	(%r10,%rdx), %xmm0
	addl	$1, %r8d
	movups	%xmm0, (%r9,%rdx)
	addq	$16, %rdx
	cmpl	%r8d, %r11d
	ja	.L1394
	movl	%r14d, %edx
	andl	$-16, %edx
	addl	%edx, %eax
	cmpl	%edx, %r14d
	je	.L1389
.L1391:
	cltq
	.p2align 4,,10
.L1396:
	movzbl	(%rcx,%rax), %edx
	movb	%dl, (%rbx,%rax)
	addq	$1, %rax
	cmpl	%eax, %r12d
	jg	.L1396
	jmp	.L1389
.L1663:
	movl	$1, %eax
	jmp	.L1452
.L1610:
	movl	160(%rsp), %eax
	jmp	.L1404
.L1679:
	movl	$1, %eax
	jmp	.L1463
.L1656:
	xorl	%edx, %edx
	jmp	.L1436
.L1643:
	movl	$2, 96(%rsp)
	jmp	.L1426
.L1611:
	movl	$2, %eax
	jmp	.L1404
.L1680:
	movl	$2, %eax
	jmp	.L1463
.L1595:
	movl	$2, %eax
	jmp	.L1392
.L1627:
	movl	112(%rsp), %eax
	jmp	.L1415
.L1664:
	movl	$2, %eax
	jmp	.L1452
.L1677:
	xorl	%eax, %eax
	jmp	.L1462
.L1640:
	xorl	%r8d, %r8d
	jmp	.L1425
.L1661:
	xorl	%eax, %eax
	jmp	.L1451
.L1608:
	xorl	%eax, %eax
	jmp	.L1403
.L1624:
	xorl	%eax, %eax
	jmp	.L1414
.L1592:
	movl	64(%rsp), %eax
	jmp	.L1391
.L1596:
	movl	$3, %eax
	jmp	.L1392
.L1628:
	movl	$3, %eax
	jmp	.L1415
.L1644:
	movl	176(%rsp), %edi
	movl	%edi, 96(%rsp)
	jmp	.L1426
.L1937:
	movq	696(%rsp), %rax
	movq	(%rax), %rcx
	movl	728(%rsp), %eax
	imull	736(%rsp), %eax
	imull	720(%rsp), %eax
	testl	%eax, %eax
	je	.L1278
	subl	$1, %eax
	leaq	2(%rcx,%rax,2), %r8
	.p2align 4,,10
.L1509:
	movzbl	(%rcx), %eax
	addq	$2, %rcx
	sall	$8, %eax
	movl	%eax, %edx
	movzbl	-1(%rcx), %eax
	orl	%edx, %eax
	movw	%ax, -2(%rcx)
	cmpq	%r8, %rcx
	jne	.L1509
	jmp	.L1278
.L1607:
	movl	$14, %eax
	jmp	.L1392
.L1639:
	movl	$14, %eax
	jmp	.L1415
.L1655:
	movl	$14, 96(%rsp)
	jmp	.L1426
.L1531:
	movl	$4, %r15d
	jmp	.L1326
.L1582:
	movl	$4, %r15d
	jmp	.L1370
.L1546:
	movl	$4, %r15d
	jmp	.L1336
.L1567:
	movl	$4, %r15d
	jmp	.L1360
.L1516:
	movl	$4, %r15d
	jmp	.L1315
.L1699:
	movq	%r9, %r11
	movq	%r8, %r10
	movl	376(%rsp), %r15d
	jmp	.L1500
.L1645:
	movl	$4, 96(%rsp)
	jmp	.L1426
.L1629:
	movl	$4, %eax
	jmp	.L1415
.L1597:
	movl	$4, %eax
	jmp	.L1392
.L1657:
	xorl	%r9d, %r9d
	jmp	.L1437
.L1646:
	movl	$5, 96(%rsp)
	jmp	.L1426
.L1667:
	movl	144(%rsp), %eax
	jmp	.L1452
.L1630:
	movl	$5, %eax
	jmp	.L1415
.L1598:
	movl	$5, %eax
	jmp	.L1392
.L1599:
	movl	$6, %eax
	jmp	.L1392
.L1625:
	xorl	%eax, %eax
	jmp	.L1415
.L1593:
	movl	64(%rsp), %eax
	jmp	.L1392
.L1631:
	movl	$6, %eax
	jmp	.L1415
.L1662:
	xorl	%eax, %eax
	jmp	.L1452
.L1609:
	xorl	%eax, %eax
	jmp	.L1404
.L1641:
	movl	$0, 96(%rsp)
	jmp	.L1426
.L1647:
	movl	$6, 96(%rsp)
	jmp	.L1426
.L1684:
	movl	160(%rsp), %eax
	jmp	.L1463
.L1678:
	xorl	%eax, %eax
	jmp	.L1463
.L1648:
	movl	$7, 96(%rsp)
	jmp	.L1426
.L1600:
	movl	$7, %eax
	jmp	.L1392
.L1632:
	movl	$7, %eax
	jmp	.L1415
.L1334:
	movq	704(%rsp), %r9
	leal	-1(%r14), %r8d
	xorl	%ecx, %ecx
	addq	$1, %r8
	.p2align 4,,10
.L1343:
	movzbl	(%rsi,%rcx), %eax
	movzbl	(%rdi,%rcx), %edx
	addl	%edx, %eax
	sarl	%eax
	addb	(%r9,%rcx), %al
	movb	%al, (%rbx,%rcx)
	addq	$1, %rcx
	cmpq	%rcx, %r8
	jne	.L1343
	jmp	.L1303
.L1358:
	movq	704(%rsp), %r8
	leal	-1(%r14), %ecx
	xorl	%eax, %eax
	addq	$1, %rcx
	.p2align 4,,10
.L1367:
	movzbl	(%rsi,%rax), %edx
	sarl	%edx
	addb	(%r8,%rax), %dl
	movb	%dl, (%rbx,%rax)
	addq	$1, %rax
	cmpq	%rax, %rcx
	jne	.L1367
	jmp	.L1303
.L1368:
	movq	704(%rsp), %r9
	leal	-1(%r14), %ecx
	xorl	%eax, %eax
	addq	$1, %rcx
	.p2align 4,,10
.L1377:
	movzbl	(%r8,%rax), %edx
	addb	(%r9,%rax), %dl
	movb	%dl, (%rbx,%rax)
	addq	$1, %rax
	cmpq	%rax, %rcx
	jne	.L1377
	jmp	.L1303
.L1313:
	movq	704(%rsp), %r8
	leal	-1(%r14), %ecx
	xorl	%eax, %eax
	addq	$1, %rcx
	.p2align 4,,10
.L1323:
	movzbl	(%r8,%rax), %edx
	addb	(%rsi,%rax), %dl
	movb	%dl, (%rbx,%rax)
	addq	$1, %rax
	cmpq	%rax, %rcx
	jne	.L1323
	jmp	.L1303
.L1344:
	movl	%r12d, 32(%rsp)
	movq	304(%rsp), %rbp
	leal	-1(%r14), %eax
	xorl	%r10d, %r10d
	movq	704(%rsp), %r12
	leaq	1(%rax), %r13
	.p2align 4,,10
.L1357:
	movzbl	(%rsi,%r10), %r11d
	movzbl	0(%rbp,%r10), %r8d
	movzbl	(%r15,%r10), %edi
	movzbl	(%r12,%r10), %r9d
	leal	(%r11,%r8), %eax
	subl	%edi, %eax
	movl	%eax, %ecx
	subl	%r11d, %ecx
	movl	%ecx, %edx
	sarl	$31, %edx
	xorl	%edx, %ecx
	subl	%edx, %ecx
	movl	%eax, %edx
	subl	%r8d, %eax
	subl	%edi, %edx
	movl	%edx, %r14d
	sarl	$31, %r14d
	xorl	%r14d, %edx
	subl	%r14d, %edx
	movl	%eax, %r14d
	sarl	$31, %r14d
	xorl	%r14d, %eax
	subl	%r14d, %eax
	cmpl	%edx, %ecx
	movl	%edx, %r14d
	cmovle	%ecx, %r14d
	cmpl	%r14d, %eax
	jle	.L1356
	cmpl	%edx, %ecx
	cmovg	%edi, %r11d
	movl	%r11d, %r8d
.L1356:
	addl	%r9d, %r8d
	movb	%r8b, (%rbx,%r10)
	addq	$1, %r10
	cmpq	%r13, %r10
	jne	.L1357
	jmp	.L1920
.L1324:
	movq	704(%rsp), %r8
	leal	-1(%r14), %ecx
	xorl	%eax, %eax
	addq	$1, %rcx
	.p2align 4,,10
.L1333:
	movzbl	(%r8,%rax), %edx
	addb	(%rsi,%rax), %dl
	movb	%dl, (%rbx,%rax)
	addq	$1, %rax
	cmpq	%rax, %rcx
	jne	.L1333
	jmp	.L1303
.L1649:
	movl	$8, 96(%rsp)
	jmp	.L1426
.L1931:
	leaq	_ZL16first_row_filter(%rip), %rax
	movl	$1, %r12d
	movzbl	(%rax,%r15), %r15d
	jmp	.L1284
.L1934:
	leaq	_ZL16first_row_filter(%rip), %rax
	movzbl	(%rax,%r15), %r15d
	jmp	.L1285
.L1601:
	movl	$8, %eax
	jmp	.L1392
.L1633:
	movl	$8, %eax
	jmp	.L1415
.L1477:
	movq	32(%rsp), %rax
	movq	%r9, %r11
	leaq	(%r8,%rax), %r14
	.p2align 4,,10
.L1482:
	movzbl	(%r8), %r10d
	addq	$1, %r8
	addq	$2, %r11
	sarl	$4, %r10d
	movl	%r10d, %eax
	imull	%ecx, %eax
	movb	%al, -2(%r11)
	movzbl	-1(%r8), %eax
	andl	$15, %eax
	imull	%ecx, %eax
	cmpq	%r8, %r14
	movb	%al, -1(%r11)
	jne	.L1482
	jmp	.L1481
.L1634:
	movl	$9, %eax
	jmp	.L1415
.L1602:
	movl	$9, %eax
	jmp	.L1392
.L1650:
	movl	$9, 96(%rsp)
	jmp	.L1426
.L1694:
	movl	376(%rsp), %eax
	jmp	.L1476
.L1635:
	movl	$10, %eax
	jmp	.L1415
.L1603:
	movl	$10, %eax
	jmp	.L1392
.L1651:
	movl	$10, 96(%rsp)
	jmp	.L1426
.L1487:
	movq	112(%rsp), %rax
	movq	%r9, %r10
	leaq	(%r8,%rax), %r11
.L1493:
	movzbl	(%r8), %r14d
	addq	$1, %r8
	addq	$4, %r10
	sarl	$6, %r14d
	movl	%r14d, %eax
	imull	%ecx, %eax
	movb	%al, -4(%r10)
	movzbl	-1(%r8), %eax
	sarl	$4, %eax
	andl	$3, %eax
	imull	%ecx, %eax
	movb	%al, -3(%r10)
	movzbl	-1(%r8), %eax
	sarl	$2, %eax
	andl	$3, %eax
	imull	%ecx, %eax
	movb	%al, -2(%r10)
	movzbl	-1(%r8), %eax
	andl	$3, %eax
	imull	%ecx, %eax
	cmpq	%r8, %r11
	movb	%al, -1(%r10)
	jne	.L1493
	jmp	.L1492
.L1696:
	movl	376(%rsp), %r11d
	jmp	.L1486
.L1652:
	movl	$11, 96(%rsp)
	jmp	.L1426
.L1636:
	movl	$11, %eax
	jmp	.L1415
.L1604:
	movl	$11, %eax
	jmp	.L1392
.L1564:
	movl	$1, %r15d
	jmp	.L1360
.L1637:
	movl	$12, %eax
	jmp	.L1415
.L1605:
	movl	$12, %eax
	jmp	.L1392
.L1653:
	movl	$12, 96(%rsp)
	jmp	.L1426
.L1557:
	xorl	%edx, %edx
	jmp	.L1345
.L1529:
	movl	$1, %r15d
	jmp	.L1326
.L1544:
	movl	$1, %r15d
	jmp	.L1336
.L1496:
	movq	176(%rsp), %rax
	movq	%r9, %r10
	leaq	(%r8,%rax), %r14
.L1502:
	movzbl	(%r8), %r11d
	addq	$1, %r8
	addq	$8, %r10
	sarl	$7, %r11d
	movl	%r11d, %eax
	imull	%ecx, %eax
	movb	%al, -8(%r10)
	movzbl	-1(%r8), %eax
	sarl	$6, %eax
	andl	$1, %eax
	imull	%ecx, %eax
	movb	%al, -7(%r10)
	movzbl	-1(%r8), %eax
	sarl	$5, %eax
	andl	$1, %eax
	imull	%ecx, %eax
	movb	%al, -6(%r10)
	movzbl	-1(%r8), %eax
	sarl	$4, %eax
	andl	$1, %eax
	imull	%ecx, %eax
	movb	%al, -5(%r10)
	movzbl	-1(%r8), %eax
	sarl	$3, %eax
	andl	$1, %eax
	imull	%ecx, %eax
	movb	%al, -4(%r10)
	movzbl	-1(%r8), %eax
	sarl	$2, %eax
	andl	$1, %eax
	imull	%ecx, %eax
	movb	%al, -3(%r10)
	movzbl	-1(%r8), %eax
	sarl	%eax
	andl	$1, %eax
	imull	%ecx, %eax
	movb	%al, -2(%r10)
	movzbl	-1(%r8), %eax
	andl	$1, %eax
	imull	%ecx, %eax
	cmpq	%r8, %r14
	movb	%al, -1(%r10)
	jne	.L1502
	jmp	.L1501
.L1579:
	movl	$1, %r15d
	jmp	.L1370
.L1580:
	movl	$2, %r15d
	jmp	.L1370
.L1545:
	movl	$2, %r15d
	jmp	.L1336
.L1698:
	movl	376(%rsp), %r11d
	jmp	.L1495
.L1514:
	movl	$2, %r15d
	jmp	.L1315
.L1565:
	movl	$2, %r15d
	jmp	.L1360
.L1581:
	movl	$3, %r15d
	jmp	.L1370
.L1515:
	movl	$3, %r15d
	jmp	.L1315
.L1566:
	movl	$3, %r15d
	jmp	.L1360
.L1606:
	movl	$13, %eax
	jmp	.L1392
.L1638:
	movl	$13, %eax
	jmp	.L1415
.L1577:
	xorl	%r15d, %r15d
	jmp	.L1369
.L1562:
	xorl	%r15d, %r15d
	jmp	.L1359
.L1527:
	xorl	%r15d, %r15d
	jmp	.L1325
.L1654:
	movl	$13, 96(%rsp)
	jmp	.L1426
.L1512:
	xorl	%r15d, %r15d
	jmp	.L1314
.L1530:
	movl	$3, %r15d
	jmp	.L1326
.L1542:
	xorl	%ecx, %ecx
	jmp	.L1335
.L1558:
	xorl	%r10d, %r10d
	jmp	.L1346
.L1695:
	movq	%r9, %r10
	movq	%r8, %r11
	movl	376(%rsp), %r15d
	jmp	.L1478
.L1548:
	movl	$6, %r15d
	jmp	.L1336
.L1547:
	movl	$5, %r15d
	jmp	.L1336
.L1533:
	movl	$6, %r15d
	jmp	.L1326
.L1532:
	movl	$5, %r15d
	jmp	.L1326
.L1578:
	xorl	%r15d, %r15d
	jmp	.L1370
.L1528:
	xorl	%r15d, %r15d
	jmp	.L1326
.L1583:
	movl	$5, %r15d
	jmp	.L1370
.L1543:
	xorl	%r15d, %r15d
	jmp	.L1336
.L1563:
	xorl	%r15d, %r15d
	jmp	.L1360
.L1513:
	xorl	%r15d, %r15d
	jmp	.L1315
.L1697:
	movq	%r9, %r11
	movq	%r8, %r10
	movl	376(%rsp), %r15d
	jmp	.L1491
.L1568:
	movl	$6, %r15d
	jmp	.L1360
.L1518:
	movl	$6, %r15d
	jmp	.L1315
.L1517:
	movl	$5, %r15d
	jmp	.L1315
.L1569:
	movl	$7, %r15d
	jmp	.L1360
.L1570:
	movl	$8, %r15d
	jmp	.L1360
.L1535:
	movl	$8, %r15d
	jmp	.L1326
.L1534:
	movl	$7, %r15d
	jmp	.L1326
.L1520:
	movl	$8, %r15d
	jmp	.L1315
.L1519:
	movl	$7, %r15d
	jmp	.L1315
.L1585:
	movl	$8, %r15d
	jmp	.L1370
.L1584:
	movl	$7, %r15d
	jmp	.L1370
.L1550:
	movl	$8, %r15d
	jmp	.L1336
.L1549:
	movl	$7, %r15d
	jmp	.L1336
.L1553:
	movl	$11, %r15d
	jmp	.L1336
.L1552:
	movl	$10, %r15d
	jmp	.L1336
.L1551:
	movl	$9, %r15d
	jmp	.L1336
.L1538:
	movl	$11, %r15d
	jmp	.L1326
.L1537:
	movl	$10, %r15d
	jmp	.L1326
.L1536:
	movl	$9, %r15d
	jmp	.L1326
